; Listing generated by Microsoft (R) Optimizing Compiler Version 19.34.31937.0 

include listing.inc

INCLUDELIB LIBCMTD
INCLUDELIB OLDNAMES

PUBLIC	stbi_write_tga_with_rle
PUBLIC	stbi_write_png_compression_level
PUBLIC	stbi_write_force_png_filter
PUBLIC	?fdata@@3PAUZenGlyph@@A				; fdata
PUBLIC	?static_assert_replacement@@3PADA		; static_assert_replacement
_BSS	SEGMENT
?fdata@@3PAUZenGlyph@@A DB 0e00H DUP (?)		; fdata
?static_assert_replacement@@3PADA DB 01H DUP (?)	; static_assert_replacement
_BSS	ENDS
_DATA	SEGMENT
stbi_write_tga_with_rle DD 01H
stbi_write_png_compression_level DD 08H
stbi_write_force_png_filter DD 0ffffffffH
_DATA	ENDS
CONST	SEGMENT
$SG90114 DB	'bad bits_per_channel', 00H
$SG8290	DB	00H
$SG164777 DB	00H
$SG164779 DB	00H
$SG163875 DB	'%d/%3s/%d %d:%d:%d', 00H
$SG164793 DB	00H
$SG163914 DB	'../', 00H
$SG163876 DB	'%d %3s %d %d:%d:%d', 00H
$SG91169 DB	00H
$SG163917 DB	'./', 00H
$SG164936 DB	00H
$SG163877 DB	'%*3s, %d %3s %d %d:%d:%d', 00H
$SG173422 DB	00H
$SG173425 DB	00H
$SG165397 DB	00H
$SG163920 DB	'/./', 00H
$SG163878 DB	'%d-%3s-%d %d:%d:%d', 00H
$SG165945 DB	00H
$SG163923 DB	'/.', 00H
$SG166024 DB	00H
$SG90197 DB	'W', 00H, ':', 00H, '\', 00H, 'c', 00H, 'p', 00H, 'p', 00H
	DB	'\', 00H, 'v', 00H, 'o', 00H, 'i', 00H, 'd', 00H, '\', 00H, 'v'
	DB	00H, 'e', 00H, 'n', 00H, 'd', 00H, 'o', 00H, 'r', 00H, '\', 00H
	DB	's', 00H, 't', 00H, 'b', 00H, '\', 00H, 's', 00H, 't', 00H, 'b'
	DB	00H, '_', 00H, 'i', 00H, 'm', 00H, 'a', 00H, 'g', 00H, 'e', 00H
	DB	'.', 00H, 'h', 00H, 00H, 00H
$SG166143 DB	00H
$SG166168 DB	00H
$SG163926 DB	'/../', 00H
$SG167900 DB	00H
$SG167902 DB	00H
$SG168076 DB	00H
$SG90198 DB	'v', 00H, ' ', 00H, '<', 00H, ' ', 00H, '2', 00H, '5', 00H
	DB	'6', 00H, 00H, 00H
$SG90199 DB	'W', 00H, ':', 00H, '\', 00H, 'c', 00H, 'p', 00H, 'p', 00H
	DB	'\', 00H, 'v', 00H, 'o', 00H, 'i', 00H, 'd', 00H, '\', 00H, 'v'
	DB	00H, 'e', 00H, 'n', 00H, 'd', 00H, 'o', 00H, 'r', 00H, '\', 00H
	DB	's', 00H, 't', 00H, 'b', 00H, '\', 00H, 's', 00H, 't', 00H, 'b'
	DB	00H, '_', 00H, 'i', 00H, 'm', 00H, 'a', 00H, 'g', 00H, 'e', 00H
	DB	'.', 00H, 'h', 00H, 00H, 00H
$SG168868 DB	00H
$SG169523 DB	00H
$SG90200 DB	'b', 00H, 'i', 00H, 't', 00H, 's', 00H, ' ', 00H, '>', 00H
	DB	'=', 00H, ' ', 00H, '0', 00H, ' ', 00H, '&', 00H, '&', 00H, ' '
	DB	00H, 'b', 00H, 'i', 00H, 't', 00H, 's', 00H, ' ', 00H, '<', 00H
	DB	'=', 00H, ' ', 00H, '8', 00H, 00H, 00H
$SG161641 DB	00H
$SG169884 DB	00H
$SG163931 DB	'/..', 00H
$SG163937 DB	'.', 00H
$SG169886 DB	00H
$SG169888 DB	00H
$SG163938 DB	'..', 00H
$SG169890 DB	00H
$SG8304	DB	00H, 00H
$SG169892 DB	00H
$SG169894 DB	00H
$SG163964 DB	'.bin', 00H
$SG169896 DB	00H
$SG169898 DB	00H
$SG169900 DB	00H
?builtin_mime_types@@3QBU<unnamed-type-builtin_mime_types>@@B DQ FLAT:$SG163964 ; builtin_mime_types
	DQ	0000000000000004H
	DQ	FLAT:$SG163965
	DQ	FLAT:$SG163966
	DQ	0000000000000004H
	DQ	FLAT:$SG163967
	DQ	FLAT:$SG163968
	DQ	0000000000000004H
	DQ	FLAT:$SG163969
	DQ	FLAT:$SG163970
	DQ	0000000000000004H
	DQ	FLAT:$SG163971
	DQ	FLAT:$SG163972
	DQ	0000000000000004H
	DQ	FLAT:$SG163973
	DQ	FLAT:$SG163974
	DQ	0000000000000004H
	DQ	FLAT:$SG163975
	DQ	FLAT:$SG163976
	DQ	0000000000000004H
	DQ	FLAT:$SG163977
	DQ	FLAT:$SG163978
	DQ	0000000000000004H
	DQ	FLAT:$SG163979
	DQ	FLAT:$SG163980
	DQ	0000000000000003H
	DQ	FLAT:$SG163981
	DQ	FLAT:$SG163982
	DQ	0000000000000005H
	DQ	FLAT:$SG163983
	DQ	FLAT:$SG163984
	DQ	0000000000000004H
	DQ	FLAT:$SG163985
	DQ	FLAT:$SG163986
	DQ	0000000000000004H
	DQ	FLAT:$SG163987
	DQ	FLAT:$SG163988
	DQ	0000000000000003H
	DQ	FLAT:$SG163989
	DQ	FLAT:$SG163990
	DQ	0000000000000004H
	DQ	FLAT:$SG163991
	DQ	FLAT:$SG163992
	DQ	0000000000000006H
	DQ	FLAT:$SG163993
	DQ	FLAT:$SG163994
	DQ	0000000000000004H
	DQ	FLAT:$SG163995
	DQ	FLAT:$SG163996
	DQ	0000000000000005H
	DQ	FLAT:$SG163997
	DQ	FLAT:$SG163998
	DQ	0000000000000004H
	DQ	FLAT:$SG163999
	DQ	FLAT:$SG164000
	DQ	0000000000000004H
	DQ	FLAT:$SG164001
	DQ	FLAT:$SG164002
	DQ	0000000000000004H
	DQ	FLAT:$SG164003
	DQ	FLAT:$SG164004
	DQ	0000000000000004H
	DQ	FLAT:$SG164005
	DQ	FLAT:$SG164006
	DQ	0000000000000004H
	DQ	FLAT:$SG164007
	DQ	FLAT:$SG164008
	DQ	0000000000000004H
	DQ	FLAT:$SG164009
	DQ	FLAT:$SG164010
	DQ	0000000000000005H
	DQ	FLAT:$SG164011
	DQ	FLAT:$SG164012
	DQ	0000000000000006H
	DQ	FLAT:$SG164013
	DQ	FLAT:$SG164014
	DQ	0000000000000004H
	DQ	FLAT:$SG164015
	DQ	FLAT:$SG164016
	DQ	0000000000000004H
	DQ	FLAT:$SG164017
	DQ	FLAT:$SG164018
	DQ	0000000000000004H
	DQ	FLAT:$SG164019
	DQ	FLAT:$SG164020
	DQ	0000000000000004H
	DQ	FLAT:$SG164021
	DQ	FLAT:$SG164022
	DQ	0000000000000004H
	DQ	FLAT:$SG164023
	DQ	FLAT:$SG164024
	DQ	0000000000000005H
	DQ	FLAT:$SG164025
	DQ	FLAT:$SG164026
	DQ	0000000000000004H
	DQ	FLAT:$SG164027
	DQ	FLAT:$SG164028
	DQ	0000000000000004H
	DQ	FLAT:$SG164029
	DQ	FLAT:$SG164030
	DQ	0000000000000004H
	DQ	FLAT:$SG164031
	DQ	FLAT:$SG164032
	DQ	0000000000000004H
	DQ	FLAT:$SG164033
	DQ	FLAT:$SG164034
	DQ	0000000000000004H
	DQ	FLAT:$SG164035
	DQ	FLAT:$SG164036
	DQ	0000000000000004H
	DQ	FLAT:$SG164037
	DQ	FLAT:$SG164038
	DQ	0000000000000005H
	DQ	FLAT:$SG164039
	DQ	FLAT:$SG164040
	DQ	0000000000000004H
	DQ	FLAT:$SG164041
	DQ	FLAT:$SG164042
	DQ	0000000000000004H
	DQ	FLAT:$SG164043
	DQ	FLAT:$SG164044
	DQ	0000000000000004H
	DQ	FLAT:$SG164045
	DQ	FLAT:$SG164046
	DQ	0000000000000004H
	DQ	FLAT:$SG164047
	DQ	FLAT:$SG164048
	DQ	0000000000000005H
	DQ	FLAT:$SG164049
	DQ	FLAT:$SG164050
	DQ	0000000000000004H
	DQ	FLAT:$SG164051
	DQ	FLAT:$SG164052
	DQ	0000000000000005H
	DQ	FLAT:$SG164053
	DQ	FLAT:$SG164054
	DQ	0000000000000006H
	DQ	FLAT:$SG164055
	DQ	FLAT:$SG164056
	DQ	0000000000000004H
	DQ	FLAT:$SG164057
	DQ	FLAT:$SG164058
	DQ	0000000000000004H
	DQ	FLAT:$SG164059
	DQ	FLAT:$SG164060
	DQ	0000000000000004H
	DQ	FLAT:$SG164061
	DQ	FLAT:$SG164062
	DQ	0000000000000004H
	DQ	FLAT:$SG164063
	DQ	FLAT:$SG164064
	DQ	0000000000000005H
	DQ	FLAT:$SG164065
	DQ	FLAT:$SG164066
	DQ	0000000000000004H
	DQ	FLAT:$SG164067
	DQ	FLAT:$SG164068
	DQ	0000000000000004H
	DQ	FLAT:$SG164069
	DQ	FLAT:$SG164070
	DQ	0000000000000003H
	DQ	FLAT:$SG164071
	DQ	FLAT:$SG164072
	DQ	0000000000000004H
	DQ	FLAT:$SG164073
	DQ	FLAT:$SG164074
	DQ	0000000000000003H
	DQ	FLAT:$SG164075
	DQ	FLAT:$SG164076
	DQ	0000000000000004H
	DQ	FLAT:$SG164077
	DQ	FLAT:$SG164078
	DQ	0000000000000004H
	DQ	FLAT:$SG164079
	DQ	FLAT:$SG164080
	DQ	0000000000000004H
	DQ	FLAT:$SG164081
	DQ	FLAT:$SG164082
	DQ	0000000000000004H
	DQ	FLAT:$SG164083
	DQ	FLAT:$SG164084
	DQ	0000000000000008H
	DQ	FLAT:$SG164085
	DQ	FLAT:$SG164086
	DQ	0000000000000004H
	DQ	FLAT:$SG164087
	DQ	FLAT:$SG164088
	DQ	0000000000000004H
	DQ	FLAT:$SG164089
	DQ	FLAT:$SG164090
	DQ	0000000000000004H
	DQ	FLAT:$SG164091
	DQ	FLAT:$SG164092
	DQ	0000000000000004H
	DQ	FLAT:$SG164093
	DQ	FLAT:$SG164094
	DQ	0000000000000005H
	DQ	FLAT:$SG164095
	DQ	FLAT:$SG164096
	DQ	0000000000000004H
	DQ	FLAT:$SG164097
	DQ	FLAT:$SG164098
	DQ	0000000000000004H
	DQ	FLAT:$SG164099
	DQ	FLAT:$SG164100
	DQ	0000000000000004H
	DQ	FLAT:$SG164101
	DQ	FLAT:$SG164102
	DQ	0000000000000003H
	DQ	FLAT:$SG164103
	DQ	FLAT:$SG164104
	DQ	0000000000000004H
	DQ	FLAT:$SG164105
	DQ	FLAT:$SG164106
	DQ	0000000000000004H
	DQ	FLAT:$SG164107
	DQ	FLAT:$SG164108
	DQ	0000000000000004H
	DQ	FLAT:$SG164109
	DQ	FLAT:$SG164110
	DQ	0000000000000004H
	DQ	FLAT:$SG164111
	DQ	FLAT:$SG164112
	DQ	0000000000000004H
	DQ	FLAT:$SG164113
	DQ	FLAT:$SG164114
	DQ	0000000000000005H
	DQ	FLAT:$SG164115
	DQ	FLAT:$SG164116
	DQ	0000000000000004H
	DQ	FLAT:$SG164117
	DQ	FLAT:$SG164118
	DQ	0000000000000005H
	DQ	FLAT:$SG164119
	DQ	FLAT:$SG164120
	DQ	0000000000000004H
	DQ	FLAT:$SG164121
	DQ	FLAT:$SG164122
	DQ	0000000000000004H
	DQ	FLAT:$SG164123
	DQ	FLAT:$SG164124
	DQ	0000000000000004H
	DQ	FLAT:$SG164125
	DQ	0000000000000000H
	DQ	0000000000000000H
	DQ	0000000000000000H
$SG163965 DB	'application/octet-stream', 00H
$SG161743 DB	00H
$SG169959 DB	00H
$SG169962 DB	00H
$SG163966 DB	'.deb', 00H
$SG169964 DB	00H
$SG169970 DB	00H
$SG169974 DB	00H
$SG163980 DB	'.js', 00H
$SG163967 DB	'application/octet-stream', 00H
$SG169978 DB	00H
$SG169981 DB	00H
$SG162439 DB	00H
$SG163968 DB	'.dmg', 00H
	ORG $+7
$SG163969 DB	'application/octet-stream', 00H
	ORG $+3
$SG163970 DB	'.dll', 00H
	ORG $+3
$SG163982 DB	'.json', 00H
	ORG $+2
$SG163988 DB	'.ps', 00H
$SG163971 DB	'application/octet-stream', 00H
	ORG $+3
$SG163972 DB	'.doc', 00H
	ORG $+3
$SG163992 DB	'.xhtml', 00H
	ORG $+1
$SG164070 DB	'.qt', 00H
$SG163973 DB	'application/msword', 00H
	ORG $+1
$SG163974 DB	'.eps', 00H
	ORG $+3
$SG163996 DB	'.xslt', 00H
	ORG $+2
$SG164012 DB	'.woff2', 00H
	ORG $+1
$SG164074 DB	'.gz', 00H
$SG163975 DB	'application/postscript', 00H
	ORG $+1
$SG163976 DB	'.exe', 00H
	ORG $+3
$SG163977 DB	'application/octet-stream', 00H
	ORG $+3
$SG163978 DB	'.iso', 00H
	ORG $+3
$SG164010 DB	'.woff', 00H
	ORG $+2
$SG164054 DB	'.shtml', 00H
	ORG $+1
$SG164102 DB	'.ra', 00H
$SG163979 DB	'application/octet-stream', 00H
	ORG $+3
$SG164024 DB	'.jpeg', 00H
	ORG $+2
$SG164231 DB	':', 00H
	ORG $+2
$SG163981 DB	'application/javascript', 00H
	ORG $+1
$SG163983 DB	'application/json', 00H
	ORG $+3
$SG163984 DB	'.msi', 00H
	ORG $+3
$SG164038 DB	'.tiff', 00H
	ORG $+2
$SG164232 DB	':', 00H
	ORG $+2
$SG163985 DB	'application/octet-stream', 00H
	ORG $+3
$SG163986 DB	'.pdf', 00H
	ORG $+3
$SG164048 DB	'.html', 00H
	ORG $+2
$SG164233 DB	':', 00H
	ORG $+2
$SG163987 DB	'application/pdf', 00H
$SG163989 DB	'application/postscript', 00H
	ORG $+1
$SG163990 DB	'.rtf', 00H
	ORG $+3
$SG163991 DB	'application/rtf', 00H
$SG163993 DB	'application/xhtml+xml', 00H
	ORG $+2
$SG90265 DB	'not BMP', 00H
$SG163994 DB	'.xsl', 00H
	ORG $+3
$SG163995 DB	'application/xml', 00H
$SG90267 DB	'bad BMP', 00H
$SG163997 DB	'application/xml', 00H
$SG155805 DB	'%', 00H, 's', 00H, '[', 00H, '%', 00H, 'i', 00H, ']', 00H
	DB	' ', 00H, '%', 00H, 's', 00H, '(', 00H, ')', 00H, 00H, 00H
$SG90269 DB	'unknown BMP', 00H
$SG163998 DB	'.ttf', 00H
	ORG $+3
$SG164052 DB	'.shtm', 00H
	ORG $+2
$SG164234 DB	':', 00H
	ORG $+2
$SG163999 DB	'application/font-sfnt', 00H
	ORG $+2
$SG164000 DB	'.cff', 00H
	ORG $+3
$SG164001 DB	'application/font-sfnt', 00H
	ORG $+2
$SG90273 DB	'bad BMP', 00H
$SG164002 DB	'.otf', 00H
	ORG $+3
$SG164003 DB	'application/font-sfnt', 00H
	ORG $+2
$SG164004 DB	'.aat', 00H
	ORG $+3
$SG164005 DB	'application/font-sfnt', 00H
	ORG $+2
$SG90277 DB	'BMP RLE', 00H
$SG164006 DB	'.sil', 00H
	ORG $+3
$SG164007 DB	'application/font-sfnt', 00H
	ORG $+2
$SG90279 DB	'BMP JPEG/PNG', 00H
	ORG $+3
$SG164008 DB	'.pfr', 00H
	ORG $+3
$SG164009 DB	'application/font-tdpfr', 00H
	ORG $+1
$SG90281 DB	'bad BMP', 00H
$SG164011 DB	'application/font-woff', 00H
	ORG $+2
$SG164013 DB	'application/font-woff2', 00H
	ORG $+1
$SG164014 DB	'.mp3', 00H
	ORG $+3
$SG164015 DB	'audio/mpeg', 00H
	ORG $+1
$SG164016 DB	'.oga', 00H
	ORG $+3
$SG164064 DB	'.mpeg', 00H
	ORG $+2
$SG164235 DB	':', 00H
	ORG $+2
$SG164017 DB	'audio/ogg', 00H
	ORG $+2
$SG164018 DB	'.ogg', 00H
	ORG $+3
$SG164094 DB	'.flac', 00H
	ORG $+2
$SG164236 DB	':', 00H
	ORG $+2
$SG164019 DB	'audio/ogg', 00H
	ORG $+2
$SG164020 DB	'.gif', 00H
	ORG $+3
$SG164114 DB	'.pict', 00H
	ORG $+2
$SG164318 DB	'Basic ', 00H
	ORG $+1
$SG164324 DB	' ', 00H
	ORG $+2
$SG164021 DB	'image/gif', 00H
	ORG $+2
$SG164325 DB	'=', 00H
	ORG $+2
$SG90293 DB	'bad BMP', 00H
$SG164022 DB	'.ief', 00H
	ORG $+3
$SG90294 DB	'bad BMP', 00H
$SG164023 DB	'image/ief', 00H
	ORG $+2
$SG164328 DB	' ', 00H
	ORG $+2
$SG90296 DB	'bad BMP', 00H
$SG164025 DB	'image/jpeg', 00H
	ORG $+1
$SG164026 DB	'.jpg', 00H
	ORG $+3
$SG164118 DB	'.webm', 00H
	ORG $+2
$SG164329 DB	'"', 00H
	ORG $+2
$SG164027 DB	'image/jpeg', 00H
	ORG $+1
$SG164028 DB	'.jpm', 00H
	ORG $+3
$SG164258 DB	'%s/%s', 00H
	ORG $+2
$SG164331 DB	' ', 00H
	ORG $+2
$SG164029 DB	'image/jpm', 00H
	ORG $+2
$SG164030 DB	'.jpx', 00H
	ORG $+3
$SG164332 DB	', ', 00H
	ORG $+1
$SG164031 DB	'image/jpx', 00H
	ORG $+2
$SG164032 DB	'.png', 00H
	ORG $+3
$SG164339 DB	'cnonce', 00H
	ORG $+1
$SG164345 DB	'uri', 00H
$SG164033 DB	'image/png', 00H
	ORG $+2
$SG164034 DB	'.svg', 00H
	ORG $+3
$SG164348 DB	'qop', 00H
$SG164035 DB	'image/svg+xml', 00H
	ORG $+2
$SG164036 DB	'.tif', 00H
	ORG $+3
$SG164037 DB	'image/tiff', 00H
	ORG $+1
$SG164351 DB	'nc', 00H
	ORG $+1
$SG164039 DB	'image/tiff', 00H
	ORG $+1
$SG164040 DB	'.wrl', 00H
	ORG $+3
$SG164353 DB	'nonce', 00H
	ORG $+2
$SG164436 DB	':', 00H
	ORG $+2
$SG164041 DB	'model/vrml', 00H
	ORG $+1
$SG164042 DB	'.css', 00H
	ORG $+3
$SG164437 DB	':', 00H
	ORG $+2
$SG164043 DB	'text/css', 00H
	ORG $+3
$SG164044 DB	'.csv', 00H
	ORG $+3
$SG82573 DB	'0', 00H, 00H, 00H
$SG164045 DB	'text/csv', 00H
	ORG $+3
$SG164046 DB	'.htm', 00H
	ORG $+3
$SG164503 DB	'0', 00H
	ORG $+2
$SG164047 DB	'text/html', 00H
	ORG $+2
$SG164574 DB	'r', 00H
	ORG $+2
$SG164049 DB	'text/html', 00H
	ORG $+2
$SG164050 DB	'.sgm', 00H
	ORG $+3
$SG164585 DB	'w', 00H
	ORG $+2
$SG164051 DB	'text/sgml', 00H
	ORG $+2
$SG164604 DB	':', 00H
	ORG $+2
$SG164053 DB	'text/html', 00H
	ORG $+2
$SG164605 DB	':', 00H
	ORG $+2
$SG164055 DB	'text/html', 00H
	ORG $+2
$SG164056 DB	'.txt', 00H
	ORG $+3
$SG164669 DB	'%s', 00H
	ORG $+1
$SG164057 DB	'text/plain', 00H
	ORG $+1
$SG164058 DB	'.xml', 00H
	ORG $+3
$SG164674 DB	'%s', 00H
	ORG $+1
$SG164059 DB	'text/xml', 00H
	ORG $+3
$SG164060 DB	'.mov', 00H
	ORG $+3
$SG164678 DB	'%s', 00H
	ORG $+1
$SG164061 DB	'video/quicktime', 00H
$SG164062 DB	'.mp4', 00H
	ORG $+3
$SG164063 DB	'video/mp4', 00H
	ORG $+2
$SG164683 DB	'%s', 00H
	ORG $+1
$SG164065 DB	'video/mpeg', 00H
	ORG $+1
$SG164066 DB	'.mpg', 00H
	ORG $+3
$SG164747 DB	'&<>', 00H
$SG164067 DB	'video/mpeg', 00H
	ORG $+1
$SG164068 DB	'.ogv', 00H
	ORG $+3
$SG164752 DB	'&amp;', 00H
	ORG $+2
$SG164761 DB	'%s', 00H
	ORG $+1
$SG164069 DB	'video/ogg', 00H
	ORG $+2
$SG164764 DB	'%d', 00H
	ORG $+1
$SG164071 DB	'video/quicktime', 00H
$SG164072 DB	'.arj', 00H
	ORG $+3
$SG164073 DB	'application/x-arj-compressed', 00H
	ORG $+3
$SG164075 DB	'application/x-gunzip', 00H
	ORG $+3
$SG164076 DB	'.rar', 00H
	ORG $+3
$SG164077 DB	'application/x-arj-compressed', 00H
	ORG $+3
$SG164078 DB	'.swf', 00H
	ORG $+3
$SG164079 DB	'application/x-shockwave-flash', 00H
	ORG $+2
$SG164080 DB	'.tar', 00H
	ORG $+3
$SG164081 DB	'application/x-tar', 00H
	ORG $+2
$SG164082 DB	'.tgz', 00H
	ORG $+3
$SG164767 DB	'%.1fk', 00H
	ORG $+2
$SG82850 DB	'0', 00H, 00H, 00H
$SG164083 DB	'application/x-tar-gz', 00H
	ORG $+3
$SG164084 DB	'.torrent', 00H
	ORG $+3
$SG164770 DB	'%.1fM', 00H
	ORG $+2
$SG164776 DB	'/', 00H
	ORG $+2
$SG164085 DB	'application/x-bittorrent', 00H
	ORG $+3
$SG164086 DB	'.ppt', 00H
	ORG $+3
$SG164771 DB	'%.1fG', 00H
	ORG $+2
$SG164778 DB	'/', 00H
	ORG $+2
$SG164087 DB	'application/x-mspowerpoint', 00H
	ORG $+1
$SG164088 DB	'.xls', 00H
	ORG $+3
$SG82868 DB	'0', 00H, 00H, 00H
$SG164089 DB	'application/x-msexcel', 00H
	ORG $+2
$SG164090 DB	'.zip', 00H
	ORG $+3
$SG164091 DB	'application/x-zip-compressed', 00H
	ORG $+3
$SG164092 DB	'.aac', 00H
	ORG $+3
$SG164093 DB	'audio/aac', 00H
	ORG $+2
$SG164797 DB	'n', 00H
	ORG $+2
$SG164095 DB	'audio/flac', 00H
	ORG $+1
$SG164834 DB	'.', 00H
	ORG $+2
$SG155903 DB	'N', 00H, 'O', 00H, '_', 00H, 'M', 00H, 'E', 00H, 'S', 00H
	DB	'S', 00H, 'A', 00H, 'G', 00H, 'E', 00H, 00H, 00H
	ORG $+2
$SG164096 DB	'.aif', 00H
	ORG $+3
$SG155904 DB	'TemporaryPushCounterUntilAStackIsAdded ++ < 1', 00H
	ORG $+2
$SG164097 DB	'audio/x-aif', 00H
$SG164835 DB	'..', 00H
	ORG $+1
$SG155905 DB	'ZenCorePushCurrentDir', 00H
	ORG $+2
$SG164098 DB	'.m3u', 00H
	ORG $+3
$SG155906 DB	'W:\cpp\void\detroit\brazen-core.h', 00H
	ORG $+2
$SG164862 DB	'.', 00H
	ORG $+2
$SG164099 DB	'audio/x-mpegurl', 00H
$SG155907 DB	'S', 00H, 'e', 00H, 't', 00H, 'C', 00H, 'u', 00H, 'r', 00H
	DB	'r', 00H, 'e', 00H, 'n', 00H, 't', 00H, 'D', 00H, 'i', 00H, 'r'
	DB	00H, 'e', 00H, 'c', 00H, 't', 00H, 'o', 00H, 'r', 00H, 'y', 00H
	DB	'A', 00H, '(', 00H, '%', 00H, 's', 00H, ')', 00H, 00H, 00H
	ORG $+2
$SG164100 DB	'.mid', 00H
	ORG $+3
$SG164836 DB	'%s/%s', 00H
	ORG $+2
$SG164863 DB	'..', 00H
	ORG $+1
$SG155908 DB	'ZenCorePushCurrentDir', 00H
	ORG $+2
$SG164101 DB	'audio/x-midi', 00H
	ORG $+3
$SG155909 DB	'W:\cpp\void\detroit\brazen-core.h', 00H
	ORG $+2
$SG164925 DB	'&<>', 00H
$SG164103 DB	'audio/x-pn-realaudio', 00H
	ORG $+3
$SG164104 DB	'.ram', 00H
	ORG $+3
$SG164105 DB	'audio/x-pn-realaudio', 00H
	ORG $+3
$SG164106 DB	'.wav', 00H
	ORG $+3
$SG164107 DB	'audio/x-wav', 00H
$SG164940 DB	'-', 00H
	ORG $+2
$SG155915 DB	'N', 00H, 'O', 00H, '_', 00H, 'M', 00H, 'E', 00H, 'S', 00H
	DB	'S', 00H, 'A', 00H, 'G', 00H, 'E', 00H, 00H, 00H
	ORG $+2
$SG164108 DB	'.bmp', 00H
	ORG $+3
$SG155916 DB	'TemporaryPushCounterUntilAStackIsAdded -- > 0', 00H
	ORG $+2
$SG164109 DB	'image/bmp', 00H
	ORG $+2
$SG164941 DB	'-', 00H
	ORG $+2
$SG155917 DB	'ZenCorePullCurrentDir', 00H
	ORG $+2
$SG164110 DB	'.ico', 00H
	ORG $+3
$SG155918 DB	'W:\cpp\void\detroit\brazen-core.h', 00H
	ORG $+2
$SG164943 DB	'..', 00H
	ORG $+1
$SG164111 DB	'image/x-icon', 00H
	ORG $+3
$SG155919 DB	'S', 00H, 'e', 00H, 't', 00H, 'C', 00H, 'u', 00H, 'r', 00H
	DB	'r', 00H, 'e', 00H, 'n', 00H, 't', 00H, 'D', 00H, 'i', 00H, 'r'
	DB	00H, 'e', 00H, 'c', 00H, 't', 00H, 'o', 00H, 'r', 00H, 'y', 00H
	DB	'A', 00H, '(', 00H, '%', 00H, 's', 00H, ')', 00H, 00H, 00H
	ORG $+2
$SG164112 DB	'.pct', 00H
	ORG $+3
$SG164864 DB	'%s/%s', 00H
	ORG $+2
$SG164947 DB	'%s', 00H
	ORG $+1
$SG155920 DB	'ZenCorePullCurrentDir', 00H
	ORG $+2
$SG164113 DB	'image/x-pct', 00H
$SG164978 DB	'%s', 00H
	ORG $+1
$SG155921 DB	'W:\cpp\void\detroit\brazen-core.h', 00H
	ORG $+2
$SG83083 DB	'0', 00H, 00H, 00H
$SG164115 DB	'image/pict', 00H
	ORG $+1
$SG164116 DB	'.rgb', 00H
	ORG $+3
$SG164930 DB	'&amp;', 00H
	ORG $+2
$SG165055 DB	'%s', 00H
	ORG $+1
$SG164117 DB	'image/x-rgb', 00H
$SG173320 DB	'1', 00H
	ORG $+2
$SG164119 DB	'video/webm', 00H
	ORG $+1
$SG164120 DB	'.asf', 00H
	ORG $+3
$SG165039 DB	'Range', 00H
	ORG $+2
$SG173316 DB	'100000', 00H
	ORG $+1
$SG165128 DB	'yes', 00H
$SG164121 DB	'video/x-ms-asf', 00H
	ORG $+1
$SG164122 DB	'.avi', 00H
	ORG $+3
$SG164123 DB	'video/x-msvideo', 00H
$SG164124 DB	'.m4v', 00H
	ORG $+3
$SG164125 DB	'video/x-m4v', 00H
$SG173322 DB	'1', 00H
	ORG $+2
$SG164136 DB	'text/plain', 00H
	ORG $+1
$SG165130 DB	'%s', 00H
	ORG $+1
$SG155954 DB	'ZenCoreCreateSoftTexture', 00H
	ORG $+3
$SG165042 DB	'%s.gz', 00H
	ORG $+2
$SG173318 DB	'100000', 00H
	ORG $+1
$SG165132 DB	'%s', 00H
	ORG $+1
$SG90418 DB	'too large', 00H
	ORG $+2
$SG173424 DB	'64', 00H
	ORG $+1
$SG155955 DB	'W:\cpp\void\detroit\brazen-core.h', 00H
	ORG $+2
$SG165253 DB	'GET', 00H
$SG90420 DB	'too large', 00H
	ORG $+2
$SG165255 DB	'PUT', 00H
$SG90427 DB	'bad offset', 00H
	ORG $+1
$SG91594 DB	'-Y ', 00H
$SG164161 DB	'0123456789abcdef', 00H
	ORG $+3
$SG165047 DB	'%s.gz', 00H
	ORG $+2
$SG165256 DB	'DELETE', 00H
	ORG $+1
$SG91597 DB	'+X ', 00H
$SG90433 DB	'too large', 00H
	ORG $+2
$SG165264 DB	'UNLOCK', 00H
	ORG $+1
$SG9728	DB	'%f', 00H
	ORG $+1
$SG90435 DB	'outofmem', 00H
	ORG $+3
$SG165060 DB	'%I64d', 00H
	ORG $+2
$SG165268 DB	'REPORT', 00H
	ORG $+1
$SG91652 DB	'-Y ', 00H
$SG90440 DB	'invalid', 00H
$SG155981 DB	'N', 00H, 'O', 00H, '_', 00H, 'M', 00H, 'E', 00H, 'S', 00H
	DB	'S', 00H, 'A', 00H, 'G', 00H, 'E', 00H, 00H, 00H
	ORG $+2
$SG155982 DB	'internal error', 00H
	ORG $+1
$SG155983 DB	'!"internal error"', 00H
	ORG $+2
$SG91586 DB	'#?RGBE', 00H
	ORG $+1
$SG9732	DB	'%s', 00H
	ORG $+1
$SG155984 DB	'ZenCoreSoftLoadTextureFromFile', 00H
	ORG $+1
$SG90448 DB	'bad bpp', 00H
$SG155985 DB	'W:\cpp\void\detroit\brazen-core.h', 00H
	ORG $+2
$SG165379 DB	'Expect', 00H
	ORG $+1
$SG165382 DB	'%s', 00H
	ORG $+1
$SG90469 DB	'bad masks', 00H
	ORG $+2
$SG91654 DB	'+X ', 00H
$SG90472 DB	'bad masks', 00H
	ORG $+2
$SG165390 DB	'%s', 00H
	ORG $+1
$SG156018 DB	'ZenCoreCreateNativeThread', 00H
	ORG $+2
$SG165393 DB	'%s', 00H
	ORG $+1
$SG156019 DB	'W:\cpp\void\detroit\brazen-core.h', 00H
	ORG $+2
$SG165398 DB	'%s', 00H
	ORG $+1
$SG164257 DB	'.htpasswd', 00H
	ORG $+2
$SG165443 DB	'addenv', 00H
	ORG $+1
$SG165499 DB	'%s', 00H
	ORG $+1
$SG164262 DB	'.htpasswd', 00H
	ORG $+2
$SG165445 DB	'addenv', 00H
	ORG $+1
$SG165501 DB	'%s', 00H
	ORG $+1
$SG164263 DB	'%.*s/%s', 00H
$SG172468 DB	'u', 00H, 'n', 00H, 'k', 00H, 'n', 00H, 'o', 00H, 'w', 00H
	DB	'n', 00H, ' ', 00H, 'f', 00H, 'i', 00H, 'e', 00H, 'l', 00H, 'd'
	DB	00H, ':', 00H, ' ', 00H, '%', 00H, 'i', 00H, 00H, 00H
$SG165503 DB	'%s', 00H
	ORG $+1
$SG172469 DB	'ParseResponseObservation', 00H
	ORG $+3
$SG165063 DB	'bytes', 00H
	ORG $+2
$SG165448 DB	'addenv', 00H
	ORG $+1
$SG165524 DB	'off', 00H
$SG172470 DB	'W:\cpp\void\alistar\alistar.h', 00H
	ORG $+2
$SG172491 DB	'A', 00H, 'c', 00H, 't', 00H, 'i', 00H, 'o', 00H, 'n', 00H
	DB	' ', 00H, 'R', 00H, 'e', 00H, 's', 00H, 'u', 00H, 'l', 00H, 't'
	DB	00H, ' ', 00H, '#', 00H, '%', 00H, 's', 00H, 00H, 00H
$SG165525 DB	'on', 00H
	ORG $+1
$SG172492 DB	'ParseResponseAction', 00H
$SG157350 DB	'..', 00H
	ORG $+1
$SG172493 DB	'W:\cpp\void\alistar\alistar.h', 00H
	ORG $+2
$SG164314 DB	'Authorization', 00H
	ORG $+2
$SG164323 DB	'Digest ', 00H
$SG164336 DB	'username', 00H
	ORG $+3
$SG165260 DB	'PATCH', 00H
	ORG $+2
$SG165450 DB	'addenv', 00H
	ORG $+1
$SG165563 DB	'%s', 00H
	ORG $+1
$SG164342 DB	'response', 00H
	ORG $+3
$SG165262 DB	'MKCOL', 00H
	ORG $+2
$SG157345 DB	'assets', 00H
	ORG $+1
$SG91854 DB	'rb', 00H
	ORG $+1
$SG172549 DB	'u', 00H, 'n', 00H, 'k', 00H, 'n', 00H, 'o', 00H, 'w', 00H
	DB	'n', 00H, ' ', 00H, 'r', 00H, 'e', 00H, 's', 00H, 'p', 00H, 'o'
	DB	00H, 'n', 00H, 's', 00H, 'e', 00H, ':', 00H, ' ', 00H, '%', 00H
	DB	'i', 00H, 00H, 00H
	ORG $+2
$SG91871 DB	'rb', 00H
	ORG $+1
$SG172550 DB	'ParseResponse', 00H
	ORG $+2
$SG172551 DB	'W:\cpp\void\alistar\alistar.h', 00H
	ORG $+2
$SG90660 DB	'too large', 00H
	ORG $+2
$SG165696 DB	'no', 00H
	ORG $+1
$SG90662 DB	'too large', 00H
	ORG $+2
$SG165699 DB	'%s', 00H
	ORG $+1
$SG90667 DB	'bad format', 00H
	ORG $+1
$SG165726 DB	'wb', 00H
	ORG $+1
$SG90670 DB	'too large', 00H
	ORG $+2
$SG165727 DB	'rb', 00H
	ORG $+1
$SG90672 DB	'outofmem', 00H
	ORG $+3
$SG165300 DB	'HTTP/', 00H
	ORG $+2
$SG165728 DB	'rb', 00H
	ORG $+1
$SG90677 DB	'bad palette', 00H
$SG165754 DB	'OK', 00H
	ORG $+1
$SG90679 DB	'outofmem', 00H
	ORG $+7
$SG90683 DB	't', 00H, 'g', 00H, 'a', 00H, '_', 00H, 'c', 00H, 'o', 00H
	DB	'm', 00H, 'p', 00H, ' ', 00H, '=', 00H, '=', 00H, ' ', 00H, 'S'
	DB	00H, 'T', 00H, 'B', 00H, 'I', 00H, '_', 00H, 'r', 00H, 'g', 00H
	DB	'b', 00H, 00H, 00H
	ORG $+6
$SG90685 DB	'bad palette', 00H
$SG164486 DB	'%.*s', 00H
	ORG $+7
$SG90682 DB	'W', 00H, ':', 00H, '\', 00H, 'c', 00H, 'p', 00H, 'p', 00H
	DB	'\', 00H, 'v', 00H, 'o', 00H, 'i', 00H, 'd', 00H, '\', 00H, 'v'
	DB	00H, 'e', 00H, 'n', 00H, 'd', 00H, 'o', 00H, 'r', 00H, '\', 00H
	DB	's', 00H, 't', 00H, 'b', 00H, '\', 00H, 's', 00H, 't', 00H, 'b'
	DB	00H, '_', 00H, 'i', 00H, 'm', 00H, 'a', 00H, 'g', 00H, 'e', 00H
	DB	'.', 00H, 'h', 00H, 00H, 00H
	ORG $+2
$SG164416 DB	'include=', 00H
	ORG $+3
$SG165332 DB	'HTTP/', 00H
	ORG $+2
$SG165757 DB	'Status', 00H
	ORG $+1
$SG92034 DB	'wb', 00H
	ORG $+1
$SG164420 DB	'read_auth_file', 00H
	ORG $+1
$SG164421 DB	'%s: cannot open authorization file: %s', 00H
	ORG $+1
$SG164422 DB	'read_auth_file', 00H
	ORG $+1
$SG164423 DB	'read_auth_file', 00H
	ORG $+1
$SG164424 DB	'%s: syntax error in authorization file: %s', 00H
	ORG $+1
$SG165765 DB	0dH, 0aH, 00H
	ORG $+1
$SG164425 DB	'read_auth_file', 00H
	ORG $+1
$SG90697 DB	'W', 00H, ':', 00H, '\', 00H, 'c', 00H, 'p', 00H, 'p', 00H
	DB	'\', 00H, 'v', 00H, 'o', 00H, 'i', 00H, 'd', 00H, '\', 00H, 'v'
	DB	00H, 'e', 00H, 'n', 00H, 'd', 00H, 'o', 00H, 'r', 00H, '\', 00H
	DB	's', 00H, 't', 00H, 'b', 00H, '\', 00H, 's', 00H, 't', 00H, 'b'
	DB	00H, '_', 00H, 'i', 00H, 'm', 00H, 'a', 00H, 'g', 00H, 'e', 00H
	DB	'.', 00H, 'h', 00H, 00H, 00H
	ORG $+2
$SG90698 DB	't', 00H, 'g', 00H, 'a', 00H, '_', 00H, 'c', 00H, 'o', 00H
	DB	'm', 00H, 'p', 00H, ' ', 00H, '=', 00H, '=', 00H, ' ', 00H, 'S'
	DB	00H, 'T', 00H, 'B', 00H, 'I', 00H, '_', 00H, 'r', 00H, 'g', 00H
	DB	'b', 00H, 00H, 00H
	ORG $+6
$SG164427 DB	'read_auth_file', 00H
	ORG $+1
$SG82507 DB	'!', 00H, '(', 00H, 'o', 00H, ' ', 00H, '>', 00H, ' ', 00H
	DB	'b', 00H, '-', 00H, '>', 00H, 's', 00H, 'i', 00H, 'z', 00H, 'e'
	DB	00H, ' ', 00H, '|', 00H, '|', 00H, ' ', 00H, 'o', 00H, ' ', 00H
	DB	'<', 00H, ' ', 00H, '0', 00H, ')', 00H, 00H, 00H
$SG82524 DB	'n', 00H, ' ', 00H, '>', 00H, '=', 00H, ' ', 00H, '1', 00H
	DB	' ', 00H, '&', 00H, '&', 00H, ' ', 00H, 'n', 00H, ' ', 00H, '<'
	DB	00H, '=', 00H, ' ', 00H, '4', 00H, 00H, 00H
	ORG $+6
$SG82506 DB	'W', 00H, ':', 00H, '\', 00H, 'c', 00H, 'p', 00H, 'p', 00H
	DB	'\', 00H, 'v', 00H, 'o', 00H, 'i', 00H, 'd', 00H, '\', 00H, 'v'
	DB	00H, 'e', 00H, 'n', 00H, 'd', 00H, 'o', 00H, 'r', 00H, '\', 00H
	DB	's', 00H, 't', 00H, 'b', 00H, '\', 00H, 's', 00H, 't', 00H, 'b'
	DB	00H, '_', 00H, 't', 00H, 'r', 00H, 'u', 00H, 'e', 00H, 't', 00H
	DB	'y', 00H, 'p', 00H, 'e', 00H, '.', 00H, 'h', 00H, 00H, 00H
$SG165807 DB	'0', 00H
	ORG $+2
$SG164428 DB	'%s: syntax error in authorization file: %s', 00H
	ORG $+1
$SG92100 DB	'0', 00H, 00H, 00H
$SG164429 DB	'read_auth_file', 00H
	ORG $+1
$SG164431 DB	'read_auth_file', 00H
	ORG $+1
$SG164432 DB	'%s: syntax error in authorization file: %s', 00H
	ORG $+1
$SG165853 DB	'%s', 00H
	ORG $+1
$SG164433 DB	'read_auth_file', 00H
	ORG $+1
$SG82523 DB	'W', 00H, ':', 00H, '\', 00H, 'c', 00H, 'p', 00H, 'p', 00H
	DB	'\', 00H, 'v', 00H, 'o', 00H, 'i', 00H, 'd', 00H, '\', 00H, 'v'
	DB	00H, 'e', 00H, 'n', 00H, 'd', 00H, 'o', 00H, 'r', 00H, '\', 00H
	DB	's', 00H, 't', 00H, 'b', 00H, '\', 00H, 's', 00H, 't', 00H, 'b'
	DB	00H, '_', 00H, 't', 00H, 'r', 00H, 'u', 00H, 'e', 00H, 't', 00H
	DB	'y', 00H, 'p', 00H, 'e', 00H, '.', 00H, 'h', 00H, 00H, 00H
	ORG $+4
$SG82534 DB	'W', 00H, ':', 00H, '\', 00H, 'c', 00H, 'p', 00H, 'p', 00H
	DB	'\', 00H, 'v', 00H, 'o', 00H, 'i', 00H, 'd', 00H, '\', 00H, 'v'
	DB	00H, 'e', 00H, 'n', 00H, 'd', 00H, 'o', 00H, 'r', 00H, '\', 00H
	DB	's', 00H, 't', 00H, 'b', 00H, '\', 00H, 's', 00H, 't', 00H, 'b'
	DB	00H, '_', 00H, 't', 00H, 'r', 00H, 'u', 00H, 'e', 00H, 't', 00H
	DB	'y', 00H, 'p', 00H, 'e', 00H, '.', 00H, 'h', 00H, 00H, 00H
$SG165866 DB	'%s', 00H
	ORG $+1
$SG82535 DB	's', 00H, 'i', 00H, 'z', 00H, 'e', 00H, ' ', 00H, '<', 00H
	DB	' ', 00H, '0', 00H, 'x', 00H, '4', 00H, '0', 00H, '0', 00H, '0'
	DB	00H, '0', 00H, '0', 00H, '0', 00H, '0', 00H, 00H, 00H
$SG82653 DB	'typ1', 00H
	ORG $+7
$SG82555 DB	'W', 00H, ':', 00H, '\', 00H, 'c', 00H, 'p', 00H, 'p', 00H
	DB	'\', 00H, 'v', 00H, 'o', 00H, 'i', 00H, 'd', 00H, '\', 00H, 'v'
	DB	00H, 'e', 00H, 'n', 00H, 'd', 00H, 'o', 00H, 'r', 00H, '\', 00H
	DB	's', 00H, 't', 00H, 'b', 00H, '\', 00H, 's', 00H, 't', 00H, 'b'
	DB	00H, '_', 00H, 't', 00H, 'r', 00H, 'u', 00H, 'e', 00H, 't', 00H
	DB	'y', 00H, 'p', 00H, 'e', 00H, '.', 00H, 'h', 00H, 00H, 00H
$SG165881 DB	'0', 00H
	ORG $+2
$SG82556 DB	'o', 00H, 'f', 00H, 'f', 00H, 's', 00H, 'i', 00H, 'z', 00H
	DB	'e', 00H, ' ', 00H, '>', 00H, '=', 00H, ' ', 00H, '1', 00H, ' '
	DB	00H, '&', 00H, '&', 00H, ' ', 00H, 'o', 00H, 'f', 00H, 'f', 00H
	DB	's', 00H, 'i', 00H, 'z', 00H, 'e', 00H, ' ', 00H, '<', 00H, '='
	DB	00H, ' ', 00H, '4', 00H, 00H, 00H
	ORG $+2
$SG165914 DB	'0', 00H
	ORG $+2
$SG164489 DB	'check_authorization', 00H
$SG165929 DB	'0', 00H
	ORG $+2
$SG164490 DB	'%s: cannot open %s: %s', 00H
	ORG $+1
$SG164491 DB	'check_authorization', 00H
$SG82654 DB	'typ1', 00H
	ORG $+7
$SG82572 DB	'W', 00H, ':', 00H, '\', 00H, 'c', 00H, 'p', 00H, 'p', 00H
	DB	'\', 00H, 'v', 00H, 'o', 00H, 'i', 00H, 'd', 00H, '\', 00H, 'v'
	DB	00H, 'e', 00H, 'n', 00H, 'd', 00H, 'o', 00H, 'r', 00H, '\', 00H
	DB	's', 00H, 't', 00H, 'b', 00H, '\', 00H, 's', 00H, 't', 00H, 'b'
	DB	00H, '_', 00H, 't', 00H, 'r', 00H, 'u', 00H, 'e', 00H, 't', 00H
	DB	'y', 00H, 'p', 00H, 'e', 00H, '.', 00H, 'h', 00H, 00H, 00H
$SG165946 DB	'%s', 00H
	ORG $+1
$SG172694 DB	'S', 00H, 'u', 00H, 'c', 00H, 'c', 00H, 'e', 00H, 's', 00H
	DB	's', 00H, 00H, 00H
$SG82583 DB	'W', 00H, ':', 00H, '\', 00H, 'c', 00H, 'p', 00H, 'p', 00H
	DB	'\', 00H, 'v', 00H, 'o', 00H, 'i', 00H, 'd', 00H, '\', 00H, 'v'
	DB	00H, 'e', 00H, 'n', 00H, 'd', 00H, 'o', 00H, 'r', 00H, '\', 00H
	DB	's', 00H, 't', 00H, 'b', 00H, '\', 00H, 's', 00H, 't', 00H, 'b'
	DB	00H, '_', 00H, 't', 00H, 'r', 00H, 'u', 00H, 'e', 00H, 't', 00H
	DB	'y', 00H, 'p', 00H, 'e', 00H, '.', 00H, 'h', 00H, 00H, 00H
$SG165952 DB	'0', 00H
	ORG $+2
$SG172696 DB	'N', 00H, 'o', 00H, 't', 00H, 'S', 00H, 'u', 00H, 'p', 00H
	DB	'p', 00H, 'o', 00H, 'r', 00H, 't', 00H, 'e', 00H, 'd', 00H, 00H
	DB	00H
	ORG $+2
$SG157788 DB	'zen', 00H
$SG164504 DB	'Content-Length', 00H
	ORG $+1
$SG82584 DB	'b', 00H, '0', 00H, ' ', 00H, '>', 00H, '=', 00H, ' ', 00H
	DB	'2', 00H, '8', 00H, 00H, 00H
	ORG $+2
$SG157792 DB	'ttf', 00H
$SG164505 DB	'Digest qop="auth", realm="%s", nonce="%I64u"', 00H
	ORG $+3
$SG172698 DB	'E', 00H, 'r', 00H, 'r', 00H, 'o', 00H, 'r', 00H, 00H, 00H
$SG157793 DB	'otf', 00H
$SG164507 DB	'WWW-Authenticate', 00H
	ORG $+3
$SG165570 DB	'%s=%s', 00H
	ORG $+2
$SG157796 DB	'ttf', 00H
$SG172700 DB	'C', 00H, 'a', 00H, 'n', 00H, 't', 00H, 'Q', 00H, 'u', 00H
	DB	'e', 00H, 'u', 00H, 'e', 00H, 'T', 00H, 'h', 00H, 'a', 00H, 't'
	DB	00H, 'O', 00H, 'r', 00H, 'd', 00H, 'e', 00H, 'r', 00H, 00H, 00H
	ORG $+2
$SG172702 DB	'R', 00H, 'e', 00H, 't', 00H, 'r', 00H, 'y', 00H, 00H, 00H
$SG157797 DB	'otf', 00H
$SG172704 DB	'C', 00H, 'o', 00H, 'o', 00H, 'l', 00H, 'd', 00H, 'o', 00H
	DB	'w', 00H, 'n', 00H, 00H, 00H
	ORG $+2
$SG165992 DB	'%s', 00H
	ORG $+1
$SG172706 DB	'Q', 00H, 'u', 00H, 'e', 00H, 'u', 00H, 'e', 00H, 'I', 00H
	DB	's', 00H, 'F', 00H, 'u', 00H, 'l', 00H, 'l', 00H, 00H, 00H
$SG172708 DB	'R', 00H, 'a', 00H, 'l', 00H, 'l', 00H, 'y', 00H, 'Q', 00H
	DB	'u', 00H, 'e', 00H, 'u', 00H, 'e', 00H, 'I', 00H, 's', 00H, 'F'
	DB	00H, 'u', 00H, 'l', 00H, 'l', 00H, 00H, 00H
	ORG $+2
$SG165998 DB	'%s', 00H
	ORG $+1
$SG172710 DB	'N', 00H, 'o', 00H, 't', 00H, 'E', 00H, 'n', 00H, 'o', 00H
	DB	'u', 00H, 'g', 00H, 'h', 00H, 'M', 00H, 'i', 00H, 'n', 00H, 'e'
	DB	00H, 'r', 00H, 'a', 00H, 'l', 00H, 's', 00H, 00H, 00H
$SG166001 DB	'%s', 00H
	ORG $+1
$SG172712 DB	'N', 00H, 'o', 00H, 't', 00H, 'E', 00H, 'n', 00H, 'o', 00H
	DB	'u', 00H, 'g', 00H, 'h', 00H, 'V', 00H, 'e', 00H, 's', 00H, 'p'
	DB	00H, 'e', 00H, 'n', 00H, 'e', 00H, 00H, 00H
	ORG $+2
$SG166032 DB	'r', 00H
	ORG $+2
$SG172714 DB	'N', 00H, 'o', 00H, 't', 00H, 'E', 00H, 'n', 00H, 'o', 00H
	DB	'u', 00H, 'g', 00H, 'h', 00H, 'T', 00H, 'e', 00H, 'r', 00H, 'r'
	DB	00H, 'a', 00H, 'z', 00H, 'i', 00H, 'n', 00H, 'e', 00H, 00H, 00H
	ORG $+2
$SG172716 DB	'N', 00H, 'o', 00H, 't', 00H, 'E', 00H, 'n', 00H, 'o', 00H
	DB	'u', 00H, 'g', 00H, 'h', 00H, 'C', 00H, 'u', 00H, 's', 00H, 't'
	DB	00H, 'o', 00H, 'm', 00H, 00H, 00H
$SG172718 DB	'N', 00H, 'o', 00H, 't', 00H, 'E', 00H, 'n', 00H, 'o', 00H
	DB	'u', 00H, 'g', 00H, 'h', 00H, 'F', 00H, 'o', 00H, 'o', 00H, 'd'
	DB	00H, 00H, 00H
$SG166118 DB	'1', 00H
	ORG $+2
$SG172720 DB	'F', 00H, 'o', 00H, 'o', 00H, 'd', 00H, 'U', 00H, 's', 00H
	DB	'a', 00H, 'g', 00H, 'e', 00H, 'I', 00H, 'm', 00H, 'p', 00H, 'o'
	DB	00H, 's', 00H, 's', 00H, 'i', 00H, 'b', 00H, 'l', 00H, 'e', 00H
	DB	00H, 00H
$SG172722 DB	'N', 00H, 'o', 00H, 't', 00H, 'E', 00H, 'n', 00H, 'o', 00H
	DB	'u', 00H, 'g', 00H, 'h', 00H, 'L', 00H, 'i', 00H, 'f', 00H, 'e'
	DB	00H, 00H, 00H
$SG166119 DB	'DAV', 00H
$SG172724 DB	'N', 00H, 'o', 00H, 't', 00H, 'E', 00H, 'n', 00H, 'o', 00H
	DB	'u', 00H, 'g', 00H, 'h', 00H, 'S', 00H, 'h', 00H, 'i', 00H, 'e'
	DB	00H, 'l', 00H, 'd', 00H, 's', 00H, 00H, 00H
	ORG $+2
$SG157929 DB	'zen', 00H
$SG172726 DB	'N', 00H, 'o', 00H, 't', 00H, 'E', 00H, 'n', 00H, 'o', 00H
	DB	'u', 00H, 'g', 00H, 'h', 00H, 'E', 00H, 'n', 00H, 'e', 00H, 'r'
	DB	00H, 'g', 00H, 'y', 00H, 00H, 00H
$SG172728 DB	'L', 00H, 'i', 00H, 'f', 00H, 'e', 00H, 'S', 00H, 'u', 00H
	DB	'p', 00H, 'p', 00H, 'r', 00H, 'e', 00H, 's', 00H, 's', 00H, 'e'
	DB	00H, 'd', 00H, 00H, 00H
	ORG $+2
$SG172730 DB	'S', 00H, 'h', 00H, 'i', 00H, 'e', 00H, 'l', 00H, 'd', 00H
	DB	's', 00H, 'S', 00H, 'u', 00H, 'p', 00H, 'p', 00H, 'r', 00H, 'e'
	DB	00H, 's', 00H, 's', 00H, 'e', 00H, 'd', 00H, 00H, 00H
$SG166170 DB	'yes', 00H
$SG172732 DB	'E', 00H, 'n', 00H, 'e', 00H, 'r', 00H, 'g', 00H, 'y', 00H
	DB	'S', 00H, 'u', 00H, 'p', 00H, 'p', 00H, 'r', 00H, 'e', 00H, 's'
	DB	00H, 's', 00H, 'e', 00H, 'd', 00H, 00H, 00H
	ORG $+2
$SG166172 DB	'0', 00H
	ORG $+2
$SG172734 DB	'N', 00H, 'o', 00H, 't', 00H, 'E', 00H, 'n', 00H, 'o', 00H
	DB	'u', 00H, 'g', 00H, 'h', 00H, 'C', 00H, 'h', 00H, 'a', 00H, 'r'
	DB	00H, 'g', 00H, 'e', 00H, 's', 00H, 00H, 00H
	ORG $+2
$SG166174 DB	'%s', 0aH, 00H
$SG172736 DB	'C', 00H, 'a', 00H, 'n', 00H, 't', 00H, 'A', 00H, 'd', 00H
	DB	'd', 00H, 'M', 00H, 'o', 00H, 'r', 00H, 'e', 00H, 'C', 00H, 'h'
	DB	00H, 'a', 00H, 'r', 00H, 'g', 00H, 'e', 00H, 's', 00H, 00H, 00H
	ORG $+2
$SG172738 DB	'T', 00H, 'o', 00H, 'o', 00H, 'M', 00H, 'u', 00H, 'c', 00H
	DB	'h', 00H, 'M', 00H, 'i', 00H, 'n', 00H, 'e', 00H, 'r', 00H, 'a'
	DB	00H, 'l', 00H, 's', 00H, 00H, 00H
$SG172740 DB	'T', 00H, 'o', 00H, 'o', 00H, 'M', 00H, 'u', 00H, 'c', 00H
	DB	'h', 00H, 'V', 00H, 'e', 00H, 's', 00H, 'p', 00H, 'e', 00H, 'n'
	DB	00H, 'e', 00H, 00H, 00H
	ORG $+2
$SG172742 DB	'T', 00H, 'o', 00H, 'o', 00H, 'M', 00H, 'u', 00H, 'c', 00H
	DB	'h', 00H, 'T', 00H, 'e', 00H, 'r', 00H, 'r', 00H, 'a', 00H, 'z'
	DB	00H, 'i', 00H, 'n', 00H, 'e', 00H, 00H, 00H
	ORG $+2
$SG92476 DB	'p', 00H, 00H, 00H
$SG172744 DB	'T', 00H, 'o', 00H, 'o', 00H, 'M', 00H, 'u', 00H, 'c', 00H
	DB	'h', 00H, 'C', 00H, 'u', 00H, 's', 00H, 't', 00H, 'o', 00H, 'm'
	DB	00H, 00H, 00H
$SG82655 DB	'typ1', 00H
	ORG $+7
$SG82632 DB	'W', 00H, ':', 00H, '\', 00H, 'c', 00H, 'p', 00H, 'p', 00H
	DB	'\', 00H, 'v', 00H, 'o', 00H, 'i', 00H, 'd', 00H, '\', 00H, 'v'
	DB	00H, 'e', 00H, 'n', 00H, 'd', 00H, 'o', 00H, 'r', 00H, '\', 00H
	DB	's', 00H, 't', 00H, 'b', 00H, '\', 00H, 's', 00H, 't', 00H, 'b'
	DB	00H, '_', 00H, 't', 00H, 'r', 00H, 'u', 00H, 'e', 00H, 't', 00H
	DB	'y', 00H, 'p', 00H, 'e', 00H, '.', 00H, 'h', 00H, 00H, 00H
$SG166209 DB	'%s', 00H
	ORG $+1
$SG82633 DB	'i', 00H, ' ', 00H, '>', 00H, '=', 00H, ' ', 00H, '0', 00H
	DB	' ', 00H, '&', 00H, '&', 00H, ' ', 00H, 'i', 00H, ' ', 00H, '<'
	DB	00H, ' ', 00H, 'c', 00H, 'o', 00H, 'u', 00H, 'n', 00H, 't', 00H
	DB	00H, 00H
$SG172746 DB	'T', 00H, 'o', 00H, 'o', 00H, 'M', 00H, 'u', 00H, 'c', 00H
	DB	'h', 00H, 'F', 00H, 'o', 00H, 'o', 00H, 'd', 00H, 00H, 00H
$SG82634 DB	'W', 00H, ':', 00H, '\', 00H, 'c', 00H, 'p', 00H, 'p', 00H
	DB	'\', 00H, 'v', 00H, 'o', 00H, 'i', 00H, 'd', 00H, '\', 00H, 'v'
	DB	00H, 'e', 00H, 'n', 00H, 'd', 00H, 'o', 00H, 'r', 00H, '\', 00H
	DB	's', 00H, 't', 00H, 'b', 00H, '\', 00H, 's', 00H, 't', 00H, 'b'
	DB	00H, '_', 00H, 't', 00H, 'r', 00H, 'u', 00H, 'e', 00H, 't', 00H
	DB	'y', 00H, 'p', 00H, 'e', 00H, '.', 00H, 'h', 00H, 00H, 00H
$SG166212 DB	01H, 00H
	ORG $+2
$SG82635 DB	'o', 00H, 'f', 00H, 'f', 00H, 's', 00H, 'i', 00H, 'z', 00H
	DB	'e', 00H, ' ', 00H, '>', 00H, '=', 00H, ' ', 00H, '1', 00H, ' '
	DB	00H, '&', 00H, '&', 00H, ' ', 00H, 'o', 00H, 'f', 00H, 'f', 00H
	DB	's', 00H, 'i', 00H, 'z', 00H, 'e', 00H, ' ', 00H, '<', 00H, '='
	DB	00H, ' ', 00H, '4', 00H, 00H, 00H
	ORG $+2
$SG166213 DB	01H, 00H
	ORG $+2
$SG172748 DB	'T', 00H, 'o', 00H, 'o', 00H, 'M', 00H, 'u', 00H, 'c', 00H
	DB	'h', 00H, 'L', 00H, 'i', 00H, 'f', 00H, 'e', 00H, 00H, 00H
$SG172750 DB	'T', 00H, 'o', 00H, 'o', 00H, 'M', 00H, 'u', 00H, 'c', 00H
	DB	'h', 00H, 'S', 00H, 'h', 00H, 'i', 00H, 'e', 00H, 'l', 00H, 'd'
	DB	00H, 's', 00H, 00H, 00H
	ORG $+2
$SG90831 DB	'not PSD', 00H
$SG172752 DB	'T', 00H, 'o', 00H, 'o', 00H, 'M', 00H, 'u', 00H, 'c', 00H
	DB	'h', 00H, 'E', 00H, 'n', 00H, 'e', 00H, 'r', 00H, 'g', 00H, 'y'
	DB	00H, 00H, 00H
$SG166234 DB	'%s', 00H
	ORG $+1
$SG90833 DB	'wrong version', 00H
	ORG $+2
$SG172754 DB	'M', 00H, 'u', 00H, 's', 00H, 't', 00H, 'T', 00H, 'a', 00H
	DB	'r', 00H, 'g', 00H, 'e', 00H, 't', 00H, 'U', 00H, 'n', 00H, 'i'
	DB	00H, 't', 00H, 'W', 00H, 'i', 00H, 't', 00H, 'h', 00H, 'L', 00H
	DB	'i', 00H, 'f', 00H, 'e', 00H, 00H, 00H
	ORG $+2
$SG172756 DB	'M', 00H, 'u', 00H, 's', 00H, 't', 00H, 'T', 00H, 'a', 00H
	DB	'r', 00H, 'g', 00H, 'e', 00H, 't', 00H, 'U', 00H, 'n', 00H, 'i'
	DB	00H, 't', 00H, 'W', 00H, 'i', 00H, 't', 00H, 'h', 00H, 'S', 00H
	DB	'h', 00H, 'i', 00H, 'e', 00H, 'l', 00H, 'd', 00H, 's', 00H, 00H
	DB	00H
$SG166247 DB	'%s', 0aH, 00H
$SG90836 DB	'wrong channel count', 00H
$SG166350 DB	080H, 00H
	ORG $+2
$SG172758 DB	'M', 00H, 'u', 00H, 's', 00H, 't', 00H, 'T', 00H, 'a', 00H
	DB	'r', 00H, 'g', 00H, 'e', 00H, 't', 00H, 'U', 00H, 'n', 00H, 'i'
	DB	00H, 't', 00H, 'W', 00H, 'i', 00H, 't', 00H, 'h', 00H, 'E', 00H
	DB	'n', 00H, 'e', 00H, 'r', 00H, 'g', 00H, 'y', 00H, 00H, 00H
	ORG $+2
$SG166351 DB	00H, 00H
	ORG $+2
$SG90838 DB	'too large', 00H
	ORG $+2
$SG166378 DB	0dH, 0aH, 00H
	ORG $+1
$SG172760 DB	'C', 00H, 'a', 00H, 'n', 00H, 't', 00H, 'T', 00H, 'r', 00H
	DB	'a', 00H, 'd', 00H, 'e', 00H, 00H, 00H
$SG166379 DB	'%s', 00H
	ORG $+1
$SG90840 DB	'too large', 00H
	ORG $+2
$SG166469 DB	'yes', 00H
$SG172762 DB	'C', 00H, 'a', 00H, 'n', 00H, 't', 00H, 'S', 00H, 'p', 00H
	DB	'e', 00H, 'n', 00H, 'd', 00H, 00H, 00H
$SG166482 DB	'%s', 00H
	ORG $+1
$SG90842 DB	'unsupported bit depth', 00H
	ORG $+2
$SG172764 DB	'C', 00H, 'a', 00H, 'n', 00H, 't', 00H, 'T', 00H, 'a', 00H
	DB	'r', 00H, 'g', 00H, 'e', 00H, 't', 00H, 'T', 00H, 'h', 00H, 'a'
	DB	00H, 't', 00H, 'U', 00H, 'n', 00H, 'i', 00H, 't', 00H, 00H, 00H
	ORG $+2
$SG90844 DB	'wrong color format', 00H
	ORG $+1
$SG166489 DB	'%s', 00H
	ORG $+1
$SG172766 DB	'C', 00H, 'o', 00H, 'u', 00H, 'l', 00H, 'd', 00H, 'n', 00H
	DB	't', 00H, 'A', 00H, 'l', 00H, 'l', 00H, 'o', 00H, 'c', 00H, 'a'
	DB	00H, 't', 00H, 'e', 00H, 'U', 00H, 'n', 00H, 'i', 00H, 't', 00H
	DB	00H, 00H
$SG90846 DB	'bad compression', 00H
$SG172768 DB	'U', 00H, 'n', 00H, 'i', 00H, 't', 00H, 'C', 00H, 'a', 00H
	DB	'n', 00H, 't', 00H, 'M', 00H, 'o', 00H, 'v', 00H, 'e', 00H, 00H
	DB	00H
	ORG $+2
$SG166501 DB	'%s', 00H
	ORG $+1
$SG90848 DB	'too large', 00H
	ORG $+2
$SG82656 DB	'typ1', 00H
	ORG $+3
$SG165862 DB	'%s/%s', 00H
	ORG $+2
$SG158319 DB	'.', 00H, 00H, 00H
$SG164577 DB	'%255[^:]:%255[^:]:%255s', 00H
$SG172770 DB	'T', 00H, 'r', 00H, 'a', 00H, 'n', 00H, 's', 00H, 'p', 00H
	DB	'o', 00H, 'r', 00H, 't', 00H, 'I', 00H, 's', 00H, 'H', 00H, 'o'
	DB	00H, 'l', 00H, 'd', 00H, 'i', 00H, 'n', 00H, 'g', 00H, 'P', 00H
	DB	'o', 00H, 's', 00H, 'i', 00H, 't', 00H, 'i', 00H, 'o', 00H, 'n'
	DB	00H, 00H, 00H
	ORG $+2
$SG82658 DB	'OTTO', 00H
	ORG $+3
$SG82659 DB	'OTTO', 00H
	ORG $+3
$SG172772 DB	'B', 00H, 'u', 00H, 'i', 00H, 'l', 00H, 'd', 00H, 'T', 00H
	DB	'e', 00H, 'c', 00H, 'h', 00H, 'R', 00H, 'e', 00H, 'q', 00H, 'u'
	DB	00H, 'i', 00H, 'r', 00H, 'e', 00H, 'm', 00H, 'e', 00H, 'n', 00H
	DB	't', 00H, 's', 00H, 'N', 00H, 'o', 00H, 't', 00H, 'M', 00H, 'e'
	DB	00H, 't', 00H, 00H, 00H
$SG90852 DB	'outofmem', 00H
	ORG $+3
$SG82660 DB	'OTTO', 00H
	ORG $+3
$SG165988 DB	'%s/%s', 00H
	ORG $+2
$SG166522 DB	'worker', 00H
	ORG $+1
$SG158332 DB	'.', 00H, 00H, 00H
$SG164581 DB	'%s:%s:%s', 0aH, 00H
	ORG $+2
$SG82661 DB	'OTTO', 00H
	ORG $+3
$SG157824 DB	'ASCII', 00H
	ORG $+2
$SG158366 DB	'.', 00H
	ORG $+2
$SG172774 DB	'C', 00H, 'a', 00H, 'n', 00H, 't', 00H, 'F', 00H, 'i', 00H
	DB	'n', 00H, 'd', 00H, 'P', 00H, 'l', 00H, 'a', 00H, 'c', 00H, 'e'
	DB	00H, 'm', 00H, 'e', 00H, 'n', 00H, 't', 00H, 'L', 00H, 'o', 00H
	DB	'c', 00H, 'a', 00H, 't', 00H, 'i', 00H, 'o', 00H, 'n', 00H, 00H
	DB	00H
$SG158382 DB	'Zen', 00H
$SG164583 DB	'%s:%s:%s', 0aH, 00H
	ORG $+2
$SG158367 DB	'assets', 00H
	ORG $+1
$SG166598 DB	'%s', 00H
	ORG $+1
$SG172776 DB	'C', 00H, 'a', 00H, 'n', 00H, 't', 00H, 'B', 00H, 'u', 00H
	DB	'i', 00H, 'l', 00H, 'd', 00H, 'O', 00H, 'n', 00H, 'T', 00H, 'h'
	DB	00H, 'a', 00H, 't', 00H, 00H, 00H
$SG82664 DB	'true', 00H
	ORG $+3
$SG82665 DB	'true', 00H
	ORG $+3
$SG172778 DB	'C', 00H, 'a', 00H, 'n', 00H, 't', 00H, 'B', 00H, 'u', 00H
	DB	'i', 00H, 'l', 00H, 'd', 00H, 'T', 00H, 'o', 00H, 'o', 00H, 'C'
	DB	00H, 'l', 00H, 'o', 00H, 's', 00H, 'e', 00H, 'T', 00H, 'o', 00H
	DB	'D', 00H, 'r', 00H, 'o', 00H, 'p', 00H, 'O', 00H, 'f', 00H, 'f'
	DB	00H, 00H, 00H
	ORG $+2
$SG90858 DB	'corrupt', 00H
$SG82666 DB	'true', 00H
	ORG $+3
$SG82667 DB	'true', 00H
	ORG $+3
$SG172780 DB	'C', 00H, 'a', 00H, 'n', 00H, 't', 00H, 'B', 00H, 'u', 00H
	DB	'i', 00H, 'l', 00H, 'd', 00H, 'L', 00H, 'o', 00H, 'c', 00H, 'a'
	DB	00H, 't', 00H, 'i', 00H, 'o', 00H, 'n', 00H, 'I', 00H, 'n', 00H
	DB	'v', 00H, 'a', 00H, 'l', 00H, 'i', 00H, 'd', 00H, 00H, 00H
	ORG $+2
$SG166646 DB	'%s', 00H
	ORG $+1
$SG172782 DB	'C', 00H, 'a', 00H, 'n', 00H, 't', 00H, 'S', 00H, 'e', 00H
	DB	'e', 00H, 'B', 00H, 'u', 00H, 'i', 00H, 'l', 00H, 'd', 00H, 'L'
	DB	00H, 'o', 00H, 'c', 00H, 'a', 00H, 't', 00H, 'i', 00H, 'o', 00H
	DB	'n', 00H, 00H, 00H
	ORG $+2
$SG166648 DB	'%s', 00H
	ORG $+1
$SG164591 DB	'%s:%s:%s', 0aH, 00H
	ORG $+2
$SG166651 DB	'13', 00H
	ORG $+1
$SG172784 DB	'C', 00H, 'a', 00H, 'n', 00H, 't', 00H, 'B', 00H, 'u', 00H
	DB	'i', 00H, 'l', 00H, 'd', 00H, 'T', 00H, 'o', 00H, 'o', 00H, 'C'
	DB	00H, 'l', 00H, 'o', 00H, 's', 00H, 'e', 00H, 'T', 00H, 'o', 00H
	DB	'C', 00H, 'r', 00H, 'e', 00H, 'e', 00H, 'p', 00H, 'S', 00H, 'o'
	DB	00H, 'u', 00H, 'r', 00H, 'c', 00H, 'e', 00H, 00H, 00H
	ORG $+2
$SG172786 DB	'C', 00H, 'a', 00H, 'n', 00H, 't', 00H, 'B', 00H, 'u', 00H
	DB	'i', 00H, 'l', 00H, 'd', 00H, 'T', 00H, 'o', 00H, 'o', 00H, 'C'
	DB	00H, 'l', 00H, 'o', 00H, 's', 00H, 'e', 00H, 'T', 00H, 'o', 00H
	DB	'R', 00H, 'e', 00H, 's', 00H, 'o', 00H, 'u', 00H, 'r', 00H, 'c'
	DB	00H, 'e', 00H, 's', 00H, 00H, 00H
	ORG $+2
$SG166653 DB	'%s', 00H
	ORG $+1
$SG172788 DB	'C', 00H, 'a', 00H, 'n', 00H, 't', 00H, 'B', 00H, 'u', 00H
	DB	'i', 00H, 'l', 00H, 'd', 00H, 'T', 00H, 'o', 00H, 'o', 00H, 'F'
	DB	00H, 'a', 00H, 'r', 00H, 'F', 00H, 'r', 00H, 'o', 00H, 'm', 00H
	DB	'W', 00H, 'a', 00H, 't', 00H, 'e', 00H, 'r', 00H, 00H, 00H
	ORG $+2
$SG92930 DB	'wb', 00H
	ORG $+1
$SG172790 DB	'C', 00H, 'a', 00H, 'n', 00H, 't', 00H, 'B', 00H, 'u', 00H
	DB	'i', 00H, 'l', 00H, 'd', 00H, 'T', 00H, 'o', 00H, 'o', 00H, 'F'
	DB	00H, 'a', 00H, 'r', 00H, 'F', 00H, 'r', 00H, 'o', 00H, 'm', 00H
	DB	'C', 00H, 'r', 00H, 'e', 00H, 'e', 00H, 'p', 00H, 'S', 00H, 'o'
	DB	00H, 'u', 00H, 'r', 00H, 'c', 00H, 'e', 00H, 00H, 00H
	ORG $+2
$SG172794 DB	'C', 00H, 'a', 00H, 'n', 00H, 't', 00H, 'B', 00H, 'u', 00H
	DB	'i', 00H, 'l', 00H, 'd', 00H, 'O', 00H, 'n', 00H, 'D', 00H, 'e'
	DB	00H, 'n', 00H, 's', 00H, 'e', 00H, 'T', 00H, 'e', 00H, 'r', 00H
	DB	'r', 00H, 'a', 00H, 'i', 00H, 'n', 00H, 00H, 00H
$SG172800 DB	'C', 00H, 'a', 00H, 'n', 00H, 't', 00H, 'S', 00H, 'e', 00H
	DB	'e', 00H, 'L', 00H, 'a', 00H, 'n', 00H, 'd', 00H, 'L', 00H, 'o'
	DB	00H, 'c', 00H, 'a', 00H, 't', 00H, 'i', 00H, 'o', 00H, 'n', 00H
	DB	00H, 00H
$SG172792 DB	'C', 00H, 'a', 00H, 'n', 00H, 't', 00H, 'B', 00H, 'u', 00H
	DB	'i', 00H, 'l', 00H, 'd', 00H, 'T', 00H, 'o', 00H, 'o', 00H, 'F'
	DB	00H, 'a', 00H, 'r', 00H, 'F', 00H, 'r', 00H, 'o', 00H, 'm', 00H
	DB	'B', 00H, 'u', 00H, 'i', 00H, 'l', 00H, 'd', 00H, 'P', 00H, 'o'
	DB	00H, 'w', 00H, 'e', 00H, 'r', 00H, 'S', 00H, 'o', 00H, 'u', 00H
	DB	'r', 00H, 'c', 00H, 'e', 00H, 00H, 00H
$SG82688 DB	'ttcf', 00H
	ORG $+3
$SG172796 DB	'C', 00H, 'a', 00H, 'n', 00H, 't', 00H, 'T', 00H, 'r', 00H
	DB	'a', 00H, 'i', 00H, 'n', 00H, 'T', 00H, 'o', 00H, 'o', 00H, 'F'
	DB	00H, 'a', 00H, 'r', 00H, 'F', 00H, 'r', 00H, 'o', 00H, 'm', 00H
	DB	'T', 00H, 'r', 00H, 'a', 00H, 'i', 00H, 'n', 00H, 'P', 00H, 'o'
	DB	00H, 'w', 00H, 'e', 00H, 'r', 00H, 'S', 00H, 'o', 00H, 'u', 00H
	DB	'r', 00H, 'c', 00H, 'e', 00H, 00H, 00H
$SG172798 DB	'C', 00H, 'a', 00H, 'n', 00H, 't', 00H, 'L', 00H, 'a', 00H
	DB	'n', 00H, 'd', 00H, 'L', 00H, 'o', 00H, 'c', 00H, 'a', 00H, 't'
	DB	00H, 'i', 00H, 'o', 00H, 'n', 00H, 'I', 00H, 'n', 00H, 'v', 00H
	DB	'a', 00H, 'l', 00H, 'i', 00H, 'd', 00H, 00H, 00H
$SG82689 DB	'ttcf', 00H
	ORG $+3
$SG172802 DB	'C', 00H, 'a', 00H, 'n', 00H, 't', 00H, 'L', 00H, 'a', 00H
	DB	'n', 00H, 'd', 00H, 'T', 00H, 'o', 00H, 'o', 00H, 'C', 00H, 'l'
	DB	00H, 'o', 00H, 's', 00H, 'e', 00H, 'T', 00H, 'o', 00H, 'C', 00H
	DB	'r', 00H, 'e', 00H, 'e', 00H, 'p', 00H, 'S', 00H, 'o', 00H, 'u'
	DB	00H, 'r', 00H, 'c', 00H, 'e', 00H, 00H, 00H
$SG82690 DB	'ttcf', 00H
	ORG $+3
$SG82691 DB	'ttcf', 00H
	ORG $+3
$SG166083 DB	'<!--#', 00H
	ORG $+2
$SG166664 DB	'%s', 00H
	ORG $+1
$SG172804 DB	'C', 00H, 'a', 00H, 'n', 00H, 't', 00H, 'L', 00H, 'a', 00H
	DB	'n', 00H, 'd', 00H, 'T', 00H, 'o', 00H, 'o', 00H, 'C', 00H, 'l'
	DB	00H, 'o', 00H, 's', 00H, 'e', 00H, 'T', 00H, 'o', 00H, 'R', 00H
	DB	'e', 00H, 's', 00H, 'o', 00H, 'u', 00H, 'r', 00H, 'c', 00H, 'e'
	DB	00H, 's', 00H, 00H, 00H
$SG172806 DB	'C', 00H, 'a', 00H, 'n', 00H, 't', 00H, 'L', 00H, 'a', 00H
	DB	'n', 00H, 'd', 00H, 'T', 00H, 'o', 00H, 'o', 00H, 'F', 00H, 'a'
	DB	00H, 'r', 00H, 'F', 00H, 'r', 00H, 'o', 00H, 'm', 00H, 'W', 00H
	DB	'a', 00H, 't', 00H, 'e', 00H, 'r', 00H, 00H, 00H
$SG172808 DB	'C', 00H, 'a', 00H, 'n', 00H, 't', 00H, 'L', 00H, 'a', 00H
	DB	'n', 00H, 'd', 00H, 'T', 00H, 'o', 00H, 'o', 00H, 'F', 00H, 'a'
	DB	00H, 'r', 00H, 'F', 00H, 'r', 00H, 'o', 00H, 'm', 00H, 'C', 00H
	DB	'r', 00H, 'e', 00H, 'e', 00H, 'p', 00H, 'S', 00H, 'o', 00H, 'u'
	DB	00H, 'r', 00H, 'c', 00H, 'e', 00H, 00H, 00H
	ORG $+4
$SG172810 DB	'C', 00H, 'a', 00H, 'n', 00H, 't', 00H, 'L', 00H, 'a', 00H
	DB	'n', 00H, 'd', 00H, 'T', 00H, 'o', 00H, 'o', 00H, 'F', 00H, 'a'
	DB	00H, 'r', 00H, 'F', 00H, 'r', 00H, 'o', 00H, 'm', 00H, 'B', 00H
	DB	'u', 00H, 'i', 00H, 'l', 00H, 'd', 00H, 'P', 00H, 'o', 00H, 'w'
	DB	00H, 'e', 00H, 'r', 00H, 'S', 00H, 'o', 00H, 'u', 00H, 'r', 00H
	DB	'c', 00H, 'e', 00H, 00H, 00H
	ORG $+2
$SG82700 DB	'ttcf', 00H
	ORG $+3
$SG172812 DB	'C', 00H, 'a', 00H, 'n', 00H, 't', 00H, 'L', 00H, 'a', 00H
	DB	'n', 00H, 'd', 00H, 'T', 00H, 'o', 00H, 'o', 00H, 'F', 00H, 'a'
	DB	00H, 'r', 00H, 'F', 00H, 'r', 00H, 'o', 00H, 'm', 00H, 'T', 00H
	DB	'r', 00H, 'a', 00H, 'i', 00H, 'n', 00H, 'P', 00H, 'o', 00H, 'w'
	DB	00H, 'e', 00H, 'r', 00H, 'S', 00H, 'o', 00H, 'u', 00H, 'r', 00H
	DB	'c', 00H, 'e', 00H, 00H, 00H
	ORG $+2
$SG82701 DB	'ttcf', 00H
	ORG $+3
$SG172814 DB	'C', 00H, 'a', 00H, 'n', 00H, 't', 00H, 'L', 00H, 'a', 00H
	DB	'n', 00H, 'd', 00H, 'O', 00H, 'n', 00H, 'D', 00H, 'e', 00H, 'n'
	DB	00H, 's', 00H, 'e', 00H, 'T', 00H, 'e', 00H, 'r', 00H, 'r', 00H
	DB	'a', 00H, 'i', 00H, 'n', 00H, 00H, 00H
	ORG $+2
$SG82702 DB	'ttcf', 00H
	ORG $+3
$SG90895 DB	'S', 080H, 0f6H, '4', 00H
	ORG $+3
$SG82703 DB	'ttcf', 00H
	ORG $+3
$SG172816 DB	'A', 00H, 'd', 00H, 'd', 00H, 'O', 00H, 'n', 00H, 'T', 00H
	DB	'o', 00H, 'o', 00H, 'F', 00H, 'a', 00H, 'r', 00H, 'F', 00H, 'r'
	DB	00H, 'o', 00H, 'm', 00H, 'B', 00H, 'u', 00H, 'i', 00H, 'l', 00H
	DB	'd', 00H, 'i', 00H, 'n', 00H, 'g', 00H, 00H, 00H
$SG90897 DB	'PICT', 00H
	ORG $+3
$SG172818 DB	'M', 00H, 'u', 00H, 's', 00H, 't', 00H, 'B', 00H, 'u', 00H
	DB	'i', 00H, 'l', 00H, 'd', 00H, 'R', 00H, 'e', 00H, 'f', 00H, 'i'
	DB	00H, 'n', 00H, 'e', 00H, 'r', 00H, 'y', 00H, 'F', 00H, 'i', 00H
	DB	'r', 00H, 's', 00H, 't', 00H, 00H, 00H
	ORG $+2
$SG172820 DB	'B', 00H, 'u', 00H, 'i', 00H, 'l', 00H, 'd', 00H, 'i', 00H
	DB	'n', 00H, 'g', 00H, 'I', 00H, 's', 00H, 'U', 00H, 'n', 00H, 'd'
	DB	00H, 'e', 00H, 'r', 00H, 'C', 00H, 'o', 00H, 'n', 00H, 's', 00H
	DB	't', 00H, 'r', 00H, 'u', 00H, 'c', 00H, 't', 00H, 'i', 00H, 'o'
	DB	00H, 'n', 00H, 00H, 00H
$SG172822 DB	'C', 00H, 'a', 00H, 'n', 00H, 't', 00H, 'F', 00H, 'i', 00H
	DB	'n', 00H, 'd', 00H, 'D', 00H, 'r', 00H, 'o', 00H, 'p', 00H, 'O'
	DB	00H, 'f', 00H, 'f', 00H, 00H, 00H
$SG172824 DB	'C', 00H, 'a', 00H, 'n', 00H, 't', 00H, 'L', 00H, 'o', 00H
	DB	'a', 00H, 'd', 00H, 'O', 00H, 't', 00H, 'h', 00H, 'e', 00H, 'r'
	DB	00H, 'P', 00H, 'l', 00H, 'a', 00H, 'y', 00H, 'e', 00H, 'r', 00H
	DB	's', 00H, 'U', 00H, 'n', 00H, 'i', 00H, 't', 00H, 's', 00H, 00H
	DB	00H
$SG166667 DB	'%s', 00H
	ORG $+1
$SG172826 DB	'N', 00H, 'o', 00H, 't', 00H, 'E', 00H, 'n', 00H, 'o', 00H
	DB	'u', 00H, 'g', 00H, 'h', 00H, 'R', 00H, 'o', 00H, 'o', 00H, 'm'
	DB	00H, 'T', 00H, 'o', 00H, 'L', 00H, 'o', 00H, 'a', 00H, 'd', 00H
	DB	'U', 00H, 'n', 00H, 'i', 00H, 't', 00H, 00H, 00H
$SG172828 DB	'C', 00H, 'a', 00H, 'n', 00H, 't', 00H, 'U', 00H, 'n', 00H
	DB	'l', 00H, 'o', 00H, 'a', 00H, 'd', 00H, 'U', 00H, 'n', 00H, 'i'
	DB	00H, 't', 00H, 's', 00H, 'T', 00H, 'h', 00H, 'e', 00H, 'r', 00H
	DB	'e', 00H, 00H, 00H
	ORG $+2
$SG166692 DB	'h2', 00H
	ORG $+1
$SG172830 DB	'C', 00H, 'a', 00H, 'n', 00H, 't', 00H, 'W', 00H, 'a', 00H
	DB	'r', 00H, 'p', 00H, 'I', 00H, 'n', 00H, 'U', 00H, 'n', 00H, 'i'
	DB	00H, 't', 00H, 's', 00H, 'T', 00H, 'h', 00H, 'e', 00H, 'r', 00H
	DB	'e', 00H, 00H, 00H
	ORG $+2
$SG166999 DB	'GET', 00H
$SG172832 DB	'C', 00H, 'a', 00H, 'n', 00H, 't', 00H, 'L', 00H, 'o', 00H
	DB	'a', 00H, 'd', 00H, 'I', 00H, 'm', 00H, 'm', 00H, 'o', 00H, 'b'
	DB	00H, 'i', 00H, 'l', 00H, 'e', 00H, 'U', 00H, 'n', 00H, 'i', 00H
	DB	't', 00H, 's', 00H, 00H, 00H
$SG167243 DB	'wss', 00H
$SG172834 DB	'C', 00H, 'a', 00H, 'n', 00H, 't', 00H, 'R', 00H, 'e', 00H
	DB	'c', 00H, 'h', 00H, 'a', 00H, 'r', 00H, 'g', 00H, 'e', 00H, 'I'
	DB	00H, 'm', 00H, 'm', 00H, 'o', 00H, 'b', 00H, 'i', 00H, 'l', 00H
	DB	'e', 00H, 'U', 00H, 'n', 00H, 'i', 00H, 't', 00H, 's', 00H, 00H
	DB	00H
$SG82726 DB	'SVG ', 00H
	ORG $+7
$SG172836 DB	'C', 00H, 'a', 00H, 'n', 00H, 't', 00H, 'R', 00H, 'e', 00H
	DB	'c', 00H, 'h', 00H, 'a', 00H, 'r', 00H, 'g', 00H, 'e', 00H, 'U'
	DB	00H, 'n', 00H, 'd', 00H, 'e', 00H, 'r', 00H, 'C', 00H, 'o', 00H
	DB	'n', 00H, 's', 00H, 't', 00H, 'r', 00H, 'u', 00H, 'c', 00H, 't'
	DB	00H, 'i', 00H, 'o', 00H, 'n', 00H, 'U', 00H, 'n', 00H, 'i', 00H
	DB	't', 00H, 's', 00H, 00H, 00H
	ORG $+2
$SG172838 DB	'C', 00H, 'a', 00H, 'n', 00H, 't', 00H, 'L', 00H, 'o', 00H
	DB	'a', 00H, 'd', 00H, 'T', 00H, 'h', 00H, 'a', 00H, 't', 00H, 'U'
	DB	00H, 'n', 00H, 'i', 00H, 't', 00H, 00H, 00H
	ORG $+2
$SG167107 DB	'name="', 00H
	ORG $+1
$SG167252 DB	'%s', 00H
	ORG $+1
$SG172840 DB	'N', 00H, 'o', 00H, 'C', 00H, 'a', 00H, 'r', 00H, 'g', 00H
	DB	'o', 00H, 'T', 00H, 'o', 00H, 'U', 00H, 'n', 00H, 'l', 00H, 'o'
	DB	00H, 'a', 00H, 'd', 00H, 00H, 00H
$SG172842 DB	'L', 00H, 'o', 00H, 'a', 00H, 'd', 00H, 'A', 00H, 'l', 00H
	DB	'l', 00H, 'N', 00H, 'o', 00H, 'T', 00H, 'a', 00H, 'r', 00H, 'g'
	DB	00H, 'e', 00H, 't', 00H, 's', 00H, 'F', 00H, 'o', 00H, 'u', 00H
	DB	'n', 00H, 'd', 00H, 00H, 00H
$SG167311 DB	'%s', 00H
	ORG $+1
$SG172844 DB	'N', 00H, 'o', 00H, 't', 00H, 'W', 00H, 'h', 00H, 'i', 00H
	DB	'l', 00H, 'e', 00H, 'O', 00H, 'c', 00H, 'c', 00H, 'u', 00H, 'p'
	DB	00H, 'i', 00H, 'e', 00H, 'd', 00H, 00H, 00H
	ORG $+2
$SG167109 DB	'name="', 00H
	ORG $+1
$SG167315 DB	'%s', 00H
	ORG $+1
$SG172846 DB	'C', 00H, 'a', 00H, 'n', 00H, 't', 00H, 'A', 00H, 't', 00H
	DB	't', 00H, 'a', 00H, 'c', 00H, 'k', 00H, 'W', 00H, 'i', 00H, 't'
	DB	00H, 'h', 00H, 'o', 00H, 'u', 00H, 't', 00H, 'A', 00H, 'm', 00H
	DB	'm', 00H, 'o', 00H, 00H, 00H
$SG167570 DB	'%s', 00H
	ORG $+1
$SG90927 DB	'bad file', 00H
	ORG $+3
$SG166117 DB	'Allow', 00H
	ORG $+2
$SG167572 DB	'%s', 00H
	ORG $+1
$SG172848 DB	'C', 00H, 'a', 00H, 'n', 00H, 't', 00H, 'H', 00H, 'o', 00H
	DB	'l', 00H, 'd', 00H, 'A', 00H, 'n', 00H, 'y', 00H, 'M', 00H, 'o'
	DB	00H, 'r', 00H, 'e', 00H, 'A', 00H, 'm', 00H, 'm', 00H, 'o', 00H
	DB	00H, 00H
$SG172850 DB	'T', 00H, 'e', 00H, 'c', 00H, 'h', 00H, 'R', 00H, 'e', 00H
	DB	'q', 00H, 'u', 00H, 'i', 00H, 'r', 00H, 'e', 00H, 'm', 00H, 'e'
	DB	00H, 'n', 00H, 't', 00H, 's', 00H, 'N', 00H, 'o', 00H, 't', 00H
	DB	'M', 00H, 'e', 00H, 't', 00H, 00H, 00H
	ORG $+2
$SG172852 DB	'M', 00H, 'u', 00H, 's', 00H, 't', 00H, 'L', 00H, 'o', 00H
	DB	'c', 00H, 'k', 00H, 'd', 00H, 'o', 00H, 'w', 00H, 'n', 00H, 'U'
	DB	00H, 'n', 00H, 'i', 00H, 't', 00H, 'F', 00H, 'i', 00H, 'r', 00H
	DB	's', 00H, 't', 00H, 00H, 00H
$SG167595 DB	0dH, 0aH, 00H
	ORG $+1
$SG172854 DB	'M', 00H, 'u', 00H, 's', 00H, 't', 00H, 'T', 00H, 'a', 00H
	DB	'r', 00H, 'g', 00H, 'e', 00H, 't', 00H, 'U', 00H, 'n', 00H, 'i'
	DB	00H, 't', 00H, 00H, 00H
	ORG $+2
$SG172856 DB	'M', 00H, 'u', 00H, 's', 00H, 't', 00H, 'T', 00H, 'a', 00H
	DB	'r', 00H, 'g', 00H, 'e', 00H, 't', 00H, 'I', 00H, 'n', 00H, 'v'
	DB	00H, 'e', 00H, 'n', 00H, 't', 00H, 'o', 00H, 'r', 00H, 'y', 00H
	DB	00H, 00H
$SG172858 DB	'M', 00H, 'u', 00H, 's', 00H, 't', 00H, 'T', 00H, 'a', 00H
	DB	'r', 00H, 'g', 00H, 'e', 00H, 't', 00H, 'V', 00H, 'i', 00H, 's'
	DB	00H, 'i', 00H, 'b', 00H, 'l', 00H, 'e', 00H, 'U', 00H, 'n', 00H
	DB	'i', 00H, 't', 00H, 00H, 00H
$SG167625 DB	'%s', 00H
	ORG $+1
$SG172860 DB	'M', 00H, 'u', 00H, 's', 00H, 't', 00H, 'T', 00H, 'a', 00H
	DB	'r', 00H, 'g', 00H, 'e', 00H, 't', 00H, 'V', 00H, 'i', 00H, 's'
	DB	00H, 'i', 00H, 'b', 00H, 'l', 00H, 'e', 00H, 'L', 00H, 'o', 00H
	DB	'c', 00H, 'a', 00H, 't', 00H, 'i', 00H, 'o', 00H, 'n', 00H, 00H
	DB	00H
$SG167627 DB	'%s', 00H
	ORG $+1
$SG164668 DB	'NULL host', 00H
	ORG $+2
$SG167586 DB	'Origin', 00H
	ORG $+1
$SG167630 DB	'%s', 00H
	ORG $+1
$SG172862 DB	'M', 00H, 'u', 00H, 's', 00H, 't', 00H, 'T', 00H, 'a', 00H
	DB	'r', 00H, 'g', 00H, 'e', 00H, 't', 00H, 'W', 00H, 'a', 00H, 'l'
	DB	00H, 'k', 00H, 'a', 00H, 'b', 00H, 'l', 00H, 'e', 00H, 'L', 00H
	DB	'o', 00H, 'c', 00H, 'a', 00H, 't', 00H, 'i', 00H, 'o', 00H, 'n'
	DB	00H, 00H, 00H
	ORG $+2
$SG172864 DB	'M', 00H, 'u', 00H, 's', 00H, 't', 00H, 'T', 00H, 'a', 00H
	DB	'r', 00H, 'g', 00H, 'e', 00H, 't', 00H, 'P', 00H, 'a', 00H, 'w'
	DB	00H, 'n', 00H, 'a', 00H, 'b', 00H, 'l', 00H, 'e', 00H, 'U', 00H
	DB	'n', 00H, 'i', 00H, 't', 00H, 00H, 00H
	ORG $+2
$SG164673 DB	'invalid port', 00H
	ORG $+3
$SG172866 DB	'Y', 00H, 'o', 00H, 'u', 00H, 'C', 00H, 'a', 00H, 'n', 00H
	DB	't', 00H, 'C', 00H, 'o', 00H, 'n', 00H, 't', 00H, 'r', 00H, 'o'
	DB	00H, 'l', 00H, 'T', 00H, 'h', 00H, 'a', 00H, 't', 00H, 'U', 00H
	DB	'n', 00H, 'i', 00H, 't', 00H, 00H, 00H
	ORG $+2
$SG172868 DB	'Y', 00H, 'o', 00H, 'u', 00H, 'C', 00H, 'a', 00H, 'n', 00H
	DB	't', 00H, 'I', 00H, 's', 00H, 's', 00H, 'u', 00H, 'e', 00H, 'C'
	DB	00H, 'o', 00H, 'm', 00H, 'm', 00H, 'a', 00H, 'n', 00H, 'd', 00H
	DB	's', 00H, 'T', 00H, 'o', 00H, 'T', 00H, 'h', 00H, 'a', 00H, 't'
	DB	00H, 'U', 00H, 'n', 00H, 'i', 00H, 't', 00H, 00H, 00H
	ORG $+2
$SG164677 DB	'SSL is not initialized', 00H
	ORG $+1
$SG172870 DB	'M', 00H, 'u', 00H, 's', 00H, 't', 00H, 'T', 00H, 'a', 00H
	DB	'r', 00H, 'g', 00H, 'e', 00H, 't', 00H, 'R', 00H, 'e', 00H, 's'
	DB	00H, 'o', 00H, 'u', 00H, 'r', 00H, 'c', 00H, 'e', 00H, 's', 00H
	DB	00H, 00H
$SG172872 DB	'R', 00H, 'e', 00H, 'q', 00H, 'u', 00H, 'i', 00H, 'r', 00H
	DB	'e', 00H, 's', 00H, 'H', 00H, 'e', 00H, 'a', 00H, 'l', 00H, 'T'
	DB	00H, 'a', 00H, 'r', 00H, 'g', 00H, 'e', 00H, 't', 00H, 00H, 00H
	ORG $+2
$SG172874 DB	'R', 00H, 'e', 00H, 'q', 00H, 'u', 00H, 'i', 00H, 'r', 00H
	DB	'e', 00H, 's', 00H, 'R', 00H, 'e', 00H, 'p', 00H, 'a', 00H, 'i'
	DB	00H, 'r', 00H, 'T', 00H, 'a', 00H, 'r', 00H, 'g', 00H, 'e', 00H
	DB	't', 00H, 00H, 00H
	ORG $+2
$SG167634 DB	'PUT', 00H
$SG164682 DB	'host not found', 00H
	ORG $+1
$SG172876 DB	'N', 00H, 'o', 00H, 'I', 00H, 't', 00H, 'e', 00H, 'm', 00H
	DB	's', 00H, 'T', 00H, 'o', 00H, 'D', 00H, 'r', 00H, 'o', 00H, 'p'
	DB	00H, 00H, 00H
$SG167653 DB	'%s', 00H
	ORG $+1
$SG172878 DB	'C', 00H, 'a', 00H, 'n', 00H, 't', 00H, 'H', 00H, 'o', 00H
	DB	'l', 00H, 'd', 00H, 'A', 00H, 'n', 00H, 'y', 00H, 'M', 00H, 'o'
	DB	00H, 'r', 00H, 'e', 00H, 'I', 00H, 't', 00H, 'e', 00H, 'm', 00H
	DB	's', 00H, 00H, 00H
	ORG $+2
$SG167636 DB	'DELETE', 00H
	ORG $+1
$SG167659 DB	'/', 00H
	ORG $+2
$SG164687 DB	'socket(): %s', 00H
	ORG $+3
$SG172880 DB	'C', 00H, 'a', 00H, 'n', 00H, 't', 00H, 'H', 00H, 'o', 00H
	DB	'l', 00H, 'd', 00H, 'T', 00H, 'h', 00H, 'a', 00H, 't', 00H, 00H
	DB	00H
	ORG $+2
$SG167646 DB	'UNLOCK', 00H
	ORG $+1
$SG167661 DB	'?', 00H
	ORG $+2
$SG172882 DB	'T', 00H, 'a', 00H, 'r', 00H, 'g', 00H, 'e', 00H, 't', 00H
	DB	'H', 00H, 'a', 00H, 's', 00H, 'N', 00H, 'o', 00H, 'I', 00H, 'n'
	DB	00H, 'v', 00H, 'e', 00H, 'n', 00H, 't', 00H, 'o', 00H, 'r', 00H
	DB	'y', 00H, 00H, 00H
	ORG $+2
$SG167667 DB	'GET', 00H
$SG164690 DB	'Cannot set socket to non-blocking: %s', 00H
	ORG $+2
$SG82770 DB	'cmap', 00H
	ORG $+3
$SG82771 DB	'loca', 00H
	ORG $+3
$SG172884 DB	'C', 00H, 'a', 00H, 'n', 00H, 't', 00H, 'D', 00H, 'r', 00H
	DB	'o', 00H, 'p', 00H, 'T', 00H, 'h', 00H, 'i', 00H, 's', 00H, 'I'
	DB	00H, 't', 00H, 'e', 00H, 'm', 00H, 00H, 00H
	ORG $+2
$SG82772 DB	'head', 00H
	ORG $+3
$SG82773 DB	'glyf', 00H
	ORG $+3
$SG166121 DB	'Allow', 00H
	ORG $+2
$SG167673 DB	'yes', 00H
$SG172886 DB	'C', 00H, 'a', 00H, 'n', 00H, 't', 00H, 'M', 00H, 'o', 00H
	DB	'v', 00H, 'e', 00H, 'T', 00H, 'h', 00H, 'i', 00H, 's', 00H, 'I'
	DB	00H, 't', 00H, 'e', 00H, 'm', 00H, 00H, 00H
	ORG $+2
$SG82774 DB	'hhea', 00H
	ORG $+3
$SG82775 DB	'hmtx', 00H
	ORG $+3
$SG166162 DB	'Depth', 00H
	ORG $+2
$SG167675 DB	'%s', 00H
	ORG $+1
$SG172888 DB	'C', 00H, 'a', 00H, 'n', 00H, 't', 00H, 'P', 00H, 'a', 00H
	DB	'w', 00H, 'n', 00H, 'T', 00H, 'h', 00H, 'i', 00H, 's', 00H, 'U'
	DB	00H, 'n', 00H, 'i', 00H, 't', 00H, 00H, 00H
	ORG $+2
$SG167696 DB	'%s', 00H
	ORG $+1
$SG164696 DB	'connect(%s:%d): timeout', 00H
$SG82776 DB	'kern', 00H
	ORG $+3
$SG82777 DB	'GPOS', 00H
	ORG $+3
$SG172890 DB	'M', 00H, 'u', 00H, 's', 00H, 't', 00H, 'T', 00H, 'a', 00H
	DB	'r', 00H, 'g', 00H, 'e', 00H, 't', 00H, 'C', 00H, 'a', 00H, 's'
	DB	00H, 't', 00H, 'e', 00H, 'r', 00H, 00H, 00H
	ORG $+2
$SG167701 DB	'%s', 00H
	ORG $+1
$SG172892 DB	'C', 00H, 'a', 00H, 'n', 00H, 't', 00H, 'T', 00H, 'a', 00H
	DB	'r', 00H, 'g', 00H, 'e', 00H, 't', 00H, 'C', 00H, 'a', 00H, 's'
	DB	00H, 't', 00H, 'e', 00H, 'r', 00H, 00H, 00H
	ORG $+2
$SG167835 DB	'%s', 00H
	ORG $+1
$SG164700 DB	'connect(%s:%d): error %s', 00H
	ORG $+3
$SG166211 DB	'%I64u', 00H
	ORG $+2
$SG167857 DB	'%s', 00H
	ORG $+1
$SG172894 DB	'M', 00H, 'u', 00H, 's', 00H, 't', 00H, 'T', 00H, 'a', 00H
	DB	'r', 00H, 'g', 00H, 'e', 00H, 't', 00H, 'O', 00H, 'u', 00H, 't'
	DB	00H, 'e', 00H, 'r', 00H, 00H, 00H
$SG82783 DB	'CFF ', 00H
	ORG $+3
$SG172896 DB	'C', 00H, 'a', 00H, 'n', 00H, 't', 00H, 'T', 00H, 'a', 00H
	DB	'r', 00H, 'g', 00H, 'e', 00H, 't', 00H, 'O', 00H, 'u', 00H, 't'
	DB	00H, 'e', 00H, 'r', 00H, 00H, 00H
$SG172898 DB	'M', 00H, 'u', 00H, 's', 00H, 't', 00H, 'T', 00H, 'a', 00H
	DB	'r', 00H, 'g', 00H, 'e', 00H, 't', 00H, 'Y', 00H, 'o', 00H, 'u'
	DB	00H, 'r', 00H, 'O', 00H, 'w', 00H, 'n', 00H, 'U', 00H, 'n', 00H
	DB	'i', 00H, 't', 00H, 's', 00H, 00H, 00H
	ORG $+2
$SG172900 DB	'C', 00H, 'a', 00H, 'n', 00H, 't', 00H, 'T', 00H, 'a', 00H
	DB	'r', 00H, 'g', 00H, 'e', 00H, 't', 00H, 'Y', 00H, 'o', 00H, 'u'
	DB	00H, 'r', 00H, 'O', 00H, 'w', 00H, 'n', 00H, 'U', 00H, 'n', 00H
	DB	'i', 00H, 't', 00H, 's', 00H, 00H, 00H
	ORG $+2
$SG164708 DB	'._-$,;~()', 00H
	ORG $+2
$SG82789 DB	'maxp', 00H
	ORG $+3
$SG166473 DB	'wsock', 00H
	ORG $+2
$SG167861 DB	'%s', 00H
	ORG $+1
$SG172902 DB	'M', 00H, 'u', 00H, 's', 00H, 't', 00H, 'T', 00H, 'a', 00H
	DB	'r', 00H, 'g', 00H, 'e', 00H, 't', 00H, 'F', 00H, 'r', 00H, 'i'
	DB	00H, 'e', 00H, 'n', 00H, 'd', 00H, 'l', 00H, 'y', 00H, 'U', 00H
	DB	'n', 00H, 'i', 00H, 't', 00H, 's', 00H, 00H, 00H
$SG164711 DB	'0123456789abcdef', 00H
	ORG $+3
$SG166738 DB	'%lf%c', 00H
	ORG $+2
$SG167871 DB	'-', 00H
	ORG $+2
$SG172904 DB	'C', 00H, 'a', 00H, 'n', 00H, 't', 00H, 'T', 00H, 'a', 00H
	DB	'r', 00H, 'g', 00H, 'e', 00H, 't', 00H, 'F', 00H, 'r', 00H, 'i'
	DB	00H, 'e', 00H, 'n', 00H, 'd', 00H, 'l', 00H, 'y', 00H, 'U', 00H
	DB	'n', 00H, 'i', 00H, 't', 00H, 's', 00H, 00H, 00H
$SG172906 DB	'M', 00H, 'u', 00H, 's', 00H, 't', 00H, 'T', 00H, 'a', 00H
	DB	'r', 00H, 'g', 00H, 'e', 00H, 't', 00H, 'N', 00H, 'e', 00H, 'u'
	DB	00H, 't', 00H, 'r', 00H, 'a', 00H, 'l', 00H, 'U', 00H, 'n', 00H
	DB	'i', 00H, 't', 00H, 's', 00H, 00H, 00H
	ORG $+2
$SG172908 DB	'C', 00H, 'a', 00H, 'n', 00H, 't', 00H, 'T', 00H, 'a', 00H
	DB	'r', 00H, 'g', 00H, 'e', 00H, 't', 00H, 'N', 00H, 'e', 00H, 'u'
	DB	00H, 't', 00H, 'r', 00H, 'a', 00H, 'l', 00H, 'U', 00H, 'n', 00H
	DB	'i', 00H, 't', 00H, 's', 00H, 00H, 00H
	ORG $+2
$SG172910 DB	'M', 00H, 'u', 00H, 's', 00H, 't', 00H, 'T', 00H, 'a', 00H
	DB	'r', 00H, 'g', 00H, 'e', 00H, 't', 00H, 'E', 00H, 'n', 00H, 'e'
	DB	00H, 'm', 00H, 'y', 00H, 'U', 00H, 'n', 00H, 'i', 00H, 't', 00H
	DB	's', 00H, 00H, 00H
	ORG $+2
$SG167901 DB	'?', 00H
	ORG $+2
$SG172912 DB	'C', 00H, 'a', 00H, 'n', 00H, 't', 00H, 'T', 00H, 'a', 00H
	DB	'r', 00H, 'g', 00H, 'e', 00H, 't', 00H, 'E', 00H, 'n', 00H, 'e'
	DB	00H, 'm', 00H, 'y', 00H, 'U', 00H, 'n', 00H, 'i', 00H, 't', 00H
	DB	's', 00H, 00H, 00H
	ORG $+2
$SG167903 DB	'-', 00H
	ORG $+2
$SG172914 DB	'M', 00H, 'u', 00H, 's', 00H, 't', 00H, 'T', 00H, 'a', 00H
	DB	'r', 00H, 'g', 00H, 'e', 00H, 't', 00H, 'A', 00H, 'i', 00H, 'r'
	DB	00H, 'U', 00H, 'n', 00H, 'i', 00H, 't', 00H, 's', 00H, 00H, 00H
	ORG $+2
$SG172916 DB	'C', 00H, 'a', 00H, 'n', 00H, 't', 00H, 'T', 00H, 'a', 00H
	DB	'r', 00H, 'g', 00H, 'e', 00H, 't', 00H, 'A', 00H, 'i', 00H, 'r'
	DB	00H, 'U', 00H, 'n', 00H, 'i', 00H, 't', 00H, 's', 00H, 00H, 00H
	ORG $+2
$SG172918 DB	'M', 00H, 'u', 00H, 's', 00H, 't', 00H, 'T', 00H, 'a', 00H
	DB	'r', 00H, 'g', 00H, 'e', 00H, 't', 00H, 'G', 00H, 'r', 00H, 'o'
	DB	00H, 'u', 00H, 'n', 00H, 'd', 00H, 'U', 00H, 'n', 00H, 'i', 00H
	DB	't', 00H, 's', 00H, 00H, 00H
$SG167904 DB	'-', 00H
	ORG $+2
$SG172920 DB	'C', 00H, 'a', 00H, 'n', 00H, 't', 00H, 'T', 00H, 'a', 00H
	DB	'r', 00H, 'g', 00H, 'e', 00H, 't', 00H, 'G', 00H, 'r', 00H, 'o'
	DB	00H, 'u', 00H, 'n', 00H, 'd', 00H, 'U', 00H, 'n', 00H, 'i', 00H
	DB	't', 00H, 's', 00H, 00H, 00H
$SG167905 DB	'-', 00H
	ORG $+2
$SG172922 DB	'M', 00H, 'u', 00H, 's', 00H, 't', 00H, 'T', 00H, 'a', 00H
	DB	'r', 00H, 'g', 00H, 'e', 00H, 't', 00H, 'S', 00H, 't', 00H, 'r'
	DB	00H, 'u', 00H, 'c', 00H, 't', 00H, 'u', 00H, 'r', 00H, 'e', 00H
	DB	's', 00H, 00H, 00H
	ORG $+2
$SG167912 DB	'%s', 0aH, 00H
$SG172924 DB	'C', 00H, 'a', 00H, 'n', 00H, 't', 00H, 'T', 00H, 'a', 00H
	DB	'r', 00H, 'g', 00H, 'e', 00H, 't', 00H, 'S', 00H, 't', 00H, 'r'
	DB	00H, 'u', 00H, 'c', 00H, 't', 00H, 'u', 00H, 'r', 00H, 'e', 00H
	DB	's', 00H, 00H, 00H
	ORG $+2
$SG167974 DB	'yes', 00H
$SG172926 DB	'M', 00H, 'u', 00H, 's', 00H, 't', 00H, 'T', 00H, 'a', 00H
	DB	'r', 00H, 'g', 00H, 'e', 00H, 't', 00H, 'L', 00H, 'i', 00H, 'g'
	DB	00H, 'h', 00H, 't', 00H, 'U', 00H, 'n', 00H, 'i', 00H, 't', 00H
	DB	's', 00H, 00H, 00H
	ORG $+2
$SG168038 DB	'yes', 00H
$SG172928 DB	'C', 00H, 'a', 00H, 'n', 00H, 't', 00H, 'T', 00H, 'a', 00H
	DB	'r', 00H, 'g', 00H, 'e', 00H, 't', 00H, 'L', 00H, 'i', 00H, 'g'
	DB	00H, 'h', 00H, 't', 00H, 'U', 00H, 'n', 00H, 'i', 00H, 't', 00H
	DB	's', 00H, 00H, 00H
	ORG $+2
$SG168043 DB	'sslize', 00H
	ORG $+1
$SG86203 DB	'rb', 00H
	ORG $+1
$SG91009 DB	'bad format', 00H
	ORG $+1
$SG86240 DB	'rb', 00H
	ORG $+1
$SG172930 DB	'M', 00H, 'u', 00H, 's', 00H, 't', 00H, 'T', 00H, 'a', 00H
	DB	'r', 00H, 'g', 00H, 'e', 00H, 't', 00H, 'A', 00H, 'r', 00H, 'm'
	DB	00H, 'o', 00H, 'r', 00H, 'e', 00H, 'd', 00H, 'U', 00H, 'n', 00H
	DB	'i', 00H, 't', 00H, 's', 00H, 00H, 00H
	ORG $+2
$SG91011 DB	'bad file', 00H
	ORG $+3
$SG167108 DB	':,; ', 09H, 00H
	ORG $+2
$SG168046 DB	'sslize', 00H
	ORG $+1
$SG168232 DB	'...', 00H
$SG172932 DB	'C', 00H, 'a', 00H, 'n', 00H, 't', 00H, 'T', 00H, 'a', 00H
	DB	'r', 00H, 'g', 00H, 'e', 00H, 't', 00H, 'A', 00H, 'r', 00H, 'm'
	DB	00H, 'o', 00H, 'r', 00H, 'e', 00H, 'd', 00H, 'U', 00H, 'n', 00H
	DB	'i', 00H, 't', 00H, 's', 00H, 00H, 00H
	ORG $+2
$SG91013 DB	'bad format', 00H
	ORG $+1
$SG86341 DB	'rb', 00H
	ORG $+1
$SG172934 DB	'M', 00H, 'u', 00H, 's', 00H, 't', 00H, 'T', 00H, 'a', 00H
	DB	'r', 00H, 'g', 00H, 'e', 00H, 't', 00H, 'B', 00H, 'i', 00H, 'o'
	DB	00H, 'l', 00H, 'o', 00H, 'g', 00H, 'i', 00H, 'c', 00H, 'a', 00H
	DB	'l', 00H, 'U', 00H, 'n', 00H, 'i', 00H, 't', 00H, 's', 00H, 00H
	DB	00H
$SG86362 DB	'rb', 00H
	ORG $+1
$SG91015 DB	'bad format', 00H
	ORG $+1
$SG86544 DB	'0', 00H, 00H, 00H
$SG172936 DB	'C', 00H, 'a', 00H, 'n', 00H, 't', 00H, 'T', 00H, 'a', 00H
	DB	'r', 00H, 'g', 00H, 'e', 00H, 't', 00H, 'B', 00H, 'i', 00H, 'o'
	DB	00H, 'l', 00H, 'o', 00H, 'g', 00H, 'i', 00H, 'c', 00H, 'a', 00H
	DB	'l', 00H, 'U', 00H, 'n', 00H, 'i', 00H, 't', 00H, 's', 00H, 00H
	DB	00H
$SG168532 DB	'yes', 00H
$SG172938 DB	'M', 00H, 'u', 00H, 's', 00H, 't', 00H, 'T', 00H, 'a', 00H
	DB	'r', 00H, 'g', 00H, 'e', 00H, 't', 00H, 'H', 00H, 'e', 00H, 'r'
	DB	00H, 'o', 00H, 'i', 00H, 'c', 00H, 'U', 00H, 'n', 00H, 'i', 00H
	DB	't', 00H, 's', 00H, 00H, 00H
$SG168535 DB	'yes', 00H
$SG172940 DB	'C', 00H, 'a', 00H, 'n', 00H, 't', 00H, 'T', 00H, 'a', 00H
	DB	'r', 00H, 'g', 00H, 'e', 00H, 't', 00H, 'H', 00H, 'e', 00H, 'r'
	DB	00H, 'o', 00H, 'i', 00H, 'c', 00H, 'U', 00H, 'n', 00H, 'i', 00H
	DB	't', 00H, 's', 00H, 00H, 00H
$SG86636 DB	'0', 00H, 00H, 00H
$SG91020 DB	'bad file', 00H
	ORG $+3
$SG167113 DB	'name=', 00H
	ORG $+2
$SG168063 DB	'sslize', 00H
	ORG $+1
$SG168571 DB	'%s', 00H
	ORG $+1
$SG172942 DB	'M', 00H, 'u', 00H, 's', 00H, 't', 00H, 'T', 00H, 'a', 00H
	DB	'r', 00H, 'g', 00H, 'e', 00H, 't', 00H, 'R', 00H, 'o', 00H, 'b'
	DB	00H, 'o', 00H, 't', 00H, 'i', 00H, 'c', 00H, 'U', 00H, 'n', 00H
	DB	'i', 00H, 't', 00H, 's', 00H, 00H, 00H
	ORG $+2
$SG172944 DB	'C', 00H, 'a', 00H, 'n', 00H, 't', 00H, 'T', 00H, 'a', 00H
	DB	'r', 00H, 'g', 00H, 'e', 00H, 't', 00H, 'R', 00H, 'o', 00H, 'b'
	DB	00H, 'o', 00H, 't', 00H, 'i', 00H, 'c', 00H, 'U', 00H, 'n', 00H
	DB	'i', 00H, 't', 00H, 's', 00H, 00H, 00H
	ORG $+2
$SG91025 DB	'bad file', 00H
	ORG $+3
$SG167114 DB	':,; ', 09H, 00H
	ORG $+2
$SG168065 DB	'sslize', 00H
	ORG $+1
$SG168579 DB	'%s', 00H
	ORG $+1
$SG172946 DB	'M', 00H, 'u', 00H, 's', 00H, 't', 00H, 'T', 00H, 'a', 00H
	DB	'r', 00H, 'g', 00H, 'e', 00H, 't', 00H, 'M', 00H, 'e', 00H, 'c'
	DB	00H, 'h', 00H, 'a', 00H, 'n', 00H, 'i', 00H, 'c', 00H, 'a', 00H
	DB	'l', 00H, 'U', 00H, 'n', 00H, 'i', 00H, 't', 00H, 's', 00H, 00H
	DB	00H
$SG164755 DB	'&lt;', 00H
	ORG $+3
$SG167115 DB	'name=', 00H
	ORG $+2
$SG168587 DB	'%s', 00H
	ORG $+1
$SG172948 DB	'C', 00H, 'a', 00H, 'n', 00H, 't', 00H, 'T', 00H, 'a', 00H
	DB	'r', 00H, 'g', 00H, 'e', 00H, 't', 00H, 'M', 00H, 'e', 00H, 'c'
	DB	00H, 'h', 00H, 'a', 00H, 'n', 00H, 'i', 00H, 'c', 00H, 'a', 00H
	DB	'l', 00H, 'U', 00H, 'n', 00H, 'i', 00H, 't', 00H, 's', 00H, 00H
	DB	00H
$SG164757 DB	'&gt;', 00H
	ORG $+3
$SG167119 DB	':,; ', 09H, 00H
	ORG $+2
$SG168852 DB	'%s', 00H
	ORG $+1
$SG172950 DB	'M', 00H, 'u', 00H, 's', 00H, 't', 00H, 'T', 00H, 'a', 00H
	DB	'r', 00H, 'g', 00H, 'e', 00H, 't', 00H, 'P', 00H, 's', 00H, 'i'
	DB	00H, 'o', 00H, 'n', 00H, 'i', 00H, 'c', 00H, 'U', 00H, 'n', 00H
	DB	'i', 00H, 't', 00H, 's', 00H, 00H, 00H
	ORG $+2
$SG91031 DB	'bad file', 00H
	ORG $+3
$SG93393 DB	'error', 00H
	ORG $+2
$SG168861 DB	'ws', 00H
	ORG $+1
$SG172952 DB	'C', 00H, 'a', 00H, 'n', 00H, 't', 00H, 'T', 00H, 'a', 00H
	DB	'r', 00H, 'g', 00H, 'e', 00H, 't', 00H, 'P', 00H, 's', 00H, 'i'
	DB	00H, 'o', 00H, 'n', 00H, 'i', 00H, 'c', 00H, 'U', 00H, 'n', 00H
	DB	'i', 00H, 't', 00H, 's', 00H, 00H, 00H
	ORG $+2
$SG164760 DB	'[DIRECTORY]', 00H
$SG168864 DB	'wss', 00H
$SG172954 DB	'M', 00H, 'u', 00H, 's', 00H, 't', 00H, 'T', 00H, 'a', 00H
	DB	'r', 00H, 'g', 00H, 'e', 00H, 't', 00H, 'M', 00H, 'a', 00H, 's'
	DB	00H, 's', 00H, 'i', 00H, 'v', 00H, 'e', 00H, 'U', 00H, 'n', 00H
	DB	'i', 00H, 't', 00H, 's', 00H, 00H, 00H
	ORG $+2
$SG91034 DB	'bad file', 00H
	ORG $+3
$SG167125 DB	':,; ', 09H, 00H
	ORG $+2
$SG168887 DB	'wss://', 00H
	ORG $+1
$SG168929 DB	'yes', 00H
$SG172956 DB	'C', 00H, 'a', 00H, 'n', 00H, 't', 00H, 'T', 00H, 'a', 00H
	DB	'r', 00H, 'g', 00H, 'e', 00H, 't', 00H, 'M', 00H, 'a', 00H, 's'
	DB	00H, 's', 00H, 'i', 00H, 'v', 00H, 'e', 00H, 'U', 00H, 'n', 00H
	DB	'i', 00H, 't', 00H, 's', 00H, 00H, 00H
	ORG $+2
$SG172958 DB	'M', 00H, 'u', 00H, 's', 00H, 't', 00H, 'T', 00H, 'a', 00H
	DB	'r', 00H, 'g', 00H, 'e', 00H, 't', 00H, 'M', 00H, 'i', 00H, 's'
	DB	00H, 's', 00H, 'i', 00H, 'l', 00H, 'e', 00H, 00H, 00H
$SG168956 DB	'%s', 00H
	ORG $+1
$SG172960 DB	'C', 00H, 'a', 00H, 'n', 00H, 't', 00H, 'T', 00H, 'a', 00H
	DB	'r', 00H, 'g', 00H, 'e', 00H, 't', 00H, 'M', 00H, 'i', 00H, 's'
	DB	00H, 's', 00H, 'i', 00H, 'l', 00H, 'e', 00H, 00H, 00H
$SG164933 DB	'&lt;', 00H
	ORG $+7
$SG82849 DB	'W', 00H, ':', 00H, '\', 00H, 'c', 00H, 'p', 00H, 'p', 00H
	DB	'\', 00H, 'v', 00H, 'o', 00H, 'i', 00H, 'd', 00H, '\', 00H, 'v'
	DB	00H, 'e', 00H, 'n', 00H, 'd', 00H, 'o', 00H, 'r', 00H, '\', 00H
	DB	's', 00H, 't', 00H, 'b', 00H, '\', 00H, 's', 00H, 't', 00H, 'b'
	DB	00H, '_', 00H, 't', 00H, 'r', 00H, 'u', 00H, 'e', 00H, 't', 00H
	DB	'y', 00H, 'p', 00H, 'e', 00H, '.', 00H, 'h', 00H, 00H, 00H
$SG168959 DB	'%s', 00H
	ORG $+1
$SG172962 DB	'M', 00H, 'u', 00H, 's', 00H, 't', 00H, 'T', 00H, 'a', 00H
	DB	'r', 00H, 'g', 00H, 'e', 00H, 't', 00H, 'W', 00H, 'o', 00H, 'r'
	DB	00H, 'k', 00H, 'e', 00H, 'r', 00H, 'U', 00H, 'n', 00H, 'i', 00H
	DB	't', 00H, 's', 00H, 00H, 00H
$SG168962 DB	'%s', 00H
	ORG $+1
$SG172964 DB	'C', 00H, 'a', 00H, 'n', 00H, 't', 00H, 'T', 00H, 'a', 00H
	DB	'r', 00H, 'g', 00H, 'e', 00H, 't', 00H, 'W', 00H, 'o', 00H, 'r'
	DB	00H, 'k', 00H, 'e', 00H, 'r', 00H, 'U', 00H, 'n', 00H, 'i', 00H
	DB	't', 00H, 's', 00H, 00H, 00H
$SG168967 DB	'%s', 00H
	ORG $+1
$SG172966 DB	'M', 00H, 'u', 00H, 's', 00H, 't', 00H, 'T', 00H, 'a', 00H
	DB	'r', 00H, 'g', 00H, 'e', 00H, 't', 00H, 'E', 00H, 'n', 00H, 'e'
	DB	00H, 'r', 00H, 'g', 00H, 'y', 00H, 'C', 00H, 'a', 00H, 'p', 00H
	DB	'a', 00H, 'b', 00H, 'l', 00H, 'e', 00H, 'U', 00H, 'n', 00H, 'i'
	DB	00H, 't', 00H, 's', 00H, 00H, 00H
	ORG $+2
$SG168969 DB	'%s', 00H
	ORG $+1
$SG164774 DB	'%d-%b-%Y %H:%M', 00H
	ORG $+1
$SG164775 DB	'01-Jan-1970 00:00', 00H
	ORG $+2
$SG168981 DB	'%s', 00H
	ORG $+1
$SG172968 DB	'C', 00H, 'a', 00H, 'n', 00H, 't', 00H, 'T', 00H, 'a', 00H
	DB	'r', 00H, 'g', 00H, 'e', 00H, 't', 00H, 'E', 00H, 'n', 00H, 'e'
	DB	00H, 'r', 00H, 'g', 00H, 'y', 00H, 'C', 00H, 'a', 00H, 'p', 00H
	DB	'a', 00H, 'b', 00H, 'l', 00H, 'e', 00H, 'U', 00H, 'n', 00H, 'i'
	DB	00H, 't', 00H, 's', 00H, 00H, 00H
	ORG $+2
$SG168984 DB	'%s', 00H
	ORG $+1
$SG172970 DB	'M', 00H, 'u', 00H, 's', 00H, 't', 00H, 'T', 00H, 'a', 00H
	DB	'r', 00H, 'g', 00H, 'e', 00H, 't', 00H, 'S', 00H, 'h', 00H, 'i'
	DB	00H, 'e', 00H, 'l', 00H, 'd', 00H, 'C', 00H, 'a', 00H, 'p', 00H
	DB	'a', 00H, 'b', 00H, 'l', 00H, 'e', 00H, 'U', 00H, 'n', 00H, 'i'
	DB	00H, 't', 00H, 's', 00H, 00H, 00H
	ORG $+2
$SG168992 DB	'%s', 00H
	ORG $+1
$SG172972 DB	'C', 00H, 'a', 00H, 'n', 00H, 't', 00H, 'T', 00H, 'a', 00H
	DB	'r', 00H, 'g', 00H, 'e', 00H, 't', 00H, 'S', 00H, 'h', 00H, 'i'
	DB	00H, 'e', 00H, 'l', 00H, 'd', 00H, 'C', 00H, 'a', 00H, 'p', 00H
	DB	'a', 00H, 'b', 00H, 'l', 00H, 'e', 00H, 'U', 00H, 'n', 00H, 'i'
	DB	00H, 't', 00H, 's', 00H, 00H, 00H
	ORG $+6
$SG172974 DB	'M', 00H, 'u', 00H, 's', 00H, 't', 00H, 'T', 00H, 'a', 00H
	DB	'r', 00H, 'g', 00H, 'e', 00H, 't', 00H, 'F', 00H, 'l', 00H, 'y'
	DB	00H, 'e', 00H, 'r', 00H, 's', 00H, 00H, 00H
	ORG $+6
$SG164780 DB	'<tr><td><a href="%s%s">%s%s</a></td><td>&nbsp;%s</td><td'
	DB	'>&nbsp;&nbsp;%s</td></tr>', 0aH, 00H
	ORG $+1
$SG168999 DB	'%s', 00H
	ORG $+1
$SG172976 DB	'C', 00H, 'a', 00H, 'n', 00H, 't', 00H, 'T', 00H, 'a', 00H
	DB	'r', 00H, 'g', 00H, 'e', 00H, 't', 00H, 'F', 00H, 'l', 00H, 'y'
	DB	00H, 'e', 00H, 'r', 00H, 's', 00H, 00H, 00H
	ORG $+2
$SG169011 DB	'%s', 00H
	ORG $+1
$SG172978 DB	'M', 00H, 'u', 00H, 's', 00H, 't', 00H, 'T', 00H, 'a', 00H
	DB	'r', 00H, 'g', 00H, 'e', 00H, 't', 00H, 'B', 00H, 'u', 00H, 'r'
	DB	00H, 'i', 00H, 'e', 00H, 'd', 00H, 'U', 00H, 'n', 00H, 'i', 00H
	DB	't', 00H, 's', 00H, 00H, 00H
	ORG $+4
$SG82867 DB	'W', 00H, ':', 00H, '\', 00H, 'c', 00H, 'p', 00H, 'p', 00H
	DB	'\', 00H, 'v', 00H, 'o', 00H, 'i', 00H, 'd', 00H, '\', 00H, 'v'
	DB	00H, 'e', 00H, 'n', 00H, 'd', 00H, 'o', 00H, 'r', 00H, '\', 00H
	DB	's', 00H, 't', 00H, 'b', 00H, '\', 00H, 's', 00H, 't', 00H, 'b'
	DB	00H, '_', 00H, 't', 00H, 'r', 00H, 'u', 00H, 'e', 00H, 't', 00H
	DB	'y', 00H, 'p', 00H, 'e', 00H, '.', 00H, 'h', 00H, 00H, 00H
$SG169019 DB	'%s', 00H
	ORG $+1
$SG172980 DB	'C', 00H, 'a', 00H, 'n', 00H, 't', 00H, 'T', 00H, 'a', 00H
	DB	'r', 00H, 'g', 00H, 'e', 00H, 't', 00H, 'B', 00H, 'u', 00H, 'r'
	DB	00H, 'i', 00H, 'e', 00H, 'd', 00H, 'U', 00H, 'n', 00H, 'i', 00H
	DB	't', 00H, 's', 00H, 00H, 00H
$SG169026 DB	'%s', 00H
	ORG $+1
$SG172982 DB	'M', 00H, 'u', 00H, 's', 00H, 't', 00H, 'T', 00H, 'a', 00H
	DB	'r', 00H, 'g', 00H, 'e', 00H, 't', 00H, 'C', 00H, 'l', 00H, 'o'
	DB	00H, 'a', 00H, 'k', 00H, 'e', 00H, 'd', 00H, 'U', 00H, 'n', 00H
	DB	'i', 00H, 't', 00H, 's', 00H, 00H, 00H
	ORG $+2
$SG172984 DB	'C', 00H, 'a', 00H, 'n', 00H, 't', 00H, 'T', 00H, 'a', 00H
	DB	'r', 00H, 'g', 00H, 'e', 00H, 't', 00H, 'C', 00H, 'l', 00H, 'o'
	DB	00H, 'a', 00H, 'k', 00H, 'e', 00H, 'd', 00H, 'U', 00H, 'n', 00H
	DB	'i', 00H, 't', 00H, 's', 00H, 00H, 00H
	ORG $+2
$SG172986 DB	'M', 00H, 'u', 00H, 's', 00H, 't', 00H, 'T', 00H, 'a', 00H
	DB	'r', 00H, 'g', 00H, 'e', 00H, 't', 00H, 'U', 00H, 'n', 00H, 'i'
	DB	00H, 't', 00H, 's', 00H, 'I', 00H, 'n', 00H, 'A', 00H, 'S', 00H
	DB	't', 00H, 'a', 00H, 's', 00H, 'i', 00H, 's', 00H, 'F', 00H, 'i'
	DB	00H, 'e', 00H, 'l', 00H, 'd', 00H, 00H, 00H
$SG169046 DB	'%s', 00H
	ORG $+1
$SG91066 DB	'too large', 00H
	ORG $+2
$SG169049 DB	'%i', 00H
	ORG $+1
$SG172988 DB	'C', 00H, 'a', 00H, 'n', 00H, 't', 00H, 'T', 00H, 'a', 00H
	DB	'r', 00H, 'g', 00H, 'e', 00H, 't', 00H, 'U', 00H, 'n', 00H, 'i'
	DB	00H, 't', 00H, 's', 00H, 'I', 00H, 'n', 00H, 'A', 00H, 'S', 00H
	DB	't', 00H, 'a', 00H, 's', 00H, 'i', 00H, 's', 00H, 'F', 00H, 'i'
	DB	00H, 'e', 00H, 'l', 00H, 'd', 00H, 00H, 00H
$SG169072 DB	'%s', 00H
	ORG $+1
$SG91068 DB	'too large', 00H
	ORG $+6
$SG172990 DB	'M', 00H, 'u', 00H, 's', 00H, 't', 00H, 'T', 00H, 'a', 00H
	DB	'r', 00H, 'g', 00H, 'e', 00H, 't', 00H, 'U', 00H, 'n', 00H, 'd'
	DB	00H, 'e', 00H, 'r', 00H, 'C', 00H, 'o', 00H, 'n', 00H, 's', 00H
	DB	't', 00H, 'r', 00H, 'u', 00H, 'c', 00H, 't', 00H, 'i', 00H, 'o'
	DB	00H, 'n', 00H, 'U', 00H, 'n', 00H, 'i', 00H, 't', 00H, 's', 00H
	DB	00H, 00H
	ORG $+2
$SG169156 DB	'%s', 00H
	ORG $+1
$SG91070 DB	'bad file', 00H
	ORG $+7
$SG91072 DB	'too large', 00H
	ORG $+6
$SG172994 DB	'M', 00H, 'u', 00H, 's', 00H, 't', 00H, 'T', 00H, 'a', 00H
	DB	'r', 00H, 'g', 00H, 'e', 00H, 't', 00H, 'D', 00H, 'e', 00H, 'a'
	DB	00H, 'd', 00H, 'U', 00H, 'n', 00H, 'i', 00H, 't', 00H, 's', 00H
	DB	00H, 00H
$SG172992 DB	'C', 00H, 'a', 00H, 'n', 00H, 't', 00H, 'T', 00H, 'a', 00H
	DB	'r', 00H, 'g', 00H, 'e', 00H, 't', 00H, 'U', 00H, 'n', 00H, 'd'
	DB	00H, 'e', 00H, 'r', 00H, 'C', 00H, 'o', 00H, 'n', 00H, 's', 00H
	DB	't', 00H, 'r', 00H, 'u', 00H, 'c', 00H, 't', 00H, 'i', 00H, 'o'
	DB	00H, 'n', 00H, 'U', 00H, 'n', 00H, 'i', 00H, 't', 00H, 's', 00H
	DB	00H, 00H
	ORG $+2
$SG169219 DB	'yes', 00H
$SG91074 DB	'outofmem', 00H
	ORG $+3
$SG167244 DB	'https', 00H
	ORG $+2
$SG79113 DB	'C:', 00H
	ORG $+1
$SG172996 DB	'C', 00H, 'a', 00H, 'n', 00H, 't', 00H, 'T', 00H, 'a', 00H
	DB	'r', 00H, 'g', 00H, 'e', 00H, 't', 00H, 'D', 00H, 'e', 00H, 'a'
	DB	00H, 'd', 00H, 'U', 00H, 'n', 00H, 'i', 00H, 't', 00H, 's', 00H
	DB	00H, 00H
$SG172998 DB	'M', 00H, 'u', 00H, 's', 00H, 't', 00H, 'T', 00H, 'a', 00H
	DB	'r', 00H, 'g', 00H, 'e', 00H, 't', 00H, 'R', 00H, 'e', 00H, 'v'
	DB	00H, 'i', 00H, 'v', 00H, 'a', 00H, 'b', 00H, 'l', 00H, 'e', 00H
	DB	'U', 00H, 'n', 00H, 'i', 00H, 't', 00H, 's', 00H, 00H, 00H
	ORG $+2
$SG79139 DB	'*', 00H
	ORG $+2
$SG173000 DB	'C', 00H, 'a', 00H, 'n', 00H, 't', 00H, 'T', 00H, 'a', 00H
	DB	'r', 00H, 'g', 00H, 'e', 00H, 't', 00H, 'R', 00H, 'e', 00H, 'v'
	DB	00H, 'i', 00H, 'v', 00H, 'a', 00H, 'b', 00H, 'l', 00H, 'e', 00H
	DB	'U', 00H, 'n', 00H, 'i', 00H, 't', 00H, 's', 00H, 00H, 00H
	ORG $+2
$SG169263 DB	'%s', 00H
	ORG $+1
$SG173002 DB	'M', 00H, 'u', 00H, 's', 00H, 't', 00H, 'T', 00H, 'a', 00H
	DB	'r', 00H, 'g', 00H, 'e', 00H, 't', 00H, 'H', 00H, 'i', 00H, 'd'
	DB	00H, 'd', 00H, 'e', 00H, 'n', 00H, 'U', 00H, 'n', 00H, 'i', 00H
	DB	't', 00H, 's', 00H, 00H, 00H
$SG169265 DB	'1.0', 00H
$SG173004 DB	'C', 00H, 'a', 00H, 'n', 00H, 't', 00H, 'T', 00H, 'a', 00H
	DB	'r', 00H, 'g', 00H, 'e', 00H, 't', 00H, 'H', 00H, 'i', 00H, 'd'
	DB	00H, 'd', 00H, 'e', 00H, 'n', 00H, 'U', 00H, 'n', 00H, 'i', 00H
	DB	't', 00H, 's', 00H, 00H, 00H
$SG169266 DB	'1.1', 00H
$SG164812 DB	'**.htpasswd$', 00H
	ORG $+3
$SG173006 DB	'C', 00H, 'a', 00H, 'n', 00H, 't', 00H, 'R', 00H, 'e', 00H
	DB	'c', 00H, 'h', 00H, 'a', 00H, 'r', 00H, 'g', 00H, 'e', 00H, 'O'
	DB	00H, 't', 00H, 'h', 00H, 'e', 00H, 'r', 00H, 'P', 00H, 'l', 00H
	DB	'a', 00H, 'y', 00H, 'e', 00H, 'r', 00H, 's', 00H, 'U', 00H, 'n'
	DB	00H, 'i', 00H, 't', 00H, 's', 00H, 00H, 00H
$SG164935 DB	'&gt;', 00H
	ORG $+7
$SG82894 DB	'W', 00H, ':', 00H, '\', 00H, 'c', 00H, 'p', 00H, 'p', 00H
	DB	'\', 00H, 'v', 00H, 'o', 00H, 'i', 00H, 'd', 00H, '\', 00H, 'v'
	DB	00H, 'e', 00H, 'n', 00H, 'd', 00H, 'o', 00H, 'r', 00H, '\', 00H
	DB	's', 00H, 't', 00H, 'b', 00H, '\', 00H, 's', 00H, 't', 00H, 'b'
	DB	00H, '_', 00H, 't', 00H, 'r', 00H, 'u', 00H, 'e', 00H, 't', 00H
	DB	'y', 00H, 'p', 00H, 'e', 00H, '.', 00H, 'h', 00H, 00H, 00H
$SG169268 DB	'%s', 00H
	ORG $+1
$SG82895 DB	'!', 00H, 'i', 00H, 'n', 00H, 'f', 00H, 'o', 00H, '-', 00H
	DB	'>', 00H, 'c', 00H, 'f', 00H, 'f', 00H, '.', 00H, 's', 00H, 'i'
	DB	00H, 'z', 00H, 'e', 00H, 00H, 00H
$SG173008 DB	'M', 00H, 'u', 00H, 's', 00H, 't', 00H, 'T', 00H, 'a', 00H
	DB	'r', 00H, 'g', 00H, 'e', 00H, 't', 00H, 'H', 00H, 'a', 00H, 'l'
	DB	00H, 'l', 00H, 'u', 00H, 'c', 00H, 'i', 00H, 'n', 00H, 'a', 00H
	DB	't', 00H, 'i', 00H, 'o', 00H, 'n', 00H, 's', 00H, 00H, 00H
	ORG $+2
$SG169278 DB	'%s', 00H
	ORG $+1
$SG173010 DB	'C', 00H, 'a', 00H, 'n', 00H, 't', 00H, 'T', 00H, 'a', 00H
	DB	'r', 00H, 'g', 00H, 'e', 00H, 't', 00H, 'H', 00H, 'a', 00H, 'l'
	DB	00H, 'l', 00H, 'u', 00H, 'c', 00H, 'i', 00H, 'n', 00H, 'a', 00H
	DB	't', 00H, 'i', 00H, 'o', 00H, 'n', 00H, 's', 00H, 00H, 00H
	ORG $+2
$SG169360 DB	'worker', 00H
	ORG $+1
$SG169372 DB	'%s', 00H
	ORG $+1
$SG173012 DB	'M', 00H, 'u', 00H, 's', 00H, 't', 00H, 'T', 00H, 'a', 00H
	DB	'r', 00H, 'g', 00H, 'e', 00H, 't', 00H, 'I', 00H, 'n', 00H, 'v'
	DB	00H, 'u', 00H, 'l', 00H, 'n', 00H, 'e', 00H, 'r', 00H, 'a', 00H
	DB	'b', 00H, 'l', 00H, 'e', 00H, 'U', 00H, 'n', 00H, 'i', 00H, 't'
	DB	00H, 's', 00H, 00H, 00H
$SG173014 DB	'C', 00H, 'a', 00H, 'n', 00H, 't', 00H, 'T', 00H, 'a', 00H
	DB	'r', 00H, 'g', 00H, 'e', 00H, 't', 00H, 'I', 00H, 'n', 00H, 'v'
	DB	00H, 'u', 00H, 'l', 00H, 'n', 00H, 'e', 00H, 'r', 00H, 'a', 00H
	DB	'b', 00H, 'l', 00H, 'e', 00H, 'U', 00H, 'n', 00H, 'i', 00H, 't'
	DB	00H, 's', 00H, 00H, 00H
$SG173016 DB	'M', 00H, 'u', 00H, 's', 00H, 't', 00H, 'T', 00H, 'a', 00H
	DB	'r', 00H, 'g', 00H, 'e', 00H, 't', 00H, 'D', 00H, 'e', 00H, 't'
	DB	00H, 'e', 00H, 'c', 00H, 't', 00H, 'e', 00H, 'd', 00H, 'U', 00H
	DB	'n', 00H, 'i', 00H, 't', 00H, 's', 00H, 00H, 00H
$SG173018 DB	'C', 00H, 'a', 00H, 'n', 00H, 't', 00H, 'T', 00H, 'a', 00H
	DB	'r', 00H, 'g', 00H, 'e', 00H, 't', 00H, 'D', 00H, 'e', 00H, 't'
	DB	00H, 'e', 00H, 'c', 00H, 't', 00H, 'e', 00H, 'd', 00H, 'U', 00H
	DB	'n', 00H, 'i', 00H, 't', 00H, 's', 00H, 00H, 00H
$SG173020 DB	'C', 00H, 'a', 00H, 'n', 00H, 't', 00H, 'T', 00H, 'a', 00H
	DB	'r', 00H, 'g', 00H, 'e', 00H, 't', 00H, 'U', 00H, 'n', 00H, 'i'
	DB	00H, 't', 00H, 'W', 00H, 'i', 00H, 't', 00H, 'h', 00H, 'E', 00H
	DB	'n', 00H, 'e', 00H, 'r', 00H, 'g', 00H, 'y', 00H, 00H, 00H
	ORG $+2
$SG161182 DB	'50', 00H
	ORG $+1
$SG173022 DB	'C', 00H, 'a', 00H, 'n', 00H, 't', 00H, 'T', 00H, 'a', 00H
	DB	'r', 00H, 'g', 00H, 'e', 00H, 't', 00H, 'U', 00H, 'n', 00H, 'i'
	DB	00H, 't', 00H, 'W', 00H, 'i', 00H, 't', 00H, 'h', 00H, 'S', 00H
	DB	'h', 00H, 'i', 00H, 'e', 00H, 'l', 00H, 'd', 00H, 's', 00H, 00H
	DB	00H
$SG161185 DB	'0', 00H
	ORG $+2
$SG173024 DB	'M', 00H, 'u', 00H, 's', 00H, 't', 00H, 'T', 00H, 'a', 00H
	DB	'r', 00H, 'g', 00H, 'e', 00H, 't', 00H, 'U', 00H, 'n', 00H, 'c'
	DB	00H, 'o', 00H, 'm', 00H, 'm', 00H, 'a', 00H, 'n', 00H, 'd', 00H
	DB	'a', 00H, 'b', 00H, 'l', 00H, 'e', 00H, 'U', 00H, 'n', 00H, 'i'
	DB	00H, 't', 00H, 's', 00H, 00H, 00H
	ORG $+2
$SG161190 DB	'20', 00H
	ORG $+1
$SG173026 DB	'C', 00H, 'a', 00H, 'n', 00H, 't', 00H, 'T', 00H, 'a', 00H
	DB	'r', 00H, 'g', 00H, 'e', 00H, 't', 00H, 'U', 00H, 'n', 00H, 'c'
	DB	00H, 'o', 00H, 'm', 00H, 'm', 00H, 'a', 00H, 'n', 00H, 'd', 00H
	DB	'a', 00H, 'b', 00H, 'l', 00H, 'e', 00H, 'U', 00H, 'n', 00H, 'i'
	DB	00H, 't', 00H, 's', 00H, 00H, 00H
	ORG $+2
$SG161192 DB	'200', 00H
$SG173028 DB	'M', 00H, 'u', 00H, 's', 00H, 't', 00H, 'T', 00H, 'a', 00H
	DB	'r', 00H, 'g', 00H, 'e', 00H, 't', 00H, 'P', 00H, 'r', 00H, 'e'
	DB	00H, 'v', 00H, 'e', 00H, 'n', 00H, 't', 00H, 'D', 00H, 'e', 00H
	DB	'f', 00H, 'e', 00H, 'a', 00H, 't', 00H, 'U', 00H, 'n', 00H, 'i'
	DB	00H, 't', 00H, 's', 00H, 00H, 00H
	ORG $+2
$SG161194 DB	'no', 00H
	ORG $+1
$SG173030 DB	'C', 00H, 'a', 00H, 'n', 00H, 't', 00H, 'T', 00H, 'a', 00H
	DB	'r', 00H, 'g', 00H, 'e', 00H, 't', 00H, 'P', 00H, 'r', 00H, 'e'
	DB	00H, 'v', 00H, 'e', 00H, 'n', 00H, 't', 00H, 'D', 00H, 'e', 00H
	DB	'f', 00H, 'e', 00H, 'a', 00H, 't', 00H, 'U', 00H, 'n', 00H, 'i'
	DB	00H, 't', 00H, 's', 00H, 00H, 00H
	ORG $+2
$SG161197 DB	'no', 00H
	ORG $+1
$SG164839 DB	'scan_directory', 00H
	ORG $+1
$SG173032 DB	'M', 00H, 'u', 00H, 's', 00H, 't', 00H, 'T', 00H, 'a', 00H
	DB	'r', 00H, 'g', 00H, 'e', 00H, 't', 00H, 'P', 00H, 'r', 00H, 'e'
	DB	00H, 'v', 00H, 'e', 00H, 'n', 00H, 't', 00H, 'R', 00H, 'e', 00H
	DB	'v', 00H, 'e', 00H, 'a', 00H, 'l', 00H, 'U', 00H, 'n', 00H, 'i'
	DB	00H, 't', 00H, 's', 00H, 00H, 00H
	ORG $+2
$SG161201 DB	'500', 00H
$SG164840 DB	'%s: mg_stat(%s) failed: %s', 00H
	ORG $+1
$SG161204 DB	'no', 00H
	ORG $+1
$SG164841 DB	'scan_directory', 00H
	ORG $+1
$SG173034 DB	'C', 00H, 'a', 00H, 'n', 00H, 't', 00H, 'T', 00H, 'a', 00H
	DB	'r', 00H, 'g', 00H, 'e', 00H, 't', 00H, 'P', 00H, 'r', 00H, 'e'
	DB	00H, 'v', 00H, 'e', 00H, 'n', 00H, 't', 00H, 'R', 00H, 'e', 00H
	DB	'v', 00H, 'e', 00H, 'a', 00H, 'l', 00H, 'U', 00H, 'n', 00H, 'i'
	DB	00H, 't', 00H, 's', 00H, 00H, 00H
	ORG $+2
$SG161206 DB	'yes', 00H
$SG173036 DB	'M', 00H, 'u', 00H, 's', 00H, 't', 00H, 'T', 00H, 'a', 00H
	DB	'r', 00H, 'g', 00H, 'e', 00H, 't', 00H, 'P', 00H, 'a', 00H, 's'
	DB	00H, 's', 00H, 'i', 00H, 'v', 00H, 'e', 00H, 'U', 00H, 'n', 00H
	DB	'i', 00H, 't', 00H, 's', 00H, 00H, 00H
	ORG $+2
$SG173038 DB	'C', 00H, 'a', 00H, 'n', 00H, 't', 00H, 'T', 00H, 'a', 00H
	DB	'r', 00H, 'g', 00H, 'e', 00H, 't', 00H, 'P', 00H, 'a', 00H, 's'
	DB	00H, 's', 00H, 'i', 00H, 'v', 00H, 'e', 00H, 'U', 00H, 'n', 00H
	DB	'i', 00H, 't', 00H, 's', 00H, 00H, 00H
	ORG $+2
$SG173040 DB	'M', 00H, 'u', 00H, 's', 00H, 't', 00H, 'T', 00H, 'a', 00H
	DB	'r', 00H, 'g', 00H, 'e', 00H, 't', 00H, 'S', 00H, 't', 00H, 'u'
	DB	00H, 'n', 00H, 'n', 00H, 'e', 00H, 'd', 00H, 'U', 00H, 'n', 00H
	DB	'i', 00H, 't', 00H, 's', 00H, 00H, 00H
	ORG $+2
$SG173042 DB	'C', 00H, 'a', 00H, 'n', 00H, 't', 00H, 'T', 00H, 'a', 00H
	DB	'r', 00H, 'g', 00H, 'e', 00H, 't', 00H, 'S', 00H, 't', 00H, 'u'
	DB	00H, 'n', 00H, 'n', 00H, 'e', 00H, 'd', 00H, 'U', 00H, 'n', 00H
	DB	'i', 00H, 't', 00H, 's', 00H, 00H, 00H
	ORG $+2
$SG173044 DB	'M', 00H, 'u', 00H, 's', 00H, 't', 00H, 'T', 00H, 'a', 00H
	DB	'r', 00H, 'g', 00H, 'e', 00H, 't', 00H, 'S', 00H, 'u', 00H, 'm'
	DB	00H, 'm', 00H, 'o', 00H, 'n', 00H, 'e', 00H, 'd', 00H, 'U', 00H
	DB	'n', 00H, 'i', 00H, 't', 00H, 's', 00H, 00H, 00H
$SG173046 DB	'C', 00H, 'a', 00H, 'n', 00H, 't', 00H, 'T', 00H, 'a', 00H
	DB	'r', 00H, 'g', 00H, 'e', 00H, 't', 00H, 'S', 00H, 'u', 00H, 'm'
	DB	00H, 'm', 00H, 'o', 00H, 'n', 00H, 'e', 00H, 'd', 00H, 'U', 00H
	DB	'n', 00H, 'i', 00H, 't', 00H, 's', 00H, 00H, 00H
$SG173048 DB	'M', 00H, 'u', 00H, 's', 00H, 't', 00H, 'T', 00H, 'a', 00H
	DB	'r', 00H, 'g', 00H, 'e', 00H, 't', 00H, 'U', 00H, 's', 00H, 'e'
	DB	00H, 'r', 00H, '1', 00H, 00H, 00H
$SG173050 DB	'C', 00H, 'a', 00H, 'n', 00H, 't', 00H, 'T', 00H, 'a', 00H
	DB	'r', 00H, 'g', 00H, 'e', 00H, 't', 00H, 'U', 00H, 's', 00H, 'e'
	DB	00H, 'r', 00H, '1', 00H, 00H, 00H
$SG173052 DB	'M', 00H, 'u', 00H, 's', 00H, 't', 00H, 'T', 00H, 'a', 00H
	DB	'r', 00H, 'g', 00H, 'e', 00H, 't', 00H, 'U', 00H, 'n', 00H, 's'
	DB	00H, 't', 00H, 'o', 00H, 'p', 00H, 'p', 00H, 'a', 00H, 'b', 00H
	DB	'l', 00H, 'e', 00H, 'U', 00H, 'n', 00H, 'i', 00H, 't', 00H, 's'
	DB	00H, 00H, 00H
	ORG $+2
$SG173054 DB	'C', 00H, 'a', 00H, 'n', 00H, 't', 00H, 'T', 00H, 'a', 00H
	DB	'r', 00H, 'g', 00H, 'e', 00H, 't', 00H, 'U', 00H, 'n', 00H, 's'
	DB	00H, 't', 00H, 'o', 00H, 'p', 00H, 'p', 00H, 'a', 00H, 'b', 00H
	DB	'l', 00H, 'e', 00H, 'U', 00H, 'n', 00H, 'i', 00H, 't', 00H, 's'
	DB	00H, 00H, 00H
	ORG $+2
$SG173056 DB	'M', 00H, 'u', 00H, 's', 00H, 't', 00H, 'T', 00H, 'a', 00H
	DB	'r', 00H, 'g', 00H, 'e', 00H, 't', 00H, 'R', 00H, 'e', 00H, 's'
	DB	00H, 'i', 00H, 's', 00H, 't', 00H, 'a', 00H, 'n', 00H, 't', 00H
	DB	'U', 00H, 'n', 00H, 'i', 00H, 't', 00H, 's', 00H, 00H, 00H
	ORG $+2
$SG161208 DB	'no', 00H
	ORG $+1
$SG173058 DB	'C', 00H, 'a', 00H, 'n', 00H, 't', 00H, 'T', 00H, 'a', 00H
	DB	'r', 00H, 'g', 00H, 'e', 00H, 't', 00H, 'R', 00H, 'e', 00H, 's'
	DB	00H, 'i', 00H, 's', 00H, 't', 00H, 'a', 00H, 'n', 00H, 't', 00H
	DB	'U', 00H, 'n', 00H, 'i', 00H, 't', 00H, 's', 00H, 00H, 00H
	ORG $+2
$SG161218 DB	'yes', 00H
$SG164867 DB	'remove_directory', 00H
	ORG $+3
$SG167638 DB	'MKCOL', 00H
	ORG $+2
$SG161224 DB	'yes', 00H
$SG173060 DB	'M', 00H, 'u', 00H, 's', 00H, 't', 00H, 'T', 00H, 'a', 00H
	DB	'r', 00H, 'g', 00H, 'e', 00H, 't', 00H, 'D', 00H, 'a', 00H, 'z'
	DB	00H, 'e', 00H, 'd', 00H, 'U', 00H, 'n', 00H, 'i', 00H, 't', 00H
	DB	's', 00H, 00H, 00H
	ORG $+2
$SG169420 DB	'1', 00H
	ORG $+2
$SG164868 DB	'%s: mg_stat(%s) failed: %s', 00H
	ORG $+1
$SG161230 DB	'yes', 00H
$SG164869 DB	'remove_directory', 00H
	ORG $+3
$SG78573 DB	'%', 00H, 's', 00H, 00H, 00H
	ORG $+2
$SG161234 DB	'yes', 00H
$SG173062 DB	'C', 00H, 'a', 00H, 'n', 00H, 't', 00H, 'T', 00H, 'a', 00H
	DB	'r', 00H, 'g', 00H, 'e', 00H, 't', 00H, 'D', 00H, 'a', 00H, 'z'
	DB	00H, 'e', 00H, 'd', 00H, 'U', 00H, 'n', 00H, 'i', 00H, 't', 00H
	DB	's', 00H, 00H, 00H
	ORG $+2
$SG161236 DB	'no', 00H
	ORG $+1
$SG173064 DB	'C', 00H, 'a', 00H, 'n', 00H, 't', 00H, 'L', 00H, 'o', 00H
	DB	'c', 00H, 'k', 00H, 'd', 00H, 'o', 00H, 'w', 00H, 'n', 00H, 00H
	DB	00H
	ORG $+2
$SG161247 DB	'no', 00H
	ORG $+1
$SG173066 DB	'C', 00H, 'a', 00H, 'n', 00H, 't', 00H, 'M', 00H, 'i', 00H
	DB	'n', 00H, 'd', 00H, 'C', 00H, 'o', 00H, 'n', 00H, 't', 00H, 'r'
	DB	00H, 'o', 00H, 'l', 00H, 00H, 00H
$SG173068 DB	'M', 00H, 'u', 00H, 's', 00H, 't', 00H, 'T', 00H, 'a', 00H
	DB	'r', 00H, 'g', 00H, 'e', 00H, 't', 00H, 'D', 00H, 'e', 00H, 's'
	DB	00H, 't', 00H, 'r', 00H, 'u', 00H, 'c', 00H, 't', 00H, 'i', 00H
	DB	'b', 00H, 'l', 00H, 'e', 00H, 's', 00H, 00H, 00H
$SG173070 DB	'C', 00H, 'a', 00H, 'n', 00H, 't', 00H, 'T', 00H, 'a', 00H
	DB	'r', 00H, 'g', 00H, 'e', 00H, 't', 00H, 'D', 00H, 'e', 00H, 's'
	DB	00H, 't', 00H, 'r', 00H, 'u', 00H, 'c', 00H, 't', 00H, 'i', 00H
	DB	'b', 00H, 'l', 00H, 'e', 00H, 's', 00H, 00H, 00H
$SG173072 DB	'M', 00H, 'u', 00H, 's', 00H, 't', 00H, 'T', 00H, 'a', 00H
	DB	'r', 00H, 'g', 00H, 'e', 00H, 't', 00H, 'I', 00H, 't', 00H, 'e'
	DB	00H, 'm', 00H, 's', 00H, 00H, 00H
$SG173074 DB	'C', 00H, 'a', 00H, 'n', 00H, 't', 00H, 'T', 00H, 'a', 00H
	DB	'r', 00H, 'g', 00H, 'e', 00H, 't', 00H, 'I', 00H, 't', 00H, 'e'
	DB	00H, 'm', 00H, 's', 00H, 00H, 00H
$SG173076 DB	'N', 00H, 'o', 00H, 'C', 00H, 'a', 00H, 'l', 00H, 'l', 00H
	DB	'd', 00H, 'o', 00H, 'w', 00H, 'n', 00H, 'A', 00H, 'v', 00H, 'a'
	DB	00H, 'i', 00H, 'l', 00H, 'a', 00H, 'b', 00H, 'l', 00H, 'e', 00H
	DB	00H, 00H
$SG173078 DB	'W', 00H, 'a', 00H, 'y', 00H, 'p', 00H, 'o', 00H, 'i', 00H
	DB	'n', 00H, 't', 00H, 'L', 00H, 'i', 00H, 's', 00H, 't', 00H, 'F'
	DB	00H, 'u', 00H, 'l', 00H, 'l', 00H, 00H, 00H
	ORG $+2
$SG161249 DB	'-1', 00H
	ORG $+1
$SG173080 DB	'M', 00H, 'u', 00H, 's', 00H, 't', 00H, 'T', 00H, 'a', 00H
	DB	'r', 00H, 'g', 00H, 'e', 00H, 't', 00H, 'R', 00H, 'a', 00H, 'c'
	DB	00H, 'e', 00H, 00H, 00H
	ORG $+2
$SG173082 DB	'C', 00H, 'a', 00H, 'n', 00H, 't', 00H, 'T', 00H, 'a', 00H
	DB	'r', 00H, 'g', 00H, 'e', 00H, 't', 00H, 'R', 00H, 'a', 00H, 'c'
	DB	00H, 'e', 00H, 00H, 00H
	ORG $+2
$SG173084 DB	'M', 00H, 'u', 00H, 's', 00H, 't', 00H, 'T', 00H, 'a', 00H
	DB	'r', 00H, 'g', 00H, 'e', 00H, 't', 00H, 'S', 00H, 'i', 00H, 'm'
	DB	00H, 'i', 00H, 'l', 00H, 'a', 00H, 'r', 00H, 'U', 00H, 'n', 00H
	DB	'i', 00H, 't', 00H, 's', 00H, 00H, 00H
	ORG $+2
$SG91164 DB	'not GIF', 00H
$SG173086 DB	'C', 00H, 'a', 00H, 'n', 00H, 't', 00H, 'T', 00H, 'a', 00H
	DB	'r', 00H, 'g', 00H, 'e', 00H, 't', 00H, 'S', 00H, 'i', 00H, 'm'
	DB	00H, 'i', 00H, 'l', 00H, 'a', 00H, 'r', 00H, 'U', 00H, 'n', 00H
	DB	'i', 00H, 't', 00H, 's', 00H, 00H, 00H
	ORG $+2
$SG91166 DB	'not GIF', 00H
$SG173088 DB	'C', 00H, 'a', 00H, 'n', 00H, 't', 00H, 'F', 00H, 'i', 00H
	DB	'n', 00H, 'd', 00H, 'E', 00H, 'n', 00H, 'o', 00H, 'u', 00H, 'g'
	DB	00H, 'h', 00H, 'T', 00H, 'a', 00H, 'r', 00H, 'g', 00H, 'e', 00H
	DB	't', 00H, 's', 00H, 00H, 00H
$SG161253 DB	'9', 00H
	ORG $+2
$SG91168 DB	'not GIF', 00H
$SG173090 DB	'A', 00H, 'l', 00H, 'r', 00H, 'e', 00H, 'a', 00H, 'd', 00H
	DB	'y', 00H, 'S', 00H, 'p', 00H, 'a', 00H, 'w', 00H, 'n', 00H, 'i'
	DB	00H, 'n', 00H, 'g', 00H, 'L', 00H, 'a', 00H, 'r', 00H, 'v', 00H
	DB	'a', 00H, 00H, 00H
	ORG $+2
$SG95717 DB	'%f', 00H
	ORG $+1
$SG91171 DB	'too large', 00H
	ORG $+2
$SG161255 DB	'yes', 00H
$SG173092 DB	'C', 00H, 'a', 00H, 'n', 00H, 't', 00H, 'T', 00H, 'a', 00H
	DB	'r', 00H, 'g', 00H, 'e', 00H, 't', 00H, 'E', 00H, 'x', 00H, 'h'
	DB	00H, 'a', 00H, 'u', 00H, 's', 00H, 't', 00H, 'e', 00H, 'd', 00H
	DB	'R', 00H, 'e', 00H, 's', 00H, 'o', 00H, 'u', 00H, 'r', 00H, 'c'
	DB	00H, 'e', 00H, 's', 00H, 00H, 00H
	ORG $+2
$SG161258 DB	'4', 00H
	ORG $+2
$SG91173 DB	'too large', 00H
	ORG $+2
$SG169452 DB	'master', 00H
	ORG $+1
$SG161260 DB	'no', 00H
	ORG $+1
$SG173094 DB	'C', 00H, 'a', 00H, 'n', 00H, 't', 00H, 'U', 00H, 's', 00H
	DB	'e', 00H, 'M', 00H, 'i', 00H, 'n', 00H, 'i', 00H, 'm', 00H, 'a'
	DB	00H, 'p', 00H, 00H, 00H
	ORG $+2
$SG173096 DB	'C', 00H, 'a', 00H, 'n', 00H, 't', 00H, 'U', 00H, 's', 00H
	DB	'e', 00H, 'I', 00H, 'n', 00H, 'f', 00H, 'o', 00H, 'P', 00H, 'a'
	DB	00H, 'n', 00H, 'e', 00H, 'l', 00H, 00H, 00H
	ORG $+2
$SG161263 DB	'*', 00H
	ORG $+2
$SG173098 DB	'O', 00H, 'r', 00H, 'd', 00H, 'e', 00H, 'r', 00H, 'Q', 00H
	DB	'u', 00H, 'e', 00H, 'u', 00H, 'e', 00H, 'I', 00H, 's', 00H, 'F'
	DB	00H, 'u', 00H, 'l', 00H, 'l', 00H, 00H, 00H
	ORG $+2
$SG161265 DB	'*', 00H
	ORG $+2
$SG173100 DB	'C', 00H, 'a', 00H, 'n', 00H, 't', 00H, 'H', 00H, 'a', 00H
	DB	'r', 00H, 'v', 00H, 'e', 00H, 's', 00H, 't', 00H, 'T', 00H, 'h'
	DB	00H, 'a', 00H, 't', 00H, 'R', 00H, 'e', 00H, 's', 00H, 'o', 00H
	DB	'u', 00H, 'r', 00H, 'c', 00H, 'e', 00H, 00H, 00H
$SG173102 DB	'H', 00H, 'a', 00H, 'r', 00H, 'v', 00H, 'e', 00H, 's', 00H
	DB	't', 00H, 'e', 00H, 'r', 00H, 's', 00H, 'N', 00H, 'o', 00H, 't'
	DB	00H, 'R', 00H, 'e', 00H, 'q', 00H, 'u', 00H, 'i', 00H, 'r', 00H
	DB	'e', 00H, 'd', 00H, 00H, 00H
$SG161267 DB	'*', 00H
	ORG $+2
$SG173104 DB	'A', 00H, 'l', 00H, 'r', 00H, 'e', 00H, 'a', 00H, 'd', 00H
	DB	'y', 00H, 'T', 00H, 'a', 00H, 'r', 00H, 'g', 00H, 'e', 00H, 't'
	DB	00H, 'e', 00H, 'd', 00H, 00H, 00H
$SG173106 DB	'C', 00H, 'a', 00H, 'n', 00H, 't', 00H, 'A', 00H, 't', 00H
	DB	't', 00H, 'a', 00H, 'c', 00H, 'k', 00H, 'W', 00H, 'e', 00H, 'a'
	DB	00H, 'p', 00H, 'o', 00H, 'n', 00H, 's', 00H, 'D', 00H, 'i', 00H
	DB	's', 00H, 'a', 00H, 'b', 00H, 'l', 00H, 'e', 00H, 'd', 00H, 00H
	DB	00H
$SG161275 DB	'no', 00H
	ORG $+1
$SG91187 DB	'outofmem', 00H
	ORG $+3
$SG168858 DB	'https', 00H
	ORG $+2
$SG79388 DB	'DEVICE', 00H
	ORG $+1
$SG79423 DB	'%s,', 00H
$SG173108 DB	'C', 00H, 'o', 00H, 'u', 00H, 'l', 00H, 'd', 00H, 'n', 00H
	DB	't', 00H, 'R', 00H, 'e', 00H, 'a', 00H, 'c', 00H, 'h', 00H, 'T'
	DB	00H, 'a', 00H, 'r', 00H, 'g', 00H, 'e', 00H, 't', 00H, 00H, 00H
	ORG $+2
$SG173110 DB	'T', 00H, 'a', 00H, 'r', 00H, 'g', 00H, 'e', 00H, 't', 00H
	DB	'I', 00H, 's', 00H, 'O', 00H, 'u', 00H, 't', 00H, 'O', 00H, 'f'
	DB	00H, 'R', 00H, 'a', 00H, 'n', 00H, 'g', 00H, 'e', 00H, 00H, 00H
	ORG $+2
$SG173112 DB	'T', 00H, 'a', 00H, 'r', 00H, 'g', 00H, 'e', 00H, 't', 00H
	DB	'I', 00H, 's', 00H, 'T', 00H, 'o', 00H, 'o', 00H, 'C', 00H, 'l'
	DB	00H, 'o', 00H, 's', 00H, 'e', 00H, 00H, 00H
	ORG $+2
$SG79391 DB	'HIDDEN', 00H
	ORG $+1
$SG169613 DB	'%s', 00H
	ORG $+1
$SG173114 DB	'T', 00H, 'a', 00H, 'r', 00H, 'g', 00H, 'e', 00H, 't', 00H
	DB	'I', 00H, 's', 00H, 'O', 00H, 'u', 00H, 't', 00H, 'O', 00H, 'f'
	DB	00H, 'A', 00H, 'r', 00H, 'c', 00H, 00H, 00H
	ORG $+2
$SG79393 DB	'NORMAL', 00H
	ORG $+1
$SG169617 DB	'%s', 00H
	ORG $+1
$SG164923 DB	'Error: Cannot open directory', 0aH, 'opendir(%s): %s', 00H
	ORG $+3
$SG173116 DB	'C', 00H, 'a', 00H, 'n', 00H, 't', 00H, 'F', 00H, 'i', 00H
	DB	'n', 00H, 'd', 00H, 'T', 00H, 'e', 00H, 'l', 00H, 'e', 00H, 'p'
	DB	00H, 'o', 00H, 'r', 00H, 't', 00H, 'L', 00H, 'o', 00H, 'c', 00H
	DB	'a', 00H, 't', 00H, 'i', 00H, 'o', 00H, 'n', 00H, 00H, 00H
	ORG $+2
$SG79402 DB	'SYSTEM', 00H
	ORG $+1
$SG169620 DB	'%s', 00H
	ORG $+1
$SG173118 DB	'I', 00H, 'n', 00H, 'v', 00H, 'a', 00H, 'l', 00H, 'i', 00H
	DB	'd', 00H, 'I', 00H, 't', 00H, 'e', 00H, 'm', 00H, 'C', 00H, 'l'
	DB	00H, 'a', 00H, 's', 00H, 's', 00H, 00H, 00H
	ORG $+2
$SG79405 DB	'PINNED', 00H
	ORG $+1
$SG169623 DB	'%s', 00H
	ORG $+1
$SG173120 DB	'C', 00H, 'a', 00H, 'n', 00H, 't', 00H, 'F', 00H, 'i', 00H
	DB	'n', 00H, 'd', 00H, 'C', 00H, 'a', 00H, 'n', 00H, 'c', 00H, 'e'
	DB	00H, 'l', 00H, 'O', 00H, 'r', 00H, 'd', 00H, 'e', 00H, 'r', 00H
	DB	00H, 00H
$SG173121 DB	'i', 00H, 'n', 00H, 't', 00H, 'e', 00H, 'r', 00H, 'n', 00H
	DB	'a', 00H, 'l', 00H, ' ', 00H, 'e', 00H, 'r', 00H, 'r', 00H, 'o'
	DB	00H, 'r', 00H, 00H, 00H
	ORG $+2
$SG164937 DB	'text/html; charset=utf-8', 00H
	ORG $+3
$SG168886 DB	'ws://', 00H
	ORG $+2
$SG169660 DB	'%s', 00H
	ORG $+1
$SG164938 DB	'Content-Type', 00H
	ORG $+3
$SG164939 DB	'<html><head><title>Index of %s</title><style>th {text-al'
	DB	'ign: left;}</style></head><body><h1>Index of %s</h1><pre><tab'
	DB	'le cellpadding="0"><tr><th><a href="?n%c">Name</a></th><th><a'
	DB	' href="?d%c">Modified</a></th><th><a href="?s%c">Size</a></th'
	DB	'></tr><tr><td colspan="3"><hr></td></tr>', 00H
$SG164942 DB	'Parent directory', 00H
	ORG $+3
$SG161187 DB	'16384', 00H
	ORG $+2
$SG169663 DB	'%s', 00H
	ORG $+1
$SG173136 DB	'ZenCoreCreateSoftTextureForThisFrame', 00H
	ORG $+3
$SG164944 DB	'<tr><td><a href="%s">%s</a></td><td>&nbsp;%s</td><td>&nb'
	DB	'sp;&nbsp;%s</td></tr>', 0aH, 00H
	ORG $+1
$SG173137 DB	'W:\cpp\void\alistar\alistar.c', 00H
	ORG $+2
$SG164946 DB	'</table></pre></body></html>', 00H
	ORG $+3
$SG164974 DB	'send_file_data', 00H
	ORG $+1
$SG164975 DB	'%s: fseeko() failed: %s', 00H
$SG164976 DB	'send_file_data', 00H
	ORG $+1
$SG164977 DB	'Error: Unable to access file at requested position.', 00H
$SG169669 DB	'%s', 00H
	ORG $+1
$SG91254 DB	'no clear code', 00H
	ORG $+2
$SG173178 DB	'CopyImageDataToTexture', 00H
	ORG $+1
$SG91258 DB	'too many codes', 00H
	ORG $+1
$SG173179 DB	'W:\cpp\void\alistar\alistar.c', 00H
	ORG $+2
$SG164987 DB	'bytes=%I64d-%I64d', 00H
	ORG $+2
$SG169672 DB	'%s', 00H
	ORG $+1
$SG173180 DB	'CopyImageDataToTexture', 00H
	ORG $+1
$SG91260 DB	'illegal code in raster', 00H
	ORG $+1
$SG173181 DB	'W:\cpp\void\alistar\alistar.c', 00H
	ORG $+2
$SG91262 DB	'illegal code in raster', 00H
	ORG $+1
$SG164995 DB	'"%lx.%I64d"', 00H
$SG165034 DB	'HEAD', 00H
	ORG $+7
$SG83082 DB	'W', 00H, ':', 00H, '\', 00H, 'c', 00H, 'p', 00H, 'p', 00H
	DB	'\', 00H, 'v', 00H, 'o', 00H, 'i', 00H, 'd', 00H, '\', 00H, 'v'
	DB	00H, 'e', 00H, 'n', 00H, 'd', 00H, 'o', 00H, 'r', 00H, '\', 00H
	DB	's', 00H, 't', 00H, 'b', 00H, '\', 00H, 's', 00H, 't', 00H, 'b'
	DB	00H, '_', 00H, 't', 00H, 'r', 00H, 'u', 00H, 'e', 00H, 't', 00H
	DB	'y', 00H, 'p', 00H, 'e', 00H, '.', 00H, 'h', 00H, 00H, 00H
$SG169675 DB	'%s', 00H
	ORG $+1
$SG173219 DB	'Q', 00H, 'u', 00H, 'e', 00H, 'u', 00H, 'e', 00H, ' ', 00H
	DB	'F', 00H, 'i', 00H, 'l', 00H, 'l', 00H, 'e', 00H, 'd', 00H, ' '
	DB	00H, 'A', 00H, 'l', 00H, 'r', 00H, 'e', 00H, 'a', 00H, 'd', 00H
	DB	'y', 00H, 00H, 00H
	ORG $+2
$SG169678 DB	'%s', 00H
	ORG $+1
$SG173220 DB	'AliQueueEventAndNotifyAll_', 00H
	ORG $+1
$SG169681 DB	'%s', 00H
	ORG $+1
$SG173221 DB	'W:\cpp\void\alistar\alistar.c', 00H
	ORG $+2
$SG165038 DB	'Error: File size is too large to send', 0aH, '%I64d', 00H
$SG169684 DB	'%s', 00H
	ORG $+1
$SG165044 DB	'Error: Path of zipped file too long (%s)', 00H
	ORG $+3
$SG165045 DB	'gzip', 00H
	ORG $+3
$SG161199 DB	'30000', 00H
	ORG $+2
$SG169687 DB	'%s', 00H
	ORG $+1
$SG91319 DB	'too large', 00H
	ORG $+2
$SG165049 DB	'gzip', 00H
	ORG $+3
$SG79424 DB	'%s %s', 00H
	ORG $+2
$SG169690 DB	'%s', 00H
	ORG $+1
$SG91322 DB	'outofmem', 00H
	ORG $+3
$SG169693 DB	'%s', 00H
	ORG $+1
$SG165051 DB	'Error: Cannot open file', 0aH, 'fopen(%s): %s', 00H
	ORG $+2
$SG165054 DB	'Error: Range requests in gzipped files are not supported'
	DB	00H
	ORG $+3
$SG169696 DB	'%s', 00H
	ORG $+1
$SG165056 DB	'bytes %I64d-%I64d/%I64d', 00H
$SG165057 DB	'Content-Type', 00H
	ORG $+3
$SG165058 DB	'Last-Modified', 00H
	ORG $+2
$SG165059 DB	'Etag', 00H
	ORG $+3
$SG91333 DB	'bad Image Descriptor', 00H
	ORG $+3
$SG165062 DB	'Content-Length', 00H
	ORG $+1
$SG165064 DB	'Accept-Ranges', 00H
	ORG $+2
$SG173258 DB	'last_response.txt', 00H
	ORG $+2
$SG169699 DB	'%s', 00H
	ORG $+1
$SG165066 DB	'Content-Encoding', 00H
	ORG $+3
$SG169702 DB	'%s', 00H
	ORG $+1
$SG173260 DB	'last_map.png', 00H
	ORG $+3
$SG165068 DB	'Content-Range', 00H
	ORG $+2
$SG91341 DB	'missing color table', 00H
$SG169753 DB	'%s', 00H
	ORG $+1
$SG91355 DB	'unknown code', 00H
	ORG $+3
$SG173277 DB	'last_response.txt', 00H
	ORG $+2
$SG169757 DB	'%s', 00H
	ORG $+1
$SG173278 DB	'AlistarOnSocketDataReceived', 00H
$SG169761 DB	'%s', 00H
	ORG $+1
$SG173279 DB	'W:\cpp\void\alistar\alistar.c', 00H
	ORG $+2
$SG165088 DB	'If-Modified-Since', 00H
	ORG $+2
$SG169778 DB	'%s', 00H
	ORG $+1
$SG165089 DB	'If-None-Match', 00H
	ORG $+2
$SG91365 DB	'outofmem', 00H
	ORG $+3
$SG161516 DB	'r', 00H, 'b', 00H, 00H, 00H
	ORG $+2
$SG169786 DB	'%s', 00H
	ORG $+1
$SG173287 DB	'AlistarOnSocketConnectionClosed', 00H
$SG173288 DB	'W:\cpp\void\alistar\alistar.c', 00H
	ORG $+2
$SG165098 DB	'Last-Modified', 00H
	ORG $+2
$SG165099 DB	'Etag', 00H
	ORG $+3
$SG173314 DB	'127.0.0.1', 00H
	ORG $+2
$SG169879 DB	'{', 00H
	ORG $+2
$SG173315 DB	'request_timeout_ms', 00H
	ORG $+1
$SG161745 DB	'%s', 00H
	ORG $+1
$SG173317 DB	'websocket_timeout_ms', 00H
	ORG $+3
$SG173319 DB	'num_threads', 00H
$SG169954 DB	'{', 00H
	ORG $+2
$SG173321 DB	'tcp_nodelay', 00H
$SG169958 DB	'"', 00H
	ORG $+2
$SG165129 DB	'Error: Directory listing denied', 00H
$SG173323 DB	'G:\StarCraft II', 00H
$SG165131 DB	'Error: File not found', 00H
	ORG $+2
$SG173324 DB	'/sc2api', 00H
$SG173326 DB	'AlistarEstablishConnection', 00H
	ORG $+1
$SG169961 DB	'"', 00H
	ORG $+2
$SG173327 DB	'W:\cpp\void\alistar\alistar.c', 00H
	ORG $+2
$SG173329 DB	'AlistarEstablishConnection', 00H
	ORG $+1
$SG169963 DB	',', 00H
	ORG $+2
$SG173330 DB	'W:\cpp\void\alistar\alistar.c', 00H
	ORG $+2
$SG173331 DB	'RoyJacobs', 00H
	ORG $+2
$SG169883 DB	' Stats', 00H
	ORG $+1
$SG169969 DB	',', 00H
	ORG $+2
$SG173333 DB	'AlistarEstablishConnection', 00H
	ORG $+1
$SG169973 DB	',', 00H
	ORG $+2
$SG173334 DB	'W:\cpp\void\alistar\alistar.c', 00H
	ORG $+2
$SG173336 DB	'AlistarEstablishConnection', 00H
	ORG $+1
$SG169977 DB	',', 00H
	ORG $+2
$SG173337 DB	'W:\cpp\void\alistar\alistar.c', 00H
	ORG $+2
$SG91419 DB	'not GIF', 00H
$SG165163 DB	'remove_bad_file', 00H
$SG165164 DB	'%s: Cannot remove invalid file %s', 00H
	ORG $+2
$SG169885 DB	' Cache', 00H
	ORG $+1
$SG169980 DB	',', 00H
	ORG $+2
$SG165165 DB	'remove_bad_file', 00H
$SG165181 DB	'mg_store_body', 00H
	ORG $+2
$SG165182 DB	'%s: Contents already consumed', 00H
	ORG $+2
$SG165183 DB	'mg_store_body', 00H
	ORG $+2
$SG91456 DB	'#?RADIANCE', 0aH, 00H
$SG161798 DB	'wss', 00H
$SG9536	DB	'N', 00H, 'O', 00H, '_', 00H, 'M', 00H, 'E', 00H, 'S', 00H
	DB	'S', 00H, 'A', 00H, 'G', 00H, 'E', 00H, 00H, 00H
	ORG $+2
$SG9537	DB	'V <= ((unsigned __int64)(0x000000000000000F))', 00H
	ORG $+2
$SG91458 DB	'#?RGBE', 0aH, 00H
$SG9538	DB	'safe_cast_u4', 00H
	ORG $+3
$SG9539	DB	'W:\cpp\void\dr/pack.h', 00H
	ORG $+2
$SG9545	DB	'N', 00H, 'O', 00H, '_', 00H, 'M', 00H, 'E', 00H, 'S', 00H
	DB	'S', 00H, 'A', 00H, 'G', 00H, 'E', 00H, 00H, 00H
	ORG $+2
$SG9546	DB	'V <= 0xffui8', 00H
	ORG $+3
$SG9547	DB	'safe_cast_u8', 00H
	ORG $+3
$SG9548	DB	'W:\cpp\void\dr/pack.h', 00H
	ORG $+2
$SG9554	DB	'N', 00H, 'O', 00H, '_', 00H, 'M', 00H, 'E', 00H, 'S', 00H
	DB	'S', 00H, 'A', 00H, 'G', 00H, 'E', 00H, 00H, 00H
	ORG $+2
$SG9555	DB	'V <= 0xffffui16', 00H
$SG9556	DB	'safe_cast_u16', 00H
	ORG $+2
$SG173397 DB	'AlistarTick', 00H
$SG161799 DB	'ws', 00H
	ORG $+1
$SG9557	DB	'W:\cpp\void\dr/pack.h', 00H
	ORG $+2
$SG173398 DB	'W:\cpp\void\alistar\alistar.c', 00H
	ORG $+2
$SG9563	DB	'N', 00H, 'O', 00H, '_', 00H, 'M', 00H, 'E', 00H, 'S', 00H
	DB	'S', 00H, 'A', 00H, 'G', 00H, 'E', 00H, 00H, 00H
	ORG $+2
$SG9564	DB	'V <= 0xffffffffui32', 00H
$SG161837 DB	'%2f', 00H
$SG9565	DB	'safe_cast_u32', 00H
	ORG $+2
$SG9566	DB	'W:\cpp\void\dr/pack.h', 00H
	ORG $+2
$SG9572	DB	'N', 00H, 'O', 00H, '_', 00H, 'M', 00H, 'E', 00H, 'S', 00H
	DB	'S', 00H, 'A', 00H, 'G', 00H, 'E', 00H, 00H, 00H
	ORG $+2
$SG9573	DB	'V <= 0xffffffffffffffffui64', 00H
$SG170035 DB	', ', 00H
	ORG $+1
$SG9574	DB	'safe_cast_u64', 00H
	ORG $+2
$SG9575	DB	'W:\cpp\void\dr/pack.h', 00H
	ORG $+2
$SG173419 DB	'FindStarcraftExecutableAndDllsDirectory', 00H
$SG173418 DB	'i', 00H, 'n', 00H, 'v', 00H, 'a', 00H, 'l', 00H, 'i', 00H
	DB	'd', 00H, ' ', 00H, 'i', 00H, 'n', 00H, 's', 00H, 't', 00H, 'a'
	DB	00H, 'l', 00H, 'l', 00H, 'a', 00H, 't', 00H, 'i', 00H, 'o', 00H
	DB	'n', 00H, ' ', 00H, 'd', 00H, 'i', 00H, 'r', 00H, 'e', 00H, 'c'
	DB	00H, 't', 00H, 'o', 00H, 'r', 00H, 'y', 00H, ',', 00H, ' ', 00H
	DB	'%', 00H, 's', 00H, ',', 00H, ' ', 00H, 'n', 00H, 'o', 00H, 't'
	DB	00H, ' ', 00H, 'f', 00H, 'o', 00H, 'u', 00H, 'n', 00H, 'd', 00H
	DB	'!', 00H, 00H, 00H
	ORG $+2
$SG173420 DB	'W:\cpp\void\alistar\alistar.c', 00H
	ORG $+2
$SG173421 DB	'_x64', 00H
	ORG $+3
$SG173423 DB	'%s\versions\Base89165\SC2%s.exe', 00H
$SG173426 DB	'%s\Support%s', 00H
	ORG $+3
$SG173428 DB	'E', 00H, 'x', 00H, 'e', 00H, 'c', 00H, 'u', 00H, 't', 00H
	DB	'a', 00H, 'b', 00H, 'l', 00H, 'e', 00H, ' ', 00H, 'n', 00H, 'o'
	DB	00H, 't', 00H, ' ', 00H, 'f', 00H, 'o', 00H, 'u', 00H, 'n', 00H
	DB	'd', 00H, ',', 00H, ' ', 00H, '%', 00H, 's', 00H, 00H, 00H
	ORG $+2
$SG169897 DB	' HTTPS', 00H
	ORG $+1
$SG161843 DB	'wss', 00H
$SG173429 DB	'FindStarcraftExecutableAndDllsDirectory', 00H
$SG173430 DB	'W:\cpp\void\alistar\alistar.c', 00H
	ORG $+2
$SG173432 DB	'S', 00H, 'u', 00H, 'p', 00H, 'p', 00H, 'o', 00H, 'r', 00H
	DB	't', 00H, ' ', 00H, 'd', 00H, 'i', 00H, 'r', 00H, 'e', 00H, 'c'
	DB	00H, 't', 00H, 'o', 00H, 'r', 00H, 'y', 00H, ' ', 00H, 'n', 00H
	DB	'o', 00H, 't', 00H, ' ', 00H, 'f', 00H, 'o', 00H, 'u', 00H, 'n'
	DB	00H, 'd', 00H, ',', 00H, ' ', 00H, '%', 00H, 's', 00H, 00H, 00H
$SG173433 DB	'FindStarcraftExecutableAndDllsDirectory', 00H
$SG173434 DB	'W:\cpp\void\alistar\alistar.c', 00H
	ORG $+2
$SG165254 DB	'POST', 00H
	ORG $+3
?http_methods@@3QBUmg_http_method_info@@B DQ FLAT:$SG165253 ; http_methods
	DD	00H
	DD	01H
	DD	01H
	DD	01H
	DD	01H
	ORG $+4
	DQ	FLAT:$SG165254
	DD	01H
	DD	01H
	DD	00H
	DD	00H
	DD	00H
	ORG $+4
	DQ	FLAT:$SG165255
	DD	01H
	DD	00H
	DD	00H
	DD	01H
	DD	00H
	ORG $+4
	DQ	FLAT:$SG165256
	DD	00H
	DD	00H
	DD	00H
	DD	01H
	DD	00H
	ORG $+4
	DQ	FLAT:$SG165257
	DD	00H
	DD	00H
	DD	01H
	DD	01H
	DD	01H
	ORG $+4
	DQ	FLAT:$SG165258
	DD	00H
	DD	00H
	DD	01H
	DD	01H
	DD	00H
	ORG $+4
	DQ	FLAT:$SG165259
	DD	01H
	DD	01H
	DD	00H
	DD	00H
	DD	00H
	ORG $+4
	DQ	FLAT:$SG165260
	DD	01H
	DD	00H
	DD	00H
	DD	00H
	DD	00H
	ORG $+4
	DQ	FLAT:$SG165261
	DD	00H
	DD	01H
	DD	01H
	DD	01H
	DD	00H
	ORG $+4
	DQ	FLAT:$SG165262
	DD	00H
	DD	00H
	DD	00H
	DD	01H
	DD	00H
	ORG $+4
	DQ	FLAT:$SG165263
	DD	01H
	DD	01H
	DD	00H
	DD	00H
	DD	00H
	ORG $+4
	DQ	FLAT:$SG165264
	DD	01H
	DD	00H
	DD	00H
	DD	00H
	DD	00H
	ORG $+4
	DQ	FLAT:$SG165265
	DD	01H
	DD	01H
	DD	00H
	DD	00H
	DD	00H
	ORG $+4
	DQ	FLAT:$SG165266
	DD	01H
	DD	00H
	DD	00H
	DD	00H
	DD	00H
	ORG $+4
	DQ	FLAT:$SG165267
	DD	01H
	DD	01H
	DD	00H
	DD	00H
	DD	00H
	ORG $+4
	DQ	FLAT:$SG165268
	DD	01H
	DD	01H
	DD	01H
	DD	01H
	DD	01H
	ORG $+4
	DQ	0000000000000000H
	DD	00H
	DD	00H
	DD	00H
	DD	00H
	DD	00H
	ORG $+4
$SG173449 DB	' -listen %s -port %i -displayMode 0 -windowx 1921 -windo'
	DB	'wy 0', 00H
	ORG $+3
$SG165257 DB	'HEAD', 00H
	ORG $+3
$SG165258 DB	'OPTIONS', 00H
$SG165259 DB	'CONNECT', 00H
$SG165261 DB	'PROPFIND', 00H
	ORG $+3
$SG165263 DB	'LOCK', 00H
	ORG $+3
$SG161518 DB	'w', 00H, 'b', 00H, 00H, 00H
	ORG $+2
$SG169899 DB	' Files', 00H
	ORG $+1
$SG161845 DB	'yes', 00H
$SG165265 DB	'PROPPATCH', 00H
	ORG $+2
$SG165266 DB	'COPY', 00H
	ORG $+3
$SG165267 DB	'MOVE', 00H
	ORG $+3
$SG161520 DB	'a', 00H, 'b', 00H, 00H, 00H
	ORG $+2
$SG161848 DB	':%u', 00H
$SG173460 DB	't', 00H, 'i', 00H, 'c', 00H, 'k', 00H, '.', 00H, '.', 00H
	DB	'.', 00H, 00H, 00H
$SG173461 DB	'ZenMain', 00H
$SG173462 DB	'simple.c', 00H
	ORG $+7
$SG83385 DB	'W', 00H, ':', 00H, '\', 00H, 'c', 00H, 'p', 00H, 'p', 00H
	DB	'\', 00H, 'v', 00H, 'o', 00H, 'i', 00H, 'd', 00H, '\', 00H, 'v'
	DB	00H, 'e', 00H, 'n', 00H, 'd', 00H, 'o', 00H, 'r', 00H, '\', 00H
	DB	's', 00H, 't', 00H, 'b', 00H, '\', 00H, 's', 00H, 't', 00H, 'b'
	DB	00H, '_', 00H, 't', 00H, 'r', 00H, 'u', 00H, 'e', 00H, 't', 00H
	DB	'y', 00H, 'p', 00H, 'e', 00H, '.', 00H, 'h', 00H, 00H, 00H
	ORG $+4
$SG83386 DB	'o', 00H, 'u', 00H, 't', 00H, 'p', 00H, 'u', 00H, 't', 00H
	DB	'_', 00H, 'c', 00H, 't', 00H, 'x', 00H, '.', 00H, 'n', 00H, 'u'
	DB	00H, 'm', 00H, '_', 00H, 'v', 00H, 'e', 00H, 'r', 00H, 't', 00H
	DB	'i', 00H, 'c', 00H, 'e', 00H, 's', 00H, ' ', 00H, '=', 00H, '='
	DB	00H, ' ', 00H, 'c', 00H, 'o', 00H, 'u', 00H, 'n', 00H, 't', 00H
	DB	'_', 00H, 'c', 00H, 't', 00H, 'x', 00H, '.', 00H, 'n', 00H, 'u'
	DB	00H, 'm', 00H, '_', 00H, 'v', 00H, 'e', 00H, 'r', 00H, 't', 00H
	DB	'i', 00H, 'c', 00H, 'e', 00H, 's', 00H, 00H, 00H
$SG162042 DB	'/', 00H
	ORG $+2
$SG91585 DB	'#?RADIANCE', 00H
	ORG $+1
$SG162122 DB	'yes', 00H
$SG91587 DB	'not HDR', 00H
$SG91590 DB	'FORMAT=32-bit_rle_rgbe', 00H
	ORG $+1
$SG91592 DB	'unsupported format', 00H
	ORG $+1
$SG162128 DB	'1.1', 00H
$SG91595 DB	'unsupported data layout', 00H
$SG91598 DB	'unsupported data layout', 00H
$SG91600 DB	'too large', 00H
	ORG $+2
$SG80102 DB	'v32tos', 00H
	ORG $+1
$SG162134 DB	'yes', 00H
$SG91602 DB	'too large', 00H
	ORG $+2
$SG162140 DB	'yes', 00H
$SG91606 DB	'too large', 00H
	ORG $+2
$SG88413 DB	'bad TQ', 00H
	ORG $+1
$SG162163 DB	'1.0', 00H
$SG91608 DB	'outofmem', 00H
	ORG $+3
$SG169893 DB	' IPv6', 00H
	ORG $+2
$SG88438 DB	'no SOI', 00H
	ORG $+1
$SG162244 DB	0dH, 0aH, 00H
	ORG $+1
$SG91615 DB	'invalid decoded scanline length', 00H
$SG91618 DB	'outofmem', 00H
	ORG $+3
$SG161800 DB	'https', 00H
	ORG $+2
$SG88442 DB	'no SOF', 00H
	ORG $+1
$SG162250 DB	'0', 00H
	ORG $+2
$SG91622 DB	'corrupt', 00H
$SG91624 DB	'corrupt', 00H
$SG91649 DB	'FORMAT=32-bit_rle_rgbe', 00H
	ORG $+1
$SG9730	DB	'%lli', 00H
	ORG $+3
$SG165381 DB	'Error: NULL File', 00H
	ORG $+3
$SG161842 DB	'https', 00H
	ORG $+2
$SG162254 DB	'Pragma', 00H
	ORG $+1
$SG162304 DB	'OK', 00H
	ORG $+1
$SG9734	DB	'N', 00H, 'O', 00H, '_', 00H, 'M', 00H, 'E', 00H, 'S', 00H
	DB	'S', 00H, 'A', 00H, 'G', 00H, 'E', 00H, 00H, 00H
	ORG $+2
$SG9735	DB	'Unsupported Format Specifier!', 00H
	ORG $+2
$SG9736	DB	'! "Unsupported Format Specifier!"', 00H
	ORG $+2
$SG162284 DB	'Origin', 00H
	ORG $+1
$SG162562 DB	'/', 00H
	ORG $+2
$SG165385 DB	'100-continue', 00H
	ORG $+3
$SG9737	DB	'rx__printf', 00H
	ORG $+1
$SG162567 DB	'0', 00H
	ORG $+2
$SG165386 DB	'Error: Can not fulfill expectation', 00H
	ORG $+1
$SG162681 DB	'yes', 00H
$SG9738	DB	'W:\cpp\void\dr/text.c', 00H
	ORG $+2
$SG165389 DB	'HTTP/1.1 100 Continue', 0dH, 0aH, 0dH, 0aH, 00H
	ORG $+2
$SG162380 DB	'Locked', 00H
	ORG $+1
$SG155008 DB	'1', 00H
	ORG $+2
$SG165392 DB	'Error: Size mismatch', 00H
	ORG $+3
$SG165444 DB	'%s: Cannot register CGI variable [%s]', 00H
	ORG $+2
$SG91718 DB	'S', 080H, 0f6H, '4', 00H
	ORG $+3
$SG165449 DB	'%s: Cannot allocate memory for CGI variable [%s]', 00H
	ORG $+3
$SG80076 DB	'%', 00H, 's', 00H, 00H, 00H
	ORG $+2
$SG170755 DB	'GetTag', 00H
	ORG $+1
$SG163399 DB	0dH, 0aH, 00H
	ORG $+1
$SG91757 DB	'too large', 00H
	ORG $+2
$SG154896 DB	'MainVS', 00H
	ORG $+1
$SG163690 DB	'PUT', 00H
$SG165487 DB	'prepare_cgi_environment', 00H
$SG91759 DB	'too large', 00H
	ORG $+2
$SG154899 DB	'MainPS', 00H
	ORG $+1
$SG163823 DB	'yes', 00H
$SG165488 DB	'%s: Not enough memory for environmental buffer', 00H
	ORG $+1
$SG165489 DB	'prepare_cgi_environment', 00H
$SG91762 DB	'too large', 00H
	ORG $+2
$SG154902 DB	'MainCS', 00H
	ORG $+5
$SG165491 DB	'prepare_cgi_environment', 00H
$SG165492 DB	'%s: Not enough memory for environmental variables', 00H
	ORG $+6
$SG91764 DB	'outofmem', 00H
	ORG $+7
$SG165493 DB	'prepare_cgi_environment', 00H
$SG165494 DB	'SERVER_NAME=%s', 00H
	ORG $+1
$SG165495 DB	'SERVER_ROOT=%s', 00H
	ORG $+1
$SG165496 DB	'DOCUMENT_ROOT=%s', 00H
	ORG $+7
$SG165497 DB	'SERVER_SOFTWARE=CivetWeb/%s', 00H
	ORG $+4
$SG165498 DB	'GATEWAY_INTERFACE=CGI/1.1', 00H
	ORG $+6
$SG165500 DB	'SERVER_PROTOCOL=HTTP/1.1', 00H
	ORG $+7
$SG165502 DB	'REDIRECT_STATUS=200', 00H
	ORG $+4
$SG165504 DB	'SERVER_PORT=%d', 00H
	ORG $+1
$SG165505 DB	'REMOTE_ADDR=%s', 00H
	ORG $+1
$SG165506 DB	'REQUEST_METHOD=%s', 00H
	ORG $+6
$SG165507 DB	'REMOTE_PORT=%d', 00H
	ORG $+1
$SG165508 DB	'REQUEST_URI=%s', 00H
	ORG $+1
$SG165509 DB	'LOCAL_URI=%s', 00H
	ORG $+3
$SG165510 DB	'LOCAL_URI_RAW=%s', 00H
	ORG $+7
$SG165515 DB	'SCRIPT_NAME=%s', 00H
	ORG $+1
$SG157324 DB	'm', 00H, 'o', 00H, 'd', 00H, 'e', 00H, 'l', 00H, ' ', 00H
	DB	'f', 00H, 'i', 00H, 'l', 00H, 'e', 00H, ' ', 00H, 'n', 00H, 'o'
	DB	00H, 't', 00H, ' ', 00H, 'f', 00H, 'o', 00H, 'u', 00H, 'n', 00H
	DB	'd', 00H, 00H, 00H
	ORG $+6
$SG165517 DB	'SCRIPT_NAME=%s%s', 00H
	ORG $+7
$SG157325 DB	'LoadModel', 00H
	ORG $+6
$SG165518 DB	'SCRIPT_NAME=%.*s', 00H
	ORG $+7
$SG157326 DB	'W:\cpp\void\detroit\detroit-asset.c', 00H
	ORG $+4
$SG165519 DB	'SCRIPT_FILENAME=%s', 00H
	ORG $+5
$SG165522 DB	'PATH_TRANSLATED=%s', 00H
	ORG $+5
$SG165523 DB	'PATH_TRANSLATED=%s%s', 00H
	ORG $+3
$SG165526 DB	'HTTPS=%s', 00H
	ORG $+7
$SG157335 DB	'LoadModel', 00H
	ORG $+6
$SG165528 DB	'Content-Type', 00H
	ORG $+3
$SG157336 DB	'W:\cpp\void\detroit\detroit-asset.c', 00H
	ORG $+4
$SG157334 DB	'%', 00H, 's', 00H, '(', 00H, '%', 00H, 'i', 00H, ')', 00H
	DB	':', 00H, ' ', 00H, 'E', 00H, 'x', 00H, 'p', 00H, 'e', 00H, 'c'
	DB	00H, 't', 00H, 'e', 00H, 'd', 00H, ' ', 00H, 'L', 00H, 'i', 00H
	DB	'n', 00H, 'e', 00H, ' ', 00H, 'E', 00H, 'n', 00H, 'd', 00H, 'i'
	DB	00H, 'n', 00H, 'g', 00H, ',', 00H, ' ', 00H, 'G', 00H, 'o', 00H
	DB	't', 00H, ' ', 00H, '%', 00H, 'c', 00H, ' ', 00H, 'I', 00H, 'n'
	DB	00H, 's', 00H, 't', 00H, 'e', 00H, 'a', 00H, 'd', 00H, ',', 00H
	DB	' ', 00H, 'I', 00H, 's', 00H, ' ', 00H, 'T', 00H, 'h', 00H, 'i'
	DB	00H, 's', 00H, ' ', 00H, 'A', 00H, ' ', 00H, 'V', 00H, 'a', 00H
	DB	'l', 00H, 'i', 00H, 'd', 00H, ' ', 00H, 'S', 00H, 't', 00H, 'a'
	DB	00H, 't', 00H, 'e', 00H, 'm', 00H, 'e', 00H, 'n', 00H, 't', 00H
	DB	'?', 00H, 00H, 00H
	ORG $+6
$SG165529 DB	'CONTENT_TYPE=%s', 00H
$SG165531 DB	'QUERY_STRING=%s', 00H
$SG165533 DB	'Content-Length', 00H
	ORG $+1
$SG165534 DB	'CONTENT_LENGTH=%s', 00H
	ORG $+6
$SG157342 DB	'%', 00H, 's', 00H, '(', 00H, '%', 00H, 'i', 00H, ')', 00H
	DB	':', 00H, ' ', 00H, 'E', 00H, 'x', 00H, 'p', 00H, 'e', 00H, 'c'
	DB	00H, 't', 00H, 'e', 00H, 'd', 00H, ' ', 00H, 'L', 00H, 'i', 00H
	DB	'n', 00H, 'e', 00H, ' ', 00H, 'E', 00H, 'n', 00H, 'd', 00H, 'i'
	DB	00H, 'n', 00H, 'g', 00H, ',', 00H, ' ', 00H, 'G', 00H, 'o', 00H
	DB	't', 00H, ' ', 00H, '%', 00H, 'c', 00H, ' ', 00H, 'I', 00H, 'n'
	DB	00H, 's', 00H, 't', 00H, 'e', 00H, 'a', 00H, 'd', 00H, ',', 00H
	DB	' ', 00H, 'I', 00H, 's', 00H, ' ', 00H, 'T', 00H, 'h', 00H, 'i'
	DB	00H, 's', 00H, ' ', 00H, 'A', 00H, ' ', 00H, 'V', 00H, 'a', 00H
	DB	'l', 00H, 'i', 00H, 'd', 00H, ' ', 00H, 'S', 00H, 't', 00H, 'a'
	DB	00H, 't', 00H, 'e', 00H, 'm', 00H, 'e', 00H, 'n', 00H, 't', 00H
	DB	'?', 00H, 00H, 00H
	ORG $+6
$SG157343 DB	'LoadModel', 00H
	ORG $+2
$SG165536 DB	'PATH', 00H
	ORG $+7
$SG157344 DB	'W:\cpp\void\detroit\detroit-asset.c', 00H
	ORG $+4
$SG165537 DB	'PATH=%s', 00H
$SG165539 DB	'PATH_INFO=%s', 00H
	ORG $+3
$SG157347 DB	'l', 00H, 'i', 00H, 'b', 00H, 'r', 00H, 'a', 00H, 'r', 00H
	DB	'y', 00H, ' ', 00H, '[', 00H, '%', 00H, 's', 00H, ']', 00H, ' '
	DB	00H, 'n', 00H, 'o', 00H, 't', 00H, ' ', 00H, 'f', 00H, 'o', 00H
	DB	'u', 00H, 'n', 00H, 'd', 00H, 00H, 00H
	ORG $+2
$SG157348 DB	'LoadModel', 00H
	ORG $+6
$SG165541 DB	'STATUS=%d', 00H
	ORG $+6
$SG157349 DB	'W:\cpp\void\detroit\detroit-asset.c', 00H
	ORG $+4
$SG165543 DB	'COMSPEC', 00H
$SG165544 DB	'COMSPEC=%s', 00H
	ORG $+5
$SG91817 DB	'max value > 65535', 00H
	ORG $+6
$SG165546 DB	'SYSTEMROOT', 00H
	ORG $+5
$SG165547 DB	'SYSTEMROOT=%s', 00H
	ORG $+2
$SG165549 DB	'SystemDrive', 00H
	ORG $+4
$SG165550 DB	'SystemDrive=%s', 00H
	ORG $+1
$SG157360 DB	'W:\cpp\void\detroit\detroit-asset.c', 00H
	ORG $+4
$SG157358 DB	'%', 00H, 's', 00H, '(', 00H, '%', 00H, 'i', 00H, ')', 00H
	DB	':', 00H, ' ', 00H, 'E', 00H, 'x', 00H, 'p', 00H, 'e', 00H, 'c'
	DB	00H, 't', 00H, 'e', 00H, 'd', 00H, ' ', 00H, 'L', 00H, 'i', 00H
	DB	'n', 00H, 'e', 00H, ' ', 00H, 'E', 00H, 'n', 00H, 'd', 00H, 'i'
	DB	00H, 'n', 00H, 'g', 00H, ',', 00H, ' ', 00H, 'G', 00H, 'o', 00H
	DB	't', 00H, ' ', 00H, '%', 00H, 'c', 00H, ' ', 00H, 'I', 00H, 'n'
	DB	00H, 's', 00H, 't', 00H, 'e', 00H, 'a', 00H, 'd', 00H, ',', 00H
	DB	' ', 00H, 'I', 00H, 's', 00H, ' ', 00H, 'T', 00H, 'h', 00H, 'i'
	DB	00H, 's', 00H, ' ', 00H, 'A', 00H, ' ', 00H, 'V', 00H, 'a', 00H
	DB	'l', 00H, 'i', 00H, 'd', 00H, ' ', 00H, 'S', 00H, 't', 00H, 'a'
	DB	00H, 't', 00H, 'e', 00H, 'm', 00H, 'e', 00H, 'n', 00H, 't', 00H
	DB	'?', 00H, 00H, 00H
	ORG $+6
$SG157359 DB	'LoadModel', 00H
	ORG $+6
$SG165552 DB	'ProgramFiles', 00H
	ORG $+3
$SG165553 DB	'ProgramFiles=%s', 00H
$SG165555 DB	'ProgramFiles(x86)', 00H
	ORG $+6
$SG165556 DB	'ProgramFiles(x86)=%s', 00H
	ORG $+3
$SG165558 DB	'PERLLIB', 00H
$SG165559 DB	'PERLLIB=%s', 00H
	ORG $+5
$SG157368 DB	'%', 00H, 's', 00H, '(', 00H, '%', 00H, 'i', 00H, ')', 00H
	DB	':', 00H, ' ', 00H, 'E', 00H, 'x', 00H, 'p', 00H, 'e', 00H, 'c'
	DB	00H, 't', 00H, 'e', 00H, 'd', 00H, ' ', 00H, 'L', 00H, 'i', 00H
	DB	'n', 00H, 'e', 00H, ' ', 00H, 'E', 00H, 'n', 00H, 'd', 00H, 'i'
	DB	00H, 'n', 00H, 'g', 00H, ',', 00H, ' ', 00H, 'G', 00H, 'o', 00H
	DB	't', 00H, ' ', 00H, '%', 00H, 'c', 00H, ' ', 00H, 'I', 00H, 'n'
	DB	00H, 's', 00H, 't', 00H, 'e', 00H, 'a', 00H, 'd', 00H, ',', 00H
	DB	' ', 00H, 'I', 00H, 's', 00H, ' ', 00H, 'T', 00H, 'h', 00H, 'i'
	DB	00H, 's', 00H, ' ', 00H, 'A', 00H, ' ', 00H, 'V', 00H, 'a', 00H
	DB	'l', 00H, 'i', 00H, 'd', 00H, ' ', 00H, 'S', 00H, 't', 00H, 'a'
	DB	00H, 't', 00H, 'e', 00H, 'm', 00H, 'e', 00H, 'n', 00H, 't', 00H
	DB	'?', 00H, 00H, 00H
	ORG $+6
$SG165561 DB	'REMOTE_USER=%s', 00H
	ORG $+1
$SG157369 DB	'LoadModel', 00H
	ORG $+6
$SG165562 DB	'AUTH_TYPE=Digest', 00H
	ORG $+7
$SG157370 DB	'W:\cpp\void\detroit\detroit-asset.c', 00H
	ORG $+4
$SG165564 DB	'HTTP_%s', 00H
$SG165566 DB	'prepare_cgi_environment', 00H
$SG165567 DB	'%s: HTTP header variable too long [%s]', 00H
	ORG $+1
$SG91839 DB	'unknown image type', 00H
	ORG $+5
$SG165568 DB	'prepare_cgi_environment', 00H
$SG83650 DB	'OS/2', 00H
	ORG $+3
$SG165571 DB	'%.*s', 00H
	ORG $+3
$SG157388 DB	'%', 00H, 's', 00H, '(', 00H, '%', 00H, 'i', 00H, ')', 00H
	DB	':', 00H, ' ', 00H, 'I', 00H, 'n', 00H, 'v', 00H, 'a', 00H, 'l'
	DB	00H, 'i', 00H, 'd', 00H, ' ', 00H, 'S', 00H, 't', 00H, 'a', 00H
	DB	't', 00H, 'e', 00H, 'm', 00H, 'e', 00H, 'n', 00H, 't', 00H, ','
	DB	00H, ' ', 00H, '(', 00H, 'D', 00H, 'i', 00H, 'd', 00H, ' ', 00H
	DB	'Y', 00H, 'o', 00H, 'u', 00H, ' ', 00H, 'M', 00H, 'e', 00H, 'a'
	DB	00H, 'n', 00H, ' ', 00H, '<', 00H, 'd', 00H, '>', 00H, '?', 00H
	DB	')', 00H, 00H, 00H
	ORG $+2
$SG157389 DB	'LoadModel', 00H
	ORG $+6
$SG157390 DB	'W:\cpp\void\detroit\detroit-asset.c', 00H
	ORG $+4
$SG91856 DB	'can''t fopen', 00H
$SG166079 DB	'exec', 00H
	ORG $+7
$SG157399 DB	'%', 00H, 's', 00H, '(', 00H, '%', 00H, 'i', 00H, ')', 00H
	DB	':', 00H, ' ', 00H, 'I', 00H, 'n', 00H, 'v', 00H, 'a', 00H, 'l'
	DB	00H, 'i', 00H, 'd', 00H, ' ', 00H, 'S', 00H, 't', 00H, 'a', 00H
	DB	't', 00H, 'e', 00H, 'm', 00H, 'e', 00H, 'n', 00H, 't', 00H, ','
	DB	00H, ' ', 00H, '(', 00H, 'D', 00H, 'i', 00H, 'd', 00H, ' ', 00H
	DB	'Y', 00H, 'o', 00H, 'u', 00H, ' ', 00H, 'M', 00H, 'e', 00H, 'a'
	DB	00H, 'n', 00H, ' ', 00H, '<', 00H, 'N', 00H, 's', 00H, '>', 00H
	DB	' ', 00H, 'o', 00H, 'r', 00H, ' ', 00H, '<', 00H, 'N', 00H, 'i'
	DB	00H, '>', 00H, '?', 00H, ')', 00H, 00H, 00H
$SG157400 DB	'LoadModel', 00H
	ORG $+6
$SG157401 DB	'W:\cpp\void\detroit\detroit-asset.c', 00H
	ORG $+4
$SG157409 DB	'N', 00H, 'O', 00H, '_', 00H, 'M', 00H, 'E', 00H, 'S', 00H
	DB	'S', 00H, 'A', 00H, 'G', 00H, 'E', 00H, 00H, 00H
	ORG $+2
$SG91873 DB	'can''t fopen', 00H
	ORG $+4
$SG157410 DB	'Invalid Statement, (Did You Mean <Ka> or <Kd> or <Ks> or'
	DB	' <Ke>?)', 00H
$SG157411 DB	'! "Invalid Statement, (Did You Mean <Ka> or <Kd> or <Ks>'
	DB	' or <Ke>?)"', 00H
	ORG $+4
$SG157412 DB	'LoadModel', 00H
	ORG $+6
$SG157413 DB	'W:\cpp\void\detroit\detroit-asset.c', 00H
	ORG $+4
$SG157414 DB	'N', 00H, 'O', 00H, '_', 00H, 'M', 00H, 'E', 00H, 'S', 00H
	DB	'S', 00H, 'A', 00H, 'G', 00H, 'E', 00H, 00H, 00H
	ORG $+2
$SG157418 DB	'W:\cpp\void\detroit\detroit-asset.c', 00H
	ORG $+4
$SG157415 DB	'Invalid Statement, Did You Mean (<Ns> or <Ni> or <Ka> or'
	DB	' <Kd> or <Ks> or <Ke>?)', 00H
$SG157416 DB	'! "Invalid Statement, Did You Mean (<Ns> or <Ni> or <Ka>'
	DB	' or <Kd> or <Ks> or <Ke>?)"', 00H
	ORG $+4
$SG157417 DB	'LoadModel', 00H
	ORG $+6
$SG157431 DB	'N', 00H, 'O', 00H, '_', 00H, 'M', 00H, 'E', 00H, 'S', 00H
	DB	'S', 00H, 'A', 00H, 'G', 00H, 'E', 00H, 00H, 00H
	ORG $+2
$SG157432 DB	'Invalid Statement, Did You Mean <map_d> or <map_Kd> or <'
	DB	'map_Ke> or <map_Bump>?', 00H
	ORG $+1
$SG157433 DB	'! "Invalid Statement, Did You Mean <map_d> or <map_Kd> o'
	DB	'r <map_Ke> or <map_Bump>?"', 00H
	ORG $+5
$SG157434 DB	'LoadModel', 00H
	ORG $+6
$SG157435 DB	'W:\cpp\void\detroit\detroit-asset.c', 00H
	ORG $+4
$SG157438 DB	'N', 00H, 'O', 00H, '_', 00H, 'M', 00H, 'E', 00H, 'S', 00H
	DB	'S', 00H, 'A', 00H, 'G', 00H, 'E', 00H, 00H, 00H
	ORG $+2
$SG157442 DB	'W:\cpp\void\detroit\detroit-asset.c', 00H
	ORG $+4
$SG157439 DB	'Invalid Statement, Did You Mean <newmtl> or <illum> or <'
	DB	'map_d> or <map_Kd> or <map_Ke> or <map_Bump>?', 00H
	ORG $+2
$SG157450 DB	'W:\cpp\void\detroit\detroit-asset.c', 00H
	ORG $+4
$SG157440 DB	'! "Invalid Statement, Did You Mean <newmtl> or <illum> o'
	DB	'r <map_d> or <map_Kd> or <map_Ke> or <map_Bump>?"', 00H
	ORG $+6
$SG157441 DB	'LoadModel', 00H
	ORG $+6
$SG157448 DB	'%', 00H, 's', 00H, '(', 00H, '%', 00H, 'i', 00H, ')', 00H
	DB	':', 00H, ' ', 00H, 'E', 00H, 'x', 00H, 'p', 00H, 'e', 00H, 'c'
	DB	00H, 't', 00H, 'e', 00H, 'd', 00H, ' ', 00H, 'L', 00H, 'i', 00H
	DB	'n', 00H, 'e', 00H, ' ', 00H, 'E', 00H, 'n', 00H, 'd', 00H, 'i'
	DB	00H, 'n', 00H, 'g', 00H, ',', 00H, ' ', 00H, 'G', 00H, 'o', 00H
	DB	't', 00H, ' ', 00H, '%', 00H, 'c', 00H, ' ', 00H, 'I', 00H, 'n'
	DB	00H, 's', 00H, 't', 00H, 'e', 00H, 'a', 00H, 'd', 00H, ',', 00H
	DB	' ', 00H, 'I', 00H, 's', 00H, ' ', 00H, 'T', 00H, 'h', 00H, 'i'
	DB	00H, 's', 00H, ' ', 00H, 'A', 00H, ' ', 00H, 'V', 00H, 'a', 00H
	DB	'l', 00H, 'i', 00H, 'd', 00H, ' ', 00H, 'S', 00H, 't', 00H, 'a'
	DB	00H, 't', 00H, 'e', 00H, 'm', 00H, 'e', 00H, 'n', 00H, 't', 00H
	DB	'?', 00H, 00H, 00H
	ORG $+6
$SG157449 DB	'LoadModel', 00H
	ORG $+6
$SG157458 DB	'W:\cpp\void\detroit\detroit-asset.c', 00H
	ORG $+4
$SG157456 DB	'%', 00H, 's', 00H, '(', 00H, '%', 00H, 'i', 00H, ')', 00H
	DB	':', 00H, ' ', 00H, 'E', 00H, 'x', 00H, 'p', 00H, 'e', 00H, 'c'
	DB	00H, 't', 00H, 'e', 00H, 'd', 00H, ' ', 00H, 'L', 00H, 'i', 00H
	DB	'n', 00H, 'e', 00H, ' ', 00H, 'E', 00H, 'n', 00H, 'd', 00H, 'i'
	DB	00H, 'n', 00H, 'g', 00H, ',', 00H, ' ', 00H, 'G', 00H, 'o', 00H
	DB	't', 00H, ' ', 00H, '%', 00H, 'c', 00H, ' ', 00H, 'I', 00H, 'n'
	DB	00H, 's', 00H, 't', 00H, 'e', 00H, 'a', 00H, 'd', 00H, ',', 00H
	DB	' ', 00H, 'I', 00H, 's', 00H, ' ', 00H, 'T', 00H, 'h', 00H, 'i'
	DB	00H, 's', 00H, ' ', 00H, 'A', 00H, ' ', 00H, 'V', 00H, 'a', 00H
	DB	'l', 00H, 'i', 00H, 'd', 00H, ' ', 00H, 'S', 00H, 't', 00H, 'a'
	DB	00H, 't', 00H, 'e', 00H, 'm', 00H, 'e', 00H, 'n', 00H, 't', 00H
	DB	'?', 00H, 00H, 00H
	ORG $+6
$SG157457 DB	'LoadModel', 00H
	ORG $+6
$SG157468 DB	'W:\cpp\void\detroit\detroit-asset.c', 00H
	ORG $+4
$SG157466 DB	'%', 00H, 's', 00H, '(', 00H, '%', 00H, 'i', 00H, ')', 00H
	DB	':', 00H, ' ', 00H, 'E', 00H, 'x', 00H, 'p', 00H, 'e', 00H, 'c'
	DB	00H, 't', 00H, 'e', 00H, 'd', 00H, ' ', 00H, 'L', 00H, 'i', 00H
	DB	'n', 00H, 'e', 00H, ' ', 00H, 'E', 00H, 'n', 00H, 'd', 00H, 'i'
	DB	00H, 'n', 00H, 'g', 00H, ',', 00H, ' ', 00H, 'G', 00H, 'o', 00H
	DB	't', 00H, ' ', 00H, '%', 00H, 'c', 00H, ' ', 00H, 'I', 00H, 'n'
	DB	00H, 's', 00H, 't', 00H, 'e', 00H, 'a', 00H, 'd', 00H, ',', 00H
	DB	' ', 00H, 'I', 00H, 's', 00H, ' ', 00H, 'T', 00H, 'h', 00H, 'i'
	DB	00H, 's', 00H, ' ', 00H, 'A', 00H, ' ', 00H, 'V', 00H, 'a', 00H
	DB	'l', 00H, 'i', 00H, 'd', 00H, ' ', 00H, 'S', 00H, 't', 00H, 'a'
	DB	00H, 't', 00H, 'e', 00H, 'm', 00H, 'e', 00H, 'n', 00H, 't', 00H
	DB	'?', 00H, 00H, 00H
	ORG $+6
$SG157467 DB	'LoadModel', 00H
	ORG $+6
$SG157476 DB	'W:\cpp\void\detroit\detroit-asset.c', 00H
	ORG $+4
$SG157474 DB	'%', 00H, 's', 00H, '(', 00H, '%', 00H, 'i', 00H, ')', 00H
	DB	':', 00H, ' ', 00H, 'E', 00H, 'x', 00H, 'p', 00H, 'e', 00H, 'c'
	DB	00H, 't', 00H, 'e', 00H, 'd', 00H, ' ', 00H, 'L', 00H, 'i', 00H
	DB	'n', 00H, 'e', 00H, ' ', 00H, 'E', 00H, 'n', 00H, 'd', 00H, 'i'
	DB	00H, 'n', 00H, 'g', 00H, ',', 00H, ' ', 00H, 'G', 00H, 'o', 00H
	DB	't', 00H, ' ', 00H, '%', 00H, 'c', 00H, ' ', 00H, 'I', 00H, 'n'
	DB	00H, 's', 00H, 't', 00H, 'e', 00H, 'a', 00H, 'd', 00H, ',', 00H
	DB	' ', 00H, 'I', 00H, 's', 00H, ' ', 00H, 'T', 00H, 'h', 00H, 'i'
	DB	00H, 's', 00H, ' ', 00H, 'A', 00H, ' ', 00H, 'V', 00H, 'a', 00H
	DB	'l', 00H, 'i', 00H, 'd', 00H, ' ', 00H, 'S', 00H, 't', 00H, 'a'
	DB	00H, 't', 00H, 'e', 00H, 'm', 00H, 'e', 00H, 'n', 00H, 't', 00H
	DB	'?', 00H, 00H, 00H
	ORG $+6
$SG157475 DB	'LoadModel', 00H
	ORG $+6
$SG157484 DB	'W:\cpp\void\detroit\detroit-asset.c', 00H
	ORG $+4
$SG157482 DB	'%', 00H, 's', 00H, '(', 00H, '%', 00H, 'i', 00H, ')', 00H
	DB	':', 00H, ' ', 00H, 'E', 00H, 'x', 00H, 'p', 00H, 'e', 00H, 'c'
	DB	00H, 't', 00H, 'e', 00H, 'd', 00H, ' ', 00H, 'L', 00H, 'i', 00H
	DB	'n', 00H, 'e', 00H, ' ', 00H, 'E', 00H, 'n', 00H, 'd', 00H, 'i'
	DB	00H, 'n', 00H, 'g', 00H, ',', 00H, ' ', 00H, 'G', 00H, 'o', 00H
	DB	't', 00H, ' ', 00H, '%', 00H, 'c', 00H, ' ', 00H, 'I', 00H, 'n'
	DB	00H, 's', 00H, 't', 00H, 'e', 00H, 'a', 00H, 'd', 00H, ',', 00H
	DB	' ', 00H, 'I', 00H, 's', 00H, ' ', 00H, 'T', 00H, 'h', 00H, 'i'
	DB	00H, 's', 00H, ' ', 00H, 'A', 00H, ' ', 00H, 'V', 00H, 'a', 00H
	DB	'l', 00H, 'i', 00H, 'd', 00H, ' ', 00H, 'S', 00H, 't', 00H, 'a'
	DB	00H, 't', 00H, 'e', 00H, 'm', 00H, 'e', 00H, 'n', 00H, 't', 00H
	DB	'?', 00H, 00H, 00H
	ORG $+6
$SG157483 DB	'LoadModel', 00H
	ORG $+6
$SG157492 DB	'W:\cpp\void\detroit\detroit-asset.c', 00H
	ORG $+4
$SG157490 DB	'%', 00H, 's', 00H, '(', 00H, '%', 00H, 'i', 00H, ')', 00H
	DB	':', 00H, ' ', 00H, 'E', 00H, 'x', 00H, 'p', 00H, 'e', 00H, 'c'
	DB	00H, 't', 00H, 'e', 00H, 'd', 00H, ' ', 00H, 'L', 00H, 'i', 00H
	DB	'n', 00H, 'e', 00H, ' ', 00H, 'E', 00H, 'n', 00H, 'd', 00H, 'i'
	DB	00H, 'n', 00H, 'g', 00H, ',', 00H, ' ', 00H, 'G', 00H, 'o', 00H
	DB	't', 00H, ' ', 00H, '%', 00H, 'c', 00H, ' ', 00H, 'I', 00H, 'n'
	DB	00H, 's', 00H, 't', 00H, 'e', 00H, 'a', 00H, 'd', 00H, ',', 00H
	DB	' ', 00H, 'I', 00H, 's', 00H, ' ', 00H, 'T', 00H, 'h', 00H, 'i'
	DB	00H, 's', 00H, ' ', 00H, 'A', 00H, ' ', 00H, 'V', 00H, 'a', 00H
	DB	'l', 00H, 'i', 00H, 'd', 00H, ' ', 00H, 'S', 00H, 't', 00H, 'a'
	DB	00H, 't', 00H, 'e', 00H, 'm', 00H, 'e', 00H, 'n', 00H, 't', 00H
	DB	'?', 00H, 00H, 00H
	ORG $+6
$SG157491 DB	'LoadModel', 00H
	ORG $+6
$SG157501 DB	'W:\cpp\void\detroit\detroit-asset.c', 00H
	ORG $+4
$SG157499 DB	'%', 00H, 's', 00H, '(', 00H, '%', 00H, 'i', 00H, ')', 00H
	DB	':', 00H, ' ', 00H, 'E', 00H, 'x', 00H, 'p', 00H, 'e', 00H, 'c'
	DB	00H, 't', 00H, 'e', 00H, 'd', 00H, ' ', 00H, 'L', 00H, 'i', 00H
	DB	'n', 00H, 'e', 00H, ' ', 00H, 'E', 00H, 'n', 00H, 'd', 00H, 'i'
	DB	00H, 'n', 00H, 'g', 00H, ',', 00H, ' ', 00H, 'G', 00H, 'o', 00H
	DB	't', 00H, ' ', 00H, '%', 00H, 'c', 00H, ' ', 00H, 'I', 00H, 'n'
	DB	00H, 's', 00H, 't', 00H, 'e', 00H, 'a', 00H, 'd', 00H, ',', 00H
	DB	' ', 00H, 'I', 00H, 's', 00H, ' ', 00H, 'T', 00H, 'h', 00H, 'i'
	DB	00H, 's', 00H, ' ', 00H, 'A', 00H, ' ', 00H, 'V', 00H, 'a', 00H
	DB	'l', 00H, 'i', 00H, 'd', 00H, ' ', 00H, 'S', 00H, 't', 00H, 'a'
	DB	00H, 't', 00H, 'e', 00H, 'm', 00H, 'e', 00H, 'n', 00H, 't', 00H
	DB	'?', 00H, 00H, 00H
	ORG $+6
$SG157500 DB	'LoadModel', 00H
	ORG $+6
$SG157503 DB	'%', 00H, 's', 00H, '(', 00H, '%', 00H, 'i', 00H, ')', 00H
	DB	':', 00H, ' ', 00H, 'E', 00H, 'x', 00H, 'p', 00H, 'e', 00H, 'c'
	DB	00H, 't', 00H, 'e', 00H, 'd', 00H, ' ', 00H, '''', 00H, 's', 00H
	DB	'''', 00H, ' ', 00H, 'S', 00H, 't', 00H, 'a', 00H, 't', 00H, 'e'
	DB	00H, 'm', 00H, 'e', 00H, 'n', 00H, 't', 00H, 00H, 00H
	ORG $+2
$SG157504 DB	'LoadModel', 00H
	ORG $+6
$SG157505 DB	'W:\cpp\void\detroit\detroit-asset.c', 00H
	ORG $+4
$SG165701 DB	'Error: CGI program "%s": Path too long', 00H
	ORG $+1
$SG157509 DB	'%', 00H, 's', 00H, '(', 00H, '%', 00H, 'i', 00H, ')', 00H
	DB	':', 00H, ' ', 00H, 'E', 00H, 'x', 00H, 'p', 00H, 'e', 00H, 'c'
	DB	00H, 't', 00H, 'e', 00H, 'd', 00H, ' ', 00H, '''', 00H, 'f', 00H
	DB	'''', 00H, ' ', 00H, 'S', 00H, 't', 00H, 'a', 00H, 't', 00H, 'e'
	DB	00H, 'm', 00H, 'e', 00H, 'n', 00H, 't', 00H, 00H, 00H
	ORG $+2
$SG165702 DB	'handle_cgi_request', 00H
	ORG $+5
$SG157510 DB	'LoadModel', 00H
	ORG $+6
$SG165703 DB	'CGI path too long', 00H
	ORG $+6
$SG157511 DB	'W:\cpp\void\detroit\detroit-asset.c', 00H
	ORG $+4
$SG165704 DB	'Error: %s', 00H
	ORG $+6
$SG165710 DB	'Error: CGI program "%s": Can not create CGI pipes: %s', 00H
	ORG $+2
$SG165711 DB	'handle_cgi_request', 00H
	ORG $+5
$SG165712 DB	'Error: Cannot create CGI pipe: %s', 00H
	ORG $+6
$SG165715 DB	'Error: CGI program "%s": Out or memory', 00H
	ORG $+1
$SG157523 DB	'%', 00H, 's', 00H, '(', 00H, '%', 00H, 'i', 00H, ')', 00H
	DB	':', 00H, ' ', 00H, 'E', 00H, 'x', 00H, 'p', 00H, 'e', 00H, 'c'
	DB	00H, 't', 00H, 'e', 00H, 'd', 00H, ' ', 00H, 'L', 00H, 'i', 00H
	DB	'n', 00H, 'e', 00H, ' ', 00H, 'E', 00H, 'n', 00H, 'd', 00H, 'i'
	DB	00H, 'n', 00H, 'g', 00H, ',', 00H, ' ', 00H, 'G', 00H, 'o', 00H
	DB	't', 00H, ' ', 00H, '%', 00H, 'c', 00H, ' ', 00H, 'I', 00H, 'n'
	DB	00H, 's', 00H, 't', 00H, 'e', 00H, 'a', 00H, 'd', 00H, ',', 00H
	DB	' ', 00H, 'I', 00H, 's', 00H, ' ', 00H, 'T', 00H, 'h', 00H, 'i'
	DB	00H, 's', 00H, ' ', 00H, 'A', 00H, ' ', 00H, 'V', 00H, 'a', 00H
	DB	'l', 00H, 'i', 00H, 'd', 00H, ' ', 00H, 'S', 00H, 't', 00H, 'a'
	DB	00H, 't', 00H, 'e', 00H, 'm', 00H, 'e', 00H, 'n', 00H, 't', 00H
	DB	'?', 00H, 00H, 00H
	ORG $+6
$SG165716 DB	'handle_cgi_request', 00H
	ORG $+5
$SG157524 DB	'LoadModel', 00H
	ORG $+6
$SG165717 DB	'Error: Out of memory [%s]', 00H
	ORG $+6
$SG157525 DB	'W:\cpp\void\detroit\detroit-asset.c', 00H
	ORG $+4
$SG165720 DB	'Error: CGI program "%s": Can not spawn CGI process: %s', 00H
	ORG $+1
$SG165721 DB	'handle_cgi_request', 00H
	ORG $+5
$SG165722 DB	'Error: Cannot spawn CGI process', 00H
$SG165729 DB	'Error: CGI program "%s": Can not open fd: %s', 00H
	ORG $+3
$SG165730 DB	'handle_cgi_request', 00H
	ORG $+5
$SG165731 DB	'Error: CGI can not open fd', 0aH, 'fdopen: %s', 00H
	ORG $+2
$SG157542 DB	'N', 00H, 'O', 00H, '_', 00H, 'M', 00H, 'E', 00H, 'S', 00H
	DB	'S', 00H, 'A', 00H, 'G', 00H, 'E', 00H, 00H, 00H
	ORG $+2
$SG157543 DB	'Area.Min.X <= Texture->DimenX', 00H
	ORG $+2
$SG165736 DB	'Error: CGI program "%s": Forward body data failed', 00H
	ORG $+6
$SG157544 DB	'ZenRectifyTextureArea', 00H
	ORG $+2
$SG165737 DB	'handle_cgi_request', 00H
	ORG $+5
$SG157545 DB	'W:\cpp\void\detroit\brazen-glyphics.c', 00H
	ORG $+2
$SG157546 DB	'N', 00H, 'O', 00H, '_', 00H, 'M', 00H, 'E', 00H, 'S', 00H
	DB	'S', 00H, 'A', 00H, 'G', 00H, 'E', 00H, 00H, 00H
	ORG $+2
$SG157547 DB	'Area.Min.Y <= Texture->DimenY', 00H
	ORG $+2
$SG165740 DB	'Error: Not enough memory for CGI buffer (%u bytes)', 00H
	ORG $+5
$SG157548 DB	'ZenRectifyTextureArea', 00H
	ORG $+2
$SG157549 DB	'W:\cpp\void\detroit\brazen-glyphics.c', 00H
	ORG $+2
$SG165741 DB	'Error: CGI program "%s": Not enough memory for buffer (%'
	DB	'u bytes)', 00H
	ORG $+7
$SG165742 DB	'handle_cgi_request', 00H
	ORG $+5
$SG157550 DB	'N', 00H, 'O', 00H, '_', 00H, 'M', 00H, 'E', 00H, 'S', 00H
	DB	'S', 00H, 'A', 00H, 'G', 00H, 'E', 00H, 00H, 00H
	ORG $+2
$SG157551 DB	'Area.Max.X >= 0', 00H
$SG157552 DB	'ZenRectifyTextureArea', 00H
	ORG $+2
$SG157553 DB	'W:\cpp\void\detroit\brazen-glyphics.c', 00H
	ORG $+2
$SG157554 DB	'N', 00H, 'O', 00H, '_', 00H, 'M', 00H, 'E', 00H, 'S', 00H
	DB	'S', 00H, 'A', 00H, 'G', 00H, 'E', 00H, 00H, 00H
	ORG $+2
$SG165747 DB	'Error: CGI program "%s" sent error message: [%.*s]', 00H
	ORG $+5
$SG157555 DB	'Area.Max.Y >= 0', 00H
$SG165748 DB	'handle_cgi_request', 00H
	ORG $+5
$SG157556 DB	'ZenRectifyTextureArea', 00H
	ORG $+2
$SG165749 DB	'Error: CGI program "%s" failed.', 00H
$SG157557 DB	'W:\cpp\void\detroit\brazen-glyphics.c', 00H
	ORG $+2
$SG165750 DB	'Error: CGI program sent malformed or too big (>%u bytes)'
	DB	' HTTP headers: [%.*s]', 00H
	ORG $+2
$SG165751 DB	'handle_cgi_request', 00H
	ORG $+5
$SG165763 DB	'HTTP/1.1 %d %s', 0dH, 0aH, 00H
	ORG $+7
$SG165752 DB	'Error: CGI program sent malformed or too big (>%u bytes)'
	DB	' HTTP headers: [%.*s]', 00H
	ORG $+2
$SG165761 DB	'Location', 00H
	ORG $+7
$SG165764 DB	'%s: %s', 0dH, 0aH, 00H
	ORG $+7
$SG83875 DB	'W', 00H, ':', 00H, '\', 00H, 'c', 00H, 'p', 00H, 'p', 00H
	DB	'\', 00H, 'v', 00H, 'o', 00H, 'i', 00H, 'd', 00H, '\', 00H, 'v'
	DB	00H, 'e', 00H, 'n', 00H, 'd', 00H, 'o', 00H, 'r', 00H, '\', 00H
	DB	's', 00H, 't', 00H, 'b', 00H, '\', 00H, 's', 00H, 't', 00H, 'b'
	DB	00H, '_', 00H, 't', 00H, 'r', 00H, 'u', 00H, 'e', 00H, 't', 00H
	DB	'y', 00H, 'p', 00H, 'e', 00H, '.', 00H, 'h', 00H, 00H, 00H
	ORG $+4
$SG83876 DB	'z', 00H, ' ', 00H, '!', 00H, '=', 00H, ' ', 00H, '0', 00H
	DB	00H, 00H
	ORG $+2
$SG165798 DB	'dav_mkcol', 00H
	ORG $+6
$SG165799 DB	'%s: mg_stat(%s) failed: %s', 00H
	ORG $+5
$SG165800 DB	'dav_mkcol', 00H
	ORG $+6
$SG165802 DB	'Error: mkcol(%s): %s', 00H
	ORG $+3
$SG165804 DB	'Error: mkcol(%s): %s', 00H
	ORG $+3
$SG165808 DB	'Content-Length', 00H
	ORG $+1
$SG165812 DB	'Error processing %s: %s', 00H
$SG83915 DB	'x', 00H, '1', 00H, ' ', 00H, '<', 00H, '=', 00H, ' ', 00H
	DB	'x', 00H, '+', 00H, '1', 00H, 00H, 00H
	ORG $+4
$SG83904 DB	'W', 00H, ':', 00H, '\', 00H, 'c', 00H, 'p', 00H, 'p', 00H
	DB	'\', 00H, 'v', 00H, 'o', 00H, 'i', 00H, 'd', 00H, '\', 00H, 'v'
	DB	00H, 'e', 00H, 'n', 00H, 'd', 00H, 'o', 00H, 'r', 00H, '\', 00H
	DB	's', 00H, 't', 00H, 'b', 00H, '\', 00H, 's', 00H, 't', 00H, 'b'
	DB	00H, '_', 00H, 't', 00H, 'r', 00H, 'u', 00H, 'e', 00H, 't', 00H
	DB	'y', 00H, 'p', 00H, 'e', 00H, '.', 00H, 'h', 00H, 00H, 00H
	ORG $+4
$SG83905 DB	'y', 00H, '0', 00H, ' ', 00H, '<', 00H, ' ', 00H, 'y', 00H
	DB	'1', 00H, 00H, 00H
$SG83906 DB	'W', 00H, ':', 00H, '\', 00H, 'c', 00H, 'p', 00H, 'p', 00H
	DB	'\', 00H, 'v', 00H, 'o', 00H, 'i', 00H, 'd', 00H, '\', 00H, 'v'
	DB	00H, 'e', 00H, 'n', 00H, 'd', 00H, 'o', 00H, 'r', 00H, '\', 00H
	DB	's', 00H, 't', 00H, 'b', 00H, '\', 00H, 's', 00H, 't', 00H, 'b'
	DB	00H, '_', 00H, 't', 00H, 'r', 00H, 'u', 00H, 'e', 00H, 't', 00H
	DB	'y', 00H, 'p', 00H, 'e', 00H, '.', 00H, 'h', 00H, 00H, 00H
	ORG $+4
$SG92099 DB	'W', 00H, ':', 00H, '\', 00H, 'c', 00H, 'p', 00H, 'p', 00H
	DB	'\', 00H, 'v', 00H, 'o', 00H, 'i', 00H, 'd', 00H, '\', 00H, 'v'
	DB	00H, 'e', 00H, 'n', 00H, 'd', 00H, 'o', 00H, 'r', 00H, '\', 00H
	DB	's', 00H, 't', 00H, 'b', 00H, '\', 00H, 's', 00H, 't', 00H, 'b'
	DB	00H, '_', 00H, 'i', 00H, 'm', 00H, 'a', 00H, 'g', 00H, 'e', 00H
	DB	'_', 00H, 'w', 00H, 'r', 00H, 'i', 00H, 't', 00H, 'e', 00H, '.'
	DB	00H, 'h', 00H, 00H, 00H
	ORG $+6
$SG83907 DB	'e', 00H, '-', 00H, '>', 00H, 's', 00H, 'y', 00H, ' ', 00H
	DB	'<', 00H, '=', 00H, ' ', 00H, 'e', 00H, '-', 00H, '>', 00H, 'e'
	DB	00H, 'y', 00H, 00H, 00H
	ORG $+2
$SG83919 DB	'x', 00H, '1', 00H, ' ', 00H, '>', 00H, '=', 00H, ' ', 00H
	DB	'x', 00H, 00H, 00H
$SG83927 DB	'x', 00H, '1', 00H, ' ', 00H, '>', 00H, '=', 00H, ' ', 00H
	DB	'x', 00H, '+', 00H, '1', 00H, 00H, 00H
	ORG $+4
$SG83914 DB	'W', 00H, ':', 00H, '\', 00H, 'c', 00H, 'p', 00H, 'p', 00H
	DB	'\', 00H, 'v', 00H, 'o', 00H, 'i', 00H, 'd', 00H, '\', 00H, 'v'
	DB	00H, 'e', 00H, 'n', 00H, 'd', 00H, 'o', 00H, 'r', 00H, '\', 00H
	DB	's', 00H, 't', 00H, 'b', 00H, '\', 00H, 's', 00H, 't', 00H, 'b'
	DB	00H, '_', 00H, 't', 00H, 'r', 00H, 'u', 00H, 'e', 00H, 't', 00H
	DB	'y', 00H, 'p', 00H, 'e', 00H, '.', 00H, 'h', 00H, 00H, 00H
	ORG $+4
$SG83918 DB	'W', 00H, ':', 00H, '\', 00H, 'c', 00H, 'p', 00H, 'p', 00H
	DB	'\', 00H, 'v', 00H, 'o', 00H, 'i', 00H, 'd', 00H, '\', 00H, 'v'
	DB	00H, 'e', 00H, 'n', 00H, 'd', 00H, 'o', 00H, 'r', 00H, '\', 00H
	DB	's', 00H, 't', 00H, 'b', 00H, '\', 00H, 's', 00H, 't', 00H, 'b'
	DB	00H, '_', 00H, 't', 00H, 'r', 00H, 'u', 00H, 'e', 00H, 't', 00H
	DB	'y', 00H, 'p', 00H, 'e', 00H, '.', 00H, 'h', 00H, 00H, 00H
	ORG $+4
$SG83922 DB	'W', 00H, ':', 00H, '\', 00H, 'c', 00H, 'p', 00H, 'p', 00H
	DB	'\', 00H, 'v', 00H, 'o', 00H, 'i', 00H, 'd', 00H, '\', 00H, 'v'
	DB	00H, 'e', 00H, 'n', 00H, 'd', 00H, 'o', 00H, 'r', 00H, '\', 00H
	DB	's', 00H, 't', 00H, 'b', 00H, '\', 00H, 's', 00H, 't', 00H, 'b'
	DB	00H, '_', 00H, 't', 00H, 'r', 00H, 'u', 00H, 'e', 00H, 't', 00H
	DB	'y', 00H, 'p', 00H, 'e', 00H, '.', 00H, 'h', 00H, 00H, 00H
	ORG $+4
$SG83923 DB	'x', 00H, '1', 00H, ' ', 00H, '<', 00H, '=', 00H, ' ', 00H
	DB	'x', 00H, 00H, 00H
$SG83926 DB	'W', 00H, ':', 00H, '\', 00H, 'c', 00H, 'p', 00H, 'p', 00H
	DB	'\', 00H, 'v', 00H, 'o', 00H, 'i', 00H, 'd', 00H, '\', 00H, 'v'
	DB	00H, 'e', 00H, 'n', 00H, 'd', 00H, 'o', 00H, 'r', 00H, '\', 00H
	DB	's', 00H, 't', 00H, 'b', 00H, '\', 00H, 's', 00H, 't', 00H, 'b'
	DB	00H, '_', 00H, 't', 00H, 'r', 00H, 'u', 00H, 'e', 00H, 't', 00H
	DB	'y', 00H, 'p', 00H, 'e', 00H, '.', 00H, 'h', 00H, 00H, 00H
	ORG $+4
$SG165847 DB	'Overwrite', 00H
	ORG $+6
$SG165848 DB	'Destination', 00H
	ORG $+4
$SG83928 DB	'W', 00H, ':', 00H, '\', 00H, 'c', 00H, 'p', 00H, 'p', 00H
	DB	'\', 00H, 'v', 00H, 'o', 00H, 'i', 00H, 'd', 00H, '\', 00H, 'v'
	DB	00H, 'e', 00H, 'n', 00H, 'd', 00H, 'o', 00H, 'r', 00H, '\', 00H
	DB	's', 00H, 't', 00H, 'b', 00H, '\', 00H, 's', 00H, 't', 00H, 'b'
	DB	00H, '_', 00H, 't', 00H, 'r', 00H, 'u', 00H, 'e', 00H, 't', 00H
	DB	'y', 00H, 'p', 00H, 'e', 00H, '.', 00H, 'h', 00H, 00H, 00H
	ORG $+4
$SG83929 DB	'x', 00H, '1', 00H, ' ', 00H, '>', 00H, '=', 00H, ' ', 00H
	DB	'x', 00H, ' ', 00H, '&', 00H, '&', 00H, ' ', 00H, 'x', 00H, '1'
	DB	00H, ' ', 00H, '<', 00H, '=', 00H, ' ', 00H, 'x', 00H, '+', 00H
	DB	'1', 00H, 00H, 00H
	ORG $+6
$SG165852 DB	'Missing destination', 00H
$SG166372 DB	'%s%s', 00H
	ORG $+7
$SG83934 DB	'W', 00H, ':', 00H, '\', 00H, 'c', 00H, 'p', 00H, 'p', 00H
	DB	'\', 00H, 'v', 00H, 'o', 00H, 'i', 00H, 'd', 00H, '\', 00H, 'v'
	DB	00H, 'e', 00H, 'n', 00H, 'd', 00H, 'o', 00H, 'r', 00H, '\', 00H
	DB	's', 00H, 't', 00H, 'b', 00H, '\', 00H, 's', 00H, 't', 00H, 'b'
	DB	00H, '_', 00H, 't', 00H, 'r', 00H, 'u', 00H, 'e', 00H, 't', 00H
	DB	'y', 00H, 'p', 00H, 'e', 00H, '.', 00H, 'h', 00H, 00H, 00H
	ORG $+4
$SG83935 DB	'x', 00H, '0', 00H, ' ', 00H, '>', 00H, '=', 00H, ' ', 00H
	DB	'x', 00H, ' ', 00H, '&', 00H, '&', 00H, ' ', 00H, 'x', 00H, '0'
	DB	00H, ' ', 00H, '<', 00H, '=', 00H, ' ', 00H, 'x', 00H, '+', 00H
	DB	'1', 00H, ' ', 00H, '&', 00H, '&', 00H, ' ', 00H, 'x', 00H, '1'
	DB	00H, ' ', 00H, '>', 00H, '=', 00H, ' ', 00H, 'x', 00H, ' ', 00H
	DB	'&', 00H, '&', 00H, ' ', 00H, 'x', 00H, '1', 00H, ' ', 00H, '<'
	DB	00H, '=', 00H, ' ', 00H, 'x', 00H, '+', 00H, '1', 00H, 00H, 00H
	ORG $+6
$SG165865 DB	'Illegal destination', 00H
$SG92903 DB	'IHDR', 00H
	ORG $+7
$SG83945 DB	'W', 00H, ':', 00H, '\', 00H, 'c', 00H, 'p', 00H, 'p', 00H
	DB	'\', 00H, 'v', 00H, 'o', 00H, 'i', 00H, 'd', 00H, '\', 00H, 'v'
	DB	00H, 'e', 00H, 'n', 00H, 'd', 00H, 'o', 00H, 'r', 00H, '\', 00H
	DB	's', 00H, 't', 00H, 'b', 00H, '\', 00H, 's', 00H, 't', 00H, 'b'
	DB	00H, '_', 00H, 't', 00H, 'r', 00H, 'u', 00H, 'e', 00H, 't', 00H
	DB	'y', 00H, 'p', 00H, 'e', 00H, '.', 00H, 'h', 00H, 00H, 00H
	ORG $+4
$SG83946 DB	't', 00H, 'o', 00H, 'p', 00H, '_', 00H, 'w', 00H, 'i', 00H
	DB	'd', 00H, 't', 00H, 'h', 00H, ' ', 00H, '>', 00H, '=', 00H, ' '
	DB	00H, '0', 00H, 00H, 00H
	ORG $+2
$SG83947 DB	'W', 00H, ':', 00H, '\', 00H, 'c', 00H, 'p', 00H, 'p', 00H
	DB	'\', 00H, 'v', 00H, 'o', 00H, 'i', 00H, 'd', 00H, '\', 00H, 'v'
	DB	00H, 'e', 00H, 'n', 00H, 'd', 00H, 'o', 00H, 'r', 00H, '\', 00H
	DB	's', 00H, 't', 00H, 'b', 00H, '\', 00H, 's', 00H, 't', 00H, 'b'
	DB	00H, '_', 00H, 't', 00H, 'r', 00H, 'u', 00H, 'e', 00H, 't', 00H
	DB	'y', 00H, 'p', 00H, 'e', 00H, '.', 00H, 'h', 00H, 00H, 00H
	ORG $+4
$SG83948 DB	'b', 00H, 'o', 00H, 't', 00H, 't', 00H, 'o', 00H, 'm', 00H
	DB	'_', 00H, 'w', 00H, 'i', 00H, 'd', 00H, 't', 00H, 'h', 00H, ' '
	DB	00H, '>', 00H, '=', 00H, ' ', 00H, '0', 00H, 00H, 00H
	ORG $+4
$SG165871 DB	'Cannot overwrite file: %s', 00H
	ORG $+6
$SG165872 DB	'Destination already exists: %s', 00H
	ORG $+1
$SG165878 DB	'Destination already exists: %s', 00H
	ORG $+1
$SG165882 DB	'Content-Length', 00H
	ORG $+1
$SG165883 DB	'Operation failed', 00H
	ORG $+7
$SG165912 DB	'Error: Put not possible', 0aH, 'Replacing %s is not allo'
	DB	'wed', 00H
	ORG $+4
$SG165915 DB	'Content-Length', 00H
	ORG $+1
$SG165917 DB	'Error: Path too long', 0aH, 'put_dir(%s): %s', 00H
	ORG $+3
$SG165919 DB	'Error: Can not create directory', 0aH, 'put_dir(%s): %s', 00H
$SG165922 DB	'Error: Can not create file', 0aH, 'fopen(%s): %s', 00H
	ORG $+7
$SG165923 DB	'Content-Range', 00H
	ORG $+2
$SG165926 DB	'Error: Internal error processing file %s', 00H
	ORG $+7
$SG165930 DB	'Content-Length', 00H
	ORG $+1
$SG165941 DB	'Error: Cannot delete file', 0aH, 'File %s not found', 00H
	ORG $+4
$SG165947 DB	'Error: Could not delete %s', 00H
	ORG $+5
$SG84028 DB	'W', 00H, ':', 00H, '\', 00H, 'c', 00H, 'p', 00H, 'p', 00H
	DB	'\', 00H, 'v', 00H, 'o', 00H, 'i', 00H, 'd', 00H, '\', 00H, 'v'
	DB	00H, 'e', 00H, 'n', 00H, 'd', 00H, 'o', 00H, 'r', 00H, '\', 00H
	DB	's', 00H, 't', 00H, 'b', 00H, '\', 00H, 's', 00H, 't', 00H, 'b'
	DB	00H, '_', 00H, 't', 00H, 'r', 00H, 'u', 00H, 'e', 00H, 't', 00H
	DB	'y', 00H, 'p', 00H, 'e', 00H, '.', 00H, 'h', 00H, 00H, 00H
	ORG $+4
$SG165949 DB	'Error: Delete not possible', 0aH, 'Deleting %s is not al'
	DB	'lowed', 00H
	ORG $+2
$SG92221 DB	'11 4 22 44 44 22 444444', 00H
$SG84029 DB	'e', 00H, '-', 00H, '>', 00H, 'e', 00H, 'y', 00H, ' ', 00H
	DB	'>', 00H, '=', 00H, ' ', 00H, 'y', 00H, '_', 00H, 't', 00H, 'o'
	DB	00H, 'p', 00H, 00H, 00H
	ORG $+2
$SG92222 DB	'11 4 22 44 44 22 444444 4444 4 444 444 444 444', 00H
	ORG $+1
$SG165953 DB	'Content-Length', 00H
	ORG $+1
$SG165954 DB	'Error: Cannot delete file', 0aH, 'remove(%s): %s', 00H
	ORG $+7
$SG84035 DB	'W', 00H, ':', 00H, '\', 00H, 'c', 00H, 'p', 00H, 'p', 00H
	DB	'\', 00H, 'v', 00H, 'o', 00H, 'i', 00H, 'd', 00H, '\', 00H, 'v'
	DB	00H, 'e', 00H, 'n', 00H, 'd', 00H, 'o', 00H, 'r', 00H, '\', 00H
	DB	's', 00H, 't', 00H, 'b', 00H, '\', 00H, 's', 00H, 't', 00H, 'b'
	DB	00H, '_', 00H, 't', 00H, 'r', 00H, 'u', 00H, 'e', 00H, 't', 00H
	DB	'y', 00H, 'p', 00H, 'e', 00H, '.', 00H, 'h', 00H, 00H, 00H
	ORG $+4
$SG84036 DB	'e', 00H, '-', 00H, '>', 00H, 's', 00H, 'y', 00H, ' ', 00H
	DB	'<', 00H, '=', 00H, ' ', 00H, 'y', 00H, '_', 00H, 'b', 00H, 'o'
	DB	00H, 't', 00H, 't', 00H, 'o', 00H, 'm', 00H, ' ', 00H, '&', 00H
	DB	'&', 00H, ' ', 00H, 'e', 00H, '-', 00H, '>', 00H, 'e', 00H, 'y'
	DB	00H, ' ', 00H, '>', 00H, '=', 00H, ' ', 00H, 'y', 00H, '_', 00H
	DB	't', 00H, 'o', 00H, 'p', 00H, 00H, 00H
$SG157770 DB	'assets\fonts\%s.%s', 00H
	ORG $+5
$SG157771 DB	'C:\Windows\Fonts\%s.%s', 00H
	ORG $+1
$SG84046 DB	'x', 00H, ' ', 00H, '>', 00H, '=', 00H, ' ', 00H, '0', 00H
	DB	' ', 00H, '&', 00H, '&', 00H, ' ', 00H, 'x', 00H, ' ', 00H, '<'
	DB	00H, ' ', 00H, 'l', 00H, 'e', 00H, 'n', 00H, 00H, 00H
	ORG $+4
$SG84045 DB	'W', 00H, ':', 00H, '\', 00H, 'c', 00H, 'p', 00H, 'p', 00H
	DB	'\', 00H, 'v', 00H, 'o', 00H, 'i', 00H, 'd', 00H, '\', 00H, 'v'
	DB	00H, 'e', 00H, 'n', 00H, 'd', 00H, 'o', 00H, 'r', 00H, '\', 00H
	DB	's', 00H, 't', 00H, 'b', 00H, '\', 00H, 's', 00H, 't', 00H, 'b'
	DB	00H, '_', 00H, 't', 00H, 'r', 00H, 'u', 00H, 'e', 00H, 't', 00H
	DB	'y', 00H, 'p', 00H, 'e', 00H, '.', 00H, 'h', 00H, 00H, 00H
	ORG $+4
$SG84048 DB	'W', 00H, ':', 00H, '\', 00H, 'c', 00H, 'p', 00H, 'p', 00H
	DB	'\', 00H, 'v', 00H, 'o', 00H, 'i', 00H, 'd', 00H, '\', 00H, 'v'
	DB	00H, 'e', 00H, 'n', 00H, 'd', 00H, 'o', 00H, 'r', 00H, '\', 00H
	DB	's', 00H, 't', 00H, 'b', 00H, '\', 00H, 's', 00H, 't', 00H, 'b'
	DB	00H, '_', 00H, 't', 00H, 'r', 00H, 'u', 00H, 'e', 00H, 't', 00H
	DB	'y', 00H, 'p', 00H, 'e', 00H, '.', 00H, 'h', 00H, 00H, 00H
	ORG $+4
$SG84049 DB	'd', 00H, 'y', 00H, ' ', 00H, '>', 00H, '=', 00H, ' ', 00H
	DB	'0', 00H, 00H, 00H
$SG84050 DB	'W', 00H, ':', 00H, '\', 00H, 'c', 00H, 'p', 00H, 'p', 00H
	DB	'\', 00H, 'v', 00H, 'o', 00H, 'i', 00H, 'd', 00H, '\', 00H, 'v'
	DB	00H, 'e', 00H, 'n', 00H, 'd', 00H, 'o', 00H, 'r', 00H, '\', 00H
	DB	's', 00H, 't', 00H, 'b', 00H, '\', 00H, 's', 00H, 't', 00H, 'b'
	DB	00H, '_', 00H, 't', 00H, 'r', 00H, 'u', 00H, 'e', 00H, 't', 00H
	DB	'y', 00H, 'p', 00H, 'e', 00H, '.', 00H, 'h', 00H, 00H, 00H
	ORG $+4
$SG84051 DB	'd', 00H, 'x', 00H, ' ', 00H, '>', 00H, '=', 00H, ' ', 00H
	DB	'0', 00H, 00H, 00H
$SG84054 DB	'W', 00H, ':', 00H, '\', 00H, 'c', 00H, 'p', 00H, 'p', 00H
	DB	'\', 00H, 'v', 00H, 'o', 00H, 'i', 00H, 'd', 00H, '\', 00H, 'v'
	DB	00H, 'e', 00H, 'n', 00H, 'd', 00H, 'o', 00H, 'r', 00H, '\', 00H
	DB	's', 00H, 't', 00H, 'b', 00H, '\', 00H, 's', 00H, 't', 00H, 'b'
	DB	00H, '_', 00H, 't', 00H, 'r', 00H, 'u', 00H, 'e', 00H, 't', 00H
	DB	'y', 00H, 'p', 00H, 'e', 00H, '.', 00H, 'h', 00H, 00H, 00H
	ORG $+4
$SG84055 DB	'f', 00H, 'a', 00H, 'b', 00H, 's', 00H, '(', 00H, 'a', 00H
	DB	'r', 00H, 'e', 00H, 'a', 00H, ')', 00H, ' ', 00H, '<', 00H, '='
	DB	00H, ' ', 00H, '1', 00H, '.', 00H, '0', 00H, '1', 00H, 'f', 00H
	DB	00H, 00H
$SG84057 DB	's', 00H, 'y', 00H, '1', 00H, ' ', 00H, '>', 00H, ' ', 00H
	DB	'y', 00H, '_', 00H, 'f', 00H, 'i', 00H, 'n', 00H, 'a', 00H, 'l'
	DB	00H, '-', 00H, '0', 00H, '.', 00H, '0', 00H, '1', 00H, 'f', 00H
	DB	00H, 00H
$SG84056 DB	'W', 00H, ':', 00H, '\', 00H, 'c', 00H, 'p', 00H, 'p', 00H
	DB	'\', 00H, 'v', 00H, 'o', 00H, 'i', 00H, 'd', 00H, '\', 00H, 'v'
	DB	00H, 'e', 00H, 'n', 00H, 'd', 00H, 'o', 00H, 'r', 00H, '\', 00H
	DB	's', 00H, 't', 00H, 'b', 00H, '\', 00H, 's', 00H, 't', 00H, 'b'
	DB	00H, '_', 00H, 't', 00H, 'r', 00H, 'u', 00H, 'e', 00H, 't', 00H
	DB	'y', 00H, 'p', 00H, 'e', 00H, '.', 00H, 'h', 00H, 00H, 00H
	ORG $+4
$SG165987 DB	' virtual="%511[^"]"', 00H
	ORG $+4
$SG165991 DB	' abspath="%511[^"]"', 00H
	ORG $+4
$SG165996 DB	' file="%511[^"]"', 00H
	ORG $+7
$SG165997 DB	' "%511[^"]"', 00H
	ORG $+4
$SG166002 DB	'Bad SSI #include: [%s]', 00H
	ORG $+1
$SG166003 DB	'do_ssi_include', 00H
	ORG $+1
$SG166005 DB	'SSI #include path length overflow: [%s]', 00H
$SG166006 DB	'do_ssi_include', 00H
	ORG $+1
$SG166009 DB	'Cannot open SSI #include: [%s]: fopen(%s): %s', 00H
	ORG $+2
$SG166010 DB	'do_ssi_include', 00H
	ORG $+1
$SG92288 DB	'111 221 2222 11', 00H
$SG92289 DB	'111 221 2222 11', 00H
$SG157827 DB	'ASCII-EX', 00H
	ORG $+7
$SG166027 DB	' "%1023[^"]"', 00H
	ORG $+3
$SG166028 DB	'Bad SSI #exec: [%s]', 00H
	ORG $+4
$SG166029 DB	'do_ssi_exec', 00H
	ORG $+4
$SG166033 DB	'Cannot SSI #exec: [%s]: %s', 00H
	ORG $+5
$SG166034 DB	'do_ssi_exec', 00H
	ORG $+4
$SG84124 DB	'W', 00H, ':', 00H, '\', 00H, 'c', 00H, 'p', 00H, 'p', 00H
	DB	'\', 00H, 'v', 00H, 'o', 00H, 'i', 00H, 'd', 00H, '\', 00H, 'v'
	DB	00H, 'e', 00H, 'n', 00H, 'd', 00H, 'o', 00H, 'r', 00H, '\', 00H
	DB	's', 00H, 't', 00H, 'b', 00H, '\', 00H, 's', 00H, 't', 00H, 'b'
	DB	00H, '_', 00H, 't', 00H, 'r', 00H, 'u', 00H, 'e', 00H, 't', 00H
	DB	'y', 00H, 'p', 00H, 'e', 00H, '.', 00H, 'h', 00H, 00H, 00H
	ORG $+4
$SG84125 DB	'z', 00H, '-', 00H, '>', 00H, 'd', 00H, 'i', 00H, 'r', 00H
	DB	'e', 00H, 'c', 00H, 't', 00H, 'i', 00H, 'o', 00H, 'n', 00H, 00H
	DB	00H
	ORG $+6
$SG84130 DB	'W', 00H, ':', 00H, '\', 00H, 'c', 00H, 'p', 00H, 'p', 00H
	DB	'\', 00H, 'v', 00H, 'o', 00H, 'i', 00H, 'd', 00H, '\', 00H, 'v'
	DB	00H, 'e', 00H, 'n', 00H, 'd', 00H, 'o', 00H, 'r', 00H, '\', 00H
	DB	's', 00H, 't', 00H, 'b', 00H, '\', 00H, 's', 00H, 't', 00H, 'b'
	DB	00H, '_', 00H, 't', 00H, 'r', 00H, 'u', 00H, 'e', 00H, 't', 00H
	DB	'y', 00H, 'p', 00H, 'e', 00H, '.', 00H, 'h', 00H, 00H, 00H
	ORG $+4
$SG84131 DB	'z', 00H, '-', 00H, '>', 00H, 'e', 00H, 'y', 00H, ' ', 00H
	DB	'>', 00H, '=', 00H, ' ', 00H, 's', 00H, 'c', 00H, 'a', 00H, 'n'
	DB	00H, '_', 00H, 'y', 00H, '_', 00H, 't', 00H, 'o', 00H, 'p', 00H
	DB	00H, 00H
$SG166066 DB	'SSI #include level is too deep (%s)', 00H
	ORG $+4
$SG166067 DB	'send_ssi_file', 00H
	ORG $+2
$SG92347 DB	'W', 00H, ':', 00H, '\', 00H, 'c', 00H, 'p', 00H, 'p', 00H
	DB	'\', 00H, 'v', 00H, 'o', 00H, 'i', 00H, 'd', 00H, '\', 00H, 'v'
	DB	00H, 'e', 00H, 'n', 00H, 'd', 00H, 'o', 00H, 'r', 00H, '\', 00H
	DB	's', 00H, 't', 00H, 'b', 00H, '\', 00H, 's', 00H, 't', 00H, 'b'
	DB	00H, '_', 00H, 'i', 00H, 'm', 00H, 'a', 00H, 'g', 00H, 'e', 00H
	DB	'_', 00H, 'w', 00H, 'r', 00H, 'i', 00H, 't', 00H, 'e', 00H, '.'
	DB	00H, 'h', 00H, 00H, 00H
	ORG $+6
$SG166076 DB	'include', 00H
$SG92348 DB	'l', 00H, 'e', 00H, 'n', 00H, 'g', 00H, 't', 00H, 'h', 00H
	DB	'+', 00H, '1', 00H, '2', 00H, '8', 00H, ' ', 00H, '<', 00H, '='
	DB	00H, ' ', 00H, '2', 00H, '5', 00H, '5', 00H, 00H, 00H
	ORG $+4
$SG166080 DB	'%s: unknown SSI command: "%s"', 00H
	ORG $+2
$SG166081 DB	'send_ssi_file', 00H
	ORG $+2
$SG166085 DB	'%s: tag is too large', 00H
	ORG $+3
$SG166086 DB	'send_ssi_file', 00H
	ORG $+2
$SG92358 DB	'W', 00H, ':', 00H, '\', 00H, 'c', 00H, 'p', 00H, 'p', 00H
	DB	'\', 00H, 'v', 00H, 'o', 00H, 'i', 00H, 'd', 00H, '\', 00H, 'v'
	DB	00H, 'e', 00H, 'n', 00H, 'd', 00H, 'o', 00H, 'r', 00H, '\', 00H
	DB	's', 00H, 't', 00H, 'b', 00H, '\', 00H, 's', 00H, 't', 00H, 'b'
	DB	00H, '_', 00H, 'i', 00H, 'm', 00H, 'a', 00H, 'g', 00H, 'e', 00H
	DB	'_', 00H, 'w', 00H, 'r', 00H, 'i', 00H, 't', 00H, 'e', 00H, '.'
	DB	00H, 'h', 00H, 00H, 00H
	ORG $+6
$SG92359 DB	'l', 00H, 'e', 00H, 'n', 00H, 'g', 00H, 't', 00H, 'h', 00H
	DB	' ', 00H, '<', 00H, '=', 00H, ' ', 00H, '1', 00H, '2', 00H, '8'
	DB	00H, 00H, 00H
	ORG $+4
$SG157896 DB	'ZenCoreCreateGlyphFontAtlas', 00H
	ORG $+4
$SG157897 DB	'W:\cpp\void\detroit\brazen-glyphics.c', 00H
	ORG $+2
$SG166105 DB	'Error: Cannot read file', 0aH, 'fopen(%s): %s', 00H
	ORG $+2
$SG166106 DB	'text/html', 00H
	ORG $+6
$SG166107 DB	'Content-Type', 00H
	ORG $+3
$SG166113 DB	'text/html', 00H
	ORG $+6
$SG166114 DB	'Content-Type', 00H
	ORG $+3
$SG157924 DB	'F', 00H, 'o', 00H, 'n', 00H, 't', 00H, ' ', 00H, 'F', 00H
	DB	'i', 00H, 'l', 00H, 'e', 00H, ':', 00H, ' ', 00H, '%', 00H, 's'
	DB	00H, ',', 00H, ' ', 00H, 'N', 00H, 'o', 00H, 't', 00H, ' ', 00H
	DB	'F', 00H, 'o', 00H, 'u', 00H, 'n', 00H, 'd', 00H, ':', 00H, ' '
	DB	00H, '%', 00H, 's', 00H, 00H, 00H
	ORG $+6
$SG157925 DB	'ZenCoreLoadGlyphFontCaller', 00H
	ORG $+5
$SG157926 DB	'W:\cpp\void\detroit\brazen-glyphics.c', 00H
	ORG $+2
$SG166120 DB	'GET, POST', 00H
	ORG $+6
$SG157931 DB	'ZenCoreLoadGlyphFontCaller', 00H
	ORG $+5
$SG157932 DB	'W:\cpp\void\detroit\brazen-glyphics.c', 00H
	ORG $+2
$SG157933 DB	'ZenCoreLoadGlyphFontCaller', 00H
	ORG $+5
$SG157934 DB	'W:\cpp\void\detroit\brazen-glyphics.c', 00H
	ORG $+2
$SG166142 DB	'<d:collection/>', 00H
$SG166144 DB	'<d:response><d:href>%s</d:href><d:propstat><d:prop><d:re'
	DB	'sourcetype>%s</d:resourcetype><d:getcontentlength>%I64d</d:ge'
	DB	'tcontentlength><d:getlastmodified>%s</d:getlastmodified><d:lo'
	DB	'ckdiscovery>', 00H
	ORG $+1
$SG166146 DB	'<d:activelock><d:locktype><d:write/></d:locktype><d:lock'
	DB	'scope><d:exclusive/></d:lockscope><d:depth>0</d:depth><d:owne'
	DB	'r>%s</d:owner><d:timeout>Second-%u</d:timeout><d:locktoken><d'
	DB	':href>%s</d:href></d:locktoken></d:activelock>', 0aH, 00H
	ORG $+6
$SG92433 DB	'EXPOSURE=          1.0000000000000', 0aH, 0aH, '-Y %d +X'
	DB	' %d', 0aH, 00H
	ORG $+7
$SG166147 DB	'</d:lockdiscovery></d:prop><d:status>HTTP/1.1 200 OK</d:'
	DB	'status></d:propstat></d:response>', 0aH, 00H
	ORG $+5
$SG92432 DB	'#?RADIANCE', 0aH, '# Written by stb_image_write.h', 0aH, 'F'
	DB	'ORMAT=32-bit_rle_rgbe', 0aH, 00H
	ORG $+6
$SG157972 DB	'ZenCoreMaterializeGlyphFont', 00H
	ORG $+4
$SG166165 DB	'application/xml; charset=utf-8', 00H
	ORG $+1
$SG157973 DB	'W:\cpp\void\detroit\brazen-glyphics.c', 00H
	ORG $+2
$SG166166 DB	'Content-Type', 00H
	ORG $+3
$SG157974 DB	'ZenCoreMaterializeGlyphFont', 00H
	ORG $+4
$SG166167 DB	'<?xml version="1.0" encoding="utf-8"?><d:multistatus xml'
	DB	'ns:d=''DAV:''>', 0aH, 00H
	ORG $+2
$SG157975 DB	'W:\cpp\void\detroit\brazen-glyphics.c', 00H
	ORG $+2
$SG157977 DB	'ZenCoreMaterializeGlyphFont', 00H
	ORG $+4
$SG157978 DB	'W:\cpp\void\detroit\brazen-glyphics.c', 00H
	ORG $+2
$SG157979 DB	'ZenCoreMaterializeGlyphFont', 00H
	ORG $+4
$SG157980 DB	'W:\cpp\void\detroit\brazen-glyphics.c', 00H
	ORG $+2
$SG166173 DB	'</d:multistatus>', 00H
	ORG $+7
$SG158003 DB	'ZenCoreSerializeGlyphFont', 00H
	ORG $+6
$SG158004 DB	'W:\cpp\void\detroit\brazen-glyphics.c', 00H
	ORG $+2
$SG92475 DB	'W', 00H, ':', 00H, '\', 00H, 'c', 00H, 'p', 00H, 'p', 00H
	DB	'\', 00H, 'v', 00H, 'o', 00H, 'i', 00H, 'd', 00H, '\', 00H, 'v'
	DB	00H, 'e', 00H, 'n', 00H, 'd', 00H, 'o', 00H, 'r', 00H, '\', 00H
	DB	's', 00H, 't', 00H, 'b', 00H, '\', 00H, 's', 00H, 't', 00H, 'b'
	DB	00H, '_', 00H, 'i', 00H, 'm', 00H, 'a', 00H, 'g', 00H, 'e', 00H
	DB	'_', 00H, 'w', 00H, 'r', 00H, 'i', 00H, 't', 00H, 'e', 00H, '.'
	DB	00H, 'h', 00H, 00H, 00H
	ORG $+6
$SG166208 DB	'Already locked', 00H
	ORG $+1
$SG166216 DB	'application/xml; charset=utf-8', 00H
	ORG $+1
$SG166217 DB	'Content-Type', 00H
	ORG $+3
$SG166218 DB	'Lock-Token', 00H
	ORG $+5
$SG166233 DB	'Lock not found', 00H
	ORG $+1
$SG158047 DB	'W:\cpp\void\detroit\brazen-glyphics.c', 00H
	ORG $+2
$SG166219 DB	'<?xml version="1.0" encoding="utf-8"?><d:prop xmlns:d="D'
	DB	'AV:">', 0aH, '     <d:lockdiscovery>', 0aH, '       <d:active'
	DB	'lock>', 0aH, '         <d:lockscope><d:exclusive/></d:locksco'
	DB	'pe>', 0aH, '         <d:locktype><d:write/></d:locktype>', 0aH
	DB	'         <d:owner>', 0aH, '           <d:href>%s</d:href>', 0aH
	DB	'         </d:owner>', 0aH, '         <d:timeout>Second-%u</d:'
	DB	'timeout>', 0aH, '         <d:locktoken><d:href>%s</d:href></d'
	DB	':locktoken>', 0aH, '         <d:lockroot>', 0aH, '           '
	DB	'<d:href>%s</d:href>', 0aH, '         </d:lockroot>', 0aH, '  '
	DB	'     </d:activelock>', 0aH, '     </d:lockdiscovery>', 0aH, ' '
	DB	'  </d:prop>', 0aH, 00H
	ORG $+4
$SG158046 DB	'ZenCoreLoadMetalFontFromFile', 00H
	ORG $+3
$SG158048 DB	'ZenCoreLoadMetalFontFromFile', 00H
	ORG $+3
$SG158049 DB	'W:\cpp\void\detroit\brazen-glyphics.c', 00H
	ORG $+2
$SG166242 DB	'application/xml; charset=utf-8', 00H
	ORG $+1
$SG166243 DB	'Content-Type', 00H
	ORG $+3
$SG166246 DB	'</d:response></d:multistatus>', 00H
	ORG $+2
$SG158109 DB	'ZenCoreGenerateGlyphFontExtended', 00H
	ORG $+7
$SG166244 DB	'<?xml version="1.0" encoding="utf-8"?><d:multistatus xml'
	DB	'ns:d=''DAV:''>', 0aH, '<d:response>', 0aH, '<d:href>%s</d:hre'
	DB	'f>', 0aH, 00H
	ORG $+1
$SG158110 DB	'W:\cpp\void\detroit\brazen-glyphics.c', 00H
	ORG $+2
$SG166245 DB	'<d:propstat><d:status>HTTP/1.1 403 Forbidden</d:status><'
	DB	'/d:propstat>', 0aH, 00H
	ORG $+2
$SG158111 DB	'ZenCoreGenerateGlyphFontExtended', 00H
	ORG $+7
$SG158112 DB	'W:\cpp\void\detroit\brazen-glyphics.c', 00H
	ORG $+2
$SG158113 DB	'ZenCoreGenerateGlyphFontExtended', 00H
	ORG $+7
$SG158114 DB	'W:\cpp\void\detroit\brazen-glyphics.c', 00H
	ORG $+2
$SG158116 DB	'N', 00H, 'O', 00H, '_', 00H, 'M', 00H, 'E', 00H, 'S', 00H
	DB	'S', 00H, 'A', 00H, 'G', 00H, 'E', 00H, 00H, 00H
	ORG $+2
$SG158117 DB	'CurX <= MaxPackX', 00H
	ORG $+7
$SG158118 DB	'ZenCoreGenerateGlyphFontExtended', 00H
	ORG $+7
$SG158119 DB	'W:\cpp\void\detroit\brazen-glyphics.c', 00H
	ORG $+2
$SG158120 DB	'N', 00H, 'O', 00H, '_', 00H, 'M', 00H, 'E', 00H, 'S', 00H
	DB	'S', 00H, 'A', 00H, 'G', 00H, 'E', 00H, 00H, 00H
	ORG $+2
$SG158121 DB	'CurY <= MaxPackY', 00H
	ORG $+7
$SG158122 DB	'ZenCoreGenerateGlyphFontExtended', 00H
	ORG $+7
$SG158123 DB	'W:\cpp\void\detroit\brazen-glyphics.c', 00H
	ORG $+2
$SG158125 DB	'%', 00H, 'i', 00H, ' ', 00H, '.', 00H, '.', 00H, '.', 00H
	DB	00H, 00H
	ORG $+2
$SG158126 DB	'ZenCoreGenerateGlyphFontExtended', 00H
	ORG $+7
$SG158127 DB	'W:\cpp\void\detroit\brazen-glyphics.c', 00H
	ORG $+2
$SG158128 DB	'SomeFile', 00H
	ORG $+7
$SG158129 DB	'%s_debug_atlas.png', 00H
	ORG $+5
$SG166358 DB	'258EAFA5-E914-47DA-95CA-C5AB0DC85B11', 00H
	ORG $+3
$SG158179 DB	'W:\cpp\void\detroit', 00H
	ORG $+4
$SG158180 DB	'UnifrakturCook\UnifrakturCook-Bold', 00H
	ORG $+5
$SG158181 DB	'ZenConductSDFFontTest', 00H
	ORG $+2
$SG166374 DB	'HTTP/1.1 101 Switching Protocols', 0dH, 0aH, 'Upgrade: w'
	DB	'ebsocket', 0dH, 0aH, 'Connection: Upgrade', 0dH, 0aH, 'Sec-We'
	DB	'bSocket-Accept: %s', 0dH, 0aH, 00H
	ORG $+2
$SG158182 DB	'W:\cpp\void\detroit\brazen-glyphics.c', 00H
	ORG $+2
$SG158183 DB	'W:\cpp\void\detroit\assets', 00H
	ORG $+5
$SG158184 DB	'test\circle.png', 00H
$SG166377 DB	'Sec-WebSocket-Protocol: %s', 0dH, 0aH, 0dH, 0aH, 00H
	ORG $+1
$SG158185 DB	'test\sdf_circle.png', 00H
	ORG $+4
$SG158186 DB	'1234111 jjyyggiiill110099 QQ11jjiiiyy``.. [%d]', 00H
	ORG $+1
$SG158187 DB	'test\sdf_test.png', 00H
	ORG $+6
$SG92720 DB	'W', 00H, ':', 00H, '\', 00H, 'c', 00H, 'p', 00H, 'p', 00H
	DB	'\', 00H, 'v', 00H, 'o', 00H, 'i', 00H, 'd', 00H, '\', 00H, 'v'
	DB	00H, 'e', 00H, 'n', 00H, 'd', 00H, 'o', 00H, 'r', 00H, '\', 00H
	DB	's', 00H, 't', 00H, 'b', 00H, '\', 00H, 's', 00H, 't', 00H, 'b'
	DB	00H, '_', 00H, 'i', 00H, 'm', 00H, 'a', 00H, 'g', 00H, 'e', 00H
	DB	'_', 00H, 'w', 00H, 'r', 00H, 'i', 00H, 't', 00H, 'e', 00H, '.'
	DB	00H, 'h', 00H, 00H, 00H
	ORG $+6
$SG92721 DB	'd', 00H, ' ', 00H, '<', 00H, '=', 00H, ' ', 00H, '3', 00H
	DB	'2', 00H, '7', 00H, '6', 00H, '7', 00H, ' ', 00H, '&', 00H, '&'
	DB	00H, ' ', 00H, 'b', 00H, 'e', 00H, 's', 00H, 't', 00H, ' ', 00H
	DB	'<', 00H, '=', 00H, ' ', 00H, '2', 00H, '5', 00H, '8', 00H, 00H
	DB	00H
	ORG $+4
$SG158259 DB	'D3D11_FILL_MODE', 00H
$SG158260 DB	'D3D11_FILL_WIREFRAME', 00H
	ORG $+3
$SG158261 DB	'D3D11_FILL_SOLID', 00H
	ORG $+7
$SG158262 DB	'D3D11_CULL_MODE', 00H
$SG158263 DB	'D3D11_CULL_NONE', 00H
$SG158264 DB	'D3D11_CULL_FRONT', 00H
	ORG $+7
$SG158265 DB	'D3D11_CULL_BACK', 00H
$SG158266 DB	'D3D11_RASTERIZER_DESC', 00H
	ORG $+2
$SG158267 DB	'FillMode', 00H
	ORG $+7
$SG158268 DB	'CullMode', 00H
	ORG $+7
$SG158269 DB	'FrontCounterClockwise', 00H
	ORG $+2
$SG158270 DB	'DepthBias', 00H
	ORG $+6
$SG158271 DB	'DepthBiasClamp', 00H
	ORG $+1
$SG158272 DB	'SlopeScaledDepthBias', 00H
	ORG $+3
$SG158273 DB	'DepthClipEnable', 00H
$SG158274 DB	'ScissorEnable', 00H
	ORG $+2
$SG158275 DB	'MultisampleEnable', 00H
	ORG $+6
$SG158276 DB	'AntialiasedLineEnable', 00H
	ORG $+2
$SG84552 DB	'W', 00H, ':', 00H, '\', 00H, 'c', 00H, 'p', 00H, 'p', 00H
	DB	'\', 00H, 'v', 00H, 'o', 00H, 'i', 00H, 'd', 00H, '\', 00H, 'v'
	DB	00H, 'e', 00H, 'n', 00H, 'd', 00H, 'o', 00H, 'r', 00H, '\', 00H
	DB	's', 00H, 't', 00H, 'b', 00H, '\', 00H, 's', 00H, 't', 00H, 'b'
	DB	00H, '_', 00H, 't', 00H, 'r', 00H, 'u', 00H, 'e', 00H, 't', 00H
	DB	'y', 00H, 'p', 00H, 'e', 00H, '.', 00H, 'h', 00H, 00H, 00H
	ORG $+4
$SG84553 DB	'x', 00H, '+', 00H, 'g', 00H, 'w', 00H, ' ', 00H, '<', 00H
	DB	' ', 00H, 'p', 00H, 'w', 00H, 00H, 00H
$SG92904 DB	'IHDR', 00H
	ORG $+7
$SG84554 DB	'W', 00H, ':', 00H, '\', 00H, 'c', 00H, 'p', 00H, 'p', 00H
	DB	'\', 00H, 'v', 00H, 'o', 00H, 'i', 00H, 'd', 00H, '\', 00H, 'v'
	DB	00H, 'e', 00H, 'n', 00H, 'd', 00H, 'o', 00H, 'r', 00H, '\', 00H
	DB	's', 00H, 't', 00H, 'b', 00H, '\', 00H, 's', 00H, 't', 00H, 'b'
	DB	00H, '_', 00H, 't', 00H, 'r', 00H, 'u', 00H, 'e', 00H, 't', 00H
	DB	'y', 00H, 'p', 00H, 'e', 00H, '.', 00H, 'h', 00H, 00H, 00H
	ORG $+4
$SG158283 DB	'ZenAlloc', 00H
	ORG $+7
$SG84555 DB	'y', 00H, '+', 00H, 'g', 00H, 'h', 00H, ' ', 00H, '<', 00H
	DB	' ', 00H, 'p', 00H, 'h', 00H, 00H, 00H
	ORG $+4
$SG158284 DB	'W:\cpp\void\detroit\brazen-global.h', 00H
	ORG $+4
$SG166481 DB	'websocket out of memory; closing connection', 00H
	ORG $+4
$SG158289 DB	'ZenFrameAlloc', 00H
	ORG $+2
$SG158290 DB	'W:\cpp\void\detroit\brazen-global.h', 00H
	ORG $+4
$SG166483 DB	'read_websocket', 00H
	ORG $+1
$SG166488 DB	'websocket out of memory; closing connection', 00H
	ORG $+4
$SG166490 DB	'read_websocket', 00H
	ORG $+1
$SG166500 DB	'Websocket pull failed; closing connection', 00H
	ORG $+6
$SG166502 DB	'read_websocket', 00H
	ORG $+1
$SG158320 DB	'ZenInternalDebugInternalFiberFun', 00H
	ORG $+7
$SG158321 DB	'W:\cpp\void\detroit\brazen-global.h', 00H
	ORG $+4
$SG158333 DB	'ZenInternalDebugExternalFiberFun', 00H
	ORG $+7
$SG158334 DB	'W:\cpp\void\detroit\brazen-global.h', 00H
	ORG $+4
$SG158356 DB	'user32.dll', 00H
	ORG $+5
$SG158359 DB	'SetProcessDPIAwarenessContext', 00H
	ORG $+2
$SG158361 DB	'SetProcessDPIAware', 00H
	ORG $+5
$SG158362 DB	'W:\cpp\void\detroit', 00H
	ORG $+4
$SG158368 DB	'shaders', 00H
$SG158369 DB	'UnifrakturCook\UnifrakturCook-Bold', 00H
	ORG $+5
$SG158370 DB	'ZenInitialize', 00H
	ORG $+2
$SG158371 DB	'W:\cpp\void\detroit\brazen-global.h', 00H
	ORG $+4
$SG158385 DB	'Font Shader', 00H
	ORG $+4
$SG158394 DB	'Min: %f', 00H
$SG158395 DB	'Off: %f', 00H
$SG158396 DB	'Max: %f', 00H
$SG158397 DB	'Font Atlas', 00H
	ORG $+5
$SG84684 DB	'h', 00H, '_', 00H, 'o', 00H, 'v', 00H, 'e', 00H, 'r', 00H
	DB	's', 00H, 'a', 00H, 'm', 00H, 'p', 00H, 'l', 00H, 'e', 00H, ' '
	DB	00H, '<', 00H, '=', 00H, ' ', 00H, '8', 00H, 00H, 00H
	ORG $+4
$SG166597 DB	'Cannot allocate buffer for masked websocket response: Ou'
	DB	't of memory', 00H
	ORG $+4
$SG166599 DB	'mg_websocket_client_write', 00H
	ORG $+6
$SG84686 DB	'v', 00H, '_', 00H, 'o', 00H, 'v', 00H, 'e', 00H, 'r', 00H
	DB	's', 00H, 'a', 00H, 'm', 00H, 'p', 00H, 'l', 00H, 'e', 00H, ' '
	DB	00H, '<', 00H, '=', 00H, ' ', 00H, '8', 00H, 00H, 00H
	ORG $+4
$SG84683 DB	'W', 00H, ':', 00H, '\', 00H, 'c', 00H, 'p', 00H, 'p', 00H
	DB	'\', 00H, 'v', 00H, 'o', 00H, 'i', 00H, 'd', 00H, '\', 00H, 'v'
	DB	00H, 'e', 00H, 'n', 00H, 'd', 00H, 'o', 00H, 'r', 00H, '\', 00H
	DB	's', 00H, 't', 00H, 'b', 00H, '\', 00H, 's', 00H, 't', 00H, 'b'
	DB	00H, '_', 00H, 't', 00H, 'r', 00H, 'u', 00H, 'e', 00H, 't', 00H
	DB	'y', 00H, 'p', 00H, 'e', 00H, '.', 00H, 'h', 00H, 00H, 00H
	ORG $+4
$SG84685 DB	'W', 00H, ':', 00H, '\', 00H, 'c', 00H, 'p', 00H, 'p', 00H
	DB	'\', 00H, 'v', 00H, 'o', 00H, 'i', 00H, 'd', 00H, '\', 00H, 'v'
	DB	00H, 'e', 00H, 'n', 00H, 'd', 00H, 'o', 00H, 'r', 00H, '\', 00H
	DB	's', 00H, 't', 00H, 'b', 00H, '\', 00H, 's', 00H, 't', 00H, 'b'
	DB	00H, '_', 00H, 't', 00H, 'r', 00H, 'u', 00H, 'e', 00H, 't', 00H
	DB	'y', 00H, 'p', 00H, 'e', 00H, '.', 00H, 'h', 00H, 00H, 00H
$SG92905 DB	'IHDR', 00H
	ORG $+3
$SG92906 DB	'IHDR', 00H
	ORG $+3
$SG92907 DB	'IDAT', 00H
	ORG $+3
$SG92908 DB	'IDAT', 00H
	ORG $+3
$SG92909 DB	'IDAT', 00H
	ORG $+7
$SG166638 DB	'Sec-WebSocket-Key', 00H
	ORG $+2
$SG92910 DB	'IDAT', 00H
	ORG $+7
$SG166639 DB	'Sec-WebSocket-Version', 00H
	ORG $+2
$SG92911 DB	'IEND', 00H
	ORG $+3
$SG92912 DB	'IEND', 00H
	ORG $+3
$SG166641 DB	'Sec-WebSocket-Key1', 00H
	ORG $+1
$SG92913 DB	'IEND', 00H
	ORG $+7
$SG166642 DB	'Sec-WebSocket-Key2', 00H
	ORG $+1
$SG92914 DB	'IEND', 00H
	ORG $+7
$SG92915 DB	'W', 00H, ':', 00H, '\', 00H, 'c', 00H, 'p', 00H, 'p', 00H
	DB	'\', 00H, 'v', 00H, 'o', 00H, 'i', 00H, 'd', 00H, '\', 00H, 'v'
	DB	00H, 'e', 00H, 'n', 00H, 'd', 00H, 'o', 00H, 'r', 00H, '\', 00H
	DB	's', 00H, 't', 00H, 'b', 00H, '\', 00H, 's', 00H, 't', 00H, 'b'
	DB	00H, '_', 00H, 'i', 00H, 'm', 00H, 'a', 00H, 'g', 00H, 'e', 00H
	DB	'_', 00H, 'w', 00H, 'r', 00H, 'i', 00H, 't', 00H, 'e', 00H, '.'
	DB	00H, 'h', 00H, 00H, 00H
	ORG $+6
$SG92916 DB	'o', 00H, ' ', 00H, '=', 00H, '=', 00H, ' ', 00H, 'o', 00H
	DB	'u', 00H, 't', 00H, ' ', 00H, '+', 00H, ' ', 00H, '*', 00H, 'o'
	DB	00H, 'u', 00H, 't', 00H, '_', 00H, 'l', 00H, 'e', 00H, 'n', 00H
	DB	00H, 00H
$SG166645 DB	'Protocol upgrade to RFC 6455 required', 00H
	ORG $+2
$SG166647 DB	'Malformed websocket request', 00H
	ORG $+4
$SG166652 DB	'Protocol upgrade required', 00H
	ORG $+6
$SG166655 DB	'Sec-WebSocket-Protocol', 00H
	ORG $+1
$SG84741 DB	'W', 00H, ':', 00H, '\', 00H, 'c', 00H, 'p', 00H, 'p', 00H
	DB	'\', 00H, 'v', 00H, 'o', 00H, 'i', 00H, 'd', 00H, '\', 00H, 'v'
	DB	00H, 'e', 00H, 'n', 00H, 'd', 00H, 'o', 00H, 'r', 00H, '\', 00H
	DB	's', 00H, 't', 00H, 'b', 00H, '\', 00H, 's', 00H, 't', 00H, 'b'
	DB	00H, '_', 00H, 't', 00H, 'r', 00H, 'u', 00H, 'e', 00H, 't', 00H
	DB	'y', 00H, 'p', 00H, 'e', 00H, '.', 00H, 'h', 00H, 00H, 00H
	ORG $+4
$SG84742 DB	'p', 00H, 'i', 00H, 'x', 00H, 'e', 00H, 'l', 00H, 's', 00H
	DB	'[', 00H, 'i', 00H, ']', 00H, ' ', 00H, '=', 00H, '=', 00H, ' '
	DB	00H, '0', 00H, 00H, 00H
	ORG $+2
$SG166663 DB	'Not found', 00H
	ORG $+6
$SG166666 DB	'Websocket handshake failed', 00H
	ORG $+5
?stbiw__jpg_ZigZag@@3QBEB DB 00H			; stbiw__jpg_ZigZag
	DB	01H
	DB	05H
	DB	06H
	DB	0eH
	DB	0fH
	DB	01bH
	DB	01cH
	DB	02H
	DB	04H
	DB	07H
	DB	0dH
	DB	010H
	DB	01aH
	DB	01dH
	DB	02aH
	DB	03H
	DB	08H
	DB	0cH
	DB	011H
	DB	019H
	DB	01eH
	DB	029H
	DB	02bH
	DB	09H
	DB	0bH
	DB	012H
	DB	018H
	DB	01fH
	DB	028H
	DB	02cH
	DB	035H
	DB	0aH
	DB	013H
	DB	017H
	DB	020H
	DB	027H
	DB	02dH
	DB	034H
	DB	036H
	DB	014H
	DB	016H
	DB	021H
	DB	026H
	DB	02eH
	DB	033H
	DB	037H
	DB	03cH
	DB	015H
	DB	022H
	DB	025H
	DB	02fH
	DB	032H
	DB	038H
	DB	03bH
	DB	03dH
	DB	023H
	DB	024H
	DB	030H
	DB	031H
	DB	039H
	DB	03aH
	DB	03eH
	DB	03fH
$SG166683 DB	'Connection', 00H
	ORG $+5
$SG166685 DB	'upgrade', 00H
$SG166687 DB	'Upgrade', 00H
$SG166690 DB	'websocket', 00H
	ORG $+6
$SG84791 DB	'W', 00H, ':', 00H, '\', 00H, 'c', 00H, 'p', 00H, 'p', 00H
	DB	'\', 00H, 'v', 00H, 'o', 00H, 'i', 00H, 'd', 00H, '\', 00H, 'v'
	DB	00H, 'e', 00H, 'n', 00H, 'd', 00H, 'o', 00H, 'r', 00H, '\', 00H
	DB	's', 00H, 't', 00H, 'b', 00H, '\', 00H, 's', 00H, 't', 00H, 'b'
	DB	00H, '_', 00H, 't', 00H, 'r', 00H, 'u', 00H, 'e', 00H, 't', 00H
	DB	'y', 00H, 'p', 00H, 'e', 00H, '.', 00H, 'h', 00H, 00H, 00H
	ORG $+4
$SG84792 DB	'p', 00H, 'i', 00H, 'x', 00H, 'e', 00H, 'l', 00H, 's', 00H
	DB	'[', 00H, 'i', 00H, '*', 00H, 's', 00H, 't', 00H, 'r', 00H, 'i'
	DB	00H, 'd', 00H, 'e', 00H, '_', 00H, 'i', 00H, 'n', 00H, '_', 00H
	DB	'b', 00H, 'y', 00H, 't', 00H, 'e', 00H, 's', 00H, ']', 00H, ' '
	DB	00H, '=', 00H, '=', 00H, ' ', 00H, '0', 00H, 00H, 00H
	ORG $+2
$SG166714 DB	'%u.%u.%u.%u/%u%n', 00H
	ORG $+7
$SG166716 DB	'%u.%u.%u.%u%n', 00H
	ORG $+2
$SG166776 DB	'url_encoded_field_found', 00H
$SG166777 DB	'%s: Cannot decode filename', 00H
	ORG $+5
$SG166778 DB	'url_encoded_field_found', 00H
$SG166781 DB	'url_encoded_field_found', 00H
$SG166782 DB	'%s: Function "Get" not available', 00H
	ORG $+7
$SG166783 DB	'url_encoded_field_found', 00H
$SG166786 DB	'url_encoded_field_found', 00H
$SG166787 DB	'%s: Function "Store" not available', 00H
	ORG $+5
$SG166788 DB	'url_encoded_field_found', 00H
$SG166809 DB	'url_encoded_field_get', 00H
	ORG $+2
$SG166810 DB	'%s: Not enough memory (required: %lu)', 00H
	ORG $+2
$SG166811 DB	'url_encoded_field_get', 00H
	ORG $+2
$SG166848 DB	0dH, 0aH, '--', 00H
	ORG $+3
$SG167015 DB	'mg_handle_form_request', 00H
	ORG $+1
$SG167016 DB	'%s: Cannot write file %s', 00H
	ORG $+7
$SG167017 DB	'mg_handle_form_request', 00H
	ORG $+1
$SG167022 DB	'mg_handle_form_request', 00H
	ORG $+1
$SG167023 DB	'%s: Error saving file %s', 00H
	ORG $+7
$SG167024 DB	'mg_handle_form_request', 00H
	ORG $+1
$SG167025 DB	'mg_handle_form_request', 00H
	ORG $+1
$SG167026 DB	'%s: Cannot create file %s', 00H
	ORG $+6
$SG167027 DB	'mg_handle_form_request', 00H
	ORG $+1
$SG167029 DB	'Content-Type', 00H
	ORG $+3
$SG167032 DB	'APPLICATION/X-WWW-FORM-URLENCODED', 00H
	ORG $+6
$SG167033 DB	'APPLICATION/WWW-FORM-URLENCODED', 00H
$SG167044 DB	'mg_handle_form_request', 00H
	ORG $+1
$SG167045 DB	'%s: Cannot create file %s', 00H
	ORG $+6
$SG167046 DB	'mg_handle_form_request', 00H
	ORG $+1
$SG167057 DB	'mg_handle_form_request', 00H
	ORG $+1
$SG167058 DB	'%s: Cannot write file %s', 00H
	ORG $+7
$SG167059 DB	'mg_handle_form_request', 00H
	ORG $+1
$SG167071 DB	'mg_handle_form_request', 00H
	ORG $+1
$SG167072 DB	'%s: Error saving file %s', 00H
	ORG $+7
$SG167073 DB	'mg_handle_form_request', 00H
	ORG $+1
$SG167076 DB	'MULTIPART/FORM-DATA;', 00H
	ORG $+3
$SG167078 DB	'BOUNDARY=', 00H
	ORG $+6
$SG167080 DB	'mg_handle_form_request', 00H
	ORG $+1
$SG167081 DB	'%s: Cannot allocate memory for boundary [%lu]', 00H
	ORG $+2
$SG167082 DB	'mg_handle_form_request', 00H
	ORG $+1
$SG167101 DB	'--', 0dH, 0aH, 00H
	ORG $+3
$SG167102 DB	0dH, 0aH, 0dH, 0aH, 00H
	ORG $+3
$SG167105 DB	'Content-Disposition', 00H
	ORG $+4
$SG93380 DB	'f', 00H, 'a', 00H, 'i', 00H, 'l', 00H, 'e', 00H, 'd', 00H
	DB	' ', 00H, 't', 00H, 'o', 00H, ' ', 00H, 'i', 00H, 'n', 00H, 'i'
	DB	00H, 't', 00H, 'i', 00H, 'a', 00H, 'l', 00H, 'i', 00H, 'z', 00H
	DB	'e', 00H, ' ', 00H, 'a', 00H, 'r', 00H, 'e', 00H, 'n', 00H, 'a'
	DB	00H, 00H, 00H
	ORG $+2
$SG93381 DB	'ZenArenaInit', 00H
	ORG $+3
$SG93382 DB	'W:\cpp\void\detroit\brazen-memory.h', 00H
$SG167117 DB	',; ', 09H, 00H
	ORG $+7
$SG167118 DB	'filename="', 00H
	ORG $+5
$SG167120 DB	'filename="', 00H
	ORG $+5
$SG93392 DB	'N', 00H, 'O', 00H, '_', 00H, 'M', 00H, 'E', 00H, 'S', 00H
	DB	'S', 00H, 'A', 00H, 'G', 00H, 'E', 00H, 00H, 00H
	ORG $+2
$SG93394 DB	'! "error"', 00H
	ORG $+6
$SG93395 DB	'ZenArenaAlloc', 00H
	ORG $+2
$SG167124 DB	'filename=', 00H
	ORG $+6
$SG93396 DB	'W:\cpp\void\detroit\brazen-memory.h', 00H
	ORG $+4
$SG167126 DB	'filename=', 00H
	ORG $+2
$SG167128 DB	',; ', 09H, 00H
	ORG $+7
$SG167136 DB	'mg_handle_form_request', 00H
	ORG $+1
$SG167137 DB	'%s: Cannot create file %s', 00H
	ORG $+6
?COLOR_GRAY@@3Tf32x4@@B DD 03f000000r		; 0.5	; COLOR_GRAY
	DD	03f000000r			; 0.5
	DD	03f000000r			; 0.5
	DD	03f800000r			; 1
$SG167138 DB	'mg_handle_form_request', 00H
	ORG $+1
?COLOR_BLUE@@3Tf32x4@@B DD 000000000r		; 0	; COLOR_BLUE
	DD	000000000r			; 0
	DD	03f800000r			; 1
	DD	03f800000r			; 1
?COLOR_GREEN@@3Tf32x4@@B DD 000000000r		; 0	; COLOR_GREEN
	DD	03f800000r			; 1
	DD	000000000r			; 0
	DD	03f800000r			; 1
?COLOR_RED@@3Tf32x4@@B DD 03f800000r		; 1	; COLOR_RED
	DD	000000000r			; 0
	DD	000000000r			; 0
	DD	03f800000r			; 1
$SG167147 DB	'mg_handle_form_request', 00H
	ORG $+1
$SG167148 DB	'%s: Cannot write file %s', 00H
	ORG $+7
$SG167149 DB	'mg_handle_form_request', 00H
	ORG $+1
$SG167162 DB	'mg_handle_form_request', 00H
	ORG $+1
$SG167163 DB	'%s: Cannot write file %s', 00H
	ORG $+7
$SG167164 DB	'mg_handle_form_request', 00H
	ORG $+1
$SG167168 DB	'mg_handle_form_request', 00H
	ORG $+1
$SG167169 DB	'%s: Error saving file %s', 00H
	ORG $+7
$SG167170 DB	'mg_handle_form_request', 00H
	ORG $+1
$SG167195 DB	'Host', 00H
	ORG $+3
$SG85279 DB	'i', 00H, ' ', 00H, '!', 00H, '=', 00H, ' ', 00H, '0', 00H
	DB	00H, 00H
	ORG $+2
$SG167251 DB	'Redirect URL too long', 00H
	ORG $+2
$SG85278 DB	'W', 00H, ':', 00H, '\', 00H, 'c', 00H, 'p', 00H, 'p', 00H
	DB	'\', 00H, 'v', 00H, 'o', 00H, 'i', 00H, 'd', 00H, '\', 00H, 'v'
	DB	00H, 'e', 00H, 'n', 00H, 'd', 00H, 'o', 00H, 'r', 00H, '\', 00H
	DB	's', 00H, 't', 00H, 'b', 00H, '\', 00H, 's', 00H, 't', 00H, 'b'
	DB	00H, '_', 00H, 't', 00H, 'r', 00H, 'u', 00H, 'e', 00H, 't', 00H
	DB	'y', 00H, 'p', 00H, 'e', 00H, '.', 00H, 'h', 00H, 00H, 00H
	ORG $+4
$SG93570 DB	'I', 00H, 'n', 00H, 'v', 00H, 'a', 00H, 'l', 00H, 'i', 00H
	DB	'd', 00H, ' ', 00H, 'p', 00H, 'i', 00H, 'x', 00H, 'e', 00H, 'l'
	DB	00H, ' ', 00H, 'X', 00H, ' ', 00H, 'c', 00H, 'o', 00H, 'o', 00H
	DB	'r', 00H, 'd', 00H, 'i', 00H, 'n', 00H, 'a', 00H, 't', 00H, 'e'
	DB	00H, ' ', 00H, '%', 00H, 'i', 00H, ',', 00H, ' ', 00H, 'l', 00H
	DB	'i', 00H, 'm', 00H, 'i', 00H, 't', 00H, ' ', 00H, 'i', 00H, 's'
	DB	00H, ' ', 00H, '%', 00H, 'i', 00H, 00H, 00H
	ORG $+2
$SG93571 DB	'X < Texture->DimenX', 00H
	ORG $+4
$SG93572 DB	'ZenGetTextureMemoryAt', 00H
	ORG $+2
$SG85380 DB	'name', 00H
	ORG $+3
$SG93573 DB	'W:\cpp\void\detroit\brazen-texture.h', 00H
	ORG $+3
$SG93575 DB	'Y < Texture->DimenY', 00H
	ORG $+4
$SG93574 DB	'I', 00H, 'n', 00H, 'v', 00H, 'a', 00H, 'l', 00H, 'i', 00H
	DB	'd', 00H, ' ', 00H, 'p', 00H, 'i', 00H, 'x', 00H, 'e', 00H, 'l'
	DB	00H, ' ', 00H, 'Y', 00H, ' ', 00H, 'c', 00H, 'o', 00H, 'o', 00H
	DB	'r', 00H, 'd', 00H, 'i', 00H, 'n', 00H, 'a', 00H, 't', 00H, 'e'
	DB	00H, ' ', 00H, '%', 00H, 'i', 00H, ',', 00H, ' ', 00H, 'l', 00H
	DB	'i', 00H, 'm', 00H, 'i', 00H, 't', 00H, ' ', 00H, 'i', 00H, 's'
	DB	00H, ' ', 00H, '%', 00H, 'i', 00H, 00H, 00H
	ORG $+2
$SG93576 DB	'ZenGetTextureMemoryAt', 00H
	ORG $+2
$SG93577 DB	'W:\cpp\void\detroit\brazen-texture.h', 00H
	ORG $+3
$SG167310 DB	'Cannot create new request handler struct, OOM', 00H
	ORG $+2
$SG167312 DB	'mg_set_handler_type', 00H
	ORG $+4
$SG167314 DB	'Cannot create new request handler struct, OOM', 00H
	ORG $+2
$SG167316 DB	'mg_set_handler_type', 00H
	ORG $+4
$SG93608 DB	'I', 00H, 'n', 00H, 'v', 00H, 'a', 00H, 'l', 00H, 'i', 00H
	DB	'd', 00H, ' ', 00H, 't', 00H, 'e', 00H, 'x', 00H, 't', 00H, 'u'
	DB	00H, 'r', 00H, 'e', 00H, ' ', 00H, 'd', 00H, 'i', 00H, 'm', 00H
	DB	'e', 00H, 'n', 00H, 's', 00H, 'i', 00H, 'o', 00H, 'n', 00H, 's'
	DB	00H, 00H, 00H
	ORG $+2
$SG93609 DB	'Destination->DimenX >= Source->DimenX', 00H
	ORG $+2
$SG93610 DB	'ZenCopyTexture', 00H
	ORG $+1
$SG93611 DB	'W:\cpp\void\detroit\brazen-texture.h', 00H
	ORG $+3
$SG93612 DB	'I', 00H, 'n', 00H, 'v', 00H, 'a', 00H, 'l', 00H, 'i', 00H
	DB	'd', 00H, ' ', 00H, 't', 00H, 'e', 00H, 'x', 00H, 't', 00H, 'u'
	DB	00H, 'r', 00H, 'e', 00H, ' ', 00H, 'd', 00H, 'i', 00H, 'm', 00H
	DB	'e', 00H, 'n', 00H, 's', 00H, 'i', 00H, 'o', 00H, 'n', 00H, 's'
	DB	00H, 00H, 00H
	ORG $+2
$SG93613 DB	'Destination->DimenY >= Source->DimenY', 00H
	ORG $+2
$SG93614 DB	'ZenCopyTexture', 00H
	ORG $+1
$SG93615 DB	'W:\cpp\void\detroit\brazen-texture.h', 00H
	ORG $+3
$SG93616 DB	'I', 00H, 'n', 00H, 'v', 00H, 'a', 00H, 'l', 00H, 'i', 00H
	DB	'd', 00H, ' ', 00H, 't', 00H, 'e', 00H, 'x', 00H, 't', 00H, 'u'
	DB	00H, 'r', 00H, 'e', 00H, ' ', 00H, 's', 00H, 't', 00H, 'r', 00H
	DB	'i', 00H, 'd', 00H, 'e', 00H, 00H, 00H
	ORG $+2
$SG93617 DB	'Destination->Stride >= Source->Stride', 00H
	ORG $+2
$SG93618 DB	'ZenCopyTexture', 00H
	ORG $+1
$SG93619 DB	'W:\cpp\void\detroit\brazen-texture.h', 00H
	ORG $+3
$SG93622 DB	'ZenCopyTexture', 00H
	ORG $+1
$SG93623 DB	'W:\cpp\void\detroit\brazen-texture.h', 00H
	ORG $+3
$SG93620 DB	'M', 00H, 'i', 00H, 's', 00H, 's', 00H, 'i', 00H, 'n', 00H
	DB	'g', 00H, ' ', 00H, 'd', 00H, 'e', 00H, 's', 00H, 't', 00H, 'i'
	DB	00H, 'n', 00H, 'a', 00H, 't', 00H, 'i', 00H, 'o', 00H, 'n', 00H
	DB	' ', 00H, 't', 00H, 'e', 00H, 'x', 00H, 't', 00H, 'u', 00H, 'r'
	DB	00H, 'e', 00H, ' ', 00H, 'm', 00H, 'e', 00H, 'm', 00H, 'o', 00H
	DB	'r', 00H, 'y', 00H, 00H, 00H
	ORG $+2
$SG93621 DB	'Destination->Memory != NULL', 00H
	ORG $+4
$SG93624 DB	'M', 00H, 'i', 00H, 's', 00H, 's', 00H, 'i', 00H, 'n', 00H
	DB	'g', 00H, ' ', 00H, 's', 00H, 'o', 00H, 'u', 00H, 'r', 00H, 'c'
	DB	00H, 'e', 00H, ' ', 00H, 't', 00H, 'e', 00H, 'x', 00H, 't', 00H
	DB	'u', 00H, 'r', 00H, 'e', 00H, ' ', 00H, 'm', 00H, 'e', 00H, 'm'
	DB	00H, 'o', 00H, 'r', 00H, 'y', 00H, 00H, 00H
	ORG $+4
$SG93625 DB	'Source->Memory != NULL', 00H
	ORG $+1
$SG85433 DB	'head', 00H
	ORG $+3
$SG93626 DB	'ZenCopyTexture', 00H
	ORG $+1
$SG93627 DB	'W:\cpp\void\detroit\brazen-texture.h', 00H
	ORG $+3
$SG85435 DB	'name', 00H
	ORG $+3
$SG93630 DB	'ZenCopyTexture', 00H
	ORG $+1
$SG93631 DB	'W:\cpp\void\detroit\brazen-texture.h', 00H
	ORG $+3
$SG93628 DB	'I', 00H, 'n', 00H, 'v', 00H, 'a', 00H, 'l', 00H, 'i', 00H
	DB	'd', 00H, ' ', 00H, 's', 00H, 'o', 00H, 'u', 00H, 'r', 00H, 'c'
	DB	00H, 'e', 00H, ' ', 00H, 't', 00H, 'e', 00H, 'x', 00H, 't', 00H
	DB	'u', 00H, 'r', 00H, 'e', 00H, ',', 00H, ' ', 00H, 'b', 00H, 'a'
	DB	00H, 'd', 00H, ' ', 00H, 's', 00H, 't', 00H, 'r', 00H, 'i', 00H
	DB	'd', 00H, 'e', 00H, 00H, 00H
	ORG $+2
$SG93629 DB	'RowSize <= Source->Stride', 00H
	ORG $+6
$SG93652 DB	'N', 00H, 'O', 00H, '_', 00H, 'M', 00H, 'E', 00H, 'S', 00H
	DB	'S', 00H, 'A', 00H, 'G', 00H, 'E', 00H, 00H, 00H
	ORG $+2
$SG93653 DB	'Texture->Format == PIXEL_FORMAT_RGB8', 00H
	ORG $+3
$SG93654 DB	'ZenDrawQuadOnTexture', 00H
	ORG $+3
$SG93655 DB	'W:\cpp\void\detroit\brazen-texture.h', 00H
	ORG $+3
$SG167569 DB	'Error: SSL forward not configured properly', 00H
	ORG $+5
$SG167571 DB	'Can not redirect to SSL, no SSL port available', 00H
	ORG $+1
$SG167573 DB	'handle_request', 00H
	ORG $+1
$SG167585 DB	'OPTIONS', 00H
$SG167587 DB	'Access-Control-Request-Method', 00H
	ORG $+2
$SG167589 DB	'Access-Control-Request-Headers', 00H
	ORG $+1
$SG167590 DB	'HTTP/1.1 200 OK', 0dH, 0aH, 'Date: %s', 0dH, 0aH, 'Acces'
	DB	's-Control-Allow-Origin: %s', 0dH, 0aH, 'Access-Control-Allow-'
	DB	'Methods: %s', 0dH, 0aH, 'Content-Length: 0', 0dH, 0aH, 'Conne'
	DB	'ction: %s', 0dH, 0aH, 00H
	ORG $+6
$SG167593 DB	'Access-Control-Allow-Headers: %s', 0dH, 0aH, 00H
	ORG $+5
$SG167594 DB	'Access-Control-Max-Age: 60', 0dH, 0aH, 00H
	ORG $+3
$SG167601 DB	'%s method not allowed', 00H
	ORG $+2
$SG167609 DB	'%s method not allowed', 00H
	ORG $+2
$SG93891 DB	'u', 00H, 'n', 00H, 'r', 00H, 'e', 00H, 'l', 00H, 'e', 00H
	DB	'a', 00H, 's', 00H, 'e', 00H, 'd', 00H, ' ', 00H, 'm', 00H, 'u'
	DB	00H, 't', 00H, 'e', 00H, 'x', 00H, 00H, 00H
	ORG $+6
$SG93892 DB	'Released', 00H
	ORG $+7
$SG93893 DB	'ZenReleaseNativeMutexEnsured', 00H
	ORG $+3
$SG93894 DB	'W:\cpp\void\detroit\brazen-window.h', 00H
	ORG $+4
$SG167624 DB	'Forbidden', 00H
	ORG $+6
$SG167626 DB	'Not found', 00H
	ORG $+6
$SG167629 DB	'Not Found', 00H
	ORG $+2
$SG167640 DB	'MOVE', 00H
	ORG $+3
$SG167642 DB	'COPY', 00H
	ORG $+3
$SG167644 DB	'LOCK', 00H
	ORG $+7
$SG167648 DB	'PROPPATCH', 00H
	ORG $+6
$SG167649 DB	'%s method not allowed', 00H
	ORG $+2
$SG167652 DB	'Not found', 00H
	ORG $+6
$SG167658 DB	'out or memory', 00H
	ORG $+2
$SG167663 DB	'PROPFIND', 00H
	ORG $+7
$SG167665 DB	'OPTIONS', 00H
$SG167668 DB	'HEAD', 00H
	ORG $+3
$SG167669 DB	'%s method not allowed', 00H
	ORG $+2
$SG167674 DB	'Error: Directory listing denied', 00H
$SG167695 DB	'Forbidden', 00H
	ORG $+6
$SG167700 DB	'Forbidden', 00H
	ORG $+6
$SG167742 DB	'%u.%u.%u.%u:%u%n', 00H
	ORG $+3
$SG167745 DB	'%u%n', 00H
	ORG $+3
$SG167756 DB	'%u%n', 00H
	ORG $+7
$SG167821 DB	'[IP_ADDRESS:]PORT[s|r]', 00H
	ORG $+1
$SG167822 DB	'%.*s: invalid port spec (entry %i). Expecting list of: %'
	DB	's', 00H
	ORG $+6
$SG167823 DB	'set_ports_option', 00H
	ORG $+7
$SG167825 DB	'Cannot add SSL socket (entry %i)', 00H
	ORG $+7
$SG167826 DB	'set_ports_option', 00H
	ORG $+7
$SG167828 DB	'cannot create socket (entry %i)', 00H
$SG167829 DB	'set_ports_option', 00H
	ORG $+7
$SG167831 DB	'cannot set socket option SO_EXCLUSIVEADDRUSE (entry %i)', 00H
$SG167832 DB	'set_ports_option', 00H
	ORG $+7
$SG167834 DB	'IPv6 not available', 00H
	ORG $+5
$SG167836 DB	'set_ports_option', 00H
	ORG $+7
$SG167840 DB	'cannot bind to %.*s: %d (%s)', 00H
	ORG $+3
$SG167841 DB	'set_ports_option', 00H
	ORG $+7
$SG167842 DB	'cannot bind: address family not supported (entry %i)', 00H
	ORG $+3
$SG167843 DB	'set_ports_option', 00H
	ORG $+7
$SG167846 DB	'%s value "%s" is invalid', 00H
	ORG $+7
$SG167847 DB	'set_ports_option', 00H
	ORG $+7
$SG167849 DB	'cannot listen to %.*s: %d (%s)', 00H
	ORG $+1
$SG167850 DB	'set_ports_option', 00H
	ORG $+7
$SG167853 DB	'call to getsockname failed %.*s: %d (%s)', 00H
	ORG $+7
$SG167854 DB	'set_ports_option', 00H
	ORG $+7
$SG167856 DB	'Out of memory', 00H
	ORG $+2
$SG167858 DB	'set_ports_option', 00H
	ORG $+7
$SG167860 DB	'Out of memory', 00H
	ORG $+2
$SG167862 DB	'set_ports_option', 00H
	ORG $+7
$SG167896 DB	'%d/%b/%Y:%H:%M:%S %z', 00H
	ORG $+3
$SG167897 DB	'01/Jan/1970:00:00:00 +0000', 00H
	ORG $+5
$SG167898 DB	'Referer', 00H
$SG167899 DB	'User-Agent', 00H
	ORG $+5
$SG167906 DB	'%s - %s [%s] "%s %s%s%s HTTP/%s" %d %I64d %s %s', 00H
$SG167916 DB	'Error writing log file %s', 00H
	ORG $+6
$SG167917 DB	'log_access', 00H
	ORG $+5
$SG167933 DB	'check_acl', 00H
	ORG $+6
$SG167934 DB	'%s: subnet must be [+|-]IP-addr[/x]', 00H
	ORG $+4
$SG167935 DB	'check_acl', 00H
	ORG $+6
$SG167976 DB	'optional', 00H
	ORG $+7
$SG167979 DB	'SSL_CTX_load_verify_locations error: %s ssl_verify_peer '
	DB	'requires setting either ssl_ca_path or ssl_ca_file. Is any of'
	DB	' them present in the .conf file?', 00H
	ORG $+2
$SG167980 DB	'refresh_trust', 00H
	ORG $+2
$SG86063 DB	'unknown image type', 00H
	ORG $+5
$SG86081 DB	'outofmem', 00H
	ORG $+7
$SG94287 DB	'i', 00H, 'n', 00H, 'v', 00H, 'a', 00H, 'l', 00H, 'i', 00H
	DB	'd', 00H, ' ', 00H, 'w', 00H, 'i', 00H, 'n', 00H, 'd', 00H, 'o'
	DB	00H, 'w', 00H, ' ', 00H, 's', 00H, 'i', 00H, 'z', 00H, 'e', 00H
	DB	00H, 00H
$SG94288 DB	'ZenHandleNativeWindowMessage', 00H
	ORG $+3
$SG94289 DB	'W:\cpp\void\detroit\brazen-window.h', 00H
	ORG $+4
$SG86100 DB	'outofmem', 00H
	ORG $+7
$SG94298 DB	'i', 00H, 'n', 00H, 'v', 00H, 'a', 00H, 'l', 00H, 'i', 00H
	DB	'd', 00H, ' ', 00H, 's', 00H, 't', 00H, 'a', 00H, 't', 00H, 'e'
	DB	00H, ' ', 00H, '%', 00H, 'i', 00H, 00H, 00H
	ORG $+6
$SG94299 DB	'~Event->Counter & 0x01', 00H
	ORG $+1
$SG94300 DB	'ZenHandleNativeWindowMessage', 00H
	ORG $+3
$SG94301 DB	'W:\cpp\void\detroit\brazen-window.h', 00H
	ORG $+4
$SG94307 DB	'i', 00H, 'n', 00H, 'v', 00H, 'a', 00H, 'l', 00H, 'i', 00H
	DB	'd', 00H, ' ', 00H, 's', 00H, 't', 00H, 'a', 00H, 't', 00H, 'e'
	DB	00H, ' ', 00H, '%', 00H, 'i', 00H, 00H, 00H
	ORG $+6
$SG94308 DB	'Event->Counter & 0x01', 00H
	ORG $+2
$SG94309 DB	'ZenHandleNativeWindowMessage', 00H
	ORG $+3
$SG94310 DB	'W:\cpp\void\detroit\brazen-window.h', 00H
	ORG $+4
$SG94311 DB	'i', 00H, 'n', 00H, 'v', 00H, 'a', 00H, 'l', 00H, 'i', 00H
	DB	'd', 00H, ' ', 00H, 's', 00H, 't', 00H, 'a', 00H, 't', 00H, 'e'
	DB	00H, ',', 00H, ' ', 00H, 'w', 00H, 'i', 00H, 'n', 00H, 'd', 00H
	DB	'o', 00H, 'w', 00H, ' ', 00H, 's', 00H, 'h', 00H, 'o', 00H, 'u'
	DB	00H, 'l', 00H, 'd', 00H, ' ', 00H, 'h', 00H, 'a', 00H, 'v', 00H
	DB	'e', 00H, ' ', 00H, 'b', 00H, 'e', 00H, 'e', 00H, 'n', 00H, ' '
	DB	00H, 'c', 00H, 'l', 00H, 'i', 00H, 'c', 00H, 'k', 00H, ' ', 00H
	DB	'f', 00H, 'o', 00H, 'c', 00H, 'u', 00H, 's', 00H, 'e', 00H, 'd'
	DB	00H, 00H, 00H
	ORG $+6
$SG94312 DB	'Window->ClickFocused', 00H
	ORG $+3
$SG94313 DB	'ZenHandleNativeWindowMessage', 00H
	ORG $+3
$SG168042 DB	'sslize error: %s', 00H
	ORG $+7
$SG94314 DB	'W:\cpp\void\detroit\brazen-window.h', 00H
	ORG $+4
$SG168045 DB	'sslize error: %s', 00H
	ORG $+7
$SG94330 DB	'i', 00H, 'n', 00H, 'v', 00H, 'a', 00H, 'l', 00H, 'i', 00H
	DB	'd', 00H, ' ', 00H, 'w', 00H, 'i', 00H, 'n', 00H, 'd', 00H, 'o'
	DB	00H, 'w', 00H, 00H, 00H
	ORG $+2
$SG94331 DB	'ZenNativeWindowCallback', 00H
$SG94332 DB	'W:\cpp\void\detroit\brazen-window.h', 00H
	ORG $+4
$SG168062 DB	'SSL syscall error %i', 00H
	ORG $+3
$SG168064 DB	'sslize error: %s', 00H
	ORG $+7
$SG86152 DB	'W', 00H, ':', 00H, '\', 00H, 'c', 00H, 'p', 00H, 'p', 00H
	DB	'\', 00H, 'v', 00H, 'o', 00H, 'i', 00H, 'd', 00H, '\', 00H, 'v'
	DB	00H, 'e', 00H, 'n', 00H, 'd', 00H, 'o', 00H, 'r', 00H, '\', 00H
	DB	's', 00H, 't', 00H, 'b', 00H, '\', 00H, 's', 00H, 't', 00H, 'b'
	DB	00H, '_', 00H, 'i', 00H, 'm', 00H, 'a', 00H, 'g', 00H, 'e', 00H
	DB	'.', 00H, 'h', 00H, 00H, 00H
	ORG $+2
$SG168090 DB	'0123456789abcdef', 00H
	ORG $+7
$SG86153 DB	'r', 00H, 'i', 00H, '.', 00H, 'b', 00H, 'i', 00H, 't', 00H
	DB	's', 00H, '_', 00H, 'p', 00H, 'e', 00H, 'r', 00H, '_', 00H, 'c'
	DB	00H, 'h', 00H, 'a', 00H, 'n', 00H, 'n', 00H, 'e', 00H, 'l', 00H
	DB	' ', 00H, '=', 00H, '=', 00H, ' ', 00H, '8', 00H, ' ', 00H, '|'
	DB	00H, '|', 00H, ' ', 00H, 'r', 00H, 'i', 00H, '.', 00H, 'b', 00H
	DB	'i', 00H, 't', 00H, 's', 00H, '_', 00H, 'p', 00H, 'e', 00H, 'r'
	DB	00H, '_', 00H, 'c', 00H, 'h', 00H, 'a', 00H, 'n', 00H, 'n', 00H
	DB	'e', 00H, 'l', 00H, ' ', 00H, '=', 00H, '=', 00H, ' ', 00H, '1'
	DB	00H, '6', 00H, 00H, 00H
	ORG $+4
$SG86172 DB	'W', 00H, ':', 00H, '\', 00H, 'c', 00H, 'p', 00H, 'p', 00H
	DB	'\', 00H, 'v', 00H, 'o', 00H, 'i', 00H, 'd', 00H, '\', 00H, 'v'
	DB	00H, 'e', 00H, 'n', 00H, 'd', 00H, 'o', 00H, 'r', 00H, '\', 00H
	DB	's', 00H, 't', 00H, 'b', 00H, '\', 00H, 's', 00H, 't', 00H, 'b'
	DB	00H, '_', 00H, 'i', 00H, 'm', 00H, 'a', 00H, 'g', 00H, 'e', 00H
	DB	'.', 00H, 'h', 00H, 00H, 00H
	ORG $+2
$SG94373 DB	'Location.Max.X != 0', 00H
	ORG $+4
$SG86173 DB	'r', 00H, 'i', 00H, '.', 00H, 'b', 00H, 'i', 00H, 't', 00H
	DB	's', 00H, '_', 00H, 'p', 00H, 'e', 00H, 'r', 00H, '_', 00H, 'c'
	DB	00H, 'h', 00H, 'a', 00H, 'n', 00H, 'n', 00H, 'e', 00H, 'l', 00H
	DB	' ', 00H, '=', 00H, '=', 00H, ' ', 00H, '8', 00H, ' ', 00H, '|'
	DB	00H, '|', 00H, ' ', 00H, 'r', 00H, 'i', 00H, '.', 00H, 'b', 00H
	DB	'i', 00H, 't', 00H, 's', 00H, '_', 00H, 'p', 00H, 'e', 00H, 'r'
	DB	00H, '_', 00H, 'c', 00H, 'h', 00H, 'a', 00H, 'n', 00H, 'n', 00H
	DB	'e', 00H, 'l', 00H, ' ', 00H, '=', 00H, '=', 00H, ' ', 00H, '1'
	DB	00H, '6', 00H, 00H, 00H
	ORG $+4
$SG94372 DB	'i', 00H, 'n', 00H, 'v', 00H, 'a', 00H, 'l', 00H, 'i', 00H
	DB	'd', 00H, ' ', 00H, '[', 00H, 'x', 00H, ']', 00H, ' ', 00H, 'd'
	DB	00H, 'i', 00H, 'm', 00H, 'e', 00H, 'n', 00H, 's', 00H, 'i', 00H
	DB	'o', 00H, 'n', 00H, 00H, 00H
	ORG $+4
$SG94374 DB	'ZenCreateNativeWindow', 00H
	ORG $+2
$SG94375 DB	'W:\cpp\void\detroit\brazen-window.h', 00H
	ORG $+4
$SG94376 DB	'i', 00H, 'n', 00H, 'v', 00H, 'a', 00H, 'l', 00H, 'i', 00H
	DB	'd', 00H, ' ', 00H, '[', 00H, 'y', 00H, ']', 00H, ' ', 00H, 'd'
	DB	00H, 'i', 00H, 'm', 00H, 'e', 00H, 'n', 00H, 's', 00H, 'i', 00H
	DB	'o', 00H, 'n', 00H, 00H, 00H
	ORG $+4
$SG94377 DB	'Location.Max.Y != 0', 00H
	ORG $+4
$SG94378 DB	'ZenCreateNativeWindow', 00H
	ORG $+2
$SG94379 DB	'W:\cpp\void\detroit\brazen-window.h', 00H
	ORG $+4
$SG94380 DB	'Z', 00H, 'e', 00H, 'n', 00H, 'W', 00H, 'i', 00H, 'n', 00H
	DB	'd', 00H, 'o', 00H, 'w', 00H, ':', 00H, ':', 00H, '%', 00H, 's'
	DB	00H, 00H, 00H
	ORG $+4
$SG94386 DB	'C', 00H, 'r', 00H, 'e', 00H, 'a', 00H, 't', 00H, 'e', 00H
	DB	'F', 00H, 'i', 00H, 'b', 00H, 'e', 00H, 'r', 00H, '(', 00H, ')'
	DB	00H, ' ', 00H, '[', 00H, 'F', 00H, 'A', 00H, 'I', 00H, 'L', 00H
	DB	'E', 00H, 'D', 00H, ']', 00H, 00H, 00H
	ORG $+2
$SG94387 DB	'ZenCreateNativeWindow', 00H
	ORG $+2
$SG94388 DB	'W:\cpp\void\detroit\brazen-window.h', 00H
$SG168165 DB	'sha1', 00H
	ORG $+7
$SG94390 DB	'S', 00H, 'e', 00H, 't', 00H, 'W', 00H, 'i', 00H, 'n', 00H
	DB	'd', 00H, 'o', 00H, 'w', 00H, 'L', 00H, 'o', 00H, 'n', 00H, 'g'
	DB	00H, 'P', 00H, 't', 00H, 'r', 00H, 'A', 00H, '(', 00H, ')', 00H
	DB	' ', 00H, '[', 00H, 'F', 00H, 'A', 00H, 'I', 00H, 'L', 00H, 'E'
	DB	00H, 'D', 00H, ']', 00H, ',', 00H, ' ', 00H, '%', 00H, 's', 00H
	DB	00H, 00H
	ORG $+6
$SG94391 DB	'ZenCreateNativeWindow', 00H
	ORG $+2
$SG94392 DB	'W:\cpp\void\detroit\brazen-window.h', 00H
	ORG $+4
$SG94394 DB	'G', 00H, 'e', 00H, 't', 00H, 'W', 00H, 'i', 00H, 'n', 00H
	DB	'd', 00H, 'o', 00H, 'w', 00H, 'L', 00H, 'o', 00H, 'n', 00H, 'g'
	DB	00H, 'P', 00H, 't', 00H, 'r', 00H, 'A', 00H, '(', 00H, ')', 00H
	DB	' ', 00H, '[', 00H, 'F', 00H, 'A', 00H, 'I', 00H, 'L', 00H, 'E'
	DB	00H, 'D', 00H, ']', 00H, 00H, 00H
	ORG $+6
$SG94395 DB	'ZenCreateNativeWindow', 00H
	ORG $+2
$SG94396 DB	'W:\cpp\void\detroit\brazen-window.h', 00H
	ORG $+4
$SG94397 DB	'f', 00H, 'a', 00H, 'i', 00H, 'l', 00H, 'e', 00H, 'd', 00H
	DB	' ', 00H, 't', 00H, 'o', 00H, ' ', 00H, 'c', 00H, 'r', 00H, 'e'
	DB	00H, 'a', 00H, 't', 00H, 'e', 00H, ' ', 00H, 'w', 00H, 'i', 00H
	DB	'n', 00H, 'd', 00H, 'o', 00H, 'w', 00H, 00H, 00H
$SG86205 DB	'can''t fopen', 00H
	ORG $+4
$SG94398 DB	'ZenCreateNativeWindow', 00H
	ORG $+2
$SG94399 DB	'W:\cpp\void\detroit\brazen-window.h', 00H
$SG168230 DB	', %s', 00H
	ORG $+7
$SG94400 DB	'f', 00H, 'a', 00H, 'i', 00H, 'l', 00H, 'e', 00H, 'd', 00H
	DB	' ', 00H, 't', 00H, 'o', 00H, ' ', 00H, 'r', 00H, 'e', 00H, 'g'
	DB	00H, 'i', 00H, 's', 00H, 't', 00H, 'e', 00H, 'r', 00H, ' ', 00H
	DB	'w', 00H, 'i', 00H, 'n', 00H, 'd', 00H, 'o', 00H, 'w', 00H, ' '
	DB	00H, 'c', 00H, 'l', 00H, 'a', 00H, 's', 00H, 's', 00H, 00H, 00H
$SG94401 DB	'ZenCreateNativeWindow', 00H
	ORG $+2
$SG94402 DB	'W:\cpp\void\detroit\brazen-window.h', 00H
	ORG $+4
$SG86242 DB	'can''t fopen', 00H
	ORG $+4
$SG168220 DB	'load_tls_dll', 00H
	ORG $+3
$SG168221 DB	'%s: cannot load %s', 00H
	ORG $+5
$SG168227 DB	'load_tls_dll', 00H
	ORG $+3
$SG168228 DB	'%s: %s: cannot find %s', 00H
	ORG $+1
$SG86310 DB	'unknown image type', 00H
	ORG $+5
$SG86343 DB	'can''t fopen', 00H
	ORG $+4
$SG168279 DB	'libeay64.dll', 00H
	ORG $+3
$SG168281 DB	'libeay64.dll', 00H
	ORG $+3
$SG168282 DB	'initialize_openssl', 00H
	ORG $+5
$SG168283 DB	'%s: error loading library %s', 00H
	ORG $+3
$SG168289 DB	'initialize_openssl', 00H
	ORG $+5
$SG168290 DB	'%s: cannot allocate mutexes: %s', 00H
$SG168292 DB	'initialize_openssl', 00H
	ORG $+5
$SG168293 DB	'%s: error initializing mutex %i of %i', 00H
	ORG $+2
$SG168295 DB	'ssleay64.dll', 00H
	ORG $+3
$SG168317 DB	'ssl_use_pem_file', 00H
	ORG $+7
$SG168318 DB	'%s: cannot open certificate file %s: %s', 00H
$SG168319 DB	'ssl_use_pem_file', 00H
	ORG $+7
$SG168321 DB	'ssl_use_pem_file', 00H
	ORG $+7
$SG168322 DB	'%s: cannot open private key file %s: %s', 00H
$SG168323 DB	'ssl_use_pem_file', 00H
	ORG $+7
$SG168325 DB	'ssl_use_pem_file', 00H
	ORG $+7
$SG168326 DB	'%s: certificate and private key do not match: %s', 00H
	ORG $+7
$SG168327 DB	'ssl_use_pem_file', 00H
	ORG $+7
$SG168330 DB	'ssl_use_pem_file', 00H
	ORG $+7
$SG168331 DB	'%s: cannot use certificate chain file %s: %s', 00H
	ORG $+3
$SG168332 DB	'ssl_use_pem_file', 00H
	ORG $+7
$SG86526 DB	'W', 00H, ':', 00H, '\', 00H, 'c', 00H, 'p', 00H, 'p', 00H
	DB	'\', 00H, 'v', 00H, 'o', 00H, 'i', 00H, 'd', 00H, '\', 00H, 'v'
	DB	00H, 'e', 00H, 'n', 00H, 'd', 00H, 'o', 00H, 'r', 00H, '\', 00H
	DB	's', 00H, 't', 00H, 'b', 00H, '\', 00H, 's', 00H, 't', 00H, 'b'
	DB	00H, '_', 00H, 'i', 00H, 'm', 00H, 'a', 00H, 'g', 00H, 'e', 00H
	DB	'.', 00H, 'h', 00H, 00H, 00H
	ORG $+2
$SG86527 DB	'r', 00H, 'e', 00H, 'q', 00H, '_', 00H, 'c', 00H, 'o', 00H
	DB	'm', 00H, 'p', 00H, ' ', 00H, '>', 00H, '=', 00H, ' ', 00H, '1'
	DB	00H, ' ', 00H, '&', 00H, '&', 00H, ' ', 00H, 'r', 00H, 'e', 00H
	DB	'q', 00H, '_', 00H, 'c', 00H, 'o', 00H, 'm', 00H, 'p', 00H, ' '
	DB	00H, '<', 00H, '=', 00H, ' ', 00H, '4', 00H, 00H, 00H
	ORG $+2
$SG86529 DB	'outofmem', 00H
	ORG $+7
$SG86545 DB	'unsupported', 00H
$SG168855 DB	'http', 00H
	ORG $+7
$SG86543 DB	'W', 00H, ':', 00H, '\', 00H, 'c', 00H, 'p', 00H, 'p', 00H
	DB	'\', 00H, 'v', 00H, 'o', 00H, 'i', 00H, 'd', 00H, '\', 00H, 'v'
	DB	00H, 'e', 00H, 'n', 00H, 'd', 00H, 'o', 00H, 'r', 00H, '\', 00H
	DB	's', 00H, 't', 00H, 'b', 00H, '\', 00H, 's', 00H, 't', 00H, 'b'
	DB	00H, '_', 00H, 'i', 00H, 'm', 00H, 'a', 00H, 'g', 00H, 'e', 00H
	DB	'.', 00H, 'h', 00H, 00H, 00H
	ORG $+2
$SG168517 DB	'SSL_CTX_new (server) error: %s', 00H
	ORG $+1
$SG168518 DB	'init_ssl_ctx_impl', 00H
	ORG $+6
$SG168520 DB	'SSL callback returned error: %i', 00H
$SG168521 DB	'init_ssl_ctx_impl', 00H
	ORG $+6
$SG168524 DB	'Domain SSL callback returned error: %i', 00H
	ORG $+1
$SG168525 DB	'init_ssl_ctx_impl', 00H
	ORG $+6
$SG168534 DB	'optional', 00H
	ORG $+7
$SG168539 DB	'init_ssl_ctx_impl', 00H
	ORG $+6
$SG168538 DB	'SSL_CTX_load_verify_locations error: %s ssl_verify_peer '
	DB	'requires setting either ssl_ca_path or ssl_ca_file. Is any of'
	DB	' them present in the .conf file?', 00H
	ORG $+2
$SG168544 DB	'init_ssl_ctx_impl', 00H
	ORG $+6
$SG86618 DB	'W', 00H, ':', 00H, '\', 00H, 'c', 00H, 'p', 00H, 'p', 00H
	DB	'\', 00H, 'v', 00H, 'o', 00H, 'i', 00H, 'd', 00H, '\', 00H, 'v'
	DB	00H, 'e', 00H, 'n', 00H, 'd', 00H, 'o', 00H, 'r', 00H, '\', 00H
	DB	's', 00H, 't', 00H, 'b', 00H, '\', 00H, 's', 00H, 't', 00H, 'b'
	DB	00H, '_', 00H, 'i', 00H, 'm', 00H, 'a', 00H, 'g', 00H, 'e', 00H
	DB	'.', 00H, 'h', 00H, 00H, 00H
	ORG $+2
$SG86619 DB	'r', 00H, 'e', 00H, 'q', 00H, '_', 00H, 'c', 00H, 'o', 00H
	DB	'm', 00H, 'p', 00H, ' ', 00H, '>', 00H, '=', 00H, ' ', 00H, '1'
	DB	00H, ' ', 00H, '&', 00H, '&', 00H, ' ', 00H, 'r', 00H, 'e', 00H
	DB	'q', 00H, '_', 00H, 'c', 00H, 'o', 00H, 'm', 00H, 'p', 00H, ' '
	DB	00H, '<', 00H, '=', 00H, ' ', 00H, '4', 00H, 00H, 00H
	ORG $+2
$SG86621 DB	'outofmem', 00H
	ORG $+7
$SG168543 DB	'SSL_CTX_set_default_verify_paths error: %s', 00H
	ORG $+5
$SG168548 DB	'SSL_CTX_set_cipher_list error: %s', 00H
	ORG $+6
$SG168549 DB	'init_ssl_ctx_impl', 00H
	ORG $+6
$SG86637 DB	'unsupported', 00H
$SG161180 DB	'8080', 00H
	ORG $+7
$SG86635 DB	'W', 00H, ':', 00H, '\', 00H, 'c', 00H, 'p', 00H, 'p', 00H
	DB	'\', 00H, 'v', 00H, 'o', 00H, 'i', 00H, 'd', 00H, '\', 00H, 'v'
	DB	00H, 'e', 00H, 'n', 00H, 'd', 00H, 'o', 00H, 'r', 00H, '\', 00H
	DB	's', 00H, 't', 00H, 'b', 00H, '\', 00H, 's', 00H, 't', 00H, 'b'
	DB	00H, '_', 00H, 'i', 00H, 'm', 00H, 'a', 00H, 'g', 00H, 'e', 00H
	DB	'.', 00H, 'h', 00H, 00H, 00H
	ORG $+2
$SG168567 DB	'external_ssl_ctx callback returned error: %i', 00H
	ORG $+3
$SG168568 DB	'init_ssl_ctx', 00H
	ORG $+3
$SG168572 DB	'init_ssl_ctx', 00H
	ORG $+3
$SG168575 DB	'external_ssl_ctx_domain callback returned error: %i', 00H
	ORG $+4
$SG168576 DB	'init_ssl_ctx', 00H
	ORG $+3
$SG168580 DB	'init_ssl_ctx', 00H
	ORG $+3
$SG168582 DB	'Initializing SSL failed: -%s is not set', 00H
$SG168583 DB	'init_ssl_ctx', 00H
	ORG $+3
$SG86664 DB	'outofmem', 00H
	ORG $+7
$SG168588 DB	'init_ssl_ctx', 00H
	ORG $+3
$SG86696 DB	'outofmem', 00H
	ORG $+7
$SG168634 DB	'Cannot open %s: %s', 00H
	ORG $+5
$SG168635 DB	'set_gpass_option', 00H
	ORG $+7
$SG78535 DB	'[WARNING] write console failed, are you using visual stu'
	DB	'dio?', 0aH, 00H
	ORG $+2
$SG78543 DB	'[WARNING] write console failed, are you using visual stu'
	DB	'dio?', 0aH, 00H
	ORG $+2
$SG94947 DB	'ZenImposeImmediatePrimitiveCurtail', 00H
	ORG $+5
$SG94946 DB	'm', 00H, 'a', 00H, 'x', 00H, 'i', 00H, 'm', 00H, 'u', 00H
	DB	'm', 00H, ' ', 00H, 'n', 00H, 'u', 00H, 'm', 00H, 'b', 00H, 'e'
	DB	00H, 'r', 00H, ' ', 00H, 'o', 00H, 'f', 00H, ' ', 00H, 'i', 00H
	DB	'n', 00H, 'd', 00H, 'i', 00H, 'c', 00H, 'e', 00H, 's', 00H, ' '
	DB	00H, 'r', 00H, 'e', 00H, 'a', 00H, 'c', 00H, 'h', 00H, 'e', 00H
	DB	'd', 00H, ' ', 00H, 'f', 00H, 'o', 00H, 'r', 00H, ' ', 00H, 't'
	DB	00H, 'h', 00H, 'i', 00H, 's', 00H, ' ', 00H, 'p', 00H, 'r', 00H
	DB	'i', 00H, 'm', 00H, 'i', 00H, 't', 00H, 'i', 00H, 'v', 00H, 'e'
	DB	00H, ' ', 00H, 'a', 00H, 'l', 00H, 'l', 00H, 'o', 00H, 'c', 00H
	DB	'a', 00H, 't', 00H, 'o', 00H, 'r', 00H, 00H, 00H
	ORG $+2
$SG94948 DB	'W:\cpp\void\detroit\brazen-immediate.h', 00H
	ORG $+1
$SG168679 DB	'close_socket_gracefully', 00H
$SG94950 DB	'm', 00H, 'a', 00H, 'x', 00H, 'i', 00H, 'm', 00H, 'u', 00H
	DB	'm', 00H, ' ', 00H, 'n', 00H, 'u', 00H, 'm', 00H, 'b', 00H, 'e'
	DB	00H, 'r', 00H, ' ', 00H, 'o', 00H, 'f', 00H, ' ', 00H, 'v', 00H
	DB	'e', 00H, 'r', 00H, 't', 00H, 'e', 00H, 'x', 00H, ' ', 00H, 'p'
	DB	00H, 'o', 00H, 's', 00H, 'i', 00H, 't', 00H, 'i', 00H, 'o', 00H
	DB	'n', 00H, 's', 00H, ' ', 00H, 'r', 00H, 'e', 00H, 'a', 00H, 'c'
	DB	00H, 'h', 00H, 'e', 00H, 'd', 00H, ' ', 00H, 'f', 00H, 'o', 00H
	DB	'r', 00H, ' ', 00H, 't', 00H, 'h', 00H, 'i', 00H, 's', 00H, ' '
	DB	00H, 'p', 00H, 'r', 00H, 'i', 00H, 'm', 00H, 'i', 00H, 't', 00H
	DB	'i', 00H, 'v', 00H, 'e', 00H, ' ', 00H, 'a', 00H, 'l', 00H, 'l'
	DB	00H, 'o', 00H, 'c', 00H, 'a', 00H, 't', 00H, 'o', 00H, 'r', 00H
	DB	00H, 00H
$SG94951 DB	'ZenImposeImmediatePrimitiveCurtail', 00H
	ORG $+5
$SG168680 DB	'%s: getsockopt(SOL_SOCKET SO_ERROR) failed: %s', 00H
	ORG $+1
$SG94952 DB	'W:\cpp\void\detroit\brazen-immediate.h', 00H
	ORG $+1
$SG168681 DB	'close_socket_gracefully', 00H
$SG78569 DB	'%s, %i %s() [%i] %s', 00H
	ORG $+4
$SG94954 DB	'm', 00H, 'a', 00H, 'x', 00H, 'i', 00H, 'm', 00H, 'u', 00H
	DB	'm', 00H, ' ', 00H, 'n', 00H, 'u', 00H, 'm', 00H, 'b', 00H, 'e'
	DB	00H, 'r', 00H, ' ', 00H, 'o', 00H, 'f', 00H, ' ', 00H, 'v', 00H
	DB	'e', 00H, 'r', 00H, 't', 00H, 'e', 00H, 'x', 00H, ' ', 00H, 'c'
	DB	00H, 'o', 00H, 'l', 00H, 'o', 00H, 'r', 00H, 's', 00H, ' ', 00H
	DB	'r', 00H, 'e', 00H, 'a', 00H, 'c', 00H, 'h', 00H, 'e', 00H, 'd'
	DB	00H, ' ', 00H, 'f', 00H, 'o', 00H, 'r', 00H, ' ', 00H, 't', 00H
	DB	'h', 00H, 'i', 00H, 's', 00H, ' ', 00H, 'p', 00H, 'r', 00H, 'i'
	DB	00H, 'm', 00H, 'i', 00H, 't', 00H, 'i', 00H, 'v', 00H, 'e', 00H
	DB	' ', 00H, 'a', 00H, 'l', 00H, 'l', 00H, 'o', 00H, 'c', 00H, 'a'
	DB	00H, 't', 00H, 'o', 00H, 'r', 00H, 00H, 00H
	ORG $+6
$SG78570 DB	'Break Handler Invoked', 00H
	ORG $+2
$SG94955 DB	'ZenImposeImmediatePrimitiveCurtail', 00H
	ORG $+5
$SG78571 DB	'B', 00H, 'r', 00H, 'e', 00H, 'a', 00H, 'k', 00H, ' ', 00H
	DB	'H', 00H, 'a', 00H, 'n', 00H, 'd', 00H, 'l', 00H, 'e', 00H, 'r'
	DB	00H, ' ', 00H, 'I', 00H, 'n', 00H, 'v', 00H, 'o', 00H, 'k', 00H
	DB	'e', 00H, 'd', 00H, 00H, 00H
	ORG $+4
$SG94956 DB	'W:\cpp\void\detroit\brazen-immediate.h', 00H
	ORG $+1
$SG78572 DB	'*', 00H, '*', 00H, '*', 00H, '*', 00H, '*', 00H, '*', 00H
	DB	'*', 00H, '*', 00H, '*', 00H, '*', 00H, '*', 00H, '*', 00H, '*'
	DB	00H, '*', 00H, '*', 00H, '*', 00H, '*', 00H, '*', 00H, '*', 00H
	DB	'*', 00H, '*', 00H, 00H, 00H
	ORG $+4
$SG168685 DB	'close_socket_gracefully', 00H
$SG168686 DB	'%s: setsockopt(SOL_SOCKET SO_LINGER(%i,%i)) failed: %s', 00H
	ORG $+1
$SG168687 DB	'close_socket_gracefully', 00H
$SG94958 DB	'm', 00H, 'a', 00H, 'x', 00H, 'i', 00H, 'm', 00H, 'u', 00H
	DB	'm', 00H, ' ', 00H, 'n', 00H, 'u', 00H, 'm', 00H, 'b', 00H, 'e'
	DB	00H, 'r', 00H, ' ', 00H, 'o', 00H, 'f', 00H, ' ', 00H, 'v', 00H
	DB	'e', 00H, 'r', 00H, 't', 00H, 'e', 00H, 'x', 00H, ' ', 00H, 't'
	DB	00H, 'e', 00H, 'x', 00H, 't', 00H, 'u', 00H, 'r', 00H, 'e', 00H
	DB	' ', 00H, 'c', 00H, 'o', 00H, 'o', 00H, 'r', 00H, 'd', 00H, 'i'
	DB	00H, 'n', 00H, 'a', 00H, 't', 00H, 'e', 00H, 's', 00H, ' ', 00H
	DB	'r', 00H, 'e', 00H, 'a', 00H, 'c', 00H, 'h', 00H, 'e', 00H, 'd'
	DB	00H, ' ', 00H, 'f', 00H, 'o', 00H, 'r', 00H, ' ', 00H, 't', 00H
	DB	'h', 00H, 'i', 00H, 's', 00H, ' ', 00H, 'p', 00H, 'r', 00H, 'i'
	DB	00H, 'm', 00H, 'i', 00H, 't', 00H, 'i', 00H, 'v', 00H, 'e', 00H
	DB	' ', 00H, 'a', 00H, 'l', 00H, 'l', 00H, 'o', 00H, 'c', 00H, 'a'
	DB	00H, 't', 00H, 'o', 00H, 'r', 00H, 00H, 00H
	ORG $+4
$SG78574 DB	'*', 00H, '*', 00H, '*', 00H, '*', 00H, '*', 00H, '*', 00H
	DB	'*', 00H, '*', 00H, '*', 00H, '*', 00H, '*', 00H, '*', 00H, '*'
	DB	00H, '*', 00H, '*', 00H, '*', 00H, '*', 00H, '*', 00H, '*', 00H
	DB	'*', 00H, '*', 00H, 00H, 00H
	ORG $+4
$SG94959 DB	'ZenImposeImmediatePrimitiveCurtail', 00H
	ORG $+5
$SG78575 DB	'Choose Your Poison', 00H
	ORG $+5
$SG94960 DB	'W:\cpp\void\detroit\brazen-immediate.h', 00H
	ORG $+1
$SG78576 DB	'Would You Like To Exit (Abort), Debug (Retry) or Continu'
	DB	'e (Ignore)?', 00H
	ORG $+4
$SG94972 DB	'N', 00H, 'O', 00H, '_', 00H, 'M', 00H, 'E', 00H, 'S', 00H
	DB	'S', 00H, 'A', 00H, 'G', 00H, 'E', 00H, 00H, 00H
	ORG $+2
$SG94973 DB	'Slice->Pos.Count >= Slice->Tex.Count', 00H
	ORG $+3
$SG94974 DB	'ZenImmediatePrimitiveAlloc', 00H
	ORG $+5
$SG94975 DB	'W:\cpp\void\detroit\brazen-immediate.h', 00H
	ORG $+1
$SG78591 DB	'i', 00H, 'n', 00H, 'v', 00H, 'a', 00H, 'l', 00H, 'i', 00H
	DB	'd', 00H, ' ', 00H, 'e', 00H, 'r', 00H, 'r', 00H, 'o', 00H, 'r'
	DB	00H, ' ', 00H, 'c', 00H, 'l', 00H, 'a', 00H, 's', 00H, 's', 00H
	DB	',', 00H, ' ', 00H, 'e', 00H, 'x', 00H, 'p', 00H, 'e', 00H, 'c'
	DB	00H, 't', 00H, 'e', 00H, 'd', 00H, ' ', 00H, '''', 00H, 'E', 00H
	DB	'R', 00H, 'R', 00H, 'O', 00H, 'R', 00H, '_', 00H, 'C', 00H, 'L'
	DB	00H, 'A', 00H, 'S', 00H, 'S', 00H, '_', 00H, 'G', 00H, 'E', 00H
	DB	'N', 00H, 'E', 00H, 'R', 00H, 'A', 00H, 'L', 00H, '''', 00H, ' '
	DB	00H, 'o', 00H, 'r', 00H, ' ', 00H, '''', 00H, 'E', 00H, 'R', 00H
	DB	'R', 00H, 'O', 00H, 'R', 00H, '_', 00H, 'C', 00H, 'L', 00H, 'A'
	DB	00H, 'S', 00H, 'S', 00H, '_', 00H, 'N', 00H, 'E', 00H, 'T', 00H
	DB	'W', 00H, 'O', 00H, 'R', 00H, 'K', 00H, '''', 00H, 00H, 00H
	ORG $+6
$SG94976 DB	'N', 00H, 'O', 00H, '_', 00H, 'M', 00H, 'E', 00H, 'S', 00H
	DB	'S', 00H, 'A', 00H, 'G', 00H, 'E', 00H, 00H, 00H
	ORG $+2
$SG78592 DB	'GetErrorCode', 00H
	ORG $+3
$SG94977 DB	'Slice->Pos.Count >= Slice->Col.Count', 00H
	ORG $+3
$SG78593 DB	'W:\cpp\void\dr/plat-win32.c', 00H
	ORG $+4
$SG94978 DB	'ZenImmediatePrimitiveAlloc', 00H
	ORG $+5
$SG94979 DB	'W:\cpp\void\detroit\brazen-immediate.h', 00H
	ORG $+1
$SG94995 DB	'ZenImmediateModePush', 00H
	ORG $+3
$SG94994 DB	'm', 00H, 'a', 00H, 'x', 00H, 'i', 00H, 'm', 00H, 'u', 00H
	DB	'm', 00H, ' ', 00H, 'n', 00H, 'u', 00H, 'm', 00H, 'b', 00H, 'e'
	DB	00H, 'r', 00H, ' ', 00H, 'o', 00H, 'f', 00H, ' ', 00H, 'd', 00H
	DB	'r', 00H, 'a', 00H, 'w', 00H, 's', 00H, ' ', 00H, 'r', 00H, 'e'
	DB	00H, 'a', 00H, 'c', 00H, 'h', 00H, 'e', 00H, 'd', 00H, ' ', 00H
	DB	'f', 00H, 'o', 00H, 'r', 00H, ' ', 00H, 't', 00H, 'h', 00H, 'i'
	DB	00H, 's', 00H, ' ', 00H, 'i', 00H, 'm', 00H, 'm', 00H, 'e', 00H
	DB	'd', 00H, 'i', 00H, 'a', 00H, 't', 00H, 'e', 00H, ' ', 00H, 'm'
	DB	00H, 'o', 00H, 'd', 00H, 'e', 00H, 00H, 00H
$SG94996 DB	'W:\cpp\void\detroit\brazen-immediate.h', 00H
	ORG $+1
$SG78617 DB	'GetErrorStringA', 00H
$SG78626 DB	'no error message, or message too large', 00H
	ORG $+1
$SG78616 DB	'e', 00H, 'r', 00H, 'r', 00H, 'o', 00H, 'r', 00H, ' ', 00H
	DB	'c', 00H, 'l', 00H, 'a', 00H, 's', 00H, 's', 00H, ' ', 00H, 'i'
	DB	00H, 'g', 00H, 'n', 00H, 'o', 00H, 'r', 00H, 'e', 00H, 'd', 00H
	DB	' ', 00H, 'w', 00H, 'h', 00H, 'e', 00H, 'n', 00H, ' ', 00H, 'e'
	DB	00H, 'r', 00H, 'r', 00H, 'o', 00H, 'r', 00H, ' ', 00H, 'c', 00H
	DB	'o', 00H, 'd', 00H, 'e', 00H, ' ', 00H, 's', 00H, 'p', 00H, 'e'
	DB	00H, 'c', 00H, 'i', 00H, 'f', 00H, 'i', 00H, 'e', 00H, 'd', 00H
	DB	00H, 00H
	ORG $+4
$SG78618 DB	'W:\cpp\void\dr/plat-win32.c', 00H
	ORG $+4
$SG78623 DB	'n', 00H, 'o', 00H, ' ', 00H, 'e', 00H, 'r', 00H, 'r', 00H
	DB	'o', 00H, 'r', 00H, ' ', 00H, 'm', 00H, 'e', 00H, 's', 00H, 's'
	DB	00H, 'a', 00H, 'g', 00H, 'e', 00H, ',', 00H, ' ', 00H, 'o', 00H
	DB	'r', 00H, ' ', 00H, 'm', 00H, 'e', 00H, 's', 00H, 's', 00H, 'a'
	DB	00H, 'g', 00H, 'e', 00H, ' ', 00H, 't', 00H, 'o', 00H, 'o', 00H
	DB	' ', 00H, 'l', 00H, 'a', 00H, 'r', 00H, 'g', 00H, 'e', 00H, 00H
	DB	00H
	ORG $+2
$SG78624 DB	'GetErrorStringA', 00H
$SG78625 DB	'W:\cpp\void\dr/plat-win32.c', 00H
	ORG $+4
$SG86842 DB	'bad code lengths', 00H
	ORG $+7
$SG168790 DB	'calloc(): %s', 00H
	ORG $+3
$SG168794 DB	'SSL_CTX_new error: %s', 00H
	ORG $+2
$SG95067 DB	'N', 00H, 'O', 00H, '_', 00H, 'M', 00H, 'E', 00H, 'S', 00H
	DB	'S', 00H, 'A', 00H, 'G', 00H, 'E', 00H, 00H, 00H
	ORG $+2
$SG168796 DB	'mg_connect_client_impl', 00H
	ORG $+1
$SG95068 DB	'Sampler!=0', 00H
	ORG $+5
?stbi__bmask@@3QBIB DD 00H				; stbi__bmask
	DD	01H
	DD	03H
	DD	07H
	DD	0fH
	DD	01fH
	DD	03fH
	DD	07fH
	DD	0ffH
	DD	01ffH
	DD	03ffH
	DD	07ffH
	DD	0fffH
	DD	01fffH
	DD	03fffH
	DD	07fffH
	DD	0ffffH
	ORG $+4
$SG168797 DB	'%s: getsockname() failed: %s', 00H
	ORG $+3
$SG95069 DB	'ZenImmediateSkinnedRect', 00H
$SG168798 DB	'mg_connect_client_impl', 00H
	ORG $+1
$SG95070 DB	'W:\cpp\void\detroit\brazen-immediate.h', 00H
	ORG $+1
$SG95071 DB	'N', 00H, 'O', 00H, '_', 00H, 'M', 00H, 'E', 00H, 'S', 00H
	DB	'S', 00H, 'A', 00H, 'G', 00H, 'E', 00H, 00H, 00H
	ORG $+2
$SG95072 DB	'Texture!=0', 00H
	ORG $+5
$SG168801 DB	'Can not create mutex', 00H
	ORG $+3
$SG95073 DB	'ZenImmediateSkinnedRect', 00H
$SG95074 DB	'W:\cpp\void\detroit\brazen-immediate.h', 00H
	ORG $+1
$SG95076 DB	'i', 00H, 'n', 00H, 'v', 00H, 'a', 00H, 'l', 00H, 'i', 00H
	DB	'd', 00H, ' ', 00H, 's', 00H, 'o', 00H, 'u', 00H, 'r', 00H, 'c'
	DB	00H, 'e', 00H, ' ', 00H, 'r', 00H, 'e', 00H, 'c', 00H, 't', 00H
	DB	'a', 00H, 'n', 00H, 'g', 00H, 'l', 00H, 'e', 00H, ',', 00H, ' '
	DB	00H, 'S', 00H, 'o', 00H, 'u', 00H, 'r', 00H, 'c', 00H, 'e', 00H
	DB	'.', 00H, 'X', 00H, ' ', 00H, '=', 00H, ' ', 00H, '%', 00H, 'i'
	DB	00H, ',', 00H, ' ', 00H, 'T', 00H, 'e', 00H, 'x', 00H, 't', 00H
	DB	'u', 00H, 'r', 00H, 'e', 00H, '.', 00H, 'D', 00H, 'i', 00H, 'm'
	DB	00H, 'e', 00H, 'n', 00H, 'X', 00H, ' ', 00H, '=', 00H, ' ', 00H
	DB	'%', 00H, 'i', 00H, 00H, 00H
	ORG $+6
$SG95077 DB	'(Source.Min.X) <= Texture->DimenX', 00H
	ORG $+6
$SG168806 DB	'Can not use SSL client certificate', 00H
	ORG $+5
$SG95078 DB	'ZenImmediateSkinnedRect', 00H
$SG95079 DB	'W:\cpp\void\detroit\brazen-immediate.h', 00H
	ORG $+1
$SG95080 DB	'i', 00H, 'n', 00H, 'v', 00H, 'a', 00H, 'l', 00H, 'i', 00H
	DB	'd', 00H, ' ', 00H, 's', 00H, 'o', 00H, 'u', 00H, 'r', 00H, 'c'
	DB	00H, 'e', 00H, ' ', 00H, 'r', 00H, 'e', 00H, 'c', 00H, 't', 00H
	DB	'a', 00H, 'n', 00H, 'g', 00H, 'l', 00H, 'e', 00H, ',', 00H, ' '
	DB	00H, 'S', 00H, 'o', 00H, 'u', 00H, 'r', 00H, 'c', 00H, 'e', 00H
	DB	'.', 00H, 'Y', 00H, ' ', 00H, '=', 00H, ' ', 00H, '%', 00H, 'i'
	DB	00H, ',', 00H, ' ', 00H, 'T', 00H, 'e', 00H, 'x', 00H, 't', 00H
	DB	'u', 00H, 'r', 00H, 'e', 00H, '.', 00H, 'D', 00H, 'i', 00H, 'm'
	DB	00H, 'e', 00H, 'n', 00H, 'Y', 00H, ' ', 00H, '=', 00H, ' ', 00H
	DB	'%', 00H, 'i', 00H, 00H, 00H
	ORG $+6
$SG95081 DB	'(Source.Min.Y) <= Texture->DimenY', 00H
	ORG $+6
$SG95082 DB	'ZenImmediateSkinnedRect', 00H
$SG168811 DB	'SSL_CTX_load_verify_locations error: %s', 00H
$SG95083 DB	'W:\cpp\void\detroit\brazen-immediate.h', 00H
	ORG $+1
$SG78699 DB	'w', 00H, 'r', 00H, 'i', 00H, 't', 00H, 'e', 00H, ' ', 00H
	DB	'c', 00H, 'o', 00H, 'n', 00H, 's', 00H, 'o', 00H, 'l', 00H, 'e'
	DB	00H, ' ', 00H, 'f', 00H, 'a', 00H, 'i', 00H, 'l', 00H, 'e', 00H
	DB	'd', 00H, ',', 00H, ' ', 00H, 'a', 00H, 'r', 00H, 'e', 00H, ' '
	DB	00H, 'y', 00H, 'o', 00H, 'u', 00H, ' ', 00H, 'u', 00H, 's', 00H
	DB	'i', 00H, 'n', 00H, 'g', 00H, ' ', 00H, 'v', 00H, 'i', 00H, 's'
	DB	00H, 'u', 00H, 'a', 00H, 'l', 00H, ' ', 00H, 's', 00H, 't', 00H
	DB	'u', 00H, 'd', 00H, 'i', 00H, 'o', 00H, '?', 00H, 00H, 00H
	ORG $+2
$SG95084 DB	'i', 00H, 'n', 00H, 'v', 00H, 'a', 00H, 'l', 00H, 'i', 00H
	DB	'd', 00H, ' ', 00H, 's', 00H, 'o', 00H, 'u', 00H, 'r', 00H, 'c'
	DB	00H, 'e', 00H, ' ', 00H, 'r', 00H, 'e', 00H, 'c', 00H, 't', 00H
	DB	'a', 00H, 'n', 00H, 'g', 00H, 'l', 00H, 'e', 00H, 00H, 00H
	ORG $+6
$SG78700 DB	'ZenFlushSystemProcessOutputsToStd', 00H
	ORG $+6
$SG95085 DB	'(Source.Min.X + Source.Max.X) <= Texture->DimenX', 00H
	ORG $+7
$SG78701 DB	'W:\cpp\void\dr/plat-win32.c', 00H
	ORG $+4
$SG168814 DB	'SSL connection error', 00H
	ORG $+3
$SG95086 DB	'ZenImmediateSkinnedRect', 00H
$SG95087 DB	'W:\cpp\void\detroit\brazen-immediate.h', 00H
	ORG $+1
$SG95088 DB	'i', 00H, 'n', 00H, 'v', 00H, 'a', 00H, 'l', 00H, 'i', 00H
	DB	'd', 00H, ' ', 00H, 's', 00H, 'o', 00H, 'u', 00H, 'r', 00H, 'c'
	DB	00H, 'e', 00H, ' ', 00H, 'r', 00H, 'e', 00H, 'c', 00H, 't', 00H
	DB	'a', 00H, 'n', 00H, 'g', 00H, 'l', 00H, 'e', 00H, 00H, 00H
	ORG $+6
$SG78703 DB	'w', 00H, 'r', 00H, 'i', 00H, 't', 00H, 'e', 00H, ' ', 00H
	DB	'c', 00H, 'o', 00H, 'n', 00H, 's', 00H, 'o', 00H, 'l', 00H, 'e'
	DB	00H, ' ', 00H, 'f', 00H, 'a', 00H, 'i', 00H, 'l', 00H, 'e', 00H
	DB	'd', 00H, ',', 00H, ' ', 00H, 'a', 00H, 'r', 00H, 'e', 00H, ' '
	DB	00H, 'y', 00H, 'o', 00H, 'u', 00H, ' ', 00H, 'u', 00H, 's', 00H
	DB	'i', 00H, 'n', 00H, 'g', 00H, ' ', 00H, 'v', 00H, 'i', 00H, 's'
	DB	00H, 'u', 00H, 'a', 00H, 'l', 00H, ' ', 00H, 's', 00H, 't', 00H
	DB	'u', 00H, 'd', 00H, 'i', 00H, 'o', 00H, '?', 00H, 00H, 00H
	ORG $+2
$SG78704 DB	'ZenFlushSystemProcessOutputsToStd', 00H
	ORG $+6
$SG95089 DB	'(Source.Min.Y + Source.Max.Y) <= Texture->DimenY', 00H
	ORG $+7
$SG78705 DB	'W:\cpp\void\dr/plat-win32.c', 00H
$SG161270 DB	'3600', 00H
	ORG $+7
$SG86897 DB	'W', 00H, ':', 00H, '\', 00H, 'c', 00H, 'p', 00H, 'p', 00H
	DB	'\', 00H, 'v', 00H, 'o', 00H, 'i', 00H, 'd', 00H, '\', 00H, 'v'
	DB	00H, 'e', 00H, 'n', 00H, 'd', 00H, 'o', 00H, 'r', 00H, '\', 00H
	DB	's', 00H, 't', 00H, 'b', 00H, '\', 00H, 's', 00H, 't', 00H, 'b'
	DB	00H, '_', 00H, 'i', 00H, 'm', 00H, 'a', 00H, 'g', 00H, 'e', 00H
	DB	'.', 00H, 'h', 00H, 00H, 00H
	ORG $+2
$SG95090 DB	'ZenImmediateSkinnedRect', 00H
$SG86898 DB	'(', 00H, '(', 00H, '(', 00H, 'j', 00H, '-', 00H, '>', 00H
	DB	'c', 00H, 'o', 00H, 'd', 00H, 'e', 00H, '_', 00H, 'b', 00H, 'u'
	DB	00H, 'f', 00H, 'f', 00H, 'e', 00H, 'r', 00H, ')', 00H, ' ', 00H
	DB	'>', 00H, '>', 00H, ' ', 00H, '(', 00H, '3', 00H, '2', 00H, ' '
	DB	00H, '-', 00H, ' ', 00H, 'h', 00H, '-', 00H, '>', 00H, 's', 00H
	DB	'i', 00H, 'z', 00H, 'e', 00H, '[', 00H, 'c', 00H, ']', 00H, ')'
	DB	00H, ')', 00H, ' ', 00H, '&', 00H, ' ', 00H, 's', 00H, 't', 00H
	DB	'b', 00H, 'i', 00H, '_', 00H, '_', 00H, 'b', 00H, 'm', 00H, 'a'
	DB	00H, 's', 00H, 'k', 00H, '[', 00H, 'h', 00H, '-', 00H, '>', 00H
	DB	's', 00H, 'i', 00H, 'z', 00H, 'e', 00H, '[', 00H, 'c', 00H, ']'
	DB	00H, ']', 00H, ')', 00H, ' ', 00H, '=', 00H, '=', 00H, ' ', 00H
	DB	'h', 00H, '-', 00H, '>', 00H, 'c', 00H, 'o', 00H, 'd', 00H, 'e'
	DB	00H, '[', 00H, 'c', 00H, ']', 00H, 00H, 00H
$SG169524 DB	' (?)', 00H
	ORG $+7
?stbi__jbias@@3QBHB DD 00H				; stbi__jbias
	DD	0ffffffffH
	DD	0fffffffdH
	DD	0fffffff9H
	DD	0fffffff1H
	DD	0ffffffe1H
	DD	0ffffffc1H
	DD	0ffffff81H
	DD	0ffffff01H
	DD	0fffffe01H
	DD	0fffffc01H
	DD	0fffff801H
	DD	0fffff001H
	DD	0ffffe001H
	DD	0ffffc001H
	DD	0ffff8001H
$SG95091 DB	'W:\cpp\void\detroit\brazen-immediate.h', 00H
	ORG $+1
$SG168851 DB	'Invalid parameters', 00H
	ORG $+5
?stbi__jpeg_dezigzag@@3QBEB DB 00H			; stbi__jpeg_dezigzag
	DB	01H
	DB	08H
	DB	010H
	DB	09H
	DB	02H
	DB	03H
	DB	0aH
	DB	011H
	DB	018H
	DB	020H
	DB	019H
	DB	012H
	DB	0bH
	DB	04H
	DB	05H
	DB	0cH
	DB	013H
	DB	01aH
	DB	021H
	DB	028H
	DB	030H
	DB	029H
	DB	022H
	DB	01bH
	DB	014H
	DB	0dH
	DB	06H
	DB	07H
	DB	0eH
	DB	015H
	DB	01cH
	DB	023H
	DB	02aH
	DB	031H
	DB	038H
	DB	039H
	DB	032H
	DB	02bH
	DB	024H
	DB	01dH
	DB	016H
	DB	0fH
	DB	017H
	DB	01eH
	DB	025H
	DB	02cH
	DB	033H
	DB	03aH
	DB	03bH
	DB	034H
	DB	02dH
	DB	026H
	DB	01fH
	DB	027H
	DB	02eH
	DB	035H
	DB	03cH
	DB	03dH
	DB	036H
	DB	02fH
	DB	037H
	DB	03eH
	DB	03fH
	DB	03fH
	DB	03fH
	DB	03fH
	DB	03fH
	DB	03fH
	DB	03fH
	DB	03fH
	DB	03fH
	DB	03fH
	DB	03fH
	DB	03fH
	DB	03fH
	DB	03fH
	DB	03fH
	DB	03fH
	ORG $+1
$SG78752 DB	'(', 00H, '.', 00H, 'F', 00H, 'i', 00H, 'l', 00H, 'e', 00H
	DB	'N', 00H, 'a', 00H, 'm', 00H, 'e', 00H, ' ', 00H, '=', 00H, ' '
	DB	00H, '%', 00H, 's', 00H, ')', 00H, 00H, 00H
	ORG $+6
$SG78753 DB	'LoadFileData', 00H
	ORG $+3
$SG168866 DB	'Protocol %s not supported', 00H
	ORG $+6
$SG86946 DB	'bad huffman code', 00H
	ORG $+7
$SG78754 DB	'W:\cpp\void\dr/plat-win32.c', 00H
	ORG $+4
$SG78758 DB	'F', 00H, 'a', 00H, 'i', 00H, 'l', 00H, 'e', 00H, 'd', 00H
	DB	' ', 00H, 'T', 00H, 'o', 00H, ' ', 00H, 'R', 00H, 'e', 00H, 'a'
	DB	00H, 'd', 00H, ' ', 00H, 'F', 00H, 'i', 00H, 'l', 00H, 'e', 00H
	DB	' ', 00H, '[', 00H, '%', 00H, 's', 00H, ']', 00H, 00H, 00H
	ORG $+6
$SG86951 DB	'bad huffman code', 00H
	ORG $+7
$SG78759 DB	'LoadFileData', 00H
	ORG $+3
$SG78760 DB	'W:\cpp\void\dr/plat-win32.c', 00H
	ORG $+4
$SG78762 DB	'F', 00H, 'a', 00H, 'i', 00H, 'l', 00H, 'e', 00H, 'd', 00H
	DB	' ', 00H, 'T', 00H, 'o', 00H, ' ', 00H, 'L', 00H, 'o', 00H, 'a'
	DB	00H, 'd', 00H, ' ', 00H, 'F', 00H, 'i', 00H, 'l', 00H, 'e', 00H
	DB	' ', 00H, '[', 00H, '%', 00H, 's', 00H, ']', 00H, 00H, 00H
	ORG $+6
$SG78763 DB	'LoadFileData', 00H
	ORG $+3
$SG78764 DB	'W:\cpp\void\dr/plat-win32.c', 00H
$SG169889 DB	' Lua', 00H
	ORG $+7
?abs_uri_protocols@@3QBU<unnamed-type-abs_uri_protocols>@@B DQ FLAT:$SG168884 ; abs_uri_protocols
	DQ	0000000000000007H
	DD	050H
	ORG $+4
	DQ	FLAT:$SG168885
	DQ	0000000000000008H
	DD	01bbH
	ORG $+4
	DQ	FLAT:$SG168886
	DQ	0000000000000005H
	DD	050H
	ORG $+4
	DQ	FLAT:$SG168887
	DQ	0000000000000006H
	DD	01bbH
	ORG $+4
	DQ	0000000000000000H
	DQ	0000000000000000H
	DD	00H
	ORG $+4
$SG168884 DB	'http://', 00H
$SG168885 DB	'https://', 00H
	ORG $+7
$SG86967 DB	'can''t merge dc and ac', 00H
	ORG $+2
$SG78779 DB	'f', 00H, 'a', 00H, 'i', 00H, 'l', 00H, 'e', 00H, 'd', 00H
	DB	' ', 00H, 't', 00H, 'o', 00H, ' ', 00H, 'r', 00H, 'e', 00H, 'a'
	DB	00H, 'd', 00H, ' ', 00H, 'f', 00H, 'i', 00H, 'l', 00H, 'e', 00H
	DB	' ', 00H, '[', 00H, '%', 00H, 's', 00H, ']', 00H, 00H, 00H
	ORG $+6
$SG78780 DB	'WriteFileData', 00H
	ORG $+2
$SG86973 DB	'can''t merge dc and ac', 00H
	ORG $+2
$SG78781 DB	'W:\cpp\void\dr/plat-win32.c', 00H
	ORG $+4
$SG78782 DB	'f', 00H, 'a', 00H, 'i', 00H, 'l', 00H, 'e', 00H, 'd', 00H
	DB	' ', 00H, 't', 00H, 'o', 00H, ' ', 00H, 'w', 00H, 'r', 00H, 'i'
	DB	00H, 't', 00H, 'e', 00H, ' ', 00H, 't', 00H, 'o', 00H, ' ', 00H
	DB	'f', 00H, 'i', 00H, 'l', 00H, 'e', 00H, ' ', 00H, '[', 00H, '%'
	DB	00H, 's', 00H, ']', 00H, 00H, 00H
	ORG $+6
$SG78783 DB	'WriteFileData', 00H
	ORG $+2
$SG78784 DB	'W:\cpp\void\dr/plat-win32.c', 00H
	ORG $+4
$SG87010 DB	'can''t merge dc and ac', 00H
	ORG $+2
$SG87018 DB	'bad huffman code', 00H
	ORG $+7
$SG87031 DB	'bad huffman code', 00H
	ORG $+7
$SG168955 DB	'Internal error', 00H
	ORG $+1
$SG168958 DB	'Invalid message size', 00H
	ORG $+3
$SG87038 DB	'bad huffman code', 00H
	ORG $+7
$SG168961 DB	'Message too large', 00H
	ORG $+6
$SG168966 DB	'Malformed message', 00H
	ORG $+6
$SG168968 DB	'No data received', 00H
	ORG $+7
$SG168980 DB	'Bad request', 00H
	ORG $+4
$SG168983 DB	'Bad request: Host mismatch', 00H
	ORG $+5
$SG168987 DB	'Transfer-Encoding', 00H
	ORG $+6
$SG168988 DB	'identity', 00H
	ORG $+7
$SG168990 DB	'chunked', 00H
$SG168991 DB	'Bad request', 00H
	ORG $+4
$SG168995 DB	'Content-Length', 00H
	ORG $+1
$SG168998 DB	'Bad request', 00H
	ORG $+4
$SG169010 DB	'Bad response', 00H
	ORG $+3
$SG169014 DB	'Transfer-Encoding', 00H
	ORG $+6
$SG169015 DB	'identity', 00H
	ORG $+7
$SG169017 DB	'chunked', 00H
$SG169018 DB	'Bad request', 00H
	ORG $+4
$SG169022 DB	'Content-Length', 00H
	ORG $+1
$SG169045 DB	'Parameter error', 00H
$SG169071 DB	'Error sending request', 00H
	ORG $+2
$SG78911 DB	'w', 00H, 'r', 00H, 'o', 00H, 'n', 00H, 'g', 00H, ' ', 00H
	DB	'o', 00H, 'r', 00H, 'd', 00H, 'e', 00H, 'r', 00H, ' ', 00H, 'o'
	DB	00H, 'f', 00H, ' ', 00H, 'i', 00H, 'n', 00H, 'p', 00H, 'u', 00H
	DB	't', 00H, 's', 00H, ',', 00H, ' ', 00H, 'a', 00H, 'b', 00H, 's'
	DB	00H, 'o', 00H, 'l', 00H, 'u', 00H, 't', 00H, 'e', 00H, ' ', 00H
	DB	'p', 00H, 'a', 00H, 't', 00H, 'h', 00H, ' ', 00H, 's', 00H, 'h'
	DB	00H, 'o', 00H, 'u', 00H, 'l', 00H, 'd', 00H, ' ', 00H, 'g', 00H
	DB	'o', 00H, ' ', 00H, 'f', 00H, 'i', 00H, 'r', 00H, 's', 00H, 't'
	DB	00H, 00H, 00H
	ORG $+6
$SG78912 DB	'FileNameMerge', 00H
	ORG $+2
$SG169025 DB	'Bad request', 00H
	ORG $+4
$SG78913 DB	'W:\cpp\void\dr/plat-win32.c', 00H
	ORG $+4
$SG78984 DB	'f', 00H, 'a', 00H, 'i', 00H, 'l', 00H, 'e', 00H, 'd', 00H
	DB	' ', 00H, 't', 00H, 'o', 00H, ' ', 00H, 'c', 00H, 'r', 00H, 'e'
	DB	00H, 'a', 00H, 't', 00H, 'e', 00H, ' ', 00H, 'c', 00H, 'o', 00H
	DB	'm', 00H, 'p', 00H, 'l', 00H, 'e', 00H, 't', 00H, 'e', 00H, ' '
	DB	00H, 'p', 00H, 'a', 00H, 't', 00H, 'h', 00H, ',', 00H, ' ', 00H
	DB	'%', 00H, 's', 00H, 00H, 00H
	ORG $+2
$SG78985 DB	'CreateCompleteFilePath', 00H
	ORG $+1
$SG78986 DB	'W:\cpp\void\dr/plat-win32.c', 00H
	ORG $+4
$SG169099 DB	'ws-clnt', 00H
$SG169120 DB	'x3JJHMbDL1EzLkh9GBhXDw==', 00H
	ORG $+7
$SG169143 DB	'Unexpected error', 00H
	ORG $+7
$SG169148 DB	'GET %s HTTP/1.1', 0dH, 0aH, 'Host: %s', 0dH, 0aH, 'Upgra'
	DB	'de: websocket', 0dH, 0aH, 'Connection: Upgrade', 0dH, 0aH, 'S'
	DB	'ec-WebSocket-Key: %s', 0dH, 0aH, 'Sec-WebSocket-Version: 13', 0dH
	DB	0aH, 'Sec-WebSocket-Extensions: %s', 0dH, 0aH, 'Origin: %s', 0dH
	DB	0aH, 0dH, 0aH, 00H
	ORG $+5
$SG160960 DB	'SSL_connect', 00H
$SG169895 DB	' CGI', 00H
	ORG $+7
$SG169149 DB	'GET %s HTTP/1.1', 0dH, 0aH, 'Host: %s', 0dH, 0aH, 'Upgra'
	DB	'de: websocket', 0dH, 0aH, 'Connection: Upgrade', 0dH, 0aH, 'S'
	DB	'ec-WebSocket-Key: %s', 0dH, 0aH, 'Sec-WebSocket-Version: 13', 0dH
	DB	0aH, 'Origin: %s', 0dH, 0aH, 0dH, 0aH, 00H
	ORG $+3
$SG160958 DB	'SSL_free', 00H
	ORG $+7
$SG160959 DB	'SSL_accept', 00H
	ORG $+5
$SG169155 DB	'Error sending request', 00H
	ORG $+2
$SG169152 DB	'GET %s HTTP/1.1', 0dH, 0aH, 'Host: %s', 0dH, 0aH, 'Upgra'
	DB	'de: websocket', 0dH, 0aH, 'Connection: Upgrade', 0dH, 0aH, 'S'
	DB	'ec-WebSocket-Key: %s', 0dH, 0aH, 'Sec-WebSocket-Version: 13', 0dH
	DB	0aH, 'Sec-WebSocket-Extensions: %s', 0dH, 0aH, 0dH, 0aH, 00H
	ORG $+1
$SG160965 DB	'SSL_new', 00H
$SG169153 DB	'GET %s HTTP/1.1', 0dH, 0aH, 'Host: %s', 0dH, 0aH, 'Upgra'
	DB	'de: websocket', 0dH, 0aH, 'Connection: Upgrade', 0dH, 0aH, 'S'
	DB	'ec-WebSocket-Key: %s', 0dH, 0aH, 'Sec-WebSocket-Version: 13', 0dH
	DB	0aH, 0dH, 0aH, 00H
	ORG $+7
$SG160961 DB	'SSL_read', 00H
	ORG $+7
$SG160962 DB	'SSL_write', 00H
	ORG $+6
$SG160963 DB	'SSL_get_error', 00H
	ORG $+2
$SG160964 DB	'SSL_set_fd', 00H
	ORG $+5
$SG160966 DB	'SSL_CTX_new', 00H
	ORG $+4
$SG160967 DB	'SSLv23_server_method', 00H
	ORG $+3
$SG169160 DB	'Unexpected server reply', 00H
$SG160968 DB	'SSL_library_init', 00H
	ORG $+7
$SG160969 DB	'SSL_CTX_use_PrivateKey_file', 00H
	ORG $+4
$SG160970 DB	'SSL_CTX_use_certificate_file', 00H
	ORG $+3
$SG160971 DB	'SSL_CTX_set_default_passwd_cb', 00H
	ORG $+2
$SG79051 DB	'F', 00H, 'i', 00H, 'l', 00H, 'e', 00H, ' ', 00H, 'P', 00H
	DB	'r', 00H, 'e', 00H, 's', 00H, 'e', 00H, 'n', 00H, 't', 00H, ' '
	DB	00H, '%', 00H, 's', 00H, 00H, 00H
$SG160972 DB	'SSL_CTX_free', 00H
	ORG $+3
$SG79052 DB	'FileTreeReviseSingle', 00H
	ORG $+3
$SG160973 DB	'SSL_load_error_strings', 00H
	ORG $+1
$SG79053 DB	'W:\cpp\void\dr/plat-win32.c', 00H
	ORG $+4
$SG160974 DB	'SSL_CTX_use_certificate_chain_file', 00H
	ORG $+5
$SG160975 DB	'SSLv23_client_method', 00H
	ORG $+3
$SG160976 DB	'SSL_pending', 00H
	ORG $+4
$SG79056 DB	'F', 00H, 'i', 00H, 'l', 00H, 'e', 00H, ' ', 00H, 'R', 00H
	DB	'e', 00H, 'm', 00H, 'o', 00H, 'v', 00H, 'e', 00H, 'd', 00H, ' '
	DB	00H, '%', 00H, 's', 00H, 00H, 00H
$SG160977 DB	'SSL_CTX_set_verify', 00H
	ORG $+5
$SG79057 DB	'FileTreeReviseSingle', 00H
	ORG $+3
$SG160978 DB	'SSL_shutdown', 00H
	ORG $+3
$SG79058 DB	'W:\cpp\void\dr/plat-win32.c', 00H
	ORG $+4
$SG160979 DB	'SSL_CTX_load_verify_locations', 00H
	ORG $+2
$SG160980 DB	'SSL_CTX_set_default_verify_paths', 00H
	ORG $+7
$SG79060 DB	'N', 00H, 'O', 00H, '_', 00H, 'M', 00H, 'E', 00H, 'S', 00H
	DB	'S', 00H, 'A', 00H, 'G', 00H, 'E', 00H, 00H, 00H
	ORG $+2
$SG160981 DB	'SSL_CTX_set_verify_depth', 00H
	ORG $+7
$SG79061 DB	'Old->File.IsFile == New->File.IsFile', 00H
	ORG $+3
$SG160982 DB	'SSL_get_peer_certificate', 00H
	ORG $+7
$SG79062 DB	'FileTreeReviseSingle', 00H
	ORG $+3
$SG160983 DB	'SSL_get_version', 00H
$SG79063 DB	'W:\cpp\void\dr/plat-win32.c', 00H
	ORG $+4
$SG160984 DB	'SSL_get_current_cipher', 00H
	ORG $+1
$SG160985 DB	'SSL_CIPHER_get_name', 00H
	ORG $+4
$SG79065 DB	'F', 00H, 'i', 00H, 'l', 00H, 'e', 00H, ' ', 00H, 'T', 00H
	DB	'i', 00H, 'm', 00H, 'e', 00H, ' ', 00H, 'M', 00H, 'a', 00H, 'd'
	DB	00H, 'e', 00H, ' ', 00H, 'C', 00H, 'h', 00H, 'a', 00H, 'n', 00H
	DB	'g', 00H, 'e', 00H, 'd', 00H, ' ', 00H, '%', 00H, 's', 00H, 00H
	DB	00H
	ORG $+4
$SG160986 DB	'SSL_CTX_check_private_key', 00H
	ORG $+6
$SG79066 DB	'FileTreeReviseSingle', 00H
	ORG $+3
$SG160987 DB	'SSL_CTX_set_session_id_context', 00H
	ORG $+1
$SG79067 DB	'W:\cpp\void\dr/plat-win32.c', 00H
	ORG $+4
$SG160988 DB	'SSL_CTX_ctrl', 00H
	ORG $+3
$SG160989 DB	'SSL_CTX_set_cipher_list', 00H
$SG79069 DB	'F', 00H, 'i', 00H, 'l', 00H, 'e', 00H, ' ', 00H, 'T', 00H
	DB	'i', 00H, 'm', 00H, 'e', 00H, ' ', 00H, 'E', 00H, 'd', 00H, 'i'
	DB	00H, 't', 00H, ' ', 00H, 'C', 00H, 'h', 00H, 'a', 00H, 'n', 00H
	DB	'g', 00H, 'e', 00H, 'd', 00H, ' ', 00H, '%', 00H, 's', 00H, 00H
	DB	00H
	ORG $+4
$SG160990 DB	'SSL_CTX_set_info_callback', 00H
	ORG $+6
$SG79070 DB	'FileTreeReviseSingle', 00H
	ORG $+3
$SG160991 DB	'SSL_get_ex_data', 00H
$SG79071 DB	'W:\cpp\void\dr/plat-win32.c', 00H
	ORG $+4
$SG160992 DB	'SSL_set_ex_data', 00H
$SG160993 DB	'SSL_CTX_callback_ctrl', 00H
	ORG $+2
$SG79073 DB	'F', 00H, 'i', 00H, 'l', 00H, 'e', 00H, ' ', 00H, 'T', 00H
	DB	'i', 00H, 'm', 00H, 'e', 00H, ' ', 00H, 'R', 00H, 'e', 00H, 'a'
	DB	00H, 'd', 00H, ' ', 00H, 'C', 00H, 'h', 00H, 'a', 00H, 'n', 00H
	DB	'g', 00H, 'e', 00H, 'd', 00H, ' ', 00H, '%', 00H, 's', 00H, 00H
	DB	00H
	ORG $+4
$SG160994 DB	'SSL_get_servername', 00H
	ORG $+5
$SG79074 DB	'FileTreeReviseSingle', 00H
	ORG $+3
$SG160995 DB	'SSL_set_SSL_CTX', 00H
$SG79075 DB	'W:\cpp\void\dr/plat-win32.c', 00H
	ORG $+4
$SG160996 DB	'SSL_ctrl', 00H
	ORG $+7
$SG160997 DB	'SSL_CTX_set_alpn_protos', 00H
$SG160998 DB	'SSL_CTX_set_alpn_select_cb', 00H
	ORG $+5
$SG160999 DB	'SSL_CTX_set_next_protos_advertised_cb', 00H
	ORG $+2
$SG161000 DB	'SSL_CTX_set_timeout', 00H
	ORG $+4
$SG161002 DB	'CRYPTO_num_locks', 00H
	ORG $+7
$SG161003 DB	'CRYPTO_set_locking_callback', 00H
	ORG $+4
$SG161004 DB	'CRYPTO_set_id_callback', 00H
	ORG $+1
$SG161005 DB	'ERR_get_error', 00H
	ORG $+2
$SG161006 DB	'ERR_error_string', 00H
	ORG $+7
$SG161007 DB	'ERR_remove_state', 00H
	ORG $+7
$SG161008 DB	'ERR_free_strings', 00H
	ORG $+7
$SG161009 DB	'ENGINE_cleanup', 00H
	ORG $+1
$SG161010 DB	'CONF_modules_unload', 00H
	ORG $+4
$SG161011 DB	'CRYPTO_cleanup_all_ex_data', 00H
	ORG $+5
$SG161012 DB	'EVP_cleanup', 00H
	ORG $+4
$SG161013 DB	'X509_free', 00H
	ORG $+6
$SG161014 DB	'X509_get_subject_name', 00H
	ORG $+2
$SG161015 DB	'X509_get_issuer_name', 00H
	ORG $+3
$SG161016 DB	'X509_NAME_oneline', 00H
	ORG $+6
$SG161017 DB	'X509_get_serialNumber', 00H
	ORG $+2
$SG161018 DB	'i2c_ASN1_INTEGER', 00H
	ORG $+7
$SG161019 DB	'EVP_get_digestbyname', 00H
	ORG $+3
$SG161020 DB	'EVP_Digest', 00H
	ORG $+5
$SG161021 DB	'i2d_X509', 00H
	ORG $+7
$SG161022 DB	'BN_bn2hex', 00H
	ORG $+6
$SG161023 DB	'ASN1_INTEGER_to_BN', 00H
	ORG $+5
$SG161024 DB	'BN_free', 00H
$SG161025 DB	'CRYPTO_free', 00H
	ORG $+4
$SG161026 DB	'ERR_clear_error', 00H
?month_names@@3QAY03$$CBDA DB 'Jan', 00H		; month_names
	DB	'Feb', 00H
	DB	'Mar', 00H
	DB	'Apr', 00H
	DB	'May', 00H
	DB	'Jun', 00H
	DB	'Jul', 00H
	DB	'Aug', 00H
	DB	'Sep', 00H
	DB	'Oct', 00H
	DB	'Nov', 00H
	DB	'Dec', 00H
$SG169267 DB	'Bad HTTP version: [%s]', 00H
	ORG $+1
$SG169277 DB	'Invalid URI', 00H
	ORG $+4
$SG79226 DB	'N', 00H, 'O', 00H, '_', 00H, 'M', 00H, 'E', 00H, 'S', 00H
	DB	'S', 00H, 'A', 00H, 'G', 00H, 'E', 00H, 00H, 00H
	ORG $+2
$SG79227 DB	'Queue->ConsumerTail <= Queue->Consumer', 00H
	ORG $+1
$SG79228 DB	'FileQueueGetTask', 00H
	ORG $+7
$SG79229 DB	'W:\cpp\void\dr/plat-win32.c', 00H
	ORG $+4
$SG79230 DB	'N', 00H, 'O', 00H, '_', 00H, 'M', 00H, 'E', 00H, 'S', 00H
	DB	'S', 00H, 'A', 00H, 'G', 00H, 'E', 00H, 00H, 00H
	ORG $+2
$SG79231 DB	'Queue->ProducerTail <= Queue->Producer', 00H
	ORG $+1
$SG79232 DB	'FileQueueGetTask', 00H
	ORG $+7
$SG79233 DB	'W:\cpp\void\dr/plat-win32.c', 00H
	ORG $+4
$SG79237 DB	'N', 00H, 'o', 00H, 't', 00H, ' ', 00H, 'E', 00H, 'n', 00H
	DB	'o', 00H, 'u', 00H, 'g', 00H, 'h', 00H, ' ', 00H, 'T', 00H, 'a'
	DB	00H, 's', 00H, 'k', 00H, 's', 00H, ',', 00H, ' ', 00H, 'A', 00H
	DB	's', 00H, 'k', 00H, 'e', 00H, 'd', 00H, ' ', 00H, 'F', 00H, 'o'
	DB	00H, 'r', 00H, ' ', 00H, '[', 00H, '%', 00H, 'i', 00H, ']', 00H
	DB	' ', 00H, 'T', 00H, 'h', 00H, 'e', 00H, 'r', 00H, 'e', 00H, ' '
	DB	00H, 'A', 00H, 'r', 00H, 'e', 00H, ' ', 00H, 'O', 00H, 'n', 00H
	DB	'l', 00H, 'y', 00H, ' ', 00H, '[', 00H, '%', 00H, 'i', 00H, ']'
	DB	00H, 00H, 00H
	ORG $+6
$SG79238 DB	'FileQueueGetTask', 00H
	ORG $+7
$SG79239 DB	'W:\cpp\void\dr/plat-win32.c', 00H
	ORG $+4
$SG169365 DB	'Internal error: Invalid worker index %i', 00H
$SG169366 DB	'worker_thread_run', 00H
	ORG $+6
$SG169368 DB	'Out of memory: Cannot allocate buffer for worker %i', 00H
	ORG $+4
$SG169369 DB	'worker_thread_run', 00H
	ORG $+6
$SG79258 DB	'N', 00H, 'O', 00H, '_', 00H, 'M', 00H, 'E', 00H, 'S', 00H
	DB	'S', 00H, 'A', 00H, 'G', 00H, 'E', 00H, 00H, 00H
	ORG $+2
?config_options@@3QBUmg_option@@B DQ FLAT:$SG161179	; config_options
	DD	07H
	ORG $+4
	DQ	FLAT:$SG161180
	DQ	FLAT:$SG161181
	DD	01H
	ORG $+4
	DQ	FLAT:$SG161182
	DQ	FLAT:$SG161183
	DD	02H
	ORG $+4
	DQ	0000000000000000H
	DQ	FLAT:$SG161184
	DD	01H
	ORG $+4
	DQ	FLAT:$SG161185
	DQ	FLAT:$SG161186
	DD	01H
	ORG $+4
	DQ	FLAT:$SG161187
	DQ	FLAT:$SG161188
	DD	01H
	ORG $+4
	DQ	0000000000000000H
	DQ	FLAT:$SG161189
	DD	01H
	ORG $+4
	DQ	FLAT:$SG161190
	DQ	FLAT:$SG161191
	DD	01H
	ORG $+4
	DQ	FLAT:$SG161192
	DQ	FLAT:$SG161193
	DD	05H
	ORG $+4
	DQ	FLAT:$SG161194
	DQ	FLAT:$SG161195
	DD	07H
	ORG $+4
	DQ	0000000000000000H
	DQ	FLAT:$SG161196
	DD	05H
	ORG $+4
	DQ	FLAT:$SG161197
	DQ	FLAT:$SG161198
	DD	01H
	ORG $+4
	DQ	FLAT:$SG161199
	DQ	FLAT:$SG161200
	DD	01H
	ORG $+4
	DQ	FLAT:$SG161201
	DQ	FLAT:$SG161202
	DD	01H
	ORG $+4
	DQ	0000000000000000H
	DQ	FLAT:$SG161203
	DD	05H
	ORG $+4
	DQ	FLAT:$SG161204
	DQ	FLAT:$SG161205
	DD	05H
	ORG $+4
	DQ	FLAT:$SG161206
	DQ	FLAT:$SG161207
	DD	05H
	ORG $+4
	DQ	FLAT:$SG161208
	DQ	FLAT:$SG161209
	DD	04H
	ORG $+4
	DQ	0000000000000000H
	DQ	FLAT:$SG161210
	DD	03H
	ORG $+4
	DQ	0000000000000000H
	DQ	FLAT:$SG161211
	DD	03H
	ORG $+4
	DQ	0000000000000000H
	DQ	FLAT:$SG161212
	DD	06H
	ORG $+4
	DQ	FLAT:$SG161213
	DQ	FLAT:$SG161214
	DD	07H
	ORG $+4
	DQ	0000000000000000H
	DQ	FLAT:$SG161215
	DD	03H
	ORG $+4
	DQ	0000000000000000H
	DQ	FLAT:$SG161216
	DD	02H
	ORG $+4
	DQ	0000000000000000H
	DQ	FLAT:$SG161217
	DD	05H
	ORG $+4
	DQ	FLAT:$SG161218
	DQ	FLAT:$SG161219
	DD	06H
	ORG $+4
	DQ	0000000000000000H
	DQ	FLAT:$SG161220
	DD	07H
	ORG $+4
	DQ	0000000000000000H
	DQ	FLAT:$SG161221
	DD	03H
	ORG $+4
	DQ	0000000000000000H
	DQ	FLAT:$SG161222
	DD	02H
	ORG $+4
	DQ	0000000000000000H
	DQ	FLAT:$SG161223
	DD	05H
	ORG $+4
	DQ	FLAT:$SG161224
	DQ	FLAT:$SG161225
	DD	03H
	ORG $+4
	DQ	0000000000000000H
	DQ	FLAT:$SG161226
	DD	07H
	ORG $+4
	DQ	0000000000000000H
	DQ	FLAT:$SG161227
	DD	02H
	ORG $+4
	DQ	FLAT:$SG161228
	DQ	FLAT:$SG161229
	DD	05H
	ORG $+4
	DQ	FLAT:$SG161230
	DQ	FLAT:$SG161231
	DD	06H
	ORG $+4
	DQ	FLAT:$SG161232
	DQ	FLAT:$SG161233
	DD	05H
	ORG $+4
	DQ	FLAT:$SG161234
	DQ	FLAT:$SG161235
	DD	05H
	ORG $+4
	DQ	FLAT:$SG161236
	DQ	FLAT:$SG161237
	DD	03H
	ORG $+4
	DQ	0000000000000000H
	DQ	FLAT:$SG161238
	DD	07H
	ORG $+4
	DQ	FLAT:$SG161239
	DQ	FLAT:$SG161240
	DD	07H
	ORG $+4
	DQ	0000000000000000H
	DQ	FLAT:$SG161241
	DD	07H
	ORG $+4
	DQ	0000000000000000H
	DQ	FLAT:$SG161242
	DD	03H
	ORG $+4
	DQ	0000000000000000H
	DQ	FLAT:$SG161243
	DD	03H
	ORG $+4
	DQ	0000000000000000H
	DQ	FLAT:$SG161244
	DD	07H
	ORG $+4
	DQ	0000000000000000H
	DQ	FLAT:$SG161245
	DD	06H
	ORG $+4
	DQ	0000000000000000H
	DQ	FLAT:$SG161246
	DD	09H
	ORG $+4
	DQ	FLAT:$SG161247
	DQ	FLAT:$SG161248
	DD	01H
	ORG $+4
	DQ	FLAT:$SG161249
	DQ	FLAT:$SG161250
	DD	04H
	ORG $+4
	DQ	0000000000000000H
	DQ	FLAT:$SG161251
	DD	03H
	ORG $+4
	DQ	0000000000000000H
	DQ	FLAT:$SG161252
	DD	01H
	ORG $+4
	DQ	FLAT:$SG161253
	DQ	FLAT:$SG161254
	DD	05H
	ORG $+4
	DQ	FLAT:$SG161255
	DQ	FLAT:$SG161256
	DD	02H
	ORG $+4
	DQ	0000000000000000H
	DQ	FLAT:$SG161257
	DD	01H
	ORG $+4
	DQ	FLAT:$SG161258
	DQ	FLAT:$SG161259
	DD	05H
	ORG $+4
	DQ	FLAT:$SG161260
	DQ	FLAT:$SG161261
	DD	04H
	ORG $+4
	DQ	0000000000000000H
	DQ	FLAT:$SG161262
	DD	02H
	ORG $+4
	DQ	FLAT:$SG161263
	DQ	FLAT:$SG161264
	DD	02H
	ORG $+4
	DQ	FLAT:$SG161265
	DQ	FLAT:$SG161266
	DD	02H
	ORG $+4
	DQ	FLAT:$SG161267
	DQ	FLAT:$SG161268
	DD	04H
	ORG $+4
	DQ	0000000000000000H
	DQ	FLAT:$SG161269
	DD	01H
	ORG $+4
	DQ	FLAT:$SG161270
	DQ	FLAT:$SG161271
	DD	02H
	ORG $+4
	DQ	0000000000000000H
	DQ	FLAT:$SG161272
	DD	01H
	ORG $+4
	DQ	0000000000000000H
	DQ	FLAT:$SG161273
	DD	08H
	ORG $+4
	DQ	0000000000000000H
	DQ	FLAT:$SG161274
	DD	05H
	ORG $+4
	DQ	FLAT:$SG161275
	DQ	0000000000000000H
	DD	00H
	ORG $+4
	DQ	0000000000000000H
$SG169371 DB	'Cannot create mutex', 00H
	ORG $+4
$SG161179 DB	'listening_ports', 00H
$SG79259 DB	'Queue->ConsumerTail <= Queue->Consumer', 00H
	ORG $+1
$SG79260 DB	'FileQueueSetTask', 00H
	ORG $+7
$SG169373 DB	'worker_thread_run', 00H
	ORG $+6
$SG161181 DB	'num_threads', 00H
	ORG $+4
$SG79261 DB	'W:\cpp\void\dr/plat-win32.c', 00H
	ORG $+4
$SG79262 DB	'N', 00H, 'O', 00H, '_', 00H, 'M', 00H, 'E', 00H, 'S', 00H
	DB	'S', 00H, 'A', 00H, 'G', 00H, 'E', 00H, 00H, 00H
	ORG $+2
$SG161183 DB	'run_as_user', 00H
	ORG $+4
$SG79263 DB	'Queue->ProducerTail <= Queue->Producer', 00H
	ORG $+1
$SG161184 DB	'tcp_nodelay', 00H
	ORG $+4
$SG79264 DB	'FileQueueSetTask', 00H
	ORG $+7
$SG79265 DB	'W:\cpp\void\dr/plat-win32.c', 00H
	ORG $+4
$SG161186 DB	'max_request_size', 00H
	ORG $+7
$SG161188 DB	'linger_timeout_ms', 00H
	ORG $+6
$SG161189 DB	'connection_queue', 00H
	ORG $+7
$SG79269 DB	'T', 00H, 'o', 00H, 'o', 00H, ' ', 00H, 'M', 00H, 'a', 00H
	DB	'n', 00H, 'y', 00H, ' ', 00H, 'T', 00H, 'a', 00H, 's', 00H, 'k'
	DB	00H, 's', 00H, 00H, 00H
	ORG $+2
$SG79270 DB	'FileQueueSetTask', 00H
	ORG $+7
$SG161191 DB	'listen_backlog', 00H
	ORG $+1
$SG79271 DB	'W:\cpp\void\dr/plat-win32.c', 00H
	ORG $+4
$SG161193 DB	'case_sensitive', 00H
	ORG $+1
$SG161195 DB	'throttle', 00H
	ORG $+7
$SG161196 DB	'enable_keep_alive', 00H
	ORG $+6
$SG161198 DB	'request_timeout_ms', 00H
	ORG $+5
$SG161200 DB	'keep_alive_timeout_ms', 00H
	ORG $+2
$SG161202 DB	'websocket_timeout_ms', 00H
	ORG $+3
$SG161203 DB	'enable_websocket_ping_pong', 00H
	ORG $+5
$SG161205 DB	'decode_url', 00H
	ORG $+5
$SG161207 DB	'decode_query_string', 00H
	ORG $+4
$SG161209 DB	'document_root', 00H
	ORG $+2
$SG161210 DB	'access_log_file', 00H
$SG161211 DB	'error_log_file', 00H
	ORG $+1
$SG161212 DB	'cgi_pattern', 00H
	ORG $+4
$SG161213 DB	'**.cgi$|**.pl$|**.php$', 00H
	ORG $+1
$SG169406 DB	'accept_new_connection', 00H
	ORG $+2
$SG161214 DB	'cgi_environment', 00H
$SG169407 DB	'%s: %s is not allowed to connect', 00H
	ORG $+7
$SG161215 DB	'cgi_interpreter', 00H
$SG79295 DB	'T', 00H, 'h', 00H, 'r', 00H, 'e', 00H, 'a', 00H, 'd', 00H
	DB	' ', 00H, 'E', 00H, 'n', 00H, 't', 00H, 'e', 00H, 'r', 00H, 's'
	DB	00H, 00H, 00H
	ORG $+4
$SG169408 DB	'accept_new_connection', 00H
	ORG $+2
$SG161216 DB	'cgi_interpreter_args', 00H
	ORG $+3
$SG79296 DB	'FileQueueThreadRoutine', 00H
	ORG $+1
$SG161217 DB	'cgi_buffering', 00H
	ORG $+2
$SG79297 DB	'W:\cpp\void\dr/plat-win32.c', 00H
	ORG $+4
$SG169410 DB	'accept_new_connection', 00H
	ORG $+2
$SG79298 DB	'F', 00H, 'i', 00H, 'l', 00H, 'e', 00H, 'T', 00H, 'a', 00H
	DB	's', 00H, 'k', 00H, '.', 00H, 'W', 00H, 'o', 00H, 'r', 00H, 'k'
	DB	00H, ' ', 00H, 'N', 00H, 'U', 00H, 'L', 00H, 'L', 00H, 00H, 00H
	ORG $+2
$SG169411 DB	'%s: getsockname() failed: %s', 00H
	ORG $+3
$SG161219 DB	'cgi2_pattern', 00H
	ORG $+3
$SG79299 DB	'FileTask.Work != NULL', 00H
	ORG $+2
$SG169412 DB	'accept_new_connection', 00H
	ORG $+2
$SG161220 DB	'cgi2_environment', 00H
	ORG $+7
$SG79300 DB	'FileQueueThreadRoutine', 00H
	ORG $+1
$SG161221 DB	'cgi2_interpreter', 00H
	ORG $+7
$SG79301 DB	'W:\cpp\void\dr/plat-win32.c', 00H
	ORG $+4
$SG161222 DB	'cgi2_interpreter_args', 00H
	ORG $+2
$SG161223 DB	'cgi2_buffering', 00H
	ORG $+1
$SG169416 DB	'accept_new_connection', 00H
	ORG $+2
$SG169417 DB	'%s: setsockopt(SOL_SOCKET SO_KEEPALIVE) failed: %s', 00H
	ORG $+5
$SG161225 DB	'put_delete_auth_file', 00H
	ORG $+3
$SG79305 DB	'T', 00H, 'h', 00H, 'r', 00H, 'e', 00H, 'a', 00H, 'd', 00H
	DB	' ', 00H, 'L', 00H, 'e', 00H, 'a', 00H, 'v', 00H, 'e', 00H, 's'
	DB	00H, 00H, 00H
	ORG $+4
$SG169418 DB	'accept_new_connection', 00H
	ORG $+2
$SG161226 DB	'protect_uri', 00H
	ORG $+4
$SG79306 DB	'FileQueueThreadRoutine', 00H
	ORG $+1
$SG161227 DB	'authentication_domain', 00H
	ORG $+2
$SG79307 DB	'W:\cpp\void\dr/plat-win32.c', 00H
	ORG $+4
$SG161228 DB	'mydomain.com', 00H
	ORG $+3
$SG161229 DB	'enable_auth_domain_check', 00H
	ORG $+7
$SG169422 DB	'accept_new_connection', 00H
	ORG $+2
$SG169423 DB	'%s: setsockopt(IPPROTO_TCP TCP_NODELAY) failed: %s', 00H
	ORG $+5
$SG161231 DB	'ssi_pattern', 00H
	ORG $+4
$SG169424 DB	'accept_new_connection', 00H
	ORG $+2
$SG161232 DB	'**.shtml$|**.shtm$', 00H
	ORG $+5
$SG161233 DB	'enable_directory_listing', 00H
	ORG $+7
$SG161235 DB	'enable_webdav', 00H
	ORG $+2
$SG161237 DB	'global_auth_file', 00H
	ORG $+7
$SG161238 DB	'index_files', 00H
	ORG $+4
$SG161239 DB	'index.xhtml,index.html,index.htm,index.cgi,index.shtml,i'
	DB	'ndex.php', 00H
	ORG $+7
$SG161240 DB	'access_control_list', 00H
	ORG $+4
$SG161241 DB	'extra_mime_types', 00H
	ORG $+7
$SG161242 DB	'ssl_certificate', 00H
$SG161243 DB	'ssl_certificate_chain', 00H
	ORG $+2
$SG161244 DB	'url_rewrite_patterns', 00H
	ORG $+3
$SG161245 DB	'hide_files_patterns', 00H
	ORG $+4
$SG161246 DB	'ssl_verify_peer', 00H
$SG161248 DB	'ssl_cache_timeout', 00H
	ORG $+6
$SG161250 DB	'ssl_ca_path', 00H
	ORG $+4
$SG161251 DB	'ssl_ca_file', 00H
	ORG $+4
$SG161252 DB	'ssl_verify_depth', 00H
	ORG $+7
$SG161254 DB	'ssl_default_verify_paths', 00H
	ORG $+7
$SG161256 DB	'ssl_cipher_list', 00H
$SG161257 DB	'ssl_protocol_version', 00H
	ORG $+3
$SG161259 DB	'ssl_short_trust', 00H
$SG161261 DB	'websocket_root', 00H
	ORG $+1
$SG161262 DB	'access_control_allow_origin', 00H
	ORG $+4
$SG161264 DB	'access_control_allow_methods', 00H
	ORG $+3
$SG161266 DB	'access_control_allow_headers', 00H
	ORG $+3
$SG161268 DB	'error_pages', 00H
	ORG $+4
$SG161269 DB	'static_file_max_age', 00H
	ORG $+4
$SG161271 DB	'static_file_cache_control', 00H
	ORG $+6
$SG161272 DB	'strict_transport_security_max_age', 00H
	ORG $+6
$SG161273 DB	'additional_header', 00H
	ORG $+6
$SG161274 DB	'allow_index_script_resource', 00H
	ORG $+4
$SG79357 DB	'F', 00H, 'i', 00H, 'l', 00H, 'e', 00H, 'Q', 00H, 'u', 00H
	DB	'e', 00H, 'u', 00H, 'e', 00H, '.', 00H, 'C', 00H, 'o', 00H, 'r'
	DB	00H, 'e', 00H, '[', 00H, '%', 00H, 'i', 00H, ']', 00H, '.', 00H
	DB	'S', 00H, 'e', 00H, 't', 00H, 's', 00H, ' ', 00H, '=', 00H, ' '
	DB	00H, '%', 00H, 'i', 00H, ',', 00H, ' ', 00H, 'G', 00H, 'e', 00H
	DB	't', 00H, 's', 00H, ' ', 00H, '=', 00H, ' ', 00H, '%', 00H, 'i'
	DB	00H, 00H, 00H
$SG79358 DB	'FileQueueBegin', 00H
	ORG $+1
$SG79359 DB	'W:\cpp\void\dr/plat-win32.c', 00H
	ORG $+4
$SG95755 DB	'N', 00H, 'O', 00H, '_', 00H, 'M', 00H, 'E', 00H, 'S', 00H
	DB	'S', 00H, 'A', 00H, 'G', 00H, 'E', 00H, 00H, 00H
	ORG $+2
$SG95756 DB	'PixelPosition.X >= 0', 00H
	ORG $+3
$SG95757 DB	'ZenGluiDrawableTextureView', 00H
	ORG $+5
$SG95758 DB	'W:\cpp\void\detroit\brazen-immediate.h', 00H
	ORG $+1
$SG95759 DB	'N', 00H, 'O', 00H, '_', 00H, 'M', 00H, 'E', 00H, 'S', 00H
	DB	'S', 00H, 'A', 00H, 'G', 00H, 'E', 00H, 00H, 00H
	ORG $+2
$SG95760 DB	'PixelPosition.X < Texture->DimenX', 00H
	ORG $+6
$SG95761 DB	'ZenGluiDrawableTextureView', 00H
	ORG $+5
$SG95762 DB	'W:\cpp\void\detroit\brazen-immediate.h', 00H
	ORG $+1
$SG95763 DB	'N', 00H, 'O', 00H, '_', 00H, 'M', 00H, 'E', 00H, 'S', 00H
	DB	'S', 00H, 'A', 00H, 'G', 00H, 'E', 00H, 00H, 00H
	ORG $+2
$SG95764 DB	'PixelPosition.Y >= 0', 00H
	ORG $+3
$SG95765 DB	'ZenGluiDrawableTextureView', 00H
	ORG $+5
$SG95766 DB	'W:\cpp\void\detroit\brazen-immediate.h', 00H
	ORG $+1
$SG95767 DB	'N', 00H, 'O', 00H, '_', 00H, 'M', 00H, 'E', 00H, 'S', 00H
	DB	'S', 00H, 'A', 00H, 'G', 00H, 'E', 00H, 00H, 00H
	ORG $+2
$SG95768 DB	'PixelPosition.Y < Texture->DimenY', 00H
	ORG $+6
$SG95769 DB	'ZenGluiDrawableTextureView', 00H
	ORG $+5
$SG95770 DB	'W:\cpp\void\detroit\brazen-immediate.h', 00H
	ORG $+1
$SG79386 DB	'ARCHIVE', 00H
$SG79387 DB	'COMPRESSED', 00H
	ORG $+5
$SG79389 DB	'DIRECTORY', 00H
	ORG $+6
$SG79390 DB	'ENCRYPTED', 00H
	ORG $+6
$SG79392 DB	'INTEGRITY_STREAM', 00H
	ORG $+7
$SG79394 DB	'NOT_CONTENT_INDEXED', 00H
	ORG $+4
$SG79395 DB	'NO_SCRUB_DATA', 00H
	ORG $+2
$SG79396 DB	'OFFLINE', 00H
$SG79397 DB	'READONLY', 00H
	ORG $+7
$SG79398 DB	'RECALL_ON_DATA_ACCESS', 00H
	ORG $+2
$SG79399 DB	'RECALL_ON_OPEN', 00H
	ORG $+1
$SG79400 DB	'REPARSE_POINT', 00H
	ORG $+2
$SG79401 DB	'SPARSE_FILE', 00H
	ORG $+4
$SG79403 DB	'TEMPORARY', 00H
	ORG $+6
$SG79404 DB	'VIRTUAL', 00H
$SG79406 DB	'UNPINNED', 00H
	ORG $+7
$SG169522 DB	' (WoW64)', 00H
	ORG $+7
$SG169525 DB	'Windows %u.%u%s', 00H
$SG79420 DB	'INVALID_FILE_ATTRIBUTES', 00H
$SG79431 DB	'W', 00H, 'M', 00H, '_', 00H, 'N', 00H, 'U', 00H, 'L', 00H
	DB	'L', 00H, '(', 00H, '0', 00H, 'x', 00H, '0', 00H, '0', 00H, '0'
	DB	00H, '0', 00H, ')', 00H, 00H, 00H
$SG79433 DB	'W', 00H, 'M', 00H, '_', 00H, 'C', 00H, 'R', 00H, 'E', 00H
	DB	'A', 00H, 'T', 00H, 'E', 00H, '(', 00H, '0', 00H, 'x', 00H, '0'
	DB	00H, '0', 00H, '0', 00H, '1', 00H, ')', 00H, 00H, 00H
	ORG $+4
$SG79435 DB	'W', 00H, 'M', 00H, '_', 00H, 'D', 00H, 'E', 00H, 'S', 00H
	DB	'T', 00H, 'R', 00H, 'O', 00H, 'Y', 00H, '(', 00H, '0', 00H, 'x'
	DB	00H, '0', 00H, '0', 00H, '0', 00H, '2', 00H, ')', 00H, 00H, 00H
	ORG $+2
$SG79437 DB	'W', 00H, 'M', 00H, '_', 00H, 'M', 00H, 'O', 00H, 'V', 00H
	DB	'E', 00H, '(', 00H, '0', 00H, 'x', 00H, '0', 00H, '0', 00H, '0'
	DB	00H, '3', 00H, ')', 00H, 00H, 00H
$SG79439 DB	'W', 00H, 'M', 00H, '_', 00H, 'S', 00H, 'I', 00H, 'Z', 00H
	DB	'E', 00H, '(', 00H, '0', 00H, 'x', 00H, '0', 00H, '0', 00H, '0'
	DB	00H, '5', 00H, ')', 00H, 00H, 00H
$SG79441 DB	'W', 00H, 'M', 00H, '_', 00H, 'A', 00H, 'C', 00H, 'T', 00H
	DB	'I', 00H, 'V', 00H, 'A', 00H, 'T', 00H, 'E', 00H, '(', 00H, '0'
	DB	00H, 'x', 00H, '0', 00H, '0', 00H, '0', 00H, '6', 00H, ')', 00H
	DB	00H, 00H
$SG79443 DB	'W', 00H, 'M', 00H, '_', 00H, 'S', 00H, 'E', 00H, 'T', 00H
	DB	'F', 00H, 'O', 00H, 'C', 00H, 'U', 00H, 'S', 00H, '(', 00H, '0'
	DB	00H, 'x', 00H, '0', 00H, '0', 00H, '0', 00H, '7', 00H, ')', 00H
	DB	00H, 00H
$SG79445 DB	'W', 00H, 'M', 00H, '_', 00H, 'K', 00H, 'I', 00H, 'L', 00H
	DB	'L', 00H, 'F', 00H, 'O', 00H, 'C', 00H, 'U', 00H, 'S', 00H, '('
	DB	00H, '0', 00H, 'x', 00H, '0', 00H, '0', 00H, '0', 00H, '8', 00H
	DB	')', 00H, 00H, 00H
	ORG $+6
$SG79447 DB	'W', 00H, 'M', 00H, '_', 00H, 'E', 00H, 'N', 00H, 'A', 00H
	DB	'B', 00H, 'L', 00H, 'E', 00H, '(', 00H, '0', 00H, 'x', 00H, '0'
	DB	00H, '0', 00H, '0', 00H, 'A', 00H, ')', 00H, 00H, 00H
	ORG $+4
$SG79449 DB	'W', 00H, 'M', 00H, '_', 00H, 'S', 00H, 'E', 00H, 'T', 00H
	DB	'R', 00H, 'E', 00H, 'D', 00H, 'R', 00H, 'A', 00H, 'W', 00H, '('
	DB	00H, '0', 00H, 'x', 00H, '0', 00H, '0', 00H, '0', 00H, 'B', 00H
	DB	')', 00H, 00H, 00H
	ORG $+6
$SG79451 DB	'W', 00H, 'M', 00H, '_', 00H, 'S', 00H, 'E', 00H, 'T', 00H
	DB	'T', 00H, 'E', 00H, 'X', 00H, 'T', 00H, '(', 00H, '0', 00H, 'x'
	DB	00H, '0', 00H, '0', 00H, '0', 00H, 'C', 00H, ')', 00H, 00H, 00H
	ORG $+2
$SG79453 DB	'W', 00H, 'M', 00H, '_', 00H, 'G', 00H, 'E', 00H, 'T', 00H
	DB	'T', 00H, 'E', 00H, 'X', 00H, 'T', 00H, '(', 00H, '0', 00H, 'x'
	DB	00H, '0', 00H, '0', 00H, '0', 00H, 'D', 00H, ')', 00H, 00H, 00H
	ORG $+2
$SG79455 DB	'W', 00H, 'M', 00H, '_', 00H, 'G', 00H, 'E', 00H, 'T', 00H
	DB	'T', 00H, 'E', 00H, 'X', 00H, 'T', 00H, 'L', 00H, 'E', 00H, 'N'
	DB	00H, 'G', 00H, 'T', 00H, 'H', 00H, '(', 00H, '0', 00H, 'x', 00H
	DB	'0', 00H, '0', 00H, '0', 00H, 'E', 00H, ')', 00H, 00H, 00H
	ORG $+6
$SG79457 DB	'W', 00H, 'M', 00H, '_', 00H, 'P', 00H, 'A', 00H, 'I', 00H
	DB	'N', 00H, 'T', 00H, '(', 00H, '0', 00H, 'x', 00H, '0', 00H, '0'
	DB	00H, '0', 00H, 'F', 00H, ')', 00H, 00H, 00H
	ORG $+6
$SG79459 DB	'W', 00H, 'M', 00H, '_', 00H, 'C', 00H, 'L', 00H, 'O', 00H
	DB	'S', 00H, 'E', 00H, '(', 00H, '0', 00H, 'x', 00H, '0', 00H, '0'
	DB	00H, '1', 00H, '0', 00H, ')', 00H, 00H, 00H
	ORG $+6
$SG79461 DB	'W', 00H, 'M', 00H, '_', 00H, 'Q', 00H, 'U', 00H, 'E', 00H
	DB	'R', 00H, 'Y', 00H, 'E', 00H, 'N', 00H, 'D', 00H, 'S', 00H, 'E'
	DB	00H, 'S', 00H, 'S', 00H, 'I', 00H, 'O', 00H, 'N', 00H, '(', 00H
	DB	'0', 00H, 'x', 00H, '0', 00H, '0', 00H, '1', 00H, '1', 00H, ')'
	DB	00H, 00H, 00H
	ORG $+2
$SG79463 DB	'W', 00H, 'M', 00H, '_', 00H, 'Q', 00H, 'U', 00H, 'E', 00H
	DB	'R', 00H, 'Y', 00H, 'O', 00H, 'P', 00H, 'E', 00H, 'N', 00H, '('
	DB	00H, '0', 00H, 'x', 00H, '0', 00H, '0', 00H, '1', 00H, '3', 00H
	DB	')', 00H, 00H, 00H
	ORG $+6
$SG79465 DB	'W', 00H, 'M', 00H, '_', 00H, 'E', 00H, 'N', 00H, 'D', 00H
	DB	'S', 00H, 'E', 00H, 'S', 00H, 'S', 00H, 'I', 00H, 'O', 00H, 'N'
	DB	00H, '(', 00H, '0', 00H, 'x', 00H, '0', 00H, '0', 00H, '1', 00H
	DB	'6', 00H, ')', 00H, 00H, 00H
	ORG $+4
$SG79467 DB	'W', 00H, 'M', 00H, '_', 00H, 'Q', 00H, 'U', 00H, 'I', 00H
	DB	'T', 00H, '(', 00H, '0', 00H, 'x', 00H, '0', 00H, '0', 00H, '1'
	DB	00H, '2', 00H, ')', 00H, 00H, 00H
$SG79469 DB	'W', 00H, 'M', 00H, '_', 00H, 'E', 00H, 'R', 00H, 'A', 00H
	DB	'S', 00H, 'E', 00H, 'B', 00H, 'K', 00H, 'G', 00H, 'N', 00H, 'D'
	DB	00H, '(', 00H, '0', 00H, 'x', 00H, '0', 00H, '0', 00H, '1', 00H
	DB	'4', 00H, ')', 00H, 00H, 00H
	ORG $+4
$SG79471 DB	'W', 00H, 'M', 00H, '_', 00H, 'S', 00H, 'Y', 00H, 'S', 00H
	DB	'C', 00H, 'O', 00H, 'L', 00H, 'O', 00H, 'R', 00H, 'C', 00H, 'H'
	DB	00H, 'A', 00H, 'N', 00H, 'G', 00H, 'E', 00H, '(', 00H, '0', 00H
	DB	'x', 00H, '0', 00H, '0', 00H, '1', 00H, '5', 00H, ')', 00H, 00H
	DB	00H
	ORG $+4
$SG79473 DB	'W', 00H, 'M', 00H, '_', 00H, 'S', 00H, 'H', 00H, 'O', 00H
	DB	'W', 00H, 'W', 00H, 'I', 00H, 'N', 00H, 'D', 00H, 'O', 00H, 'W'
	DB	00H, '(', 00H, '0', 00H, 'x', 00H, '0', 00H, '0', 00H, '1', 00H
	DB	'8', 00H, ')', 00H, 00H, 00H
	ORG $+4
$SG79475 DB	'W', 00H, 'M', 00H, '_', 00H, 'W', 00H, 'I', 00H, 'N', 00H
	DB	'I', 00H, 'N', 00H, 'I', 00H, 'C', 00H, 'H', 00H, 'A', 00H, 'N'
	DB	00H, 'G', 00H, 'E', 00H, '(', 00H, '0', 00H, 'x', 00H, '0', 00H
	DB	'0', 00H, '1', 00H, 'A', 00H, ')', 00H, 00H, 00H
$SG79477 DB	'W', 00H, 'M', 00H, '_', 00H, 'D', 00H, 'E', 00H, 'V', 00H
	DB	'M', 00H, 'O', 00H, 'D', 00H, 'E', 00H, 'C', 00H, 'H', 00H, 'A'
	DB	00H, 'N', 00H, 'G', 00H, 'E', 00H, '(', 00H, '0', 00H, 'x', 00H
	DB	'0', 00H, '0', 00H, '1', 00H, 'B', 00H, ')', 00H, 00H, 00H
	ORG $+6
$SG79479 DB	'W', 00H, 'M', 00H, '_', 00H, 'A', 00H, 'C', 00H, 'T', 00H
	DB	'I', 00H, 'V', 00H, 'A', 00H, 'T', 00H, 'E', 00H, 'A', 00H, 'P'
	DB	00H, 'P', 00H, '(', 00H, '0', 00H, 'x', 00H, '0', 00H, '0', 00H
	DB	'1', 00H, 'C', 00H, ')', 00H, 00H, 00H
	ORG $+2
$SG79481 DB	'W', 00H, 'M', 00H, '_', 00H, 'F', 00H, 'O', 00H, 'N', 00H
	DB	'T', 00H, 'C', 00H, 'H', 00H, 'A', 00H, 'N', 00H, 'G', 00H, 'E'
	DB	00H, '(', 00H, '0', 00H, 'x', 00H, '0', 00H, '0', 00H, '1', 00H
	DB	'D', 00H, ')', 00H, 00H, 00H
	ORG $+4
$SG79483 DB	'W', 00H, 'M', 00H, '_', 00H, 'T', 00H, 'I', 00H, 'M', 00H
	DB	'E', 00H, 'C', 00H, 'H', 00H, 'A', 00H, 'N', 00H, 'G', 00H, 'E'
	DB	00H, '(', 00H, '0', 00H, 'x', 00H, '0', 00H, '0', 00H, '1', 00H
	DB	'E', 00H, ')', 00H, 00H, 00H
	ORG $+4
$SG79485 DB	'W', 00H, 'M', 00H, '_', 00H, 'C', 00H, 'A', 00H, 'N', 00H
	DB	'C', 00H, 'E', 00H, 'L', 00H, 'M', 00H, 'O', 00H, 'D', 00H, 'E'
	DB	00H, '(', 00H, '0', 00H, 'x', 00H, '0', 00H, '0', 00H, '1', 00H
	DB	'F', 00H, ')', 00H, 00H, 00H
	ORG $+4
$SG79487 DB	'W', 00H, 'M', 00H, '_', 00H, 'S', 00H, 'E', 00H, 'T', 00H
	DB	'C', 00H, 'U', 00H, 'R', 00H, 'S', 00H, 'O', 00H, 'R', 00H, '('
	DB	00H, '0', 00H, 'x', 00H, '0', 00H, '0', 00H, '2', 00H, '0', 00H
	DB	')', 00H, 00H, 00H
	ORG $+6
$SG79489 DB	'W', 00H, 'M', 00H, '_', 00H, 'M', 00H, 'O', 00H, 'U', 00H
	DB	'S', 00H, 'E', 00H, 'A', 00H, 'C', 00H, 'T', 00H, 'I', 00H, 'V'
	DB	00H, 'A', 00H, 'T', 00H, 'E', 00H, '(', 00H, '0', 00H, 'x', 00H
	DB	'0', 00H, '0', 00H, '2', 00H, '1', 00H, ')', 00H, 00H, 00H
	ORG $+6
$SG79491 DB	'W', 00H, 'M', 00H, '_', 00H, 'C', 00H, 'H', 00H, 'I', 00H
	DB	'L', 00H, 'D', 00H, 'A', 00H, 'C', 00H, 'T', 00H, 'I', 00H, 'V'
	DB	00H, 'A', 00H, 'T', 00H, 'E', 00H, '(', 00H, '0', 00H, 'x', 00H
	DB	'0', 00H, '0', 00H, '2', 00H, '2', 00H, ')', 00H, 00H, 00H
	ORG $+6
$SG79493 DB	'W', 00H, 'M', 00H, '_', 00H, 'Q', 00H, 'U', 00H, 'E', 00H
	DB	'U', 00H, 'E', 00H, 'S', 00H, 'Y', 00H, 'N', 00H, 'C', 00H, '('
	DB	00H, '0', 00H, 'x', 00H, '0', 00H, '0', 00H, '2', 00H, '3', 00H
	DB	')', 00H, 00H, 00H
	ORG $+6
$SG79495 DB	'W', 00H, 'M', 00H, '_', 00H, 'G', 00H, 'E', 00H, 'T', 00H
	DB	'M', 00H, 'I', 00H, 'N', 00H, 'M', 00H, 'A', 00H, 'X', 00H, 'I'
	DB	00H, 'N', 00H, 'F', 00H, 'O', 00H, '(', 00H, '0', 00H, 'x', 00H
	DB	'0', 00H, '0', 00H, '2', 00H, '4', 00H, ')', 00H, 00H, 00H
	ORG $+6
$SG79497 DB	'W', 00H, 'M', 00H, '_', 00H, 'P', 00H, 'A', 00H, 'I', 00H
	DB	'N', 00H, 'T', 00H, 'I', 00H, 'C', 00H, 'O', 00H, 'N', 00H, '('
	DB	00H, '0', 00H, 'x', 00H, '0', 00H, '0', 00H, '2', 00H, '6', 00H
	DB	')', 00H, 00H, 00H
	ORG $+6
$SG79499 DB	'W', 00H, 'M', 00H, '_', 00H, 'I', 00H, 'C', 00H, 'O', 00H
	DB	'N', 00H, 'E', 00H, 'R', 00H, 'A', 00H, 'S', 00H, 'E', 00H, 'B'
	DB	00H, 'K', 00H, 'G', 00H, 'N', 00H, 'D', 00H, '(', 00H, '0', 00H
	DB	'x', 00H, '0', 00H, '0', 00H, '2', 00H, '7', 00H, ')', 00H, 00H
	DB	00H
	ORG $+4
$SG169612 DB	'Library uninitialized', 00H
	ORG $+2
$SG79501 DB	'W', 00H, 'M', 00H, '_', 00H, 'N', 00H, 'E', 00H, 'X', 00H
	DB	'T', 00H, 'D', 00H, 'L', 00H, 'G', 00H, 'C', 00H, 'T', 00H, 'L'
	DB	00H, '(', 00H, '0', 00H, 'x', 00H, '0', 00H, '0', 00H, '2', 00H
	DB	'8', 00H, ')', 00H, 00H, 00H
	ORG $+4
$SG79503 DB	'W', 00H, 'M', 00H, '_', 00H, 'S', 00H, 'P', 00H, 'O', 00H
	DB	'O', 00H, 'L', 00H, 'E', 00H, 'R', 00H, 'S', 00H, 'T', 00H, 'A'
	DB	00H, 'T', 00H, 'U', 00H, 'S', 00H, '(', 00H, '0', 00H, 'x', 00H
	DB	'0', 00H, '0', 00H, '2', 00H, 'A', 00H, ')', 00H, 00H, 00H
	ORG $+6
$SG169616 DB	'Out of memory', 00H
	ORG $+2
$SG79505 DB	'W', 00H, 'M', 00H, '_', 00H, 'D', 00H, 'R', 00H, 'A', 00H
	DB	'W', 00H, 'I', 00H, 'T', 00H, 'E', 00H, 'M', 00H, '(', 00H, '0'
	DB	00H, 'x', 00H, '0', 00H, '0', 00H, '2', 00H, 'B', 00H, ')', 00H
	DB	00H, 00H
$SG169619 DB	'Cannot initialize thread synchronization objects', 00H
	ORG $+7
$SG79507 DB	'W', 00H, 'M', 00H, '_', 00H, 'M', 00H, 'E', 00H, 'A', 00H
	DB	'S', 00H, 'U', 00H, 'R', 00H, 'E', 00H, 'I', 00H, 'T', 00H, 'E'
	DB	00H, 'M', 00H, '(', 00H, '0', 00H, 'x', 00H, '0', 00H, '0', 00H
	DB	'2', 00H, 'C', 00H, ')', 00H, 00H, 00H
	ORG $+2
$SG169621 DB	'mg_start2', 00H
	ORG $+6
$SG79509 DB	'W', 00H, 'M', 00H, '_', 00H, 'D', 00H, 'E', 00H, 'L', 00H
	DB	'E', 00H, 'T', 00H, 'E', 00H, 'I', 00H, 'T', 00H, 'E', 00H, 'M'
	DB	00H, '(', 00H, '0', 00H, 'x', 00H, '0', 00H, '0', 00H, '2', 00H
	DB	'D', 00H, ')', 00H, 00H, 00H
	ORG $+4
$SG79511 DB	'W', 00H, 'M', 00H, '_', 00H, 'V', 00H, 'K', 00H, 'E', 00H
	DB	'Y', 00H, 'T', 00H, 'O', 00H, 'I', 00H, 'T', 00H, 'E', 00H, 'M'
	DB	00H, '(', 00H, '0', 00H, 'x', 00H, '0', 00H, '0', 00H, '2', 00H
	DB	'E', 00H, ')', 00H, 00H, 00H
	ORG $+4
$SG79513 DB	'W', 00H, 'M', 00H, '_', 00H, 'C', 00H, 'H', 00H, 'A', 00H
	DB	'R', 00H, 'T', 00H, 'O', 00H, 'I', 00H, 'T', 00H, 'E', 00H, 'M'
	DB	00H, '(', 00H, '0', 00H, 'x', 00H, '0', 00H, '0', 00H, '2', 00H
	DB	'F', 00H, ')', 00H, 00H, 00H
	ORG $+4
$SG169627 DB	'Invalid option: %s', 00H
	ORG $+5
$SG79515 DB	'W', 00H, 'M', 00H, '_', 00H, 'S', 00H, 'E', 00H, 'T', 00H
	DB	'F', 00H, 'O', 00H, 'N', 00H, 'T', 00H, '(', 00H, '0', 00H, 'x'
	DB	00H, '0', 00H, '0', 00H, '3', 00H, '0', 00H, ')', 00H, 00H, 00H
	ORG $+2
$SG169628 DB	'mg_start2', 00H
	ORG $+6
$SG79517 DB	'W', 00H, 'M', 00H, '_', 00H, 'G', 00H, 'E', 00H, 'T', 00H
	DB	'F', 00H, 'O', 00H, 'N', 00H, 'T', 00H, '(', 00H, '0', 00H, 'x'
	DB	00H, '0', 00H, '0', 00H, '3', 00H, '1', 00H, ')', 00H, 00H, 00H
	ORG $+2
$SG169630 DB	'Invalid configuration option: %s', 00H
	ORG $+7
$SG79519 DB	'W', 00H, 'M', 00H, '_', 00H, 'S', 00H, 'E', 00H, 'T', 00H
	DB	'H', 00H, 'O', 00H, 'T', 00H, 'K', 00H, 'E', 00H, 'Y', 00H, '('
	DB	00H, '0', 00H, 'x', 00H, '0', 00H, '0', 00H, '3', 00H, '2', 00H
	DB	')', 00H, 00H, 00H
	ORG $+6
$SG169632 DB	'%s: option value cannot be NULL', 00H
$SG169633 DB	'mg_start2', 00H
	ORG $+6
$SG79521 DB	'W', 00H, 'M', 00H, '_', 00H, 'G', 00H, 'E', 00H, 'T', 00H
	DB	'H', 00H, 'O', 00H, 'T', 00H, 'K', 00H, 'E', 00H, 'Y', 00H, '('
	DB	00H, '0', 00H, 'x', 00H, '0', 00H, '0', 00H, '3', 00H, '3', 00H
	DB	')', 00H, 00H, 00H
	ORG $+6
$SG169635 DB	'Invalid configuration option value: %s', 00H
	ORG $+1
$SG79523 DB	'W', 00H, 'M', 00H, '_', 00H, 'Q', 00H, 'U', 00H, 'E', 00H
	DB	'R', 00H, 'Y', 00H, 'D', 00H, 'R', 00H, 'A', 00H, 'G', 00H, 'I'
	DB	00H, 'C', 00H, 'O', 00H, 'N', 00H, '(', 00H, '0', 00H, 'x', 00H
	DB	'0', 00H, '0', 00H, '3', 00H, '7', 00H, ')', 00H, 00H, 00H
	ORG $+6
$SG169637 DB	'warning: %s: duplicate option', 00H
	ORG $+2
$SG79525 DB	'W', 00H, 'M', 00H, '_', 00H, 'C', 00H, 'O', 00H, 'M', 00H
	DB	'P', 00H, 'A', 00H, 'R', 00H, 'E', 00H, 'I', 00H, 'T', 00H, 'E'
	DB	00H, 'M', 00H, '(', 00H, '0', 00H, 'x', 00H, '0', 00H, '0', 00H
	DB	'3', 00H, '9', 00H, ')', 00H, 00H, 00H
	ORG $+2
$SG169638 DB	'mg_start2', 00H
	ORG $+6
$SG79527 DB	'W', 00H, 'M', 00H, '_', 00H, 'G', 00H, 'E', 00H, 'T', 00H
	DB	'O', 00H, 'B', 00H, 'J', 00H, 'E', 00H, 'C', 00H, 'T', 00H, '('
	DB	00H, '0', 00H, 'x', 00H, '0', 00H, '0', 00H, '3', 00H, 'D', 00H
	DB	')', 00H, 00H, 00H
	ORG $+6
$SG169641 DB	'%s too small', 00H
	ORG $+3
$SG79529 DB	'W', 00H, 'M', 00H, '_', 00H, 'C', 00H, 'O', 00H, 'M', 00H
	DB	'P', 00H, 'A', 00H, 'C', 00H, 'T', 00H, 'I', 00H, 'N', 00H, 'G'
	DB	00H, '(', 00H, '0', 00H, 'x', 00H, '0', 00H, '0', 00H, '4', 00H
	DB	'1', 00H, ')', 00H, 00H, 00H
	ORG $+4
$SG169642 DB	'mg_start2', 00H
	ORG $+6
$SG79531 DB	'W', 00H, 'M', 00H, '_', 00H, 'C', 00H, 'O', 00H, 'M', 00H
	DB	'M', 00H, 'N', 00H, 'O', 00H, 'T', 00H, 'I', 00H, 'F', 00H, 'Y'
	DB	00H, '(', 00H, '0', 00H, 'x', 00H, '0', 00H, '0', 00H, '4', 00H
	DB	'2', 00H, ')', 00H, 00H, 00H
	ORG $+4
$SG169644 DB	'Invalid configuration option value: %s', 00H
	ORG $+1
$SG79533 DB	'W', 00H, 'M', 00H, '_', 00H, 'W', 00H, 'I', 00H, 'N', 00H
	DB	'D', 00H, 'O', 00H, 'W', 00H, 'P', 00H, 'O', 00H, 'S', 00H, 'C'
	DB	00H, 'H', 00H, 'A', 00H, 'N', 00H, 'G', 00H, 'I', 00H, 'N', 00H
	DB	'G', 00H, '(', 00H, '0', 00H, 'x', 00H, '0', 00H, '0', 00H, '4'
	DB	00H, '6', 00H, ')', 00H, 00H, 00H
	ORG $+6
$SG169646 DB	'%s too small', 00H
	ORG $+3
$SG169647 DB	'mg_start2', 00H
	ORG $+6
$SG79535 DB	'W', 00H, 'M', 00H, '_', 00H, 'W', 00H, 'I', 00H, 'N', 00H
	DB	'D', 00H, 'O', 00H, 'W', 00H, 'P', 00H, 'O', 00H, 'S', 00H, 'C'
	DB	00H, 'H', 00H, 'A', 00H, 'N', 00H, 'G', 00H, 'E', 00H, 'D', 00H
	DB	'(', 00H, '0', 00H, 'x', 00H, '0', 00H, '0', 00H, '4', 00H, '7'
	DB	00H, ')', 00H, 00H, 00H
$SG169649 DB	'Invalid configuration option value: %s', 00H
	ORG $+1
$SG79537 DB	'W', 00H, 'M', 00H, '_', 00H, 'P', 00H, 'O', 00H, 'W', 00H
	DB	'E', 00H, 'R', 00H, '(', 00H, '0', 00H, 'x', 00H, '0', 00H, '0'
	DB	00H, '4', 00H, '8', 00H, ')', 00H, 00H, 00H
	ORG $+6
$SG169651 DB	'Out of memory: Cannot allocate %s', 00H
	ORG $+6
$SG79539 DB	'W', 00H, 'M', 00H, '_', 00H, 'C', 00H, 'O', 00H, 'P', 00H
	DB	'Y', 00H, 'D', 00H, 'A', 00H, 'T', 00H, 'A', 00H, '(', 00H, '0'
	DB	00H, 'x', 00H, '0', 00H, '0', 00H, '4', 00H, 'A', 00H, ')', 00H
	DB	00H, 00H
$SG169652 DB	'mg_start2', 00H
	ORG $+6
$SG79541 DB	'W', 00H, 'M', 00H, '_', 00H, 'C', 00H, 'A', 00H, 'N', 00H
	DB	'C', 00H, 'E', 00H, 'L', 00H, 'J', 00H, 'O', 00H, 'U', 00H, 'R'
	DB	00H, 'N', 00H, 'A', 00H, 'L', 00H, '(', 00H, '0', 00H, 'x', 00H
	DB	'0', 00H, '0', 00H, '4', 00H, 'B', 00H, ')', 00H, 00H, 00H
	ORG $+6
$SG169654 DB	'Out of memory: Cannot allocate %s', 00H
	ORG $+6
$SG79543 DB	'W', 00H, 'M', 00H, '_', 00H, 'N', 00H, 'O', 00H, 'T', 00H
	DB	'I', 00H, 'F', 00H, 'Y', 00H, '(', 00H, '0', 00H, 'x', 00H, '0'
	DB	00H, '0', 00H, '4', 00H, 'E', 00H, ')', 00H, 00H, 00H
$SG169960 DB	'null', 00H
	ORG $+7
$SG79545 DB	'W', 00H, 'M', 00H, '_', 00H, 'I', 00H, 'N', 00H, 'P', 00H
	DB	'U', 00H, 'T', 00H, 'L', 00H, 'A', 00H, 'N', 00H, 'G', 00H, 'C'
	DB	00H, 'H', 00H, 'A', 00H, 'N', 00H, 'G', 00H, 'E', 00H, 'R', 00H
	DB	'E', 00H, 'Q', 00H, 'U', 00H, 'E', 00H, 'S', 00H, 'T', 00H, '('
	DB	00H, '0', 00H, 'x', 00H, '0', 00H, '0', 00H, '5', 00H, '0', 00H
	DB	')', 00H, 00H, 00H
	ORG $+4
$SG169659 DB	'Invalid number of worker threads', 00H
	ORG $+7
$SG79547 DB	'W', 00H, 'M', 00H, '_', 00H, 'I', 00H, 'N', 00H, 'P', 00H
	DB	'U', 00H, 'T', 00H, 'L', 00H, 'A', 00H, 'N', 00H, 'G', 00H, 'C'
	DB	00H, 'H', 00H, 'A', 00H, 'N', 00H, 'G', 00H, 'E', 00H, '(', 00H
	DB	'0', 00H, 'x', 00H, '0', 00H, '0', 00H, '5', 00H, '1', 00H, ')'
	DB	00H, 00H, 00H
	ORG $+2
$SG169661 DB	'mg_start2', 00H
	ORG $+6
$SG79549 DB	'W', 00H, 'M', 00H, '_', 00H, 'T', 00H, 'C', 00H, 'A', 00H
	DB	'R', 00H, 'D', 00H, '(', 00H, '0', 00H, 'x', 00H, '0', 00H, '0'
	DB	00H, '5', 00H, '2', 00H, ')', 00H, 00H, 00H
	ORG $+6
$SG169662 DB	'Too many worker threads', 00H
$SG161471 DB	'civetweb-%s', 00H
	ORG $+4
$SG79551 DB	'W', 00H, 'M', 00H, '_', 00H, 'H', 00H, 'E', 00H, 'L', 00H
	DB	'P', 00H, '(', 00H, '0', 00H, 'x', 00H, '0', 00H, '0', 00H, '5'
	DB	00H, '3', 00H, ')', 00H, 00H, 00H
$SG169664 DB	'mg_start2', 00H
	ORG $+6
$SG79553 DB	'W', 00H, 'M', 00H, '_', 00H, 'U', 00H, 'S', 00H, 'E', 00H
	DB	'R', 00H, 'C', 00H, 'H', 00H, 'A', 00H, 'N', 00H, 'G', 00H, 'E'
	DB	00H, 'D', 00H, '(', 00H, '0', 00H, 'x', 00H, '0', 00H, '0', 00H
	DB	'5', 00H, '4', 00H, ')', 00H, 00H, 00H
	ORG $+2
$SG169666 DB	'Invalid configuration option value: %s', 00H
	ORG $+1
$SG79555 DB	'W', 00H, 'M', 00H, '_', 00H, 'N', 00H, 'O', 00H, 'T', 00H
	DB	'I', 00H, 'F', 00H, 'Y', 00H, 'F', 00H, 'O', 00H, 'R', 00H, 'M'
	DB	00H, 'A', 00H, 'T', 00H, '(', 00H, '0', 00H, 'x', 00H, '0', 00H
	DB	'0', 00H, '5', 00H, '5', 00H, ')', 00H, 00H, 00H
$SG169668 DB	'Invalid global password file', 00H
	ORG $+3
$SG79557 DB	'W', 00H, 'M', 00H, '_', 00H, 'C', 00H, 'O', 00H, 'N', 00H
	DB	'T', 00H, 'E', 00H, 'X', 00H, 'T', 00H, 'M', 00H, 'E', 00H, 'N'
	DB	00H, 'U', 00H, '(', 00H, '0', 00H, 'x', 00H, '0', 00H, '0', 00H
	DB	'7', 00H, 'B', 00H, ')', 00H, 00H, 00H
	ORG $+2
$SG169670 DB	'mg_start2', 00H
	ORG $+6
$SG79559 DB	'W', 00H, 'M', 00H, '_', 00H, 'S', 00H, 'T', 00H, 'Y', 00H
	DB	'L', 00H, 'E', 00H, 'C', 00H, 'H', 00H, 'A', 00H, 'N', 00H, 'G'
	DB	00H, 'I', 00H, 'N', 00H, 'G', 00H, '(', 00H, '0', 00H, 'x', 00H
	DB	'0', 00H, '0', 00H, '7', 00H, 'C', 00H, ')', 00H, 00H, 00H
	ORG $+6
$SG79561 DB	'W', 00H, 'M', 00H, '_', 00H, 'S', 00H, 'T', 00H, 'Y', 00H
	DB	'L', 00H, 'E', 00H, 'C', 00H, 'H', 00H, 'A', 00H, 'N', 00H, 'G'
	DB	00H, 'E', 00H, 'D', 00H, '(', 00H, '0', 00H, 'x', 00H, '0', 00H
	DB	'0', 00H, '7', 00H, 'D', 00H, ')', 00H, 00H, 00H
$SG169674 DB	'Error initializing SSL context', 00H
	ORG $+1
$SG79563 DB	'W', 00H, 'M', 00H, '_', 00H, 'D', 00H, 'I', 00H, 'S', 00H
	DB	'P', 00H, 'L', 00H, 'A', 00H, 'Y', 00H, 'C', 00H, 'H', 00H, 'A'
	DB	00H, 'N', 00H, 'G', 00H, 'E', 00H, '(', 00H, '0', 00H, 'x', 00H
	DB	'0', 00H, '0', 00H, '7', 00H, 'E', 00H, ')', 00H, 00H, 00H
	ORG $+6
$SG169676 DB	'mg_start2', 00H
	ORG $+6
$SG79565 DB	'W', 00H, 'M', 00H, '_', 00H, 'G', 00H, 'E', 00H, 'T', 00H
	DB	'I', 00H, 'C', 00H, 'O', 00H, 'N', 00H, '(', 00H, '0', 00H, 'x'
	DB	00H, '0', 00H, '0', 00H, '7', 00H, 'F', 00H, ')', 00H, 00H, 00H
	ORG $+2
$SG79567 DB	'W', 00H, 'M', 00H, '_', 00H, 'S', 00H, 'E', 00H, 'T', 00H
	DB	'I', 00H, 'C', 00H, 'O', 00H, 'N', 00H, '(', 00H, '0', 00H, 'x'
	DB	00H, '0', 00H, '0', 00H, '8', 00H, '0', 00H, ')', 00H, 00H, 00H
	ORG $+2
$SG169680 DB	'Failed to setup server ports', 00H
	ORG $+3
$SG79569 DB	'W', 00H, 'M', 00H, '_', 00H, 'N', 00H, 'C', 00H, 'C', 00H
	DB	'R', 00H, 'E', 00H, 'A', 00H, 'T', 00H, 'E', 00H, '(', 00H, '0'
	DB	00H, 'x', 00H, '0', 00H, '0', 00H, '8', 00H, '1', 00H, ')', 00H
	DB	00H, 00H
$SG169682 DB	'mg_start2', 00H
	ORG $+6
$SG79571 DB	'W', 00H, 'M', 00H, '_', 00H, 'N', 00H, 'C', 00H, 'D', 00H
	DB	'E', 00H, 'S', 00H, 'T', 00H, 'R', 00H, 'O', 00H, 'Y', 00H, '('
	DB	00H, '0', 00H, 'x', 00H, '0', 00H, '0', 00H, '8', 00H, '2', 00H
	DB	')', 00H, 00H, 00H
	ORG $+6
$SG79573 DB	'W', 00H, 'M', 00H, '_', 00H, 'N', 00H, 'C', 00H, 'C', 00H
	DB	'A', 00H, 'L', 00H, 'C', 00H, 'S', 00H, 'I', 00H, 'Z', 00H, 'E'
	DB	00H, '(', 00H, '0', 00H, 'x', 00H, '0', 00H, '0', 00H, '8', 00H
	DB	'3', 00H, ')', 00H, 00H, 00H
	ORG $+4
$SG169686 DB	'Failed to setup access control list', 00H
	ORG $+4
$SG79575 DB	'W', 00H, 'M', 00H, '_', 00H, 'N', 00H, 'C', 00H, 'H', 00H
	DB	'I', 00H, 'T', 00H, 'T', 00H, 'E', 00H, 'S', 00H, 'T', 00H, '('
	DB	00H, '0', 00H, 'x', 00H, '0', 00H, '0', 00H, '8', 00H, '4', 00H
	DB	')', 00H, 00H, 00H
	ORG $+6
$SG169688 DB	'mg_start2', 00H
	ORG $+6
$SG79577 DB	'W', 00H, 'M', 00H, '_', 00H, 'N', 00H, 'C', 00H, 'P', 00H
	DB	'A', 00H, 'I', 00H, 'N', 00H, 'T', 00H, '(', 00H, '0', 00H, 'x'
	DB	00H, '0', 00H, '0', 00H, '8', 00H, '5', 00H, ')', 00H, 00H, 00H
	ORG $+2
$SG79579 DB	'W', 00H, 'M', 00H, '_', 00H, 'N', 00H, 'C', 00H, 'A', 00H
	DB	'C', 00H, 'T', 00H, 'I', 00H, 'V', 00H, 'A', 00H, 'T', 00H, 'E'
	DB	00H, '(', 00H, '0', 00H, 'x', 00H, '0', 00H, '0', 00H, '8', 00H
	DB	'6', 00H, ')', 00H, 00H, 00H
	ORG $+4
$SG169692 DB	'Not enough memory for worker thread ID array', 00H
	ORG $+3
$SG79581 DB	'W', 00H, 'M', 00H, '_', 00H, 'G', 00H, 'E', 00H, 'T', 00H
	DB	'D', 00H, 'L', 00H, 'G', 00H, 'C', 00H, 'O', 00H, 'D', 00H, 'E'
	DB	00H, '(', 00H, '0', 00H, 'x', 00H, '0', 00H, '0', 00H, '8', 00H
	DB	'7', 00H, ')', 00H, 00H, 00H
	ORG $+4
$SG169694 DB	'mg_start2', 00H
	ORG $+6
$SG79583 DB	'W', 00H, 'M', 00H, '_', 00H, 'S', 00H, 'Y', 00H, 'N', 00H
