; Listing generated by Microsoft (R) Optimizing Compiler Version 19.32.31329.0 

include listing.inc

INCLUDELIB MSVCRTD
INCLUDELIB OLDNAMES

PUBLIC	stbi_write_tga_with_rle
PUBLIC	stbi_write_png_compression_level
PUBLIC	stbi_write_force_png_filter
_DATA	SEGMENT
stbi_write_tga_with_rle DD 01H
stbi_write_png_compression_level DD 08H
stbi_write_force_png_filter DD 0ffffffffH
_DATA	ENDS
CONST	SEGMENT
$SG90114 DB	'bad bits_per_channel', 00H
$SG8309	DB	00H
$SG91169 DB	00H
	ORG $+1
$SG155691 DB	'N', 00H, 'O', 00H, '_', 00H, 'M', 00H, 'E', 00H, 'S', 00H
	DB	'S', 00H, 'A', 00H, 'G', 00H, 'E', 00H, 00H, 00H
	ORG $+2
$SG155692 DB	'TemporaryPushCounterUntilAStackIsAdded ++ < 1', 00H
	ORG $+2
$SG155693 DB	'ZenCorePushCurrentDir', 00H
	ORG $+2
$SG155694 DB	'W:\cpp\void\detroit\brazen-core.h', 00H
	ORG $+2
$SG8323	DB	00H, 00H
	ORG $+2
$SG155695 DB	'S', 00H, 'e', 00H, 't', 00H, 'C', 00H, 'u', 00H, 'r', 00H
	DB	'r', 00H, 'e', 00H, 'n', 00H, 't', 00H, 'D', 00H, 'i', 00H, 'r'
	DB	00H, 'e', 00H, 'c', 00H, 't', 00H, 'o', 00H, 'r', 00H, 'y', 00H
	DB	'A', 00H, '(', 00H, '%', 00H, 's', 00H, ')', 00H, 00H, 00H
	ORG $+2
$SG82573 DB	'0', 00H, 00H, 00H
$SG155696 DB	'ZenCorePushCurrentDir', 00H
	ORG $+2
$SG155697 DB	'W:\cpp\void\detroit\brazen-core.h', 00H
	ORG $+2
$SG82850 DB	'0', 00H, 00H, 00H
$SG155703 DB	'N', 00H, 'O', 00H, '_', 00H, 'M', 00H, 'E', 00H, 'S', 00H
	DB	'S', 00H, 'A', 00H, 'G', 00H, 'E', 00H, 00H, 00H
	ORG $+2
$SG155704 DB	'TemporaryPushCounterUntilAStackIsAdded -- > 0', 00H
	ORG $+2
$SG155705 DB	'ZenCorePullCurrentDir', 00H
	ORG $+2
$SG155706 DB	'W:\cpp\void\detroit\brazen-core.h', 00H
	ORG $+2
$SG82868 DB	'0', 00H, 00H, 00H
$SG155707 DB	'S', 00H, 'e', 00H, 't', 00H, 'C', 00H, 'u', 00H, 'r', 00H
	DB	'r', 00H, 'e', 00H, 'n', 00H, 't', 00H, 'D', 00H, 'i', 00H, 'r'
	DB	00H, 'e', 00H, 'c', 00H, 't', 00H, 'o', 00H, 'r', 00H, 'y', 00H
	DB	'A', 00H, '(', 00H, '%', 00H, 's', 00H, ')', 00H, 00H, 00H
	ORG $+2
$SG83083 DB	'0', 00H, 00H, 00H
$SG155708 DB	'ZenCorePullCurrentDir', 00H
	ORG $+2
$SG155709 DB	'W:\cpp\void\detroit\brazen-core.h', 00H
	ORG $+6
$SG90198 DB	'v', 00H, ' ', 00H, '<', 00H, ' ', 00H, '2', 00H, '5', 00H
	DB	'6', 00H, 00H, 00H
$SG90265 DB	'not BMP', 00H
$SG90197 DB	'W', 00H, ':', 00H, '\', 00H, 'c', 00H, 'p', 00H, 'p', 00H
	DB	'\', 00H, 'v', 00H, 'o', 00H, 'i', 00H, 'd', 00H, '\', 00H, 'v'
	DB	00H, 'e', 00H, 'n', 00H, 'd', 00H, 'o', 00H, 'r', 00H, '\', 00H
	DB	's', 00H, 't', 00H, 'b', 00H, '\', 00H, 's', 00H, 't', 00H, 'b'
	DB	00H, '_', 00H, 'i', 00H, 'm', 00H, 'a', 00H, 'g', 00H, 'e', 00H
	DB	'.', 00H, 'h', 00H, 00H, 00H
	ORG $+2
$SG90267 DB	'bad BMP', 00H
$SG90199 DB	'W', 00H, ':', 00H, '\', 00H, 'c', 00H, 'p', 00H, 'p', 00H
	DB	'\', 00H, 'v', 00H, 'o', 00H, 'i', 00H, 'd', 00H, '\', 00H, 'v'
	DB	00H, 'e', 00H, 'n', 00H, 'd', 00H, 'o', 00H, 'r', 00H, '\', 00H
	DB	's', 00H, 't', 00H, 'b', 00H, '\', 00H, 's', 00H, 't', 00H, 'b'
	DB	00H, '_', 00H, 'i', 00H, 'm', 00H, 'a', 00H, 'g', 00H, 'e', 00H
	DB	'.', 00H, 'h', 00H, 00H, 00H
	ORG $+2
$SG90200 DB	'b', 00H, 'i', 00H, 't', 00H, 's', 00H, ' ', 00H, '>', 00H
	DB	'=', 00H, ' ', 00H, '0', 00H, ' ', 00H, '&', 00H, '&', 00H, ' '
	DB	00H, 'b', 00H, 'i', 00H, 't', 00H, 's', 00H, ' ', 00H, '<', 00H
	DB	'=', 00H, ' ', 00H, '8', 00H, 00H, 00H
	ORG $+2
$SG90269 DB	'unknown BMP', 00H
$SG157036 DB	'..', 00H
	ORG $+1
$SG90273 DB	'bad BMP', 00H
$SG90277 DB	'BMP RLE', 00H
$SG90279 DB	'BMP JPEG/PNG', 00H
	ORG $+3
$SG90281 DB	'bad BMP', 00H
$SG90293 DB	'bad BMP', 00H
$SG90294 DB	'bad BMP', 00H
$SG90296 DB	'bad BMP', 00H
$SG90418 DB	'too large', 00H
	ORG $+2
$SG157031 DB	'assets', 00H
	ORG $+1
$SG91594 DB	'-Y ', 00H
$SG90420 DB	'too large', 00H
	ORG $+2
$SG91586 DB	'#?RGBE', 00H
	ORG $+1
$SG91597 DB	'+X ', 00H
$SG90427 DB	'bad offset', 00H
	ORG $+1
$SG91652 DB	'-Y ', 00H
$SG90433 DB	'too large', 00H
	ORG $+2
$SG9732	DB	'%f', 00H
	ORG $+1
$SG90435 DB	'outofmem', 00H
	ORG $+3
$SG91654 DB	'+X ', 00H
$SG90440 DB	'invalid', 00H
$SG90448 DB	'bad bpp', 00H
$SG90469 DB	'bad masks', 00H
	ORG $+2
$SG9736	DB	'%s', 00H
	ORG $+1
$SG90472 DB	'bad masks', 00H
	ORG $+2
$SG91854 DB	'rb', 00H
	ORG $+1
$SG90660 DB	'too large', 00H
	ORG $+2
$SG91871 DB	'rb', 00H
	ORG $+1
$SG90662 DB	'too large', 00H
	ORG $+2
$SG92034 DB	'wb', 00H
	ORG $+1
$SG90667 DB	'bad format', 00H
	ORG $+1
$SG92100 DB	'0', 00H, 00H, 00H
$SG90670 DB	'too large', 00H
	ORG $+2
$SG157775 DB	'.', 00H
	ORG $+2
$SG90672 DB	'outofmem', 00H
	ORG $+3
$SG157252 DB	'ASCII', 00H
	ORG $+2
$SG157776 DB	'assets', 00H
	ORG $+1
$SG92476 DB	'p', 00H, 00H, 00H
$SG90677 DB	'bad palette', 00H
$SG92930 DB	'wb', 00H
	ORG $+1
$SG90679 DB	'outofmem', 00H
	ORG $+7
$SG90683 DB	't', 00H, 'g', 00H, 'a', 00H, '_', 00H, 'c', 00H, 'o', 00H
	DB	'm', 00H, 'p', 00H, ' ', 00H, '=', 00H, '=', 00H, ' ', 00H, 'S'
	DB	00H, 'T', 00H, 'B', 00H, 'I', 00H, '_', 00H, 'r', 00H, 'g', 00H
	DB	'b', 00H, 00H, 00H
	ORG $+6
$SG90685 DB	'bad palette', 00H
$SG82653 DB	'typ1', 00H
	ORG $+7
$SG90682 DB	'W', 00H, ':', 00H, '\', 00H, 'c', 00H, 'p', 00H, 'p', 00H
	DB	'\', 00H, 'v', 00H, 'o', 00H, 'i', 00H, 'd', 00H, '\', 00H, 'v'
	DB	00H, 'e', 00H, 'n', 00H, 'd', 00H, 'o', 00H, 'r', 00H, '\', 00H
	DB	's', 00H, 't', 00H, 'b', 00H, '\', 00H, 's', 00H, 't', 00H, 'b'
	DB	00H, '_', 00H, 'i', 00H, 'm', 00H, 'a', 00H, 'g', 00H, 'e', 00H
	DB	'.', 00H, 'h', 00H, 00H, 00H
	ORG $+2
$SG82507 DB	'!', 00H, '(', 00H, 'o', 00H, ' ', 00H, '>', 00H, ' ', 00H
	DB	'b', 00H, '-', 00H, '>', 00H, 's', 00H, 'i', 00H, 'z', 00H, 'e'
	DB	00H, ' ', 00H, '|', 00H, '|', 00H, ' ', 00H, 'o', 00H, ' ', 00H
	DB	'<', 00H, ' ', 00H, '0', 00H, ')', 00H, 00H, 00H
$SG82524 DB	'n', 00H, ' ', 00H, '>', 00H, '=', 00H, ' ', 00H, '1', 00H
	DB	' ', 00H, '&', 00H, '&', 00H, ' ', 00H, 'n', 00H, ' ', 00H, '<'
	DB	00H, '=', 00H, ' ', 00H, '4', 00H, 00H, 00H
	ORG $+6
$SG90697 DB	'W', 00H, ':', 00H, '\', 00H, 'c', 00H, 'p', 00H, 'p', 00H
	DB	'\', 00H, 'v', 00H, 'o', 00H, 'i', 00H, 'd', 00H, '\', 00H, 'v'
	DB	00H, 'e', 00H, 'n', 00H, 'd', 00H, 'o', 00H, 'r', 00H, '\', 00H
	DB	's', 00H, 't', 00H, 'b', 00H, '\', 00H, 's', 00H, 't', 00H, 'b'
	DB	00H, '_', 00H, 'i', 00H, 'm', 00H, 'a', 00H, 'g', 00H, 'e', 00H
	DB	'.', 00H, 'h', 00H, 00H, 00H
	ORG $+2
$SG90698 DB	't', 00H, 'g', 00H, 'a', 00H, '_', 00H, 'c', 00H, 'o', 00H
	DB	'm', 00H, 'p', 00H, ' ', 00H, '=', 00H, '=', 00H, ' ', 00H, 'S'
	DB	00H, 'T', 00H, 'B', 00H, 'I', 00H, '_', 00H, 'r', 00H, 'g', 00H
	DB	'b', 00H, 00H, 00H
	ORG $+6
$SG82535 DB	's', 00H, 'i', 00H, 'z', 00H, 'e', 00H, ' ', 00H, '<', 00H
	DB	' ', 00H, '0', 00H, 'x', 00H, '4', 00H, '0', 00H, '0', 00H, '0'
	DB	00H, '0', 00H, '0', 00H, '0', 00H, '0', 00H, 00H, 00H
	ORG $+4
$SG82506 DB	'W', 00H, ':', 00H, '\', 00H, 'c', 00H, 'p', 00H, 'p', 00H
	DB	'\', 00H, 'v', 00H, 'o', 00H, 'i', 00H, 'd', 00H, '\', 00H, 'v'
	DB	00H, 'e', 00H, 'n', 00H, 'd', 00H, 'o', 00H, 'r', 00H, '\', 00H
	DB	's', 00H, 't', 00H, 'b', 00H, '\', 00H, 's', 00H, 't', 00H, 'b'
	DB	00H, '_', 00H, 't', 00H, 'r', 00H, 'u', 00H, 'e', 00H, 't', 00H
	DB	'y', 00H, 'p', 00H, 'e', 00H, '.', 00H, 'h', 00H, 00H, 00H
	ORG $+4
$SG82523 DB	'W', 00H, ':', 00H, '\', 00H, 'c', 00H, 'p', 00H, 'p', 00H
	DB	'\', 00H, 'v', 00H, 'o', 00H, 'i', 00H, 'd', 00H, '\', 00H, 'v'
	DB	00H, 'e', 00H, 'n', 00H, 'd', 00H, 'o', 00H, 'r', 00H, '\', 00H
	DB	's', 00H, 't', 00H, 'b', 00H, '\', 00H, 's', 00H, 't', 00H, 'b'
	DB	00H, '_', 00H, 't', 00H, 'r', 00H, 'u', 00H, 'e', 00H, 't', 00H
	DB	'y', 00H, 'p', 00H, 'e', 00H, '.', 00H, 'h', 00H, 00H, 00H
	ORG $+4
$SG82534 DB	'W', 00H, ':', 00H, '\', 00H, 'c', 00H, 'p', 00H, 'p', 00H
	DB	'\', 00H, 'v', 00H, 'o', 00H, 'i', 00H, 'd', 00H, '\', 00H, 'v'
	DB	00H, 'e', 00H, 'n', 00H, 'd', 00H, 'o', 00H, 'r', 00H, '\', 00H
	DB	's', 00H, 't', 00H, 'b', 00H, '\', 00H, 's', 00H, 't', 00H, 'b'
	DB	00H, '_', 00H, 't', 00H, 'r', 00H, 'u', 00H, 'e', 00H, 't', 00H
	DB	'y', 00H, 'p', 00H, 'e', 00H, '.', 00H, 'h', 00H, 00H, 00H
	ORG $+4
$SG82555 DB	'W', 00H, ':', 00H, '\', 00H, 'c', 00H, 'p', 00H, 'p', 00H
	DB	'\', 00H, 'v', 00H, 'o', 00H, 'i', 00H, 'd', 00H, '\', 00H, 'v'
	DB	00H, 'e', 00H, 'n', 00H, 'd', 00H, 'o', 00H, 'r', 00H, '\', 00H
	DB	's', 00H, 't', 00H, 'b', 00H, '\', 00H, 's', 00H, 't', 00H, 'b'
	DB	00H, '_', 00H, 't', 00H, 'r', 00H, 'u', 00H, 'e', 00H, 't', 00H
	DB	'y', 00H, 'p', 00H, 'e', 00H, '.', 00H, 'h', 00H, 00H, 00H
$SG86203 DB	'rb', 00H
	ORG $+1
$SG82556 DB	'o', 00H, 'f', 00H, 'f', 00H, 's', 00H, 'i', 00H, 'z', 00H
	DB	'e', 00H, ' ', 00H, '>', 00H, '=', 00H, ' ', 00H, '1', 00H, ' '
	DB	00H, '&', 00H, '&', 00H, ' ', 00H, 'o', 00H, 'f', 00H, 'f', 00H
	DB	's', 00H, 'i', 00H, 'z', 00H, 'e', 00H, ' ', 00H, '<', 00H, '='
	DB	00H, ' ', 00H, '4', 00H, 00H, 00H
	ORG $+6
$SG82572 DB	'W', 00H, ':', 00H, '\', 00H, 'c', 00H, 'p', 00H, 'p', 00H
	DB	'\', 00H, 'v', 00H, 'o', 00H, 'i', 00H, 'd', 00H, '\', 00H, 'v'
	DB	00H, 'e', 00H, 'n', 00H, 'd', 00H, 'o', 00H, 'r', 00H, '\', 00H
	DB	's', 00H, 't', 00H, 'b', 00H, '\', 00H, 's', 00H, 't', 00H, 'b'
	DB	00H, '_', 00H, 't', 00H, 'r', 00H, 'u', 00H, 'e', 00H, 't', 00H
	DB	'y', 00H, 'p', 00H, 'e', 00H, '.', 00H, 'h', 00H, 00H, 00H
	ORG $+4
$SG82583 DB	'W', 00H, ':', 00H, '\', 00H, 'c', 00H, 'p', 00H, 'p', 00H
	DB	'\', 00H, 'v', 00H, 'o', 00H, 'i', 00H, 'd', 00H, '\', 00H, 'v'
	DB	00H, 'e', 00H, 'n', 00H, 'd', 00H, 'o', 00H, 'r', 00H, '\', 00H
	DB	's', 00H, 't', 00H, 'b', 00H, '\', 00H, 's', 00H, 't', 00H, 'b'
	DB	00H, '_', 00H, 't', 00H, 'r', 00H, 'u', 00H, 'e', 00H, 't', 00H
	DB	'y', 00H, 'p', 00H, 'e', 00H, '.', 00H, 'h', 00H, 00H, 00H
$SG86240 DB	'rb', 00H
	ORG $+1
$SG82584 DB	'b', 00H, '0', 00H, ' ', 00H, '>', 00H, '=', 00H, ' ', 00H
	DB	'2', 00H, '8', 00H, 00H, 00H
	ORG $+6
$SG82633 DB	'i', 00H, ' ', 00H, '>', 00H, '=', 00H, ' ', 00H, '0', 00H
	DB	' ', 00H, '&', 00H, '&', 00H, ' ', 00H, 'i', 00H, ' ', 00H, '<'
	DB	00H, ' ', 00H, 'c', 00H, 'o', 00H, 'u', 00H, 'n', 00H, 't', 00H
	DB	00H, 00H
$SG82632 DB	'W', 00H, ':', 00H, '\', 00H, 'c', 00H, 'p', 00H, 'p', 00H
	DB	'\', 00H, 'v', 00H, 'o', 00H, 'i', 00H, 'd', 00H, '\', 00H, 'v'
	DB	00H, 'e', 00H, 'n', 00H, 'd', 00H, 'o', 00H, 'r', 00H, '\', 00H
	DB	's', 00H, 't', 00H, 'b', 00H, '\', 00H, 's', 00H, 't', 00H, 'b'
	DB	00H, '_', 00H, 't', 00H, 'r', 00H, 'u', 00H, 'e', 00H, 't', 00H
	DB	'y', 00H, 'p', 00H, 'e', 00H, '.', 00H, 'h', 00H, 00H, 00H
	ORG $+4
$SG82634 DB	'W', 00H, ':', 00H, '\', 00H, 'c', 00H, 'p', 00H, 'p', 00H
	DB	'\', 00H, 'v', 00H, 'o', 00H, 'i', 00H, 'd', 00H, '\', 00H, 'v'
	DB	00H, 'e', 00H, 'n', 00H, 'd', 00H, 'o', 00H, 'r', 00H, '\', 00H
	DB	's', 00H, 't', 00H, 'b', 00H, '\', 00H, 's', 00H, 't', 00H, 'b'
	DB	00H, '_', 00H, 't', 00H, 'r', 00H, 'u', 00H, 'e', 00H, 't', 00H
	DB	'y', 00H, 'p', 00H, 'e', 00H, '.', 00H, 'h', 00H, 00H, 00H
$SG86341 DB	'rb', 00H
	ORG $+1
$SG82635 DB	'o', 00H, 'f', 00H, 'f', 00H, 's', 00H, 'i', 00H, 'z', 00H
	DB	'e', 00H, ' ', 00H, '>', 00H, '=', 00H, ' ', 00H, '1', 00H, ' '
	DB	00H, '&', 00H, '&', 00H, ' ', 00H, 'o', 00H, 'f', 00H, 'f', 00H
	DB	's', 00H, 'i', 00H, 'z', 00H, 'e', 00H, ' ', 00H, '<', 00H, '='
	DB	00H, ' ', 00H, '4', 00H, 00H, 00H
	ORG $+2
$SG158727 DB	'Canvas', 00H
	ORG $+1
$SG86362 DB	'rb', 00H
	ORG $+1
$SG90831 DB	'not PSD', 00H
$SG90833 DB	'wrong version', 00H
	ORG $+2
$SG90836 DB	'wrong channel count', 00H
$SG86544 DB	'0', 00H, 00H, 00H
$SG90838 DB	'too large', 00H
	ORG $+2
$SG86636 DB	'0', 00H, 00H, 00H
$SG90840 DB	'too large', 00H
	ORG $+2
$SG95553 DB	'%f', 00H
	ORG $+1
$SG90842 DB	'unsupported bit depth', 00H
	ORG $+2
$SG90844 DB	'wrong color format', 00H
	ORG $+1
$SG79214 DB	'C:', 00H
	ORG $+1
$SG90846 DB	'bad compression', 00H
$SG82654 DB	'typ1', 00H
	ORG $+3
$SG82655 DB	'typ1', 00H
	ORG $+3
$SG90848 DB	'too large', 00H
	ORG $+2
$SG82656 DB	'typ1', 00H
	ORG $+3
$SG82658 DB	'OTTO', 00H
	ORG $+3
$SG82659 DB	'OTTO', 00H
	ORG $+3
$SG158619 DB	'START', 00H
	ORG $+2
$SG79240 DB	'*', 00H
	ORG $+2
$SG90852 DB	'outofmem', 00H
	ORG $+3
$SG82660 DB	'OTTO', 00H
	ORG $+3
$SG82661 DB	'OTTO', 00H
	ORG $+3
$SG82664 DB	'true', 00H
	ORG $+3
$SG82665 DB	'true', 00H
	ORG $+3
$SG93393 DB	'error', 00H
	ORG $+2
$SG79489 DB	'DEVICE', 00H
	ORG $+1
$SG79524 DB	'%s,', 00H
$SG90858 DB	'corrupt', 00H
$SG82666 DB	'true', 00H
	ORG $+3
$SG82667 DB	'true', 00H
	ORG $+3
$SG82688 DB	'ttcf', 00H
	ORG $+3
$SG82689 DB	'ttcf', 00H
	ORG $+3
$SG82690 DB	'ttcf', 00H
	ORG $+3
$SG82691 DB	'ttcf', 00H
	ORG $+3
$SG82700 DB	'ttcf', 00H
	ORG $+3
$SG82701 DB	'ttcf', 00H
	ORG $+3
$SG82702 DB	'ttcf', 00H
	ORG $+3
$SG90895 DB	'S', 080H, 0f6H, '4', 00H
	ORG $+3
$SG82703 DB	'ttcf', 00H
	ORG $+3
$SG90897 DB	'PICT', 00H
	ORG $+3
$SG82726 DB	'SVG ', 00H
	ORG $+3
$SG90927 DB	'bad file', 00H
	ORG $+3
$SG82770 DB	'cmap', 00H
	ORG $+3
$SG82771 DB	'loca', 00H
	ORG $+3
$SG82772 DB	'head', 00H
	ORG $+3
$SG82773 DB	'glyf', 00H
	ORG $+3
$SG82774 DB	'hhea', 00H
	ORG $+3
$SG82775 DB	'hmtx', 00H
	ORG $+3
$SG82776 DB	'kern', 00H
	ORG $+3
$SG82777 DB	'GPOS', 00H
	ORG $+3
$SG82783 DB	'CFF ', 00H
	ORG $+3
$SG82789 DB	'maxp', 00H
	ORG $+3
$SG78608 DB	'%', 00H, 's', 00H, 00H, 00H
	ORG $+2
$SG79492 DB	'HIDDEN', 00H
	ORG $+1
$SG154802 DB	'1', 00H
	ORG $+2
$SG91009 DB	'bad format', 00H
	ORG $+5
$SG91011 DB	'bad file', 00H
	ORG $+7
$SG91013 DB	'bad format', 00H
	ORG $+5
$SG91015 DB	'bad format', 00H
	ORG $+5
$SG91020 DB	'bad file', 00H
	ORG $+7
$SG91025 DB	'bad file', 00H
	ORG $+7
$SG91031 DB	'bad file', 00H
	ORG $+7
$SG91034 DB	'bad file', 00H
	ORG $+7
$SG91066 DB	'too large', 00H
	ORG $+6
$SG82895 DB	'!', 00H, 'i', 00H, 'n', 00H, 'f', 00H, 'o', 00H, '-', 00H
	DB	'>', 00H, 'c', 00H, 'f', 00H, 'f', 00H, '.', 00H, 's', 00H, 'i'
	DB	00H, 'z', 00H, 'e', 00H, 00H, 00H
$SG91164 DB	'not GIF', 00H
$SG82849 DB	'W', 00H, ':', 00H, '\', 00H, 'c', 00H, 'p', 00H, 'p', 00H
	DB	'\', 00H, 'v', 00H, 'o', 00H, 'i', 00H, 'd', 00H, '\', 00H, 'v'
	DB	00H, 'e', 00H, 'n', 00H, 'd', 00H, 'o', 00H, 'r', 00H, '\', 00H
	DB	's', 00H, 't', 00H, 'b', 00H, '\', 00H, 's', 00H, 't', 00H, 'b'
	DB	00H, '_', 00H, 't', 00H, 'r', 00H, 'u', 00H, 'e', 00H, 't', 00H
	DB	'y', 00H, 'p', 00H, 'e', 00H, '.', 00H, 'h', 00H, 00H, 00H
	ORG $+4
$SG82867 DB	'W', 00H, ':', 00H, '\', 00H, 'c', 00H, 'p', 00H, 'p', 00H
	DB	'\', 00H, 'v', 00H, 'o', 00H, 'i', 00H, 'd', 00H, '\', 00H, 'v'
	DB	00H, 'e', 00H, 'n', 00H, 'd', 00H, 'o', 00H, 'r', 00H, '\', 00H
	DB	's', 00H, 't', 00H, 'b', 00H, '\', 00H, 's', 00H, 't', 00H, 'b'
	DB	00H, '_', 00H, 't', 00H, 'r', 00H, 'u', 00H, 'e', 00H, 't', 00H
	DB	'y', 00H, 'p', 00H, 'e', 00H, '.', 00H, 'h', 00H, 00H, 00H
	ORG $+4
$SG91068 DB	'too large', 00H
	ORG $+6
$SG91070 DB	'bad file', 00H
	ORG $+7
$SG91072 DB	'too large', 00H
	ORG $+6
$SG91074 DB	'outofmem', 00H
	ORG $+7
$SG82894 DB	'W', 00H, ':', 00H, '\', 00H, 'c', 00H, 'p', 00H, 'p', 00H
	DB	'\', 00H, 'v', 00H, 'o', 00H, 'i', 00H, 'd', 00H, '\', 00H, 'v'
	DB	00H, 'e', 00H, 'n', 00H, 'd', 00H, 'o', 00H, 'r', 00H, '\', 00H
	DB	's', 00H, 't', 00H, 'b', 00H, '\', 00H, 's', 00H, 't', 00H, 'b'
	DB	00H, '_', 00H, 't', 00H, 'r', 00H, 'u', 00H, 'e', 00H, 't', 00H
	DB	'y', 00H, 'p', 00H, 'e', 00H, '.', 00H, 'h', 00H, 00H, 00H
	ORG $+4
$SG91166 DB	'not GIF', 00H
$SG91168 DB	'not GIF', 00H
$SG91171 DB	'too large', 00H
	ORG $+6
$SG91173 DB	'too large', 00H
	ORG $+6
$SG91187 DB	'outofmem', 00H
	ORG $+7
$SG91254 DB	'no clear code', 00H
	ORG $+2
$SG91258 DB	'too many codes', 00H
	ORG $+1
$SG91260 DB	'illegal code in raster', 00H
	ORG $+1
$SG91262 DB	'illegal code in raster', 00H
	ORG $+1
$SG83082 DB	'W', 00H, ':', 00H, '\', 00H, 'c', 00H, 'p', 00H, 'p', 00H
	DB	'\', 00H, 'v', 00H, 'o', 00H, 'i', 00H, 'd', 00H, '\', 00H, 'v'
	DB	00H, 'e', 00H, 'n', 00H, 'd', 00H, 'o', 00H, 'r', 00H, '\', 00H
	DB	's', 00H, 't', 00H, 'b', 00H, '\', 00H, 's', 00H, 't', 00H, 'b'
	DB	00H, '_', 00H, 't', 00H, 'r', 00H, 'u', 00H, 'e', 00H, 't', 00H
	DB	'y', 00H, 'p', 00H, 'e', 00H, '.', 00H, 'h', 00H, 00H, 00H
	ORG $+4
$SG91319 DB	'too large', 00H
	ORG $+6
$SG91322 DB	'outofmem', 00H
	ORG $+7
$SG91333 DB	'bad Image Descriptor', 00H
	ORG $+3
$SG91341 DB	'missing color table', 00H
	ORG $+4
$SG91355 DB	'unknown code', 00H
	ORG $+3
$SG91365 DB	'outofmem', 00H
	ORG $+7
$SG91419 DB	'not GIF', 00H
$SG91456 DB	'#?RADIANCE', 0aH, 00H
	ORG $+4
$SG91458 DB	'#?RGBE', 0aH, 00H
$SG9542	DB	'N', 00H, 'O', 00H, '_', 00H, 'M', 00H, 'E', 00H, 'S', 00H
	DB	'S', 00H, 'A', 00H, 'G', 00H, 'E', 00H, 00H, 00H
	ORG $+2
$SG9543	DB	'V <= ((unsigned __int64)(0x000000000000000F))', 00H
	ORG $+2
$SG9544	DB	'safe_cast_u4', 00H
	ORG $+3
$SG9545	DB	'W:\cpp\void\dr/pack.h', 00H
	ORG $+2
$SG9551	DB	'N', 00H, 'O', 00H, '_', 00H, 'M', 00H, 'E', 00H, 'S', 00H
	DB	'S', 00H, 'A', 00H, 'G', 00H, 'E', 00H, 00H, 00H
	ORG $+2
$SG9552	DB	'V <= 0xffui8', 00H
	ORG $+3
$SG9553	DB	'safe_cast_u8', 00H
	ORG $+3
$SG157010 DB	'm', 00H, 'o', 00H, 'd', 00H, 'e', 00H, 'l', 00H, ' ', 00H
	DB	'f', 00H, 'i', 00H, 'l', 00H, 'e', 00H, ' ', 00H, 'n', 00H, 'o'
	DB	00H, 't', 00H, ' ', 00H, 'f', 00H, 'o', 00H, 'u', 00H, 'n', 00H
	DB	'd', 00H, 00H, 00H
	ORG $+6
$SG9554	DB	'W:\cpp\void\dr/pack.h', 00H
	ORG $+2
$SG157011 DB	'LoadModel', 00H
	ORG $+6
$SG157012 DB	'W:\cpp\void\detroit\detroit-asset.c', 00H
	ORG $+4
$SG9560	DB	'N', 00H, 'O', 00H, '_', 00H, 'M', 00H, 'E', 00H, 'S', 00H
	DB	'S', 00H, 'A', 00H, 'G', 00H, 'E', 00H, 00H, 00H
	ORG $+2
$SG9561	DB	'V <= 0xffffui16', 00H
$SG9562	DB	'safe_cast_u16', 00H
	ORG $+2
$SG9563	DB	'W:\cpp\void\dr/pack.h', 00H
	ORG $+2
$SG157022 DB	'W:\cpp\void\detroit\detroit-asset.c', 00H
	ORG $+4
$SG157020 DB	'%', 00H, 's', 00H, '(', 00H, '%', 00H, 'i', 00H, ')', 00H
	DB	':', 00H, ' ', 00H, 'E', 00H, 'x', 00H, 'p', 00H, 'e', 00H, 'c'
	DB	00H, 't', 00H, 'e', 00H, 'd', 00H, ' ', 00H, 'L', 00H, 'i', 00H
	DB	'n', 00H, 'e', 00H, ' ', 00H, 'E', 00H, 'n', 00H, 'd', 00H, 'i'
	DB	00H, 'n', 00H, 'g', 00H, ',', 00H, ' ', 00H, 'G', 00H, 'o', 00H
	DB	't', 00H, ' ', 00H, '%', 00H, 'c', 00H, ' ', 00H, 'I', 00H, 'n'
	DB	00H, 's', 00H, 't', 00H, 'e', 00H, 'a', 00H, 'd', 00H, ',', 00H
	DB	' ', 00H, 'I', 00H, 's', 00H, ' ', 00H, 'T', 00H, 'h', 00H, 'i'
	DB	00H, 's', 00H, ' ', 00H, 'A', 00H, ' ', 00H, 'V', 00H, 'a', 00H
	DB	'l', 00H, 'i', 00H, 'd', 00H, ' ', 00H, 'S', 00H, 't', 00H, 'a'
	DB	00H, 't', 00H, 'e', 00H, 'm', 00H, 'e', 00H, 'n', 00H, 't', 00H
	DB	'?', 00H, 00H, 00H
	ORG $+6
$SG157021 DB	'LoadModel', 00H
	ORG $+6
$SG9569	DB	'N', 00H, 'O', 00H, '_', 00H, 'M', 00H, 'E', 00H, 'S', 00H
	DB	'S', 00H, 'A', 00H, 'G', 00H, 'E', 00H, 00H, 00H
	ORG $+2
$SG9570	DB	'V <= 0xffffffffui32', 00H
	ORG $+4
$SG9571	DB	'safe_cast_u32', 00H
	ORG $+2
$SG9572	DB	'W:\cpp\void\dr/pack.h', 00H
	ORG $+2
$SG157028 DB	'%', 00H, 's', 00H, '(', 00H, '%', 00H, 'i', 00H, ')', 00H
	DB	':', 00H, ' ', 00H, 'E', 00H, 'x', 00H, 'p', 00H, 'e', 00H, 'c'
	DB	00H, 't', 00H, 'e', 00H, 'd', 00H, ' ', 00H, 'L', 00H, 'i', 00H
	DB	'n', 00H, 'e', 00H, ' ', 00H, 'E', 00H, 'n', 00H, 'd', 00H, 'i'
	DB	00H, 'n', 00H, 'g', 00H, ',', 00H, ' ', 00H, 'G', 00H, 'o', 00H
	DB	't', 00H, ' ', 00H, '%', 00H, 'c', 00H, ' ', 00H, 'I', 00H, 'n'
	DB	00H, 's', 00H, 't', 00H, 'e', 00H, 'a', 00H, 'd', 00H, ',', 00H
	DB	' ', 00H, 'I', 00H, 's', 00H, ' ', 00H, 'T', 00H, 'h', 00H, 'i'
	DB	00H, 's', 00H, ' ', 00H, 'A', 00H, ' ', 00H, 'V', 00H, 'a', 00H
	DB	'l', 00H, 'i', 00H, 'd', 00H, ' ', 00H, 'S', 00H, 't', 00H, 'a'
	DB	00H, 't', 00H, 'e', 00H, 'm', 00H, 'e', 00H, 'n', 00H, 't', 00H
	DB	'?', 00H, 00H, 00H
	ORG $+6
$SG157029 DB	'LoadModel', 00H
	ORG $+6
$SG157030 DB	'W:\cpp\void\detroit\detroit-asset.c', 00H
	ORG $+4
$SG157033 DB	'l', 00H, 'i', 00H, 'b', 00H, 'r', 00H, 'a', 00H, 'r', 00H
	DB	'y', 00H, ' ', 00H, '[', 00H, '%', 00H, 's', 00H, ']', 00H, ' '
	DB	00H, 'n', 00H, 'o', 00H, 't', 00H, ' ', 00H, 'f', 00H, 'o', 00H
	DB	'u', 00H, 'n', 00H, 'd', 00H, 00H, 00H
	ORG $+2
$SG157034 DB	'LoadModel', 00H
	ORG $+6
$SG9578	DB	'N', 00H, 'O', 00H, '_', 00H, 'M', 00H, 'E', 00H, 'S', 00H
	DB	'S', 00H, 'A', 00H, 'G', 00H, 'E', 00H, 00H, 00H
	ORG $+2
$SG157035 DB	'W:\cpp\void\detroit\detroit-asset.c', 00H
	ORG $+4
$SG9579	DB	'V <= 0xffffffffffffffffui64', 00H
	ORG $+4
$SG9580	DB	'safe_cast_u64', 00H
	ORG $+2
$SG9581	DB	'W:\cpp\void\dr/pack.h', 00H
	ORG $+2
$SG157046 DB	'W:\cpp\void\detroit\detroit-asset.c', 00H
	ORG $+4
$SG157044 DB	'%', 00H, 's', 00H, '(', 00H, '%', 00H, 'i', 00H, ')', 00H
	DB	':', 00H, ' ', 00H, 'E', 00H, 'x', 00H, 'p', 00H, 'e', 00H, 'c'
	DB	00H, 't', 00H, 'e', 00H, 'd', 00H, ' ', 00H, 'L', 00H, 'i', 00H
	DB	'n', 00H, 'e', 00H, ' ', 00H, 'E', 00H, 'n', 00H, 'd', 00H, 'i'
	DB	00H, 'n', 00H, 'g', 00H, ',', 00H, ' ', 00H, 'G', 00H, 'o', 00H
	DB	't', 00H, ' ', 00H, '%', 00H, 'c', 00H, ' ', 00H, 'I', 00H, 'n'
	DB	00H, 's', 00H, 't', 00H, 'e', 00H, 'a', 00H, 'd', 00H, ',', 00H
	DB	' ', 00H, 'I', 00H, 's', 00H, ' ', 00H, 'T', 00H, 'h', 00H, 'i'
	DB	00H, 's', 00H, ' ', 00H, 'A', 00H, ' ', 00H, 'V', 00H, 'a', 00H
	DB	'l', 00H, 'i', 00H, 'd', 00H, ' ', 00H, 'S', 00H, 't', 00H, 'a'
	DB	00H, 't', 00H, 'e', 00H, 'm', 00H, 'e', 00H, 'n', 00H, 't', 00H
	DB	'?', 00H, 00H, 00H
	ORG $+6
$SG157045 DB	'LoadModel', 00H
	ORG $+6
$SG157056 DB	'W:\cpp\void\detroit\detroit-asset.c', 00H
	ORG $+4
$SG157054 DB	'%', 00H, 's', 00H, '(', 00H, '%', 00H, 'i', 00H, ')', 00H
	DB	':', 00H, ' ', 00H, 'E', 00H, 'x', 00H, 'p', 00H, 'e', 00H, 'c'
	DB	00H, 't', 00H, 'e', 00H, 'd', 00H, ' ', 00H, 'L', 00H, 'i', 00H
	DB	'n', 00H, 'e', 00H, ' ', 00H, 'E', 00H, 'n', 00H, 'd', 00H, 'i'
	DB	00H, 'n', 00H, 'g', 00H, ',', 00H, ' ', 00H, 'G', 00H, 'o', 00H
	DB	't', 00H, ' ', 00H, '%', 00H, 'c', 00H, ' ', 00H, 'I', 00H, 'n'
	DB	00H, 's', 00H, 't', 00H, 'e', 00H, 'a', 00H, 'd', 00H, ',', 00H
	DB	' ', 00H, 'I', 00H, 's', 00H, ' ', 00H, 'T', 00H, 'h', 00H, 'i'
	DB	00H, 's', 00H, ' ', 00H, 'A', 00H, ' ', 00H, 'V', 00H, 'a', 00H
	DB	'l', 00H, 'i', 00H, 'd', 00H, ' ', 00H, 'S', 00H, 't', 00H, 'a'
	DB	00H, 't', 00H, 'e', 00H, 'm', 00H, 'e', 00H, 'n', 00H, 't', 00H
	DB	'?', 00H, 00H, 00H
	ORG $+6
$SG157055 DB	'LoadModel', 00H
	ORG $+6
$SG157076 DB	'W:\cpp\void\detroit\detroit-asset.c', 00H
	ORG $+4
$SG157074 DB	'%', 00H, 's', 00H, '(', 00H, '%', 00H, 'i', 00H, ')', 00H
	DB	':', 00H, ' ', 00H, 'I', 00H, 'n', 00H, 'v', 00H, 'a', 00H, 'l'
	DB	00H, 'i', 00H, 'd', 00H, ' ', 00H, 'S', 00H, 't', 00H, 'a', 00H
	DB	't', 00H, 'e', 00H, 'm', 00H, 'e', 00H, 'n', 00H, 't', 00H, ','
	DB	00H, ' ', 00H, '(', 00H, 'D', 00H, 'i', 00H, 'd', 00H, ' ', 00H
	DB	'Y', 00H, 'o', 00H, 'u', 00H, ' ', 00H, 'M', 00H, 'e', 00H, 'a'
	DB	00H, 'n', 00H, ' ', 00H, '<', 00H, 'd', 00H, '>', 00H, '?', 00H
	DB	')', 00H, 00H, 00H
	ORG $+2
$SG157075 DB	'LoadModel', 00H
	ORG $+6
$SG157085 DB	'%', 00H, 's', 00H, '(', 00H, '%', 00H, 'i', 00H, ')', 00H
	DB	':', 00H, ' ', 00H, 'I', 00H, 'n', 00H, 'v', 00H, 'a', 00H, 'l'
	DB	00H, 'i', 00H, 'd', 00H, ' ', 00H, 'S', 00H, 't', 00H, 'a', 00H
	DB	't', 00H, 'e', 00H, 'm', 00H, 'e', 00H, 'n', 00H, 't', 00H, ','
	DB	00H, ' ', 00H, '(', 00H, 'D', 00H, 'i', 00H, 'd', 00H, ' ', 00H
	DB	'Y', 00H, 'o', 00H, 'u', 00H, ' ', 00H, 'M', 00H, 'e', 00H, 'a'
	DB	00H, 'n', 00H, ' ', 00H, '<', 00H, 'N', 00H, 's', 00H, '>', 00H
	DB	' ', 00H, 'o', 00H, 'r', 00H, ' ', 00H, '<', 00H, 'N', 00H, 'i'
	DB	00H, '>', 00H, '?', 00H, ')', 00H, 00H, 00H
$SG157086 DB	'LoadModel', 00H
	ORG $+6
$SG157087 DB	'W:\cpp\void\detroit\detroit-asset.c', 00H
	ORG $+4
$SG157095 DB	'N', 00H, 'O', 00H, '_', 00H, 'M', 00H, 'E', 00H, 'S', 00H
	DB	'S', 00H, 'A', 00H, 'G', 00H, 'E', 00H, 00H, 00H
	ORG $+2
$SG157096 DB	'Invalid Statement, (Did You Mean <Ka> or <Kd> or <Ks> or'
	DB	' <Ke>?)', 00H
$SG157097 DB	'! "Invalid Statement, (Did You Mean <Ka> or <Kd> or <Ks>'
	DB	' or <Ke>?)"', 00H
	ORG $+4
$SG157098 DB	'LoadModel', 00H
	ORG $+6
$SG157099 DB	'W:\cpp\void\detroit\detroit-asset.c', 00H
	ORG $+4
$SG157100 DB	'N', 00H, 'O', 00H, '_', 00H, 'M', 00H, 'E', 00H, 'S', 00H
	DB	'S', 00H, 'A', 00H, 'G', 00H, 'E', 00H, 00H, 00H
	ORG $+2
$SG157104 DB	'W:\cpp\void\detroit\detroit-asset.c', 00H
	ORG $+4
$SG157101 DB	'Invalid Statement, Did You Mean (<Ns> or <Ni> or <Ka> or'
	DB	' <Kd> or <Ks> or <Ke>?)', 00H
$SG157102 DB	'! "Invalid Statement, Did You Mean (<Ns> or <Ni> or <Ka>'
	DB	' or <Kd> or <Ks> or <Ke>?)"', 00H
	ORG $+4
$SG157103 DB	'LoadModel', 00H
	ORG $+6
$SG157117 DB	'N', 00H, 'O', 00H, '_', 00H, 'M', 00H, 'E', 00H, 'S', 00H
	DB	'S', 00H, 'A', 00H, 'G', 00H, 'E', 00H, 00H, 00H
	ORG $+2
$SG83385 DB	'W', 00H, ':', 00H, '\', 00H, 'c', 00H, 'p', 00H, 'p', 00H
	DB	'\', 00H, 'v', 00H, 'o', 00H, 'i', 00H, 'd', 00H, '\', 00H, 'v'
	DB	00H, 'e', 00H, 'n', 00H, 'd', 00H, 'o', 00H, 'r', 00H, '\', 00H
	DB	's', 00H, 't', 00H, 'b', 00H, '\', 00H, 's', 00H, 't', 00H, 'b'
	DB	00H, '_', 00H, 't', 00H, 'r', 00H, 'u', 00H, 'e', 00H, 't', 00H
	DB	'y', 00H, 'p', 00H, 'e', 00H, '.', 00H, 'h', 00H, 00H, 00H
	ORG $+4
$SG83386 DB	'o', 00H, 'u', 00H, 't', 00H, 'p', 00H, 'u', 00H, 't', 00H
	DB	'_', 00H, 'c', 00H, 't', 00H, 'x', 00H, '.', 00H, 'n', 00H, 'u'
	DB	00H, 'm', 00H, '_', 00H, 'v', 00H, 'e', 00H, 'r', 00H, 't', 00H
	DB	'i', 00H, 'c', 00H, 'e', 00H, 's', 00H, ' ', 00H, '=', 00H, '='
	DB	00H, ' ', 00H, 'c', 00H, 'o', 00H, 'u', 00H, 'n', 00H, 't', 00H
	DB	'_', 00H, 'c', 00H, 't', 00H, 'x', 00H, '.', 00H, 'n', 00H, 'u'
	DB	00H, 'm', 00H, '_', 00H, 'v', 00H, 'e', 00H, 'r', 00H, 't', 00H
	DB	'i', 00H, 'c', 00H, 'e', 00H, 's', 00H, 00H, 00H
$SG9734	DB	'%lli', 00H
	ORG $+7
$SG157118 DB	'Invalid Statement, Did You Mean <map_d> or <map_Kd> or <'
	DB	'map_Ke> or <map_Bump>?', 00H
	ORG $+1
$SG157119 DB	'! "Invalid Statement, Did You Mean <map_d> or <map_Kd> o'
	DB	'r <map_Ke> or <map_Bump>?"', 00H
	ORG $+5
$SG157120 DB	'LoadModel', 00H
	ORG $+6
$SG157121 DB	'W:\cpp\void\detroit\detroit-asset.c', 00H
	ORG $+4
$SG91585 DB	'#?RADIANCE', 00H
	ORG $+5
$SG91587 DB	'not HDR', 00H
$SG157124 DB	'N', 00H, 'O', 00H, '_', 00H, 'M', 00H, 'E', 00H, 'S', 00H
	DB	'S', 00H, 'A', 00H, 'G', 00H, 'E', 00H, 00H, 00H
	ORG $+2
$SG157125 DB	'Invalid Statement, Did You Mean <newmtl> or <illum> or <'
	DB	'map_d> or <map_Kd> or <map_Ke> or <map_Bump>?', 00H
	ORG $+2
$SG91590 DB	'FORMAT=32-bit_rle_rgbe', 00H
	ORG $+1
$SG157126 DB	'! "Invalid Statement, Did You Mean <newmtl> or <illum> o'
	DB	'r <map_d> or <map_Kd> or <map_Ke> or <map_Bump>?"', 00H
	ORG $+6
$SG157127 DB	'LoadModel', 00H
	ORG $+6
$SG157128 DB	'W:\cpp\void\detroit\detroit-asset.c', 00H
	ORG $+4
$SG91592 DB	'unsupported format', 00H
	ORG $+5
$SG91595 DB	'unsupported data layout', 00H
$SG91598 DB	'unsupported data layout', 00H
$SG157134 DB	'%', 00H, 's', 00H, '(', 00H, '%', 00H, 'i', 00H, ')', 00H
	DB	':', 00H, ' ', 00H, 'E', 00H, 'x', 00H, 'p', 00H, 'e', 00H, 'c'
	DB	00H, 't', 00H, 'e', 00H, 'd', 00H, ' ', 00H, 'L', 00H, 'i', 00H
	DB	'n', 00H, 'e', 00H, ' ', 00H, 'E', 00H, 'n', 00H, 'd', 00H, 'i'
	DB	00H, 'n', 00H, 'g', 00H, ',', 00H, ' ', 00H, 'G', 00H, 'o', 00H
	DB	't', 00H, ' ', 00H, '%', 00H, 'c', 00H, ' ', 00H, 'I', 00H, 'n'
	DB	00H, 's', 00H, 't', 00H, 'e', 00H, 'a', 00H, 'd', 00H, ',', 00H
	DB	' ', 00H, 'I', 00H, 's', 00H, ' ', 00H, 'T', 00H, 'h', 00H, 'i'
	DB	00H, 's', 00H, ' ', 00H, 'A', 00H, ' ', 00H, 'V', 00H, 'a', 00H
	DB	'l', 00H, 'i', 00H, 'd', 00H, ' ', 00H, 'S', 00H, 't', 00H, 'a'
	DB	00H, 't', 00H, 'e', 00H, 'm', 00H, 'e', 00H, 'n', 00H, 't', 00H
	DB	'?', 00H, 00H, 00H
	ORG $+6
$SG157135 DB	'LoadModel', 00H
	ORG $+6
$SG157136 DB	'W:\cpp\void\detroit\detroit-asset.c', 00H
	ORG $+4
$SG91600 DB	'too large', 00H
	ORG $+6
$SG91602 DB	'too large', 00H
	ORG $+6
$SG157142 DB	'%', 00H, 's', 00H, '(', 00H, '%', 00H, 'i', 00H, ')', 00H
	DB	':', 00H, ' ', 00H, 'E', 00H, 'x', 00H, 'p', 00H, 'e', 00H, 'c'
	DB	00H, 't', 00H, 'e', 00H, 'd', 00H, ' ', 00H, 'L', 00H, 'i', 00H
	DB	'n', 00H, 'e', 00H, ' ', 00H, 'E', 00H, 'n', 00H, 'd', 00H, 'i'
	DB	00H, 'n', 00H, 'g', 00H, ',', 00H, ' ', 00H, 'G', 00H, 'o', 00H
	DB	't', 00H, ' ', 00H, '%', 00H, 'c', 00H, ' ', 00H, 'I', 00H, 'n'
	DB	00H, 's', 00H, 't', 00H, 'e', 00H, 'a', 00H, 'd', 00H, ',', 00H
	DB	' ', 00H, 'I', 00H, 's', 00H, ' ', 00H, 'T', 00H, 'h', 00H, 'i'
	DB	00H, 's', 00H, ' ', 00H, 'A', 00H, ' ', 00H, 'V', 00H, 'a', 00H
	DB	'l', 00H, 'i', 00H, 'd', 00H, ' ', 00H, 'S', 00H, 't', 00H, 'a'
	DB	00H, 't', 00H, 'e', 00H, 'm', 00H, 'e', 00H, 'n', 00H, 't', 00H
	DB	'?', 00H, 00H, 00H
	ORG $+6
$SG91606 DB	'too large', 00H
	ORG $+6
$SG157143 DB	'LoadModel', 00H
	ORG $+6
$SG157144 DB	'W:\cpp\void\detroit\detroit-asset.c', 00H
	ORG $+4
$SG91608 DB	'outofmem', 00H
	ORG $+7
$SG91615 DB	'invalid decoded scanline length', 00H
$SG157152 DB	'%', 00H, 's', 00H, '(', 00H, '%', 00H, 'i', 00H, ')', 00H
	DB	':', 00H, ' ', 00H, 'E', 00H, 'x', 00H, 'p', 00H, 'e', 00H, 'c'
	DB	00H, 't', 00H, 'e', 00H, 'd', 00H, ' ', 00H, 'L', 00H, 'i', 00H
	DB	'n', 00H, 'e', 00H, ' ', 00H, 'E', 00H, 'n', 00H, 'd', 00H, 'i'
	DB	00H, 'n', 00H, 'g', 00H, ',', 00H, ' ', 00H, 'G', 00H, 'o', 00H
	DB	't', 00H, ' ', 00H, '%', 00H, 'c', 00H, ' ', 00H, 'I', 00H, 'n'
	DB	00H, 's', 00H, 't', 00H, 'e', 00H, 'a', 00H, 'd', 00H, ',', 00H
	DB	' ', 00H, 'I', 00H, 's', 00H, ' ', 00H, 'T', 00H, 'h', 00H, 'i'
	DB	00H, 's', 00H, ' ', 00H, 'A', 00H, ' ', 00H, 'V', 00H, 'a', 00H
	DB	'l', 00H, 'i', 00H, 'd', 00H, ' ', 00H, 'S', 00H, 't', 00H, 'a'
	DB	00H, 't', 00H, 'e', 00H, 'm', 00H, 'e', 00H, 'n', 00H, 't', 00H
	DB	'?', 00H, 00H, 00H
	ORG $+6
$SG157153 DB	'LoadModel', 00H
	ORG $+6
$SG157154 DB	'W:\cpp\void\detroit\detroit-asset.c', 00H
	ORG $+4
$SG91618 DB	'outofmem', 00H
	ORG $+7
$SG91622 DB	'corrupt', 00H
$SG91624 DB	'corrupt', 00H
$SG157160 DB	'%', 00H, 's', 00H, '(', 00H, '%', 00H, 'i', 00H, ')', 00H
	DB	':', 00H, ' ', 00H, 'E', 00H, 'x', 00H, 'p', 00H, 'e', 00H, 'c'
	DB	00H, 't', 00H, 'e', 00H, 'd', 00H, ' ', 00H, 'L', 00H, 'i', 00H
	DB	'n', 00H, 'e', 00H, ' ', 00H, 'E', 00H, 'n', 00H, 'd', 00H, 'i'
	DB	00H, 'n', 00H, 'g', 00H, ',', 00H, ' ', 00H, 'G', 00H, 'o', 00H
	DB	't', 00H, ' ', 00H, '%', 00H, 'c', 00H, ' ', 00H, 'I', 00H, 'n'
	DB	00H, 's', 00H, 't', 00H, 'e', 00H, 'a', 00H, 'd', 00H, ',', 00H
	DB	' ', 00H, 'I', 00H, 's', 00H, ' ', 00H, 'T', 00H, 'h', 00H, 'i'
	DB	00H, 's', 00H, ' ', 00H, 'A', 00H, ' ', 00H, 'V', 00H, 'a', 00H
	DB	'l', 00H, 'i', 00H, 'd', 00H, ' ', 00H, 'S', 00H, 't', 00H, 'a'
	DB	00H, 't', 00H, 'e', 00H, 'm', 00H, 'e', 00H, 'n', 00H, 't', 00H
	DB	'?', 00H, 00H, 00H
	ORG $+6
$SG157161 DB	'LoadModel', 00H
	ORG $+6
$SG157162 DB	'W:\cpp\void\detroit\detroit-asset.c', 00H
	ORG $+4
$SG157168 DB	'%', 00H, 's', 00H, '(', 00H, '%', 00H, 'i', 00H, ')', 00H
	DB	':', 00H, ' ', 00H, 'E', 00H, 'x', 00H, 'p', 00H, 'e', 00H, 'c'
	DB	00H, 't', 00H, 'e', 00H, 'd', 00H, ' ', 00H, 'L', 00H, 'i', 00H
	DB	'n', 00H, 'e', 00H, ' ', 00H, 'E', 00H, 'n', 00H, 'd', 00H, 'i'
	DB	00H, 'n', 00H, 'g', 00H, ',', 00H, ' ', 00H, 'G', 00H, 'o', 00H
	DB	't', 00H, ' ', 00H, '%', 00H, 'c', 00H, ' ', 00H, 'I', 00H, 'n'
	DB	00H, 's', 00H, 't', 00H, 'e', 00H, 'a', 00H, 'd', 00H, ',', 00H
	DB	' ', 00H, 'I', 00H, 's', 00H, ' ', 00H, 'T', 00H, 'h', 00H, 'i'
	DB	00H, 's', 00H, ' ', 00H, 'A', 00H, ' ', 00H, 'V', 00H, 'a', 00H
	DB	'l', 00H, 'i', 00H, 'd', 00H, ' ', 00H, 'S', 00H, 't', 00H, 'a'
	DB	00H, 't', 00H, 'e', 00H, 'm', 00H, 'e', 00H, 'n', 00H, 't', 00H
	DB	'?', 00H, 00H, 00H
	ORG $+6
$SG157169 DB	'LoadModel', 00H
	ORG $+6
$SG157170 DB	'W:\cpp\void\detroit\detroit-asset.c', 00H
	ORG $+4
$SG157176 DB	'%', 00H, 's', 00H, '(', 00H, '%', 00H, 'i', 00H, ')', 00H
	DB	':', 00H, ' ', 00H, 'E', 00H, 'x', 00H, 'p', 00H, 'e', 00H, 'c'
	DB	00H, 't', 00H, 'e', 00H, 'd', 00H, ' ', 00H, 'L', 00H, 'i', 00H
	DB	'n', 00H, 'e', 00H, ' ', 00H, 'E', 00H, 'n', 00H, 'd', 00H, 'i'
	DB	00H, 'n', 00H, 'g', 00H, ',', 00H, ' ', 00H, 'G', 00H, 'o', 00H
	DB	't', 00H, ' ', 00H, '%', 00H, 'c', 00H, ' ', 00H, 'I', 00H, 'n'
	DB	00H, 's', 00H, 't', 00H, 'e', 00H, 'a', 00H, 'd', 00H, ',', 00H
	DB	' ', 00H, 'I', 00H, 's', 00H, ' ', 00H, 'T', 00H, 'h', 00H, 'i'
	DB	00H, 's', 00H, ' ', 00H, 'A', 00H, ' ', 00H, 'V', 00H, 'a', 00H
	DB	'l', 00H, 'i', 00H, 'd', 00H, ' ', 00H, 'S', 00H, 't', 00H, 'a'
	DB	00H, 't', 00H, 'e', 00H, 'm', 00H, 'e', 00H, 'n', 00H, 't', 00H
	DB	'?', 00H, 00H, 00H
	ORG $+6
$SG157177 DB	'LoadModel', 00H
	ORG $+6
$SG157178 DB	'W:\cpp\void\detroit\detroit-asset.c', 00H
	ORG $+4
$SG157185 DB	'%', 00H, 's', 00H, '(', 00H, '%', 00H, 'i', 00H, ')', 00H
	DB	':', 00H, ' ', 00H, 'E', 00H, 'x', 00H, 'p', 00H, 'e', 00H, 'c'
	DB	00H, 't', 00H, 'e', 00H, 'd', 00H, ' ', 00H, 'L', 00H, 'i', 00H
	DB	'n', 00H, 'e', 00H, ' ', 00H, 'E', 00H, 'n', 00H, 'd', 00H, 'i'
	DB	00H, 'n', 00H, 'g', 00H, ',', 00H, ' ', 00H, 'G', 00H, 'o', 00H
	DB	't', 00H, ' ', 00H, '%', 00H, 'c', 00H, ' ', 00H, 'I', 00H, 'n'
	DB	00H, 's', 00H, 't', 00H, 'e', 00H, 'a', 00H, 'd', 00H, ',', 00H
	DB	' ', 00H, 'I', 00H, 's', 00H, ' ', 00H, 'T', 00H, 'h', 00H, 'i'
	DB	00H, 's', 00H, ' ', 00H, 'A', 00H, ' ', 00H, 'V', 00H, 'a', 00H
	DB	'l', 00H, 'i', 00H, 'd', 00H, ' ', 00H, 'S', 00H, 't', 00H, 'a'
	DB	00H, 't', 00H, 'e', 00H, 'm', 00H, 'e', 00H, 'n', 00H, 't', 00H
	DB	'?', 00H, 00H, 00H
	ORG $+6
$SG91649 DB	'FORMAT=32-bit_rle_rgbe', 00H
	ORG $+1
$SG157186 DB	'LoadModel', 00H
	ORG $+6
$SG157187 DB	'W:\cpp\void\detroit\detroit-asset.c', 00H
	ORG $+4
$SG157189 DB	'%', 00H, 's', 00H, '(', 00H, '%', 00H, 'i', 00H, ')', 00H
	DB	':', 00H, ' ', 00H, 'E', 00H, 'x', 00H, 'p', 00H, 'e', 00H, 'c'
	DB	00H, 't', 00H, 'e', 00H, 'd', 00H, ' ', 00H, '''', 00H, 's', 00H
	DB	'''', 00H, ' ', 00H, 'S', 00H, 't', 00H, 'a', 00H, 't', 00H, 'e'
	DB	00H, 'm', 00H, 'e', 00H, 'n', 00H, 't', 00H, 00H, 00H
	ORG $+2
$SG157190 DB	'LoadModel', 00H
	ORG $+6
$SG157191 DB	'W:\cpp\void\detroit\detroit-asset.c', 00H
	ORG $+4
$SG9738	DB	'N', 00H, 'O', 00H, '_', 00H, 'M', 00H, 'E', 00H, 'S', 00H
	DB	'S', 00H, 'A', 00H, 'G', 00H, 'E', 00H, 00H, 00H
	ORG $+2
$SG157195 DB	'%', 00H, 's', 00H, '(', 00H, '%', 00H, 'i', 00H, ')', 00H
	DB	':', 00H, ' ', 00H, 'E', 00H, 'x', 00H, 'p', 00H, 'e', 00H, 'c'
	DB	00H, 't', 00H, 'e', 00H, 'd', 00H, ' ', 00H, '''', 00H, 'f', 00H
	DB	'''', 00H, ' ', 00H, 'S', 00H, 't', 00H, 'a', 00H, 't', 00H, 'e'
	DB	00H, 'm', 00H, 'e', 00H, 'n', 00H, 't', 00H, 00H, 00H
	ORG $+2
$SG9739	DB	'Unsupported Format Specifier!', 00H
	ORG $+2
$SG157196 DB	'LoadModel', 00H
	ORG $+6
$SG9740	DB	'! "Unsupported Format Specifier!"', 00H
	ORG $+6
$SG157197 DB	'W:\cpp\void\detroit\detroit-asset.c', 00H
	ORG $+4
$SG9741	DB	'rx__printf', 00H
	ORG $+5
$SG9742	DB	'W:\cpp\void\dr/text.c', 00H
	ORG $+2
$SG157209 DB	'%', 00H, 's', 00H, '(', 00H, '%', 00H, 'i', 00H, ')', 00H
	DB	':', 00H, ' ', 00H, 'E', 00H, 'x', 00H, 'p', 00H, 'e', 00H, 'c'
	DB	00H, 't', 00H, 'e', 00H, 'd', 00H, ' ', 00H, 'L', 00H, 'i', 00H
	DB	'n', 00H, 'e', 00H, ' ', 00H, 'E', 00H, 'n', 00H, 'd', 00H, 'i'
	DB	00H, 'n', 00H, 'g', 00H, ',', 00H, ' ', 00H, 'G', 00H, 'o', 00H
	DB	't', 00H, ' ', 00H, '%', 00H, 'c', 00H, ' ', 00H, 'I', 00H, 'n'
	DB	00H, 's', 00H, 't', 00H, 'e', 00H, 'a', 00H, 'd', 00H, ',', 00H
	DB	' ', 00H, 'I', 00H, 's', 00H, ' ', 00H, 'T', 00H, 'h', 00H, 'i'
	DB	00H, 's', 00H, ' ', 00H, 'A', 00H, ' ', 00H, 'V', 00H, 'a', 00H
	DB	'l', 00H, 'i', 00H, 'd', 00H, ' ', 00H, 'S', 00H, 't', 00H, 'a'
	DB	00H, 't', 00H, 'e', 00H, 'm', 00H, 'e', 00H, 'n', 00H, 't', 00H
	DB	'?', 00H, 00H, 00H
	ORG $+6
$SG157210 DB	'LoadModel', 00H
	ORG $+6
$SG157211 DB	'W:\cpp\void\detroit\detroit-asset.c', 00H
$SG91718 DB	'S', 080H, 0f6H, '4', 00H
	ORG $+7
$SG157255 DB	'ASCII-EX', 00H
	ORG $+7
$SG91757 DB	'too large', 00H
	ORG $+6
$SG91759 DB	'too large', 00H
	ORG $+6
$SG91762 DB	'too large', 00H
	ORG $+6
$SG91764 DB	'outofmem', 00H
	ORG $+7
$SG91817 DB	'max value > 65535', 00H
	ORG $+6
$SG157369 DB	'ZenCoreLoadGlyphFont', 00H
	ORG $+3
$SG157370 DB	'W:\cpp\void\detroit\brazen-glyphics.c', 00H
	ORG $+2
$SG157371 DB	'ZenCoreLoadGlyphFont', 00H
	ORG $+3
$SG157372 DB	'W:\cpp\void\detroit\brazen-glyphics.c', 00H
	ORG $+2
$SG157373 DB	'f', 00H, 'o', 00H, 'n', 00H, 't', 00H, ' ', 00H, 'f', 00H
	DB	'i', 00H, 'l', 00H, 'e', 00H, ' ', 00H, 'n', 00H, 'o', 00H, 't'
	DB	00H, ' ', 00H, 'f', 00H, 'o', 00H, 'u', 00H, 'n', 00H, 'd', 00H
	DB	',', 00H, ' ', 00H, 'c', 00H, 'h', 00H, 'e', 00H, 'c', 00H, 'k'
	DB	00H, 'e', 00H, 'd', 00H, ':', 00H, 0aH, 00H, ' ', 00H, ' ', 00H
	DB	' ', 00H, ' ', 00H, '%', 00H, 's', 00H, 0aH, 00H, ' ', 00H, ' '
	DB	00H, ' ', 00H, ' ', 00H, '%', 00H, 's', 00H, 0aH, 00H, ' ', 00H
	DB	' ', 00H, ' ', 00H, ' ', 00H, '%', 00H, 's', 00H, 00H, 00H
	ORG $+2
$SG157374 DB	'ZenCoreLoadGlyphFont', 00H
	ORG $+3
$SG157375 DB	'W:\cpp\void\detroit\brazen-glyphics.c', 00H
	ORG $+2
$SG91839 DB	'unknown image type', 00H
	ORG $+1
$SG83650 DB	'OS/2', 00H
	ORG $+7
$SG91856 DB	'can''t fopen', 00H
	ORG $+4
$SG91873 DB	'can''t fopen', 00H
	ORG $+4
$SG157415 DB	'ZenCoreMaterializeGlyphFont', 00H
	ORG $+4
$SG157416 DB	'W:\cpp\void\detroit\brazen-glyphics.c', 00H
	ORG $+2
$SG157417 DB	'ZenCoreMaterializeGlyphFont', 00H
	ORG $+4
$SG157418 DB	'W:\cpp\void\detroit\brazen-glyphics.c', 00H
	ORG $+2
$SG157620 DB	'N', 00H, 'O', 00H, '_', 00H, 'M', 00H, 'E', 00H, 'S', 00H
	DB	'S', 00H, 'A', 00H, 'G', 00H, 'E', 00H, 00H, 00H
	ORG $+2
$SG83875 DB	'W', 00H, ':', 00H, '\', 00H, 'c', 00H, 'p', 00H, 'p', 00H
	DB	'\', 00H, 'v', 00H, 'o', 00H, 'i', 00H, 'd', 00H, '\', 00H, 'v'
	DB	00H, 'e', 00H, 'n', 00H, 'd', 00H, 'o', 00H, 'r', 00H, '\', 00H
	DB	's', 00H, 't', 00H, 'b', 00H, '\', 00H, 's', 00H, 't', 00H, 'b'
	DB	00H, '_', 00H, 't', 00H, 'r', 00H, 'u', 00H, 'e', 00H, 't', 00H
	DB	'y', 00H, 'p', 00H, 'e', 00H, '.', 00H, 'h', 00H, 00H, 00H
	ORG $+4
$SG83876 DB	'z', 00H, ' ', 00H, '!', 00H, '=', 00H, ' ', 00H, '0', 00H
	DB	00H, 00H
	ORG $+2
$SG157621 DB	'CurX <= MaxPackX', 00H
	ORG $+7
$SG157622 DB	'ZenCoreGenerateGlyphFontExtended', 00H
	ORG $+7
$SG157623 DB	'W:\cpp\void\detroit\brazen-glyphics.c', 00H
	ORG $+2
$SG157624 DB	'N', 00H, 'O', 00H, '_', 00H, 'M', 00H, 'E', 00H, 'S', 00H
	DB	'S', 00H, 'A', 00H, 'G', 00H, 'E', 00H, 00H, 00H
	ORG $+2
$SG157625 DB	'CurY <= MaxPackY', 00H
	ORG $+7
$SG157626 DB	'ZenCoreGenerateGlyphFontExtended', 00H
	ORG $+7
$SG157627 DB	'W:\cpp\void\detroit\brazen-glyphics.c', 00H
	ORG $+2
$SG157629 DB	'%', 00H, 'i', 00H, ' ', 00H, '.', 00H, '.', 00H, '.', 00H
	DB	00H, 00H
	ORG $+2
$SG157630 DB	'ZenCoreGenerateGlyphFontExtended', 00H
	ORG $+7
$SG157631 DB	'W:\cpp\void\detroit\brazen-glyphics.c', 00H
	ORG $+2
$SG157632 DB	'SomeFile', 00H
	ORG $+7
$SG157633 DB	'%s_debug_atlas.png', 00H
	ORG $+5
$SG83904 DB	'W', 00H, ':', 00H, '\', 00H, 'c', 00H, 'p', 00H, 'p', 00H
	DB	'\', 00H, 'v', 00H, 'o', 00H, 'i', 00H, 'd', 00H, '\', 00H, 'v'
	DB	00H, 'e', 00H, 'n', 00H, 'd', 00H, 'o', 00H, 'r', 00H, '\', 00H
	DB	's', 00H, 't', 00H, 'b', 00H, '\', 00H, 's', 00H, 't', 00H, 'b'
	DB	00H, '_', 00H, 't', 00H, 'r', 00H, 'u', 00H, 'e', 00H, 't', 00H
	DB	'y', 00H, 'p', 00H, 'e', 00H, '.', 00H, 'h', 00H, 00H, 00H
	ORG $+4
$SG83905 DB	'y', 00H, '0', 00H, ' ', 00H, '<', 00H, ' ', 00H, 'y', 00H
	DB	'1', 00H, 00H, 00H
$SG83906 DB	'W', 00H, ':', 00H, '\', 00H, 'c', 00H, 'p', 00H, 'p', 00H
	DB	'\', 00H, 'v', 00H, 'o', 00H, 'i', 00H, 'd', 00H, '\', 00H, 'v'
	DB	00H, 'e', 00H, 'n', 00H, 'd', 00H, 'o', 00H, 'r', 00H, '\', 00H
	DB	's', 00H, 't', 00H, 'b', 00H, '\', 00H, 's', 00H, 't', 00H, 'b'
	DB	00H, '_', 00H, 't', 00H, 'r', 00H, 'u', 00H, 'e', 00H, 't', 00H
	DB	'y', 00H, 'p', 00H, 'e', 00H, '.', 00H, 'h', 00H, 00H, 00H
	ORG $+4
$SG92099 DB	'W', 00H, ':', 00H, '\', 00H, 'c', 00H, 'p', 00H, 'p', 00H
	DB	'\', 00H, 'v', 00H, 'o', 00H, 'i', 00H, 'd', 00H, '\', 00H, 'v'
	DB	00H, 'e', 00H, 'n', 00H, 'd', 00H, 'o', 00H, 'r', 00H, '\', 00H
	DB	's', 00H, 't', 00H, 'b', 00H, '\', 00H, 's', 00H, 't', 00H, 'b'
	DB	00H, '_', 00H, 'i', 00H, 'm', 00H, 'a', 00H, 'g', 00H, 'e', 00H
	DB	'_', 00H, 'w', 00H, 'r', 00H, 'i', 00H, 't', 00H, 'e', 00H, '.'
	DB	00H, 'h', 00H, 00H, 00H
	ORG $+6
$SG83907 DB	'e', 00H, '-', 00H, '>', 00H, 's', 00H, 'y', 00H, ' ', 00H
	DB	'<', 00H, '=', 00H, ' ', 00H, 'e', 00H, '-', 00H, '>', 00H, 'e'
	DB	00H, 'y', 00H, 00H, 00H
	ORG $+2
$SG83915 DB	'x', 00H, '1', 00H, ' ', 00H, '<', 00H, '=', 00H, ' ', 00H
	DB	'x', 00H, '+', 00H, '1', 00H, 00H, 00H
	ORG $+4
$SG83914 DB	'W', 00H, ':', 00H, '\', 00H, 'c', 00H, 'p', 00H, 'p', 00H
	DB	'\', 00H, 'v', 00H, 'o', 00H, 'i', 00H, 'd', 00H, '\', 00H, 'v'
	DB	00H, 'e', 00H, 'n', 00H, 'd', 00H, 'o', 00H, 'r', 00H, '\', 00H
	DB	's', 00H, 't', 00H, 'b', 00H, '\', 00H, 's', 00H, 't', 00H, 'b'
	DB	00H, '_', 00H, 't', 00H, 'r', 00H, 'u', 00H, 'e', 00H, 't', 00H
	DB	'y', 00H, 'p', 00H, 'e', 00H, '.', 00H, 'h', 00H, 00H, 00H
	ORG $+4
$SG83918 DB	'W', 00H, ':', 00H, '\', 00H, 'c', 00H, 'p', 00H, 'p', 00H
	DB	'\', 00H, 'v', 00H, 'o', 00H, 'i', 00H, 'd', 00H, '\', 00H, 'v'
	DB	00H, 'e', 00H, 'n', 00H, 'd', 00H, 'o', 00H, 'r', 00H, '\', 00H
	DB	's', 00H, 't', 00H, 'b', 00H, '\', 00H, 's', 00H, 't', 00H, 'b'
	DB	00H, '_', 00H, 't', 00H, 'r', 00H, 'u', 00H, 'e', 00H, 't', 00H
	DB	'y', 00H, 'p', 00H, 'e', 00H, '.', 00H, 'h', 00H, 00H, 00H
	ORG $+4
$SG83919 DB	'x', 00H, '1', 00H, ' ', 00H, '>', 00H, '=', 00H, ' ', 00H
	DB	'x', 00H, 00H, 00H
$SG83922 DB	'W', 00H, ':', 00H, '\', 00H, 'c', 00H, 'p', 00H, 'p', 00H
	DB	'\', 00H, 'v', 00H, 'o', 00H, 'i', 00H, 'd', 00H, '\', 00H, 'v'
	DB	00H, 'e', 00H, 'n', 00H, 'd', 00H, 'o', 00H, 'r', 00H, '\', 00H
	DB	's', 00H, 't', 00H, 'b', 00H, '\', 00H, 's', 00H, 't', 00H, 'b'
	DB	00H, '_', 00H, 't', 00H, 'r', 00H, 'u', 00H, 'e', 00H, 't', 00H
	DB	'y', 00H, 'p', 00H, 'e', 00H, '.', 00H, 'h', 00H, 00H, 00H
	ORG $+4
$SG83923 DB	'x', 00H, '1', 00H, ' ', 00H, '<', 00H, '=', 00H, ' ', 00H
	DB	'x', 00H, 00H, 00H
$SG83926 DB	'W', 00H, ':', 00H, '\', 00H, 'c', 00H, 'p', 00H, 'p', 00H
	DB	'\', 00H, 'v', 00H, 'o', 00H, 'i', 00H, 'd', 00H, '\', 00H, 'v'
	DB	00H, 'e', 00H, 'n', 00H, 'd', 00H, 'o', 00H, 'r', 00H, '\', 00H
	DB	's', 00H, 't', 00H, 'b', 00H, '\', 00H, 's', 00H, 't', 00H, 'b'
	DB	00H, '_', 00H, 't', 00H, 'r', 00H, 'u', 00H, 'e', 00H, 't', 00H
	DB	'y', 00H, 'p', 00H, 'e', 00H, '.', 00H, 'h', 00H, 00H, 00H
	ORG $+4
$SG83927 DB	'x', 00H, '1', 00H, ' ', 00H, '>', 00H, '=', 00H, ' ', 00H
	DB	'x', 00H, '+', 00H, '1', 00H, 00H, 00H
$SG92903 DB	'IHDR', 00H
	ORG $+7
$SG83928 DB	'W', 00H, ':', 00H, '\', 00H, 'c', 00H, 'p', 00H, 'p', 00H
	DB	'\', 00H, 'v', 00H, 'o', 00H, 'i', 00H, 'd', 00H, '\', 00H, 'v'
	DB	00H, 'e', 00H, 'n', 00H, 'd', 00H, 'o', 00H, 'r', 00H, '\', 00H
	DB	's', 00H, 't', 00H, 'b', 00H, '\', 00H, 's', 00H, 't', 00H, 'b'
	DB	00H, '_', 00H, 't', 00H, 'r', 00H, 'u', 00H, 'e', 00H, 't', 00H
	DB	'y', 00H, 'p', 00H, 'e', 00H, '.', 00H, 'h', 00H, 00H, 00H
	ORG $+4
$SG83929 DB	'x', 00H, '1', 00H, ' ', 00H, '>', 00H, '=', 00H, ' ', 00H
	DB	'x', 00H, ' ', 00H, '&', 00H, '&', 00H, ' ', 00H, 'x', 00H, '1'
	DB	00H, ' ', 00H, '<', 00H, '=', 00H, ' ', 00H, 'x', 00H, '+', 00H
	DB	'1', 00H, 00H, 00H
	ORG $+6
$SG83934 DB	'W', 00H, ':', 00H, '\', 00H, 'c', 00H, 'p', 00H, 'p', 00H
	DB	'\', 00H, 'v', 00H, 'o', 00H, 'i', 00H, 'd', 00H, '\', 00H, 'v'
	DB	00H, 'e', 00H, 'n', 00H, 'd', 00H, 'o', 00H, 'r', 00H, '\', 00H
	DB	's', 00H, 't', 00H, 'b', 00H, '\', 00H, 's', 00H, 't', 00H, 'b'
	DB	00H, '_', 00H, 't', 00H, 'r', 00H, 'u', 00H, 'e', 00H, 't', 00H
	DB	'y', 00H, 'p', 00H, 'e', 00H, '.', 00H, 'h', 00H, 00H, 00H
	ORG $+4
$SG83935 DB	'x', 00H, '0', 00H, ' ', 00H, '>', 00H, '=', 00H, ' ', 00H
	DB	'x', 00H, ' ', 00H, '&', 00H, '&', 00H, ' ', 00H, 'x', 00H, '0'
	DB	00H, ' ', 00H, '<', 00H, '=', 00H, ' ', 00H, 'x', 00H, '+', 00H
	DB	'1', 00H, ' ', 00H, '&', 00H, '&', 00H, ' ', 00H, 'x', 00H, '1'
	DB	00H, ' ', 00H, '>', 00H, '=', 00H, ' ', 00H, 'x', 00H, ' ', 00H
	DB	'&', 00H, '&', 00H, ' ', 00H, 'x', 00H, '1', 00H, ' ', 00H, '<'
	DB	00H, '=', 00H, ' ', 00H, 'x', 00H, '+', 00H, '1', 00H, 00H, 00H
	ORG $+6
$SG83945 DB	'W', 00H, ':', 00H, '\', 00H, 'c', 00H, 'p', 00H, 'p', 00H
	DB	'\', 00H, 'v', 00H, 'o', 00H, 'i', 00H, 'd', 00H, '\', 00H, 'v'
	DB	00H, 'e', 00H, 'n', 00H, 'd', 00H, 'o', 00H, 'r', 00H, '\', 00H
	DB	's', 00H, 't', 00H, 'b', 00H, '\', 00H, 's', 00H, 't', 00H, 'b'
	DB	00H, '_', 00H, 't', 00H, 'r', 00H, 'u', 00H, 'e', 00H, 't', 00H
	DB	'y', 00H, 'p', 00H, 'e', 00H, '.', 00H, 'h', 00H, 00H, 00H
	ORG $+4
$SG83946 DB	't', 00H, 'o', 00H, 'p', 00H, '_', 00H, 'w', 00H, 'i', 00H
	DB	'd', 00H, 't', 00H, 'h', 00H, ' ', 00H, '>', 00H, '=', 00H, ' '
	DB	00H, '0', 00H, 00H, 00H
	ORG $+2
$SG83947 DB	'W', 00H, ':', 00H, '\', 00H, 'c', 00H, 'p', 00H, 'p', 00H
	DB	'\', 00H, 'v', 00H, 'o', 00H, 'i', 00H, 'd', 00H, '\', 00H, 'v'
	DB	00H, 'e', 00H, 'n', 00H, 'd', 00H, 'o', 00H, 'r', 00H, '\', 00H
	DB	's', 00H, 't', 00H, 'b', 00H, '\', 00H, 's', 00H, 't', 00H, 'b'
	DB	00H, '_', 00H, 't', 00H, 'r', 00H, 'u', 00H, 'e', 00H, 't', 00H
	DB	'y', 00H, 'p', 00H, 'e', 00H, '.', 00H, 'h', 00H, 00H, 00H
	ORG $+4
$SG83948 DB	'b', 00H, 'o', 00H, 't', 00H, 't', 00H, 'o', 00H, 'm', 00H
	DB	'_', 00H, 'w', 00H, 'i', 00H, 'd', 00H, 't', 00H, 'h', 00H, ' '
	DB	00H, '>', 00H, '=', 00H, ' ', 00H, '0', 00H, 00H, 00H
	ORG $+4
$SG157705 DB	'D3D11_FILL_MODE', 00H
$SG157706 DB	'D3D11_FILL_WIREFRAME', 00H
	ORG $+3
$SG157707 DB	'D3D11_FILL_SOLID', 00H
	ORG $+7
$SG157708 DB	'D3D11_CULL_MODE', 00H
$SG157709 DB	'D3D11_CULL_NONE', 00H
$SG157710 DB	'D3D11_CULL_FRONT', 00H
	ORG $+7
$SG157711 DB	'D3D11_CULL_BACK', 00H
$SG157712 DB	'D3D11_RASTERIZER_DESC', 00H
	ORG $+2
$SG157713 DB	'FillMode', 00H
	ORG $+7
$SG157714 DB	'CullMode', 00H
	ORG $+7
$SG157715 DB	'FrontCounterClockwise', 00H
	ORG $+2
$SG157716 DB	'DepthBias', 00H
	ORG $+6
$SG157717 DB	'DepthBiasClamp', 00H
	ORG $+1
$SG157718 DB	'SlopeScaledDepthBias', 00H
	ORG $+3
$SG157719 DB	'DepthClipEnable', 00H
$SG157720 DB	'ScissorEnable', 00H
	ORG $+2
$SG157721 DB	'MultisampleEnable', 00H
	ORG $+6
$SG157722 DB	'AntialiasedLineEnable', 00H
	ORG $+2
$SG92221 DB	'11 4 22 44 44 22 444444', 00H
$SG84028 DB	'W', 00H, ':', 00H, '\', 00H, 'c', 00H, 'p', 00H, 'p', 00H
	DB	'\', 00H, 'v', 00H, 'o', 00H, 'i', 00H, 'd', 00H, '\', 00H, 'v'
	DB	00H, 'e', 00H, 'n', 00H, 'd', 00H, 'o', 00H, 'r', 00H, '\', 00H
	DB	's', 00H, 't', 00H, 'b', 00H, '\', 00H, 's', 00H, 't', 00H, 'b'
	DB	00H, '_', 00H, 't', 00H, 'r', 00H, 'u', 00H, 'e', 00H, 't', 00H
	DB	'y', 00H, 'p', 00H, 'e', 00H, '.', 00H, 'h', 00H, 00H, 00H
	ORG $+4
$SG84029 DB	'e', 00H, '-', 00H, '>', 00H, 'e', 00H, 'y', 00H, ' ', 00H
	DB	'>', 00H, '=', 00H, ' ', 00H, 'y', 00H, '_', 00H, 't', 00H, 'o'
	DB	00H, 'p', 00H, 00H, 00H
	ORG $+2
$SG92222 DB	'11 4 22 44 44 22 444444 4444 4 444 444 444 444', 00H
	ORG $+1
$SG84035 DB	'W', 00H, ':', 00H, '\', 00H, 'c', 00H, 'p', 00H, 'p', 00H
	DB	'\', 00H, 'v', 00H, 'o', 00H, 'i', 00H, 'd', 00H, '\', 00H, 'v'
	DB	00H, 'e', 00H, 'n', 00H, 'd', 00H, 'o', 00H, 'r', 00H, '\', 00H
	DB	's', 00H, 't', 00H, 'b', 00H, '\', 00H, 's', 00H, 't', 00H, 'b'
	DB	00H, '_', 00H, 't', 00H, 'r', 00H, 'u', 00H, 'e', 00H, 't', 00H
	DB	'y', 00H, 'p', 00H, 'e', 00H, '.', 00H, 'h', 00H, 00H, 00H
	ORG $+4
$SG84036 DB	'e', 00H, '-', 00H, '>', 00H, 's', 00H, 'y', 00H, ' ', 00H
	DB	'<', 00H, '=', 00H, ' ', 00H, 'y', 00H, '_', 00H, 'b', 00H, 'o'
	DB	00H, 't', 00H, 't', 00H, 'o', 00H, 'm', 00H, ' ', 00H, '&', 00H
	DB	'&', 00H, ' ', 00H, 'e', 00H, '-', 00H, '>', 00H, 'e', 00H, 'y'
	DB	00H, ' ', 00H, '>', 00H, '=', 00H, ' ', 00H, 'y', 00H, '_', 00H
	DB	't', 00H, 'o', 00H, 'p', 00H, 00H, 00H
$SG157765 DB	'user32.dll', 00H
	ORG $+5
$SG157768 DB	'SetProcessDPIAwarenessContext', 00H
	ORG $+2
$SG157770 DB	'SetProcessDPIAware', 00H
	ORG $+5
$SG157771 DB	'W:\cpp\void\detroit', 00H
$SG92904 DB	'IHDR', 00H
	ORG $+7
$SG84045 DB	'W', 00H, ':', 00H, '\', 00H, 'c', 00H, 'p', 00H, 'p', 00H
	DB	'\', 00H, 'v', 00H, 'o', 00H, 'i', 00H, 'd', 00H, '\', 00H, 'v'
	DB	00H, 'e', 00H, 'n', 00H, 'd', 00H, 'o', 00H, 'r', 00H, '\', 00H
	DB	's', 00H, 't', 00H, 'b', 00H, '\', 00H, 's', 00H, 't', 00H, 'b'
	DB	00H, '_', 00H, 't', 00H, 'r', 00H, 'u', 00H, 'e', 00H, 't', 00H
	DB	'y', 00H, 'p', 00H, 'e', 00H, '.', 00H, 'h', 00H, 00H, 00H
	ORG $+4
$SG84046 DB	'x', 00H, ' ', 00H, '>', 00H, '=', 00H, ' ', 00H, '0', 00H
	DB	' ', 00H, '&', 00H, '&', 00H, ' ', 00H, 'x', 00H, ' ', 00H, '<'
	DB	00H, ' ', 00H, 'l', 00H, 'e', 00H, 'n', 00H, 00H, 00H
$SG92905 DB	'IHDR', 00H
	ORG $+7
$SG84048 DB	'W', 00H, ':', 00H, '\', 00H, 'c', 00H, 'p', 00H, 'p', 00H
	DB	'\', 00H, 'v', 00H, 'o', 00H, 'i', 00H, 'd', 00H, '\', 00H, 'v'
	DB	00H, 'e', 00H, 'n', 00H, 'd', 00H, 'o', 00H, 'r', 00H, '\', 00H
	DB	's', 00H, 't', 00H, 'b', 00H, '\', 00H, 's', 00H, 't', 00H, 'b'
	DB	00H, '_', 00H, 't', 00H, 'r', 00H, 'u', 00H, 'e', 00H, 't', 00H
	DB	'y', 00H, 'p', 00H, 'e', 00H, '.', 00H, 'h', 00H, 00H, 00H
	ORG $+4
$SG157777 DB	'shaders', 00H
$SG84049 DB	'd', 00H, 'y', 00H, ' ', 00H, '>', 00H, '=', 00H, ' ', 00H
	DB	'0', 00H, 00H, 00H
$SG157778 DB	'grenze-bold', 00H
$SG92906 DB	'IHDR', 00H
	ORG $+7
$SG84050 DB	'W', 00H, ':', 00H, '\', 00H, 'c', 00H, 'p', 00H, 'p', 00H
	DB	'\', 00H, 'v', 00H, 'o', 00H, 'i', 00H, 'd', 00H, '\', 00H, 'v'
	DB	00H, 'e', 00H, 'n', 00H, 'd', 00H, 'o', 00H, 'r', 00H, '\', 00H
	DB	's', 00H, 't', 00H, 'b', 00H, '\', 00H, 's', 00H, 't', 00H, 'b'
	DB	00H, '_', 00H, 't', 00H, 'r', 00H, 'u', 00H, 'e', 00H, 't', 00H
	DB	'y', 00H, 'p', 00H, 'e', 00H, '.', 00H, 'h', 00H, 00H, 00H
	ORG $+4
$SG84051 DB	'd', 00H, 'x', 00H, ' ', 00H, '>', 00H, '=', 00H, ' ', 00H
	DB	'0', 00H, 00H, 00H
$SG84054 DB	'W', 00H, ':', 00H, '\', 00H, 'c', 00H, 'p', 00H, 'p', 00H
	DB	'\', 00H, 'v', 00H, 'o', 00H, 'i', 00H, 'd', 00H, '\', 00H, 'v'
	DB	00H, 'e', 00H, 'n', 00H, 'd', 00H, 'o', 00H, 'r', 00H, '\', 00H
	DB	's', 00H, 't', 00H, 'b', 00H, '\', 00H, 's', 00H, 't', 00H, 'b'
	DB	00H, '_', 00H, 't', 00H, 'r', 00H, 'u', 00H, 'e', 00H, 't', 00H
	DB	'y', 00H, 'p', 00H, 'e', 00H, '.', 00H, 'h', 00H, 00H, 00H
	ORG $+4
$SG84055 DB	'f', 00H, 'a', 00H, 'b', 00H, 's', 00H, '(', 00H, 'a', 00H
	DB	'r', 00H, 'e', 00H, 'a', 00H, ')', 00H, ' ', 00H, '<', 00H, '='
	DB	00H, ' ', 00H, '1', 00H, '.', 00H, '0', 00H, '1', 00H, 'f', 00H
	DB	00H, 00H
$SG84057 DB	's', 00H, 'y', 00H, '1', 00H, ' ', 00H, '>', 00H, ' ', 00H
	DB	'y', 00H, '_', 00H, 'f', 00H, 'i', 00H, 'n', 00H, 'a', 00H, 'l'
	DB	00H, '-', 00H, '0', 00H, '.', 00H, '0', 00H, '1', 00H, 'f', 00H
	DB	00H, 00H
$SG84056 DB	'W', 00H, ':', 00H, '\', 00H, 'c', 00H, 'p', 00H, 'p', 00H
	DB	'\', 00H, 'v', 00H, 'o', 00H, 'i', 00H, 'd', 00H, '\', 00H, 'v'
	DB	00H, 'e', 00H, 'n', 00H, 'd', 00H, 'o', 00H, 'r', 00H, '\', 00H
	DB	's', 00H, 't', 00H, 'b', 00H, '\', 00H, 's', 00H, 't', 00H, 'b'
	DB	00H, '_', 00H, 't', 00H, 'r', 00H, 'u', 00H, 'e', 00H, 't', 00H
	DB	'y', 00H, 'p', 00H, 'e', 00H, '.', 00H, 'h', 00H, 00H, 00H
	ORG $+4
$SG92288 DB	'111 221 2222 11', 00H
$SG92289 DB	'111 221 2222 11', 00H
$SG84124 DB	'W', 00H, ':', 00H, '\', 00H, 'c', 00H, 'p', 00H, 'p', 00H
	DB	'\', 00H, 'v', 00H, 'o', 00H, 'i', 00H, 'd', 00H, '\', 00H, 'v'
	DB	00H, 'e', 00H, 'n', 00H, 'd', 00H, 'o', 00H, 'r', 00H, '\', 00H
	DB	's', 00H, 't', 00H, 'b', 00H, '\', 00H, 's', 00H, 't', 00H, 'b'
	DB	00H, '_', 00H, 't', 00H, 'r', 00H, 'u', 00H, 'e', 00H, 't', 00H
	DB	'y', 00H, 'p', 00H, 'e', 00H, '.', 00H, 'h', 00H, 00H, 00H
	ORG $+4
$SG84125 DB	'z', 00H, '-', 00H, '>', 00H, 'd', 00H, 'i', 00H, 'r', 00H
	DB	'e', 00H, 'c', 00H, 't', 00H, 'i', 00H, 'o', 00H, 'n', 00H, 00H
	DB	00H
	ORG $+6
$SG84130 DB	'W', 00H, ':', 00H, '\', 00H, 'c', 00H, 'p', 00H, 'p', 00H
	DB	'\', 00H, 'v', 00H, 'o', 00H, 'i', 00H, 'd', 00H, '\', 00H, 'v'
	DB	00H, 'e', 00H, 'n', 00H, 'd', 00H, 'o', 00H, 'r', 00H, '\', 00H
	DB	's', 00H, 't', 00H, 'b', 00H, '\', 00H, 's', 00H, 't', 00H, 'b'
	DB	00H, '_', 00H, 't', 00H, 'r', 00H, 'u', 00H, 'e', 00H, 't', 00H
	DB	'y', 00H, 'p', 00H, 'e', 00H, '.', 00H, 'h', 00H, 00H, 00H
	ORG $+4
$SG84131 DB	'z', 00H, '-', 00H, '>', 00H, 'e', 00H, 'y', 00H, ' ', 00H
	DB	'>', 00H, '=', 00H, ' ', 00H, 's', 00H, 'c', 00H, 'a', 00H, 'n'
	DB	00H, '_', 00H, 'y', 00H, '_', 00H, 't', 00H, 'o', 00H, 'p', 00H
	DB	00H, 00H
$SG92348 DB	'l', 00H, 'e', 00H, 'n', 00H, 'g', 00H, 't', 00H, 'h', 00H
	DB	'+', 00H, '1', 00H, '2', 00H, '8', 00H, ' ', 00H, '<', 00H, '='
	DB	00H, ' ', 00H, '2', 00H, '5', 00H, '5', 00H, 00H, 00H
	ORG $+4
$SG92347 DB	'W', 00H, ':', 00H, '\', 00H, 'c', 00H, 'p', 00H, 'p', 00H
	DB	'\', 00H, 'v', 00H, 'o', 00H, 'i', 00H, 'd', 00H, '\', 00H, 'v'
	DB	00H, 'e', 00H, 'n', 00H, 'd', 00H, 'o', 00H, 'r', 00H, '\', 00H
	DB	's', 00H, 't', 00H, 'b', 00H, '\', 00H, 's', 00H, 't', 00H, 'b'
	DB	00H, '_', 00H, 'i', 00H, 'm', 00H, 'a', 00H, 'g', 00H, 'e', 00H
	DB	'_', 00H, 'w', 00H, 'r', 00H, 'i', 00H, 't', 00H, 'e', 00H, '.'
	DB	00H, 'h', 00H, 00H, 00H
	ORG $+6
$SG92359 DB	'l', 00H, 'e', 00H, 'n', 00H, 'g', 00H, 't', 00H, 'h', 00H
	DB	' ', 00H, '<', 00H, '=', 00H, ' ', 00H, '1', 00H, '2', 00H, '8'
	DB	00H, 00H, 00H
$SG92907 DB	'IDAT', 00H
	ORG $+7
$SG92358 DB	'W', 00H, ':', 00H, '\', 00H, 'c', 00H, 'p', 00H, 'p', 00H
	DB	'\', 00H, 'v', 00H, 'o', 00H, 'i', 00H, 'd', 00H, '\', 00H, 'v'
	DB	00H, 'e', 00H, 'n', 00H, 'd', 00H, 'o', 00H, 'r', 00H, '\', 00H
	DB	's', 00H, 't', 00H, 'b', 00H, '\', 00H, 's', 00H, 't', 00H, 'b'
	DB	00H, '_', 00H, 'i', 00H, 'm', 00H, 'a', 00H, 'g', 00H, 'e', 00H
	DB	'_', 00H, 'w', 00H, 'r', 00H, 'i', 00H, 't', 00H, 'e', 00H, '.'
	DB	00H, 'h', 00H, 00H, 00H
	ORG $+6
$SG92433 DB	'EXPOSURE=          1.0000000000000', 0aH, 0aH, '-Y %d +X'
	DB	' %d', 0aH, 00H
	ORG $+7
$SG92432 DB	'#?RADIANCE', 0aH, '# Written by stb_image_write.h', 0aH, 'F'
	DB	'ORMAT=32-bit_rle_rgbe', 0aH, 00H
	ORG $+6
$SG158223 DB	'N', 00H, 'O', 00H, '_', 00H, 'M', 00H, 'E', 00H, 'S', 00H
	DB	'S', 00H, 'A', 00H, 'G', 00H, 'E', 00H, 00H, 00H
	ORG $+2
$SG92475 DB	'W', 00H, ':', 00H, '\', 00H, 'c', 00H, 'p', 00H, 'p', 00H
	DB	'\', 00H, 'v', 00H, 'o', 00H, 'i', 00H, 'd', 00H, '\', 00H, 'v'
	DB	00H, 'e', 00H, 'n', 00H, 'd', 00H, 'o', 00H, 'r', 00H, '\', 00H
	DB	's', 00H, 't', 00H, 'b', 00H, '\', 00H, 's', 00H, 't', 00H, 'b'
	DB	00H, '_', 00H, 'i', 00H, 'm', 00H, 'a', 00H, 'g', 00H, 'e', 00H
	DB	'_', 00H, 'w', 00H, 'r', 00H, 'i', 00H, 't', 00H, 'e', 00H, '.'
	DB	00H, 'h', 00H, 00H, 00H
	ORG $+6
$SG158224 DB	'lhs.len == rhs.len', 00H
	ORG $+5
$SG158225 DB	'vec_sub_', 00H
	ORG $+7
$SG158226 DB	'W:\cpp\void\dr-ai\dr-ai.h', 00H
	ORG $+6
$SG158238 DB	'N', 00H, 'O', 00H, '_', 00H, 'M', 00H, 'E', 00H, 'S', 00H
	DB	'S', 00H, 'A', 00H, 'G', 00H, 'E', 00H, 00H, 00H
	ORG $+2
$SG158239 DB	'lhs.len == rhs.len', 00H
	ORG $+5
$SG158240 DB	'vec_add_', 00H
	ORG $+7
$SG158241 DB	'W:\cpp\void\dr-ai\dr-ai.h', 00H
	ORG $+6
$SG158253 DB	'N', 00H, 'O', 00H, '_', 00H, 'M', 00H, 'E', 00H, 'S', 00H
	DB	'S', 00H, 'A', 00H, 'G', 00H, 'E', 00H, 00H, 00H
	ORG $+2
$SG158254 DB	'lhs.len == rhs.len', 00H
	ORG $+5
$SG158255 DB	'vec_mul_', 00H
	ORG $+7
$SG158256 DB	'W:\cpp\void\dr-ai\dr-ai.h', 00H
	ORG $+6
$SG92720 DB	'W', 00H, ':', 00H, '\', 00H, 'c', 00H, 'p', 00H, 'p', 00H
	DB	'\', 00H, 'v', 00H, 'o', 00H, 'i', 00H, 'd', 00H, '\', 00H, 'v'
	DB	00H, 'e', 00H, 'n', 00H, 'd', 00H, 'o', 00H, 'r', 00H, '\', 00H
	DB	's', 00H, 't', 00H, 'b', 00H, '\', 00H, 's', 00H, 't', 00H, 'b'
	DB	00H, '_', 00H, 'i', 00H, 'm', 00H, 'a', 00H, 'g', 00H, 'e', 00H
	DB	'_', 00H, 'w', 00H, 'r', 00H, 'i', 00H, 't', 00H, 'e', 00H, '.'
	DB	00H, 'h', 00H, 00H, 00H
	ORG $+6
$SG92721 DB	'd', 00H, ' ', 00H, '<', 00H, '=', 00H, ' ', 00H, '3', 00H
	DB	'2', 00H, '7', 00H, '6', 00H, '7', 00H, ' ', 00H, '&', 00H, '&'
	DB	00H, ' ', 00H, 'b', 00H, 'e', 00H, 's', 00H, 't', 00H, ' ', 00H
	DB	'<', 00H, '=', 00H, ' ', 00H, '2', 00H, '5', 00H, '8', 00H, 00H
	DB	00H
	ORG $+4
$SG84552 DB	'W', 00H, ':', 00H, '\', 00H, 'c', 00H, 'p', 00H, 'p', 00H
	DB	'\', 00H, 'v', 00H, 'o', 00H, 'i', 00H, 'd', 00H, '\', 00H, 'v'
	DB	00H, 'e', 00H, 'n', 00H, 'd', 00H, 'o', 00H, 'r', 00H, '\', 00H
	DB	's', 00H, 't', 00H, 'b', 00H, '\', 00H, 's', 00H, 't', 00H, 'b'
	DB	00H, '_', 00H, 't', 00H, 'r', 00H, 'u', 00H, 'e', 00H, 't', 00H
	DB	'y', 00H, 'p', 00H, 'e', 00H, '.', 00H, 'h', 00H, 00H, 00H
	ORG $+4
$SG84553 DB	'x', 00H, '+', 00H, 'g', 00H, 'w', 00H, ' ', 00H, '<', 00H
	DB	' ', 00H, 'p', 00H, 'w', 00H, 00H, 00H
$SG92908 DB	'IDAT', 00H
	ORG $+7
$SG84554 DB	'W', 00H, ':', 00H, '\', 00H, 'c', 00H, 'p', 00H, 'p', 00H
	DB	'\', 00H, 'v', 00H, 'o', 00H, 'i', 00H, 'd', 00H, '\', 00H, 'v'
	DB	00H, 'e', 00H, 'n', 00H, 'd', 00H, 'o', 00H, 'r', 00H, '\', 00H
	DB	's', 00H, 't', 00H, 'b', 00H, '\', 00H, 's', 00H, 't', 00H, 'b'
	DB	00H, '_', 00H, 't', 00H, 'r', 00H, 'u', 00H, 'e', 00H, 't', 00H
	DB	'y', 00H, 'p', 00H, 'e', 00H, '.', 00H, 'h', 00H, 00H, 00H
	ORG $+4
$SG84555 DB	'y', 00H, '+', 00H, 'g', 00H, 'h', 00H, ' ', 00H, '<', 00H
	DB	' ', 00H, 'p', 00H, 'h', 00H, 00H, 00H
	ORG $+4
$SG158284 DB	'N', 00H, 'O', 00H, '_', 00H, 'M', 00H, 'E', 00H, 'S', 00H
	DB	'S', 00H, 'A', 00H, 'G', 00H, 'E', 00H, 00H, 00H
	ORG $+2
$SG158285 DB	'lhs.len == rhs.len', 00H
	ORG $+5
$SG158286 DB	'vec_dot', 00H
$SG158287 DB	'W:\cpp\void\dr-ai\dr-ai.h', 00H
	ORG $+6
$SG84683 DB	'W', 00H, ':', 00H, '\', 00H, 'c', 00H, 'p', 00H, 'p', 00H
	DB	'\', 00H, 'v', 00H, 'o', 00H, 'i', 00H, 'd', 00H, '\', 00H, 'v'
	DB	00H, 'e', 00H, 'n', 00H, 'd', 00H, 'o', 00H, 'r', 00H, '\', 00H
	DB	's', 00H, 't', 00H, 'b', 00H, '\', 00H, 's', 00H, 't', 00H, 'b'
	DB	00H, '_', 00H, 't', 00H, 'r', 00H, 'u', 00H, 'e', 00H, 't', 00H
	DB	'y', 00H, 'p', 00H, 'e', 00H, '.', 00H, 'h', 00H, 00H, 00H
	ORG $+4
$SG84684 DB	'h', 00H, '_', 00H, 'o', 00H, 'v', 00H, 'e', 00H, 'r', 00H
	DB	's', 00H, 'a', 00H, 'm', 00H, 'p', 00H, 'l', 00H, 'e', 00H, ' '
	DB	00H, '<', 00H, '=', 00H, ' ', 00H, '8', 00H, 00H, 00H
$SG92909 DB	'IDAT', 00H
	ORG $+7
$SG84685 DB	'W', 00H, ':', 00H, '\', 00H, 'c', 00H, 'p', 00H, 'p', 00H
	DB	'\', 00H, 'v', 00H, 'o', 00H, 'i', 00H, 'd', 00H, '\', 00H, 'v'
	DB	00H, 'e', 00H, 'n', 00H, 'd', 00H, 'o', 00H, 'r', 00H, '\', 00H
	DB	's', 00H, 't', 00H, 'b', 00H, '\', 00H, 's', 00H, 't', 00H, 'b'
	DB	00H, '_', 00H, 't', 00H, 'r', 00H, 'u', 00H, 'e', 00H, 't', 00H
	DB	'y', 00H, 'p', 00H, 'e', 00H, '.', 00H, 'h', 00H, 00H, 00H
	ORG $+4
$SG84686 DB	'v', 00H, '_', 00H, 'o', 00H, 'v', 00H, 'e', 00H, 'r', 00H
	DB	's', 00H, 'a', 00H, 'm', 00H, 'p', 00H, 'l', 00H, 'e', 00H, ' '
	DB	00H, '<', 00H, '=', 00H, ' ', 00H, '8', 00H, 00H, 00H
$SG92910 DB	'IDAT', 00H
	ORG $+3
$SG92911 DB	'IEND', 00H
	ORG $+3
$SG92912 DB	'IEND', 00H
	ORG $+3
$SG92913 DB	'IEND', 00H
	ORG $+3
$SG92914 DB	'IEND', 00H
	ORG $+7
$SG92915 DB	'W', 00H, ':', 00H, '\', 00H, 'c', 00H, 'p', 00H, 'p', 00H
	DB	'\', 00H, 'v', 00H, 'o', 00H, 'i', 00H, 'd', 00H, '\', 00H, 'v'
	DB	00H, 'e', 00H, 'n', 00H, 'd', 00H, 'o', 00H, 'r', 00H, '\', 00H
	DB	's', 00H, 't', 00H, 'b', 00H, '\', 00H, 's', 00H, 't', 00H, 'b'
	DB	00H, '_', 00H, 'i', 00H, 'm', 00H, 'a', 00H, 'g', 00H, 'e', 00H
	DB	'_', 00H, 'w', 00H, 'r', 00H, 'i', 00H, 't', 00H, 'e', 00H, '.'
	DB	00H, 'h', 00H, 00H, 00H
	ORG $+6
$SG92916 DB	'o', 00H, ' ', 00H, '=', 00H, '=', 00H, ' ', 00H, 'o', 00H
	DB	'u', 00H, 't', 00H, ' ', 00H, '+', 00H, ' ', 00H, '*', 00H, 'o'
	DB	00H, 'u', 00H, 't', 00H, '_', 00H, 'l', 00H, 'e', 00H, 'n', 00H
	DB	00H, 00H
$SG84741 DB	'W', 00H, ':', 00H, '\', 00H, 'c', 00H, 'p', 00H, 'p', 00H
	DB	'\', 00H, 'v', 00H, 'o', 00H, 'i', 00H, 'd', 00H, '\', 00H, 'v'
	DB	00H, 'e', 00H, 'n', 00H, 'd', 00H, 'o', 00H, 'r', 00H, '\', 00H
	DB	's', 00H, 't', 00H, 'b', 00H, '\', 00H, 's', 00H, 't', 00H, 'b'
	DB	00H, '_', 00H, 't', 00H, 'r', 00H, 'u', 00H, 'e', 00H, 't', 00H
	DB	'y', 00H, 'p', 00H, 'e', 00H, '.', 00H, 'h', 00H, 00H, 00H
	ORG $+4
$SG84742 DB	'p', 00H, 'i', 00H, 'x', 00H, 'e', 00H, 'l', 00H, 's', 00H
	DB	'[', 00H, 'i', 00H, ']', 00H, ' ', 00H, '=', 00H, '=', 00H, ' '
	DB	00H, '0', 00H, 00H, 00H
	ORG $+2
?stbiw__jpg_ZigZag@@3QBEB DB 00H			; stbiw__jpg_ZigZag
	DB	01H
	DB	05H
	DB	06H
	DB	0eH
	DB	0fH
	DB	01bH
	DB	01cH
	DB	02H
	DB	04H
	DB	07H
	DB	0dH
	DB	010H
	DB	01aH
	DB	01dH
	DB	02aH
	DB	03H
	DB	08H
	DB	0cH
	DB	011H
	DB	019H
	DB	01eH
	DB	029H
	DB	02bH
	DB	09H
	DB	0bH
	DB	012H
	DB	018H
	DB	01fH
	DB	028H
	DB	02cH
	DB	035H
	DB	0aH
	DB	013H
	DB	017H
	DB	020H
	DB	027H
	DB	02dH
	DB	034H
	DB	036H
	DB	014H
	DB	016H
	DB	021H
	DB	026H
	DB	02eH
	DB	033H
	DB	037H
	DB	03cH
	DB	015H
	DB	022H
	DB	025H
	DB	02fH
	DB	032H
	DB	038H
	DB	03bH
	DB	03dH
	DB	023H
	DB	024H
	DB	030H
	DB	031H
	DB	039H
	DB	03aH
	DB	03eH
	DB	03fH
$SG158501 DB	'data\train-labels.idx1-ubyte', 00H
	ORG $+3
$SG158502 DB	'data\train-images.idx3-ubyte', 00H
	ORG $+3
$SG158505 DB	'f', 00H, 'a', 00H, 'i', 00H, 'l', 00H, 'e', 00H, 'd', 00H
	DB	' ', 00H, 't', 00H, 'o', 00H, ' ', 00H, 'l', 00H, 'o', 00H, 'a'
	DB	00H, 'd', 00H, ' ', 00H, 's', 00H, 'a', 00H, 'm', 00H, 'p', 00H
	DB	'l', 00H, 'e', 00H, 's', 00H, 00H, 00H
	ORG $+2
$SG158506 DB	'drai__load_samples', 00H
	ORG $+5
$SG158507 DB	'W:\cpp\void\dr-ai\dr-ai.h', 00H
	ORG $+6
$SG158517 DB	'W:\cpp\void\dr-ai', 00H
	ORG $+6
$SG84791 DB	'W', 00H, ':', 00H, '\', 00H, 'c', 00H, 'p', 00H, 'p', 00H
	DB	'\', 00H, 'v', 00H, 'o', 00H, 'i', 00H, 'd', 00H, '\', 00H, 'v'
	DB	00H, 'e', 00H, 'n', 00H, 'd', 00H, 'o', 00H, 'r', 00H, '\', 00H
	DB	's', 00H, 't', 00H, 'b', 00H, '\', 00H, 's', 00H, 't', 00H, 'b'
	DB	00H, '_', 00H, 't', 00H, 'r', 00H, 'u', 00H, 'e', 00H, 't', 00H
	DB	'y', 00H, 'p', 00H, 'e', 00H, '.', 00H, 'h', 00H, 00H, 00H
	ORG $+4
$SG84792 DB	'p', 00H, 'i', 00H, 'x', 00H, 'e', 00H, 'l', 00H, 's', 00H
	DB	'[', 00H, 'i', 00H, '*', 00H, 's', 00H, 't', 00H, 'r', 00H, 'i'
	DB	00H, 'd', 00H, 'e', 00H, '_', 00H, 'i', 00H, 'n', 00H, '_', 00H
	DB	'b', 00H, 'y', 00H, 't', 00H, 'e', 00H, 's', 00H, ']', 00H, ' '
	DB	00H, '=', 00H, '=', 00H, ' ', 00H, '0', 00H, 00H, 00H
	ORG $+2
$SG158522 DB	'SynchronizeTexture', 00H
	ORG $+5
$SG158523 DB	'ai-vis.c', 00H
	ORG $+7
$SG158524 DB	'SynchronizeTexture', 00H
	ORG $+5
$SG158525 DB	'ai-vis.c', 00H
	ORG $+7
$SG158556 DB	'N', 00H, 'e', 00H, 't', 00H, 'w', 00H, 'o', 00H, 'r', 00H
	DB	'k', 00H, ' ', 00H, 't', 00H, 'r', 00H, 'a', 00H, 'i', 00H, 'n'
	DB	00H, 'e', 00H, 'd', 00H, ',', 00H, ' ', 00H, 'A', 00H, 'c', 00H
	DB	'c', 00H, 'u', 00H, 'r', 00H, 'a', 00H, 'c', 00H, 'y', 00H, ':'
	DB	00H, ' ', 00H, '%', 00H, 'f', 00H, 00H, 00H
	ORG $+4
$SG158557 DB	'TrainNetworkOffline', 00H
	ORG $+4
$SG158558 DB	'ai-vis.c', 00H
	ORG $+7
$SG158602 DB	'Offline Trainer', 00H
$SG158605 DB	'Feed Samples: %i', 00H
	ORG $+7
$SG158607 DB	'Test Samples: %i', 00H
	ORG $+7
$SG158608 DB	'N', 00H, 'O', 00H, '_', 00H, 'M', 00H, 'E', 00H, 'S', 00H
	DB	'S', 00H, 'A', 00H, 'G', 00H, 'E', 00H, 00H, 00H
	ORG $+2
$SG158609 DB	'Values->TestSamples <= Values->FeedSamples', 00H
	ORG $+5
$SG158610 DB	'ZenOfflineTrainerWindowView', 00H
	ORG $+4
$SG158611 DB	'ai-vis.c', 00H
	ORG $+7
$SG158613 DB	'Sample Batch: %i', 00H
	ORG $+7
$SG158615 DB	'Learning Rate: %f', 00H
	ORG $+6
$SG158617 DB	'Iterations: %i', 00H
	ORG $+1
$SG158700 DB	'a', 00H, 'i', 00H, '-', 00H, 'v', 00H, 'i', 00H, 's', 00H
	DB	00H, 00H
	ORG $+2
$SG158703 DB	'MAIN', 00H
	ORG $+3
$SG158704 DB	'ai-vis.c', 00H
	ORG $+3
$SG158705 DB	'MAIN', 00H
	ORG $+7
$SG158706 DB	'ai-vis.c', 00H
	ORG $+3
$SG158707 DB	'Font', 00H
	ORG $+7
$SG158709 DB	'Discard Min: %f', 00H
$SG158711 DB	'Discard Max: %f', 00H
$SG158712 DB	'Font Atlas', 00H
	ORG $+5
$SG158713 DB	'ABCDEFGHIJKLMNOPQRSTUVWXYZ', 00H
	ORG $+5
$SG158714 DB	'abcdefghijklmnopqrstuvwxyz', 00H
	ORG $+5
$SG158715 DB	'0123456789', 00H
	ORG $+5
$SG158716 DB	'Online Trainer', 00H
	ORG $+1
$SG158717 DB	'Correct: %i', 00H
	ORG $+4
$SG158718 DB	'Prediction: %i', 00H
	ORG $+1
$SG158719 DB	'Total Samples: %i', 00H
	ORG $+6
$SG158720 DB	'Correct Predictions: %i', 00H
$SG158721 DB	'Accuracy: %-3.2f', 00H
	ORG $+7
$SG158723 DB	'LearningRate', 00H
	ORG $+3
$SG158725 DB	'Checkbox', 00H
	ORG $+7
$SG158726 DB	'SampleTexture', 00H
	ORG $+2
$SG158728 DB	'Prediction: %i', 00H
	ORG $+1
$SG158730 DB	'MAIN', 00H
	ORG $+3
$SG158731 DB	'ai-vis.c', 00H
	ORG $+3
$SG158732 DB	'MAIN', 00H
	ORG $+7
$SG158733 DB	'ai-vis.c', 00H
	ORG $+7
$SG93380 DB	'f', 00H, 'a', 00H, 'i', 00H, 'l', 00H, 'e', 00H, 'd', 00H
	DB	' ', 00H, 't', 00H, 'o', 00H, ' ', 00H, 'i', 00H, 'n', 00H, 'i'
	DB	00H, 't', 00H, 'i', 00H, 'a', 00H, 'l', 00H, 'i', 00H, 'z', 00H
	DB	'e', 00H, ' ', 00H, 'a', 00H, 'r', 00H, 'e', 00H, 'n', 00H, 'a'
	DB	00H, 00H, 00H
	ORG $+2
$SG93381 DB	'ZenArenaInit', 00H
	ORG $+3
$SG93382 DB	'W:\cpp\void\detroit\brazen-memory.h', 00H
	ORG $+4
$SG93392 DB	'N', 00H, 'O', 00H, '_', 00H, 'M', 00H, 'E', 00H, 'S', 00H
	DB	'S', 00H, 'A', 00H, 'G', 00H, 'E', 00H, 00H, 00H
	ORG $+2
$SG93394 DB	'! "error"', 00H
	ORG $+6
$SG93395 DB	'ZenArenaAlloc', 00H
	ORG $+2
$SG93396 DB	'W:\cpp\void\detroit\brazen-memory.h', 00H
	ORG $+4
?COLOR_GRAY@@3Tf32x4@@B DD 03f000000r		; 0.5	; COLOR_GRAY
	DD	03f000000r			; 0.5
	DD	03f000000r			; 0.5
	DD	03f800000r			; 1
?COLOR_BLUE@@3Tf32x4@@B DD 000000000r		; 0	; COLOR_BLUE
	DD	000000000r			; 0
	DD	03f800000r			; 1
	DD	03f800000r			; 1
?COLOR_GREEN@@3Tf32x4@@B DD 000000000r		; 0	; COLOR_GREEN
	DD	03f800000r			; 1
	DD	000000000r			; 0
	DD	03f800000r			; 1
?COLOR_RED@@3Tf32x4@@B DD 03f800000r		; 1	; COLOR_RED
	DD	000000000r			; 0
	DD	000000000r			; 0
	DD	03f800000r			; 1
$SG85278 DB	'W', 00H, ':', 00H, '\', 00H, 'c', 00H, 'p', 00H, 'p', 00H
	DB	'\', 00H, 'v', 00H, 'o', 00H, 'i', 00H, 'd', 00H, '\', 00H, 'v'
	DB	00H, 'e', 00H, 'n', 00H, 'd', 00H, 'o', 00H, 'r', 00H, '\', 00H
	DB	's', 00H, 't', 00H, 'b', 00H, '\', 00H, 's', 00H, 't', 00H, 'b'
	DB	00H, '_', 00H, 't', 00H, 'r', 00H, 'u', 00H, 'e', 00H, 't', 00H
	DB	'y', 00H, 'p', 00H, 'e', 00H, '.', 00H, 'h', 00H, 00H, 00H
	ORG $+4
$SG85279 DB	'i', 00H, ' ', 00H, '!', 00H, '=', 00H, ' ', 00H, '0', 00H
	DB	00H, 00H
	ORG $+2
$SG93570 DB	'I', 00H, 'n', 00H, 'v', 00H, 'a', 00H, 'l', 00H, 'i', 00H
	DB	'd', 00H, ' ', 00H, 'p', 00H, 'i', 00H, 'x', 00H, 'e', 00H, 'l'
	DB	00H, ' ', 00H, 'X', 00H, ' ', 00H, 'c', 00H, 'o', 00H, 'o', 00H
	DB	'r', 00H, 'd', 00H, 'i', 00H, 'n', 00H, 'a', 00H, 't', 00H, 'e'
	DB	00H, ' ', 00H, '%', 00H, 'i', 00H, ',', 00H, ' ', 00H, 'l', 00H
	DB	'i', 00H, 'm', 00H, 'i', 00H, 't', 00H, ' ', 00H, 'i', 00H, 's'
	DB	00H, ' ', 00H, '%', 00H, 'i', 00H, 00H, 00H
	ORG $+2
$SG93571 DB	'X < Texture->DimenX', 00H
	ORG $+4
$SG93572 DB	'ZenGetTextureMemoryAt', 00H
	ORG $+2
$SG85380 DB	'name', 00H
	ORG $+3
$SG93573 DB	'W:\cpp\void\detroit\brazen-texture.h', 00H
	ORG $+3
$SG93575 DB	'Y < Texture->DimenY', 00H
	ORG $+4
$SG93574 DB	'I', 00H, 'n', 00H, 'v', 00H, 'a', 00H, 'l', 00H, 'i', 00H
	DB	'd', 00H, ' ', 00H, 'p', 00H, 'i', 00H, 'x', 00H, 'e', 00H, 'l'
	DB	00H, ' ', 00H, 'Y', 00H, ' ', 00H, 'c', 00H, 'o', 00H, 'o', 00H
	DB	'r', 00H, 'd', 00H, 'i', 00H, 'n', 00H, 'a', 00H, 't', 00H, 'e'
	DB	00H, ' ', 00H, '%', 00H, 'i', 00H, ',', 00H, ' ', 00H, 'l', 00H
	DB	'i', 00H, 'm', 00H, 'i', 00H, 't', 00H, ' ', 00H, 'i', 00H, 's'
	DB	00H, ' ', 00H, '%', 00H, 'i', 00H, 00H, 00H
	ORG $+2
$SG93576 DB	'ZenGetTextureMemoryAt', 00H
	ORG $+2
$SG93577 DB	'W:\cpp\void\detroit\brazen-texture.h', 00H
	ORG $+3
$SG93608 DB	'I', 00H, 'n', 00H, 'v', 00H, 'a', 00H, 'l', 00H, 'i', 00H
	DB	'd', 00H, ' ', 00H, 't', 00H, 'e', 00H, 'x', 00H, 't', 00H, 'u'
	DB	00H, 'r', 00H, 'e', 00H, ' ', 00H, 'd', 00H, 'i', 00H, 'm', 00H
	DB	'e', 00H, 'n', 00H, 's', 00H, 'i', 00H, 'o', 00H, 'n', 00H, 's'
	DB	00H, 00H, 00H
	ORG $+2
$SG93609 DB	'Destination->DimenX == Source->DimenX', 00H
	ORG $+2
$SG93610 DB	'ZenCopyTexture', 00H
	ORG $+1
$SG93611 DB	'W:\cpp\void\detroit\brazen-texture.h', 00H
	ORG $+3
$SG93612 DB	'I', 00H, 'n', 00H, 'v', 00H, 'a', 00H, 'l', 00H, 'i', 00H
	DB	'd', 00H, ' ', 00H, 't', 00H, 'e', 00H, 'x', 00H, 't', 00H, 'u'
	DB	00H, 'r', 00H, 'e', 00H, ' ', 00H, 'd', 00H, 'i', 00H, 'm', 00H
	DB	'e', 00H, 'n', 00H, 's', 00H, 'i', 00H, 'o', 00H, 'n', 00H, 's'
	DB	00H, 00H, 00H
	ORG $+2
$SG93613 DB	'Destination->DimenY == Source->DimenY', 00H
	ORG $+2
$SG93614 DB	'ZenCopyTexture', 00H
	ORG $+1
$SG93615 DB	'W:\cpp\void\detroit\brazen-texture.h', 00H
	ORG $+3
$SG93616 DB	'I', 00H, 'n', 00H, 'v', 00H, 'a', 00H, 'l', 00H, 'i', 00H
	DB	'd', 00H, ' ', 00H, 't', 00H, 'e', 00H, 'x', 00H, 't', 00H, 'u'
	DB	00H, 'r', 00H, 'e', 00H, ' ', 00H, 's', 00H, 't', 00H, 'r', 00H
	DB	'i', 00H, 'd', 00H, 'e', 00H, 00H, 00H
	ORG $+2
$SG93617 DB	'Destination->Stride >= Source->Stride', 00H
	ORG $+2
$SG93618 DB	'ZenCopyTexture', 00H
	ORG $+1
$SG93619 DB	'W:\cpp\void\detroit\brazen-texture.h', 00H
	ORG $+3
$SG93622 DB	'ZenCopyTexture', 00H
	ORG $+1
$SG93623 DB	'W:\cpp\void\detroit\brazen-texture.h', 00H
	ORG $+3
$SG93620 DB	'M', 00H, 'i', 00H, 's', 00H, 's', 00H, 'i', 00H, 'n', 00H
	DB	'g', 00H, ' ', 00H, 'd', 00H, 'e', 00H, 's', 00H, 't', 00H, 'i'
	DB	00H, 'n', 00H, 'a', 00H, 't', 00H, 'i', 00H, 'o', 00H, 'n', 00H
	DB	' ', 00H, 't', 00H, 'e', 00H, 'x', 00H, 't', 00H, 'u', 00H, 'r'
	DB	00H, 'e', 00H, ' ', 00H, 'm', 00H, 'e', 00H, 'm', 00H, 'o', 00H
	DB	'r', 00H, 'y', 00H, 00H, 00H
	ORG $+2
$SG93621 DB	'Destination->Memory != NULL', 00H
	ORG $+4
$SG93624 DB	'M', 00H, 'i', 00H, 's', 00H, 's', 00H, 'i', 00H, 'n', 00H
	DB	'g', 00H, ' ', 00H, 's', 00H, 'o', 00H, 'u', 00H, 'r', 00H, 'c'
	DB	00H, 'e', 00H, ' ', 00H, 't', 00H, 'e', 00H, 'x', 00H, 't', 00H
	DB	'u', 00H, 'r', 00H, 'e', 00H, ' ', 00H, 'm', 00H, 'e', 00H, 'm'
	DB	00H, 'o', 00H, 'r', 00H, 'y', 00H, 00H, 00H
	ORG $+4
$SG93625 DB	'Source->Memory != NULL', 00H
	ORG $+1
$SG85433 DB	'head', 00H
	ORG $+3
$SG93626 DB	'ZenCopyTexture', 00H
	ORG $+1
$SG93627 DB	'W:\cpp\void\detroit\brazen-texture.h', 00H
	ORG $+3
$SG85435 DB	'name', 00H
	ORG $+3
$SG93630 DB	'ZenCopyTexture', 00H
	ORG $+1
$SG93631 DB	'W:\cpp\void\detroit\brazen-texture.h', 00H
	ORG $+3
$SG93628 DB	'I', 00H, 'n', 00H, 'v', 00H, 'a', 00H, 'l', 00H, 'i', 00H
	DB	'd', 00H, ' ', 00H, 's', 00H, 'o', 00H, 'u', 00H, 'r', 00H, 'c'
	DB	00H, 'e', 00H, ' ', 00H, 't', 00H, 'e', 00H, 'x', 00H, 't', 00H
	DB	'u', 00H, 'r', 00H, 'e', 00H, ',', 00H, ' ', 00H, 'b', 00H, 'a'
	DB	00H, 'd', 00H, ' ', 00H, 's', 00H, 't', 00H, 'r', 00H, 'i', 00H
	DB	'd', 00H, 'e', 00H, 00H, 00H
	ORG $+2
$SG93629 DB	'RowSize <= Source->Stride', 00H
	ORG $+6
$SG93652 DB	'N', 00H, 'O', 00H, '_', 00H, 'M', 00H, 'E', 00H, 'S', 00H
	DB	'S', 00H, 'A', 00H, 'G', 00H, 'E', 00H, 00H, 00H
	ORG $+2
$SG93653 DB	'Texture->Format == PIXEL_FORMAT_RGB8', 00H
	ORG $+3
$SG93654 DB	'ZenDrawQuadOnTexture', 00H
	ORG $+3
$SG93655 DB	'W:\cpp\void\detroit\brazen-texture.h', 00H
	ORG $+3
$SG94226 DB	'i', 00H, 'n', 00H, 'v', 00H, 'a', 00H, 'l', 00H, 'i', 00H
	DB	'd', 00H, ' ', 00H, 'w', 00H, 'i', 00H, 'n', 00H, 'd', 00H, 'o'
	DB	00H, 'w', 00H, ' ', 00H, 's', 00H, 'i', 00H, 'z', 00H, 'e', 00H
	DB	00H, 00H
$SG94227 DB	'ZenHandleNativeWindowMessage', 00H
	ORG $+3
$SG94228 DB	'W:\cpp\void\detroit\brazen-window.h', 00H
	ORG $+4
$SG94237 DB	'i', 00H, 'n', 00H, 'v', 00H, 'a', 00H, 'l', 00H, 'i', 00H
	DB	'd', 00H, ' ', 00H, 's', 00H, 't', 00H, 'a', 00H, 't', 00H, 'e'
	DB	00H, ' ', 00H, '%', 00H, 'i', 00H, 00H, 00H
	ORG $+6
$SG94238 DB	'~Event->Counter & 0x01', 00H
	ORG $+1
$SG94239 DB	'ZenHandleNativeWindowMessage', 00H
	ORG $+3
$SG94240 DB	'W:\cpp\void\detroit\brazen-window.h', 00H
	ORG $+4
$SG94245 DB	'i', 00H, 'n', 00H, 'v', 00H, 'a', 00H, 'l', 00H, 'i', 00H
	DB	'd', 00H, ' ', 00H, 's', 00H, 't', 00H, 'a', 00H, 't', 00H, 'e'
	DB	00H, ' ', 00H, '%', 00H, 'i', 00H, 00H, 00H
	ORG $+6
$SG94246 DB	'Event->Counter & 0x01', 00H
	ORG $+2
$SG94247 DB	'ZenHandleNativeWindowMessage', 00H
	ORG $+3
$SG94248 DB	'W:\cpp\void\detroit\brazen-window.h', 00H
	ORG $+4
$SG86063 DB	'unknown image type', 00H
	ORG $+5
$SG94265 DB	'i', 00H, 'n', 00H, 'v', 00H, 'a', 00H, 'l', 00H, 'i', 00H
	DB	'd', 00H, ' ', 00H, 'w', 00H, 'i', 00H, 'n', 00H, 'd', 00H, 'o'
	DB	00H, 'w', 00H, 00H, 00H
	ORG $+2
$SG94266 DB	'ZenNativeWindowCallback', 00H
$SG94267 DB	'W:\cpp\void\detroit\brazen-window.h', 00H
	ORG $+4
$SG86081 DB	'outofmem', 00H
	ORG $+7
$SG86100 DB	'outofmem', 00H
	ORG $+7
$SG94307 DB	'i', 00H, 'n', 00H, 'v', 00H, 'a', 00H, 'l', 00H, 'i', 00H
	DB	'd', 00H, ' ', 00H, '[', 00H, 'x', 00H, ']', 00H, ' ', 00H, 'd'
	DB	00H, 'i', 00H, 'm', 00H, 'e', 00H, 'n', 00H, 's', 00H, 'i', 00H
	DB	'o', 00H, 'n', 00H, 00H, 00H
	ORG $+4
$SG94308 DB	'Location.Max.X != 0', 00H
	ORG $+4
$SG94309 DB	'ZenCreateNativeWindow', 00H
	ORG $+2
$SG94310 DB	'W:\cpp\void\detroit\brazen-window.h', 00H
	ORG $+4
$SG94311 DB	'i', 00H, 'n', 00H, 'v', 00H, 'a', 00H, 'l', 00H, 'i', 00H
	DB	'd', 00H, ' ', 00H, '[', 00H, 'y', 00H, ']', 00H, ' ', 00H, 'd'
	DB	00H, 'i', 00H, 'm', 00H, 'e', 00H, 'n', 00H, 's', 00H, 'i', 00H
	DB	'o', 00H, 'n', 00H, 00H, 00H
	ORG $+4
$SG94312 DB	'Location.Max.Y != 0', 00H
	ORG $+4
$SG94313 DB	'ZenCreateNativeWindow', 00H
	ORG $+2
$SG94314 DB	'W:\cpp\void\detroit\brazen-window.h', 00H
	ORG $+4
$SG94315 DB	'Z', 00H, 'e', 00H, 'n', 00H, 'W', 00H, 'i', 00H, 'n', 00H
	DB	'd', 00H, 'o', 00H, 'w', 00H, ':', 00H, ':', 00H, '%', 00H, 's'
	DB	00H, 00H, 00H
	ORG $+4
$SG94321 DB	'C', 00H, 'r', 00H, 'e', 00H, 'a', 00H, 't', 00H, 'e', 00H
	DB	'F', 00H, 'i', 00H, 'b', 00H, 'e', 00H, 'r', 00H, '(', 00H, ')'
	DB	00H, ' ', 00H, '[', 00H, 'F', 00H, 'A', 00H, 'I', 00H, 'L', 00H
	DB	'E', 00H, 'D', 00H, ']', 00H, 00H, 00H
	ORG $+2
$SG94322 DB	'ZenCreateNativeWindow', 00H
	ORG $+2
$SG94323 DB	'W:\cpp\void\detroit\brazen-window.h', 00H
	ORG $+4
$SG94325 DB	'S', 00H, 'e', 00H, 't', 00H, 'W', 00H, 'i', 00H, 'n', 00H
	DB	'd', 00H, 'o', 00H, 'w', 00H, 'L', 00H, 'o', 00H, 'n', 00H, 'g'
	DB	00H, 'P', 00H, 't', 00H, 'r', 00H, 'A', 00H, '(', 00H, ')', 00H
	DB	' ', 00H, '[', 00H, 'F', 00H, 'A', 00H, 'I', 00H, 'L', 00H, 'E'
	DB	00H, 'D', 00H, ']', 00H, ',', 00H, ' ', 00H, '%', 00H, 's', 00H
	DB	00H, 00H
	ORG $+6
$SG94326 DB	'ZenCreateNativeWindow', 00H
	ORG $+2
$SG94327 DB	'W:\cpp\void\detroit\brazen-window.h', 00H
	ORG $+4
$SG94329 DB	'G', 00H, 'e', 00H, 't', 00H, 'W', 00H, 'i', 00H, 'n', 00H
	DB	'd', 00H, 'o', 00H, 'w', 00H, 'L', 00H, 'o', 00H, 'n', 00H, 'g'
	DB	00H, 'P', 00H, 't', 00H, 'r', 00H, 'A', 00H, '(', 00H, ')', 00H
	DB	' ', 00H, '[', 00H, 'F', 00H, 'A', 00H, 'I', 00H, 'L', 00H, 'E'
	DB	00H, 'D', 00H, ']', 00H, 00H, 00H
	ORG $+6
$SG94330 DB	'ZenCreateNativeWindow', 00H
	ORG $+2
$SG94331 DB	'W:\cpp\void\detroit\brazen-window.h', 00H
	ORG $+4
$SG94332 DB	'f', 00H, 'a', 00H, 'i', 00H, 'l', 00H, 'e', 00H, 'd', 00H
	DB	' ', 00H, 't', 00H, 'o', 00H, ' ', 00H, 'c', 00H, 'r', 00H, 'e'
	DB	00H, 'a', 00H, 't', 00H, 'e', 00H, ' ', 00H, 'w', 00H, 'i', 00H
	DB	'n', 00H, 'd', 00H, 'o', 00H, 'w', 00H, 00H, 00H
$SG94333 DB	'ZenCreateNativeWindow', 00H
	ORG $+2
$SG94334 DB	'W:\cpp\void\detroit\brazen-window.h', 00H
$SG79494 DB	'NORMAL', 00H
	ORG $+5
$SG94335 DB	'f', 00H, 'a', 00H, 'i', 00H, 'l', 00H, 'e', 00H, 'd', 00H
	DB	' ', 00H, 't', 00H, 'o', 00H, ' ', 00H, 'r', 00H, 'e', 00H, 'g'
	DB	00H, 'i', 00H, 's', 00H, 't', 00H, 'e', 00H, 'r', 00H, ' ', 00H
	DB	'w', 00H, 'i', 00H, 'n', 00H, 'd', 00H, 'o', 00H, 'w', 00H, ' '
	DB	00H, 'c', 00H, 'l', 00H, 'a', 00H, 's', 00H, 's', 00H, 00H, 00H
$SG94336 DB	'ZenCreateNativeWindow', 00H
	ORG $+2
$SG94337 DB	'W:\cpp\void\detroit\brazen-window.h', 00H
	ORG $+4
$SG86152 DB	'W', 00H, ':', 00H, '\', 00H, 'c', 00H, 'p', 00H, 'p', 00H
	DB	'\', 00H, 'v', 00H, 'o', 00H, 'i', 00H, 'd', 00H, '\', 00H, 'v'
	DB	00H, 'e', 00H, 'n', 00H, 'd', 00H, 'o', 00H, 'r', 00H, '\', 00H
	DB	's', 00H, 't', 00H, 'b', 00H, '\', 00H, 's', 00H, 't', 00H, 'b'
	DB	00H, '_', 00H, 'i', 00H, 'm', 00H, 'a', 00H, 'g', 00H, 'e', 00H
	DB	'.', 00H, 'h', 00H, 00H, 00H
	ORG $+2
$SG86310 DB	'unknown image type', 00H
	ORG $+5
$SG86153 DB	'r', 00H, 'i', 00H, '.', 00H, 'b', 00H, 'i', 00H, 't', 00H
	DB	's', 00H, '_', 00H, 'p', 00H, 'e', 00H, 'r', 00H, '_', 00H, 'c'
	DB	00H, 'h', 00H, 'a', 00H, 'n', 00H, 'n', 00H, 'e', 00H, 'l', 00H
	DB	' ', 00H, '=', 00H, '=', 00H, ' ', 00H, '8', 00H, ' ', 00H, '|'
	DB	00H, '|', 00H, ' ', 00H, 'r', 00H, 'i', 00H, '.', 00H, 'b', 00H
	DB	'i', 00H, 't', 00H, 's', 00H, '_', 00H, 'p', 00H, 'e', 00H, 'r'
	DB	00H, '_', 00H, 'c', 00H, 'h', 00H, 'a', 00H, 'n', 00H, 'n', 00H
	DB	'e', 00H, 'l', 00H, ' ', 00H, '=', 00H, '=', 00H, ' ', 00H, '1'
	DB	00H, '6', 00H, 00H, 00H
	ORG $+4
$SG86172 DB	'W', 00H, ':', 00H, '\', 00H, 'c', 00H, 'p', 00H, 'p', 00H
	DB	'\', 00H, 'v', 00H, 'o', 00H, 'i', 00H, 'd', 00H, '\', 00H, 'v'
	DB	00H, 'e', 00H, 'n', 00H, 'd', 00H, 'o', 00H, 'r', 00H, '\', 00H
	DB	's', 00H, 't', 00H, 'b', 00H, '\', 00H, 's', 00H, 't', 00H, 'b'
	DB	00H, '_', 00H, 'i', 00H, 'm', 00H, 'a', 00H, 'g', 00H, 'e', 00H
	DB	'.', 00H, 'h', 00H, 00H, 00H
	ORG $+2
$SG94878 DB	'ZenImposeImmediatePrimitiveCurtail', 00H
	ORG $+5
$SG86173 DB	'r', 00H, 'i', 00H, '.', 00H, 'b', 00H, 'i', 00H, 't', 00H
	DB	's', 00H, '_', 00H, 'p', 00H, 'e', 00H, 'r', 00H, '_', 00H, 'c'
	DB	00H, 'h', 00H, 'a', 00H, 'n', 00H, 'n', 00H, 'e', 00H, 'l', 00H
	DB	' ', 00H, '=', 00H, '=', 00H, ' ', 00H, '8', 00H, ' ', 00H, '|'
	DB	00H, '|', 00H, ' ', 00H, 'r', 00H, 'i', 00H, '.', 00H, 'b', 00H
	DB	'i', 00H, 't', 00H, 's', 00H, '_', 00H, 'p', 00H, 'e', 00H, 'r'
	DB	00H, '_', 00H, 'c', 00H, 'h', 00H, 'a', 00H, 'n', 00H, 'n', 00H
	DB	'e', 00H, 'l', 00H, ' ', 00H, '=', 00H, '=', 00H, ' ', 00H, '1'
	DB	00H, '6', 00H, 00H, 00H
	ORG $+4
$SG86205 DB	'can''t fopen', 00H
	ORG $+4
$SG86242 DB	'can''t fopen', 00H
	ORG $+4
$SG86343 DB	'can''t fopen', 00H
	ORG $+4
$SG86526 DB	'W', 00H, ':', 00H, '\', 00H, 'c', 00H, 'p', 00H, 'p', 00H
	DB	'\', 00H, 'v', 00H, 'o', 00H, 'i', 00H, 'd', 00H, '\', 00H, 'v'
	DB	00H, 'e', 00H, 'n', 00H, 'd', 00H, 'o', 00H, 'r', 00H, '\', 00H
	DB	's', 00H, 't', 00H, 'b', 00H, '\', 00H, 's', 00H, 't', 00H, 'b'
	DB	00H, '_', 00H, 'i', 00H, 'm', 00H, 'a', 00H, 'g', 00H, 'e', 00H
	DB	'.', 00H, 'h', 00H, 00H, 00H
	ORG $+2
$SG86527 DB	'r', 00H, 'e', 00H, 'q', 00H, '_', 00H, 'c', 00H, 'o', 00H
	DB	'm', 00H, 'p', 00H, ' ', 00H, '>', 00H, '=', 00H, ' ', 00H, '1'
	DB	00H, ' ', 00H, '&', 00H, '&', 00H, ' ', 00H, 'r', 00H, 'e', 00H
	DB	'q', 00H, '_', 00H, 'c', 00H, 'o', 00H, 'm', 00H, 'p', 00H, ' '
	DB	00H, '<', 00H, '=', 00H, ' ', 00H, '4', 00H, 00H, 00H
	ORG $+2
$SG86529 DB	'outofmem', 00H
	ORG $+7
$SG86545 DB	'unsupported', 00H
$SG79503 DB	'SYSTEM', 00H
	ORG $+5
$SG86543 DB	'W', 00H, ':', 00H, '\', 00H, 'c', 00H, 'p', 00H, 'p', 00H
	DB	'\', 00H, 'v', 00H, 'o', 00H, 'i', 00H, 'd', 00H, '\', 00H, 'v'
	DB	00H, 'e', 00H, 'n', 00H, 'd', 00H, 'o', 00H, 'r', 00H, '\', 00H
	DB	's', 00H, 't', 00H, 'b', 00H, '\', 00H, 's', 00H, 't', 00H, 'b'
	DB	00H, '_', 00H, 'i', 00H, 'm', 00H, 'a', 00H, 'g', 00H, 'e', 00H
	DB	'.', 00H, 'h', 00H, 00H, 00H
	ORG $+2
$SG94879 DB	'W:\cpp\void\detroit\brazen-immediate.h', 00H
	ORG $+1
$SG86618 DB	'W', 00H, ':', 00H, '\', 00H, 'c', 00H, 'p', 00H, 'p', 00H
	DB	'\', 00H, 'v', 00H, 'o', 00H, 'i', 00H, 'd', 00H, '\', 00H, 'v'
	DB	00H, 'e', 00H, 'n', 00H, 'd', 00H, 'o', 00H, 'r', 00H, '\', 00H
	DB	's', 00H, 't', 00H, 'b', 00H, '\', 00H, 's', 00H, 't', 00H, 'b'
	DB	00H, '_', 00H, 'i', 00H, 'm', 00H, 'a', 00H, 'g', 00H, 'e', 00H
	DB	'.', 00H, 'h', 00H, 00H, 00H
	ORG $+2
$SG86619 DB	'r', 00H, 'e', 00H, 'q', 00H, '_', 00H, 'c', 00H, 'o', 00H
	DB	'm', 00H, 'p', 00H, ' ', 00H, '>', 00H, '=', 00H, ' ', 00H, '1'
	DB	00H, ' ', 00H, '&', 00H, '&', 00H, ' ', 00H, 'r', 00H, 'e', 00H
	DB	'q', 00H, '_', 00H, 'c', 00H, 'o', 00H, 'm', 00H, 'p', 00H, ' '
	DB	00H, '<', 00H, '=', 00H, ' ', 00H, '4', 00H, 00H, 00H
	ORG $+2
$SG86621 DB	'outofmem', 00H
	ORG $+7
$SG86637 DB	'unsupported', 00H
$SG79506 DB	'PINNED', 00H
	ORG $+5
$SG86635 DB	'W', 00H, ':', 00H, '\', 00H, 'c', 00H, 'p', 00H, 'p', 00H
	DB	'\', 00H, 'v', 00H, 'o', 00H, 'i', 00H, 'd', 00H, '\', 00H, 'v'
	DB	00H, 'e', 00H, 'n', 00H, 'd', 00H, 'o', 00H, 'r', 00H, '\', 00H
	DB	's', 00H, 't', 00H, 'b', 00H, '\', 00H, 's', 00H, 't', 00H, 'b'
	DB	00H, '_', 00H, 'i', 00H, 'm', 00H, 'a', 00H, 'g', 00H, 'e', 00H
	DB	'.', 00H, 'h', 00H, 00H, 00H
	ORG $+2
$SG86664 DB	'outofmem', 00H
	ORG $+7
$SG94882 DB	'ZenImposeImmediatePrimitiveCurtail', 00H
	ORG $+5
$SG94877 DB	'm', 00H, 'a', 00H, 'x', 00H, 'i', 00H, 'm', 00H, 'u', 00H
	DB	'm', 00H, ' ', 00H, 'n', 00H, 'u', 00H, 'm', 00H, 'b', 00H, 'e'
	DB	00H, 'r', 00H, ' ', 00H, 'o', 00H, 'f', 00H, ' ', 00H, 'i', 00H
	DB	'n', 00H, 'd', 00H, 'i', 00H, 'c', 00H, 'e', 00H, 's', 00H, ' '
	DB	00H, 'r', 00H, 'e', 00H, 'a', 00H, 'c', 00H, 'h', 00H, 'e', 00H
	DB	'd', 00H, ' ', 00H, 'f', 00H, 'o', 00H, 'r', 00H, ' ', 00H, 't'
	DB	00H, 'h', 00H, 'i', 00H, 's', 00H, ' ', 00H, 'p', 00H, 'r', 00H
	DB	'i', 00H, 'm', 00H, 'i', 00H, 't', 00H, 'i', 00H, 'v', 00H, 'e'
	DB	00H, ' ', 00H, 'a', 00H, 'l', 00H, 'l', 00H, 'o', 00H, 'c', 00H
	DB	'a', 00H, 't', 00H, 'o', 00H, 'r', 00H, 00H, 00H
	ORG $+2
$SG94881 DB	'm', 00H, 'a', 00H, 'x', 00H, 'i', 00H, 'm', 00H, 'u', 00H
	DB	'm', 00H, ' ', 00H, 'n', 00H, 'u', 00H, 'm', 00H, 'b', 00H, 'e'
	DB	00H, 'r', 00H, ' ', 00H, 'o', 00H, 'f', 00H, ' ', 00H, 'v', 00H
	DB	'e', 00H, 'r', 00H, 't', 00H, 'e', 00H, 'x', 00H, ' ', 00H, 'p'
	DB	00H, 'o', 00H, 's', 00H, 'i', 00H, 't', 00H, 'i', 00H, 'o', 00H
	DB	'n', 00H, 's', 00H, ' ', 00H, 'r', 00H, 'e', 00H, 'a', 00H, 'c'
	DB	00H, 'h', 00H, 'e', 00H, 'd', 00H, ' ', 00H, 'f', 00H, 'o', 00H
	DB	'r', 00H, ' ', 00H, 't', 00H, 'h', 00H, 'i', 00H, 's', 00H, ' '
	DB	00H, 'p', 00H, 'r', 00H, 'i', 00H, 'm', 00H, 'i', 00H, 't', 00H
	DB	'i', 00H, 'v', 00H, 'e', 00H, ' ', 00H, 'a', 00H, 'l', 00H, 'l'
	DB	00H, 'o', 00H, 'c', 00H, 'a', 00H, 't', 00H, 'o', 00H, 'r', 00H
	DB	00H, 00H
$SG94883 DB	'W:\cpp\void\detroit\brazen-immediate.h', 00H
	ORG $+1
$SG94886 DB	'ZenImposeImmediatePrimitiveCurtail', 00H
	ORG $+5
$SG94885 DB	'm', 00H, 'a', 00H, 'x', 00H, 'i', 00H, 'm', 00H, 'u', 00H
	DB	'm', 00H, ' ', 00H, 'n', 00H, 'u', 00H, 'm', 00H, 'b', 00H, 'e'
	DB	00H, 'r', 00H, ' ', 00H, 'o', 00H, 'f', 00H, ' ', 00H, 'v', 00H
	DB	'e', 00H, 'r', 00H, 't', 00H, 'e', 00H, 'x', 00H, ' ', 00H, 'c'
	DB	00H, 'o', 00H, 'l', 00H, 'o', 00H, 'r', 00H, 's', 00H, ' ', 00H
	DB	'r', 00H, 'e', 00H, 'a', 00H, 'c', 00H, 'h', 00H, 'e', 00H, 'd'
	DB	00H, ' ', 00H, 'f', 00H, 'o', 00H, 'r', 00H, ' ', 00H, 't', 00H
	DB	'h', 00H, 'i', 00H, 's', 00H, ' ', 00H, 'p', 00H, 'r', 00H, 'i'
	DB	00H, 'm', 00H, 'i', 00H, 't', 00H, 'i', 00H, 'v', 00H, 'e', 00H
	DB	' ', 00H, 'a', 00H, 'l', 00H, 'l', 00H, 'o', 00H, 'c', 00H, 'a'
	DB	00H, 't', 00H, 'o', 00H, 'r', 00H, 00H, 00H
	ORG $+6
$SG94887 DB	'W:\cpp\void\detroit\brazen-immediate.h', 00H
	ORG $+1
$SG86696 DB	'outofmem', 00H
	ORG $+7
$SG94890 DB	'ZenImposeImmediatePrimitiveCurtail', 00H
	ORG $+5
$SG94889 DB	'm', 00H, 'a', 00H, 'x', 00H, 'i', 00H, 'm', 00H, 'u', 00H
	DB	'm', 00H, ' ', 00H, 'n', 00H, 'u', 00H, 'm', 00H, 'b', 00H, 'e'
	DB	00H, 'r', 00H, ' ', 00H, 'o', 00H, 'f', 00H, ' ', 00H, 'v', 00H
	DB	'e', 00H, 'r', 00H, 't', 00H, 'e', 00H, 'x', 00H, ' ', 00H, 't'
	DB	00H, 'e', 00H, 'x', 00H, 't', 00H, 'u', 00H, 'r', 00H, 'e', 00H
	DB	' ', 00H, 'c', 00H, 'o', 00H, 'o', 00H, 'r', 00H, 'd', 00H, 'i'
	DB	00H, 'n', 00H, 'a', 00H, 't', 00H, 'e', 00H, 's', 00H, ' ', 00H
	DB	'r', 00H, 'e', 00H, 'a', 00H, 'c', 00H, 'h', 00H, 'e', 00H, 'd'
	DB	00H, ' ', 00H, 'f', 00H, 'o', 00H, 'r', 00H, ' ', 00H, 't', 00H
	DB	'h', 00H, 'i', 00H, 's', 00H, ' ', 00H, 'p', 00H, 'r', 00H, 'i'
	DB	00H, 'm', 00H, 'i', 00H, 't', 00H, 'i', 00H, 'v', 00H, 'e', 00H
	DB	' ', 00H, 'a', 00H, 'l', 00H, 'l', 00H, 'o', 00H, 'c', 00H, 'a'
	DB	00H, 't', 00H, 'o', 00H, 'r', 00H, 00H, 00H
	ORG $+4
$SG94891 DB	'W:\cpp\void\detroit\brazen-immediate.h', 00H
	ORG $+1
$SG94903 DB	'N', 00H, 'O', 00H, '_', 00H, 'M', 00H, 'E', 00H, 'S', 00H
	DB	'S', 00H, 'A', 00H, 'G', 00H, 'E', 00H, 00H, 00H
	ORG $+2
$SG94904 DB	'Slice->Pos.Count >= Slice->Tex.Count', 00H
	ORG $+3
$SG94905 DB	'ZenImmediatePrimitiveAlloc', 00H
	ORG $+5
$SG94906 DB	'W:\cpp\void\detroit\brazen-immediate.h', 00H
	ORG $+1
$SG94907 DB	'N', 00H, 'O', 00H, '_', 00H, 'M', 00H, 'E', 00H, 'S', 00H
	DB	'S', 00H, 'A', 00H, 'G', 00H, 'E', 00H, 00H, 00H
	ORG $+2
$SG94908 DB	'Slice->Pos.Count >= Slice->Col.Count', 00H
	ORG $+3
$SG94909 DB	'ZenImmediatePrimitiveAlloc', 00H
	ORG $+5
$SG94910 DB	'W:\cpp\void\detroit\brazen-immediate.h', 00H
	ORG $+1
$SG94927 DB	'm', 00H, 'a', 00H, 'x', 00H, 'i', 00H, 'm', 00H, 'u', 00H
	DB	'm', 00H, ' ', 00H, 'n', 00H, 'u', 00H, 'm', 00H, 'b', 00H, 'e'
	DB	00H, 'r', 00H, ' ', 00H, 'o', 00H, 'f', 00H, ' ', 00H, 'd', 00H
	DB	'r', 00H, 'a', 00H, 'w', 00H, 's', 00H, ' ', 00H, 'r', 00H, 'e'
	DB	00H, 'a', 00H, 'c', 00H, 'h', 00H, 'e', 00H, 'd', 00H, ' ', 00H
	DB	'f', 00H, 'o', 00H, 'r', 00H, ' ', 00H, 't', 00H, 'h', 00H, 'i'
	DB	00H, 's', 00H, ' ', 00H, 'i', 00H, 'm', 00H, 'm', 00H, 'e', 00H
	DB	'd', 00H, 'i', 00H, 'a', 00H, 't', 00H, 'e', 00H, ' ', 00H, 'm'
	DB	00H, 'o', 00H, 'd', 00H, 'e', 00H, 00H, 00H
$SG94928 DB	'ZenImmediateModePush', 00H
	ORG $+3
$SG94929 DB	'W:\cpp\void\detroit\brazen-immediate.h', 00H
	ORG $+1
$SG78573 DB	'[WARNING] write console failed, are you using visual stu'
	DB	'dio?', 0aH, 00H
	ORG $+2
$SG78579 DB	'[WARNING] write console failed, are you using visual stu'
	DB	'dio?', 0aH, 00H
	ORG $+2
$SG78604 DB	'%s, %i %s() [%i] %s', 00H
	ORG $+4
$SG78605 DB	'Break Handler Invoked', 00H
	ORG $+2
$SG78606 DB	'B', 00H, 'r', 00H, 'e', 00H, 'a', 00H, 'k', 00H, ' ', 00H
	DB	'H', 00H, 'a', 00H, 'n', 00H, 'd', 00H, 'l', 00H, 'e', 00H, 'r'
	DB	00H, ' ', 00H, 'I', 00H, 'n', 00H, 'v', 00H, 'o', 00H, 'k', 00H
	DB	'e', 00H, 'd', 00H, 00H, 00H
	ORG $+4
$SG78607 DB	'*', 00H, '*', 00H, '*', 00H, '*', 00H, '*', 00H, '*', 00H
	DB	'*', 00H, '*', 00H, '*', 00H, '*', 00H, '*', 00H, '*', 00H, '*'
	DB	00H, '*', 00H, '*', 00H, '*', 00H, '*', 00H, '*', 00H, '*', 00H
	DB	'*', 00H, '*', 00H, 00H, 00H
	ORG $+4
$SG78609 DB	'*', 00H, '*', 00H, '*', 00H, '*', 00H, '*', 00H, '*', 00H
	DB	'*', 00H, '*', 00H, '*', 00H, '*', 00H, '*', 00H, '*', 00H, '*'
	DB	00H, '*', 00H, '*', 00H, '*', 00H, '*', 00H, '*', 00H, '*', 00H
	DB	'*', 00H, '*', 00H, 00H, 00H
	ORG $+4
$SG78610 DB	'Choose Your Poison', 00H
	ORG $+5
$SG94999 DB	'(Source.Min.X) <= Texture->DimenX', 00H
	ORG $+6
$SG78611 DB	'Would You Like To Exit (Abort), Debug (Retry) or Continu'
	DB	'e (Ignore)?', 00H
$SG79525 DB	'%s %s', 00H
	ORG $+6
$SG94998 DB	'i', 00H, 'n', 00H, 'v', 00H, 'a', 00H, 'l', 00H, 'i', 00H
	DB	'd', 00H, ' ', 00H, 's', 00H, 'o', 00H, 'u', 00H, 'r', 00H, 'c'
	DB	00H, 'e', 00H, ' ', 00H, 'r', 00H, 'e', 00H, 'c', 00H, 't', 00H
	DB	'a', 00H, 'n', 00H, 'g', 00H, 'l', 00H, 'e', 00H, ',', 00H, ' '
	DB	00H, 'S', 00H, 'o', 00H, 'u', 00H, 'r', 00H, 'c', 00H, 'e', 00H
	DB	'.', 00H, 'X', 00H, ' ', 00H, '=', 00H, ' ', 00H, '%', 00H, 'i'
	DB	00H, ',', 00H, ' ', 00H, 'T', 00H, 'e', 00H, 'x', 00H, 't', 00H
	DB	'u', 00H, 'r', 00H, 'e', 00H, '.', 00H, 'D', 00H, 'i', 00H, 'm'
	DB	00H, 'e', 00H, 'n', 00H, 'X', 00H, ' ', 00H, '=', 00H, ' ', 00H
	DB	'%', 00H, 'i', 00H, 00H, 00H
	ORG $+6
$SG95000 DB	'ZenImmediateSkinnedRect', 00H
$SG95001 DB	'W:\cpp\void\detroit\brazen-immediate.h', 00H
	ORG $+1
$SG95002 DB	'i', 00H, 'n', 00H, 'v', 00H, 'a', 00H, 'l', 00H, 'i', 00H
	DB	'd', 00H, ' ', 00H, 's', 00H, 'o', 00H, 'u', 00H, 'r', 00H, 'c'
	DB	00H, 'e', 00H, ' ', 00H, 'r', 00H, 'e', 00H, 'c', 00H, 't', 00H
	DB	'a', 00H, 'n', 00H, 'g', 00H, 'l', 00H, 'e', 00H, ',', 00H, ' '
	DB	00H, 'S', 00H, 'o', 00H, 'u', 00H, 'r', 00H, 'c', 00H, 'e', 00H
	DB	'.', 00H, 'Y', 00H, ' ', 00H, '=', 00H, ' ', 00H, '%', 00H, 'i'
	DB	00H, ',', 00H, ' ', 00H, 'T', 00H, 'e', 00H, 'x', 00H, 't', 00H
	DB	'u', 00H, 'r', 00H, 'e', 00H, '.', 00H, 'D', 00H, 'i', 00H, 'm'
	DB	00H, 'e', 00H, 'n', 00H, 'Y', 00H, ' ', 00H, '=', 00H, ' ', 00H
	DB	'%', 00H, 'i', 00H, 00H, 00H
	ORG $+6
$SG95003 DB	'(Source.Min.Y) <= Texture->DimenY', 00H
	ORG $+6
$SG95004 DB	'ZenImmediateSkinnedRect', 00H
$SG95005 DB	'W:\cpp\void\detroit\brazen-immediate.h', 00H
	ORG $+1
$SG95006 DB	'i', 00H, 'n', 00H, 'v', 00H, 'a', 00H, 'l', 00H, 'i', 00H
	DB	'd', 00H, ' ', 00H, 's', 00H, 'o', 00H, 'u', 00H, 'r', 00H, 'c'
	DB	00H, 'e', 00H, ' ', 00H, 'r', 00H, 'e', 00H, 'c', 00H, 't', 00H
	DB	'a', 00H, 'n', 00H, 'g', 00H, 'l', 00H, 'e', 00H, 00H, 00H
	ORG $+6
$SG95007 DB	'(Source.Min.X + Source.Max.X) <= Texture->DimenX', 00H
	ORG $+7
$SG95008 DB	'ZenImmediateSkinnedRect', 00H
$SG95009 DB	'W:\cpp\void\detroit\brazen-immediate.h', 00H
	ORG $+1
$SG95010 DB	'i', 00H, 'n', 00H, 'v', 00H, 'a', 00H, 'l', 00H, 'i', 00H
	DB	'd', 00H, ' ', 00H, 's', 00H, 'o', 00H, 'u', 00H, 'r', 00H, 'c'
	DB	00H, 'e', 00H, ' ', 00H, 'r', 00H, 'e', 00H, 'c', 00H, 't', 00H
	DB	'a', 00H, 'n', 00H, 'g', 00H, 'l', 00H, 'e', 00H, 00H, 00H
	ORG $+6
$SG78626 DB	'i', 00H, 'n', 00H, 'v', 00H, 'a', 00H, 'l', 00H, 'i', 00H
	DB	'd', 00H, ' ', 00H, 'e', 00H, 'r', 00H, 'r', 00H, 'o', 00H, 'r'
	DB	00H, ' ', 00H, 'c', 00H, 'l', 00H, 'a', 00H, 's', 00H, 's', 00H
	DB	',', 00H, ' ', 00H, 'e', 00H, 'x', 00H, 'p', 00H, 'e', 00H, 'c'
	DB	00H, 't', 00H, 'e', 00H, 'd', 00H, ' ', 00H, '''', 00H, 'E', 00H
	DB	'R', 00H, 'R', 00H, 'O', 00H, 'R', 00H, '_', 00H, 'C', 00H, 'L'
	DB	00H, 'A', 00H, 'S', 00H, 'S', 00H, '_', 00H, 'G', 00H, 'E', 00H
	DB	'N', 00H, 'E', 00H, 'R', 00H, 'A', 00H, 'L', 00H, '''', 00H, ' '
	DB	00H, 'o', 00H, 'r', 00H, ' ', 00H, '''', 00H, 'E', 00H, 'R', 00H
	DB	'R', 00H, 'O', 00H, 'R', 00H, '_', 00H, 'C', 00H, 'L', 00H, 'A'
	DB	00H, 'S', 00H, 'S', 00H, '_', 00H, 'N', 00H, 'E', 00H, 'T', 00H
	DB	'W', 00H, 'O', 00H, 'R', 00H, 'K', 00H, '''', 00H, 00H, 00H
	ORG $+6
$SG95011 DB	'(Source.Min.Y + Source.Max.Y) <= Texture->DimenY', 00H
	ORG $+7
$SG78627 DB	'GetErrorCode', 00H
	ORG $+3
$SG95012 DB	'ZenImmediateSkinnedRect', 00H
$SG78628 DB	'W:\cpp\void\dr/plat-win32.c', 00H
	ORG $+4
$SG95013 DB	'W:\cpp\void\detroit\brazen-immediate.h', 00H
	ORG $+1
$SG86842 DB	'bad code lengths', 00H
	ORG $+7
$SG78651 DB	'e', 00H, 'r', 00H, 'r', 00H, 'o', 00H, 'r', 00H, ' ', 00H
	DB	'c', 00H, 'l', 00H, 'a', 00H, 's', 00H, 's', 00H, ' ', 00H, 'i'
	DB	00H, 'g', 00H, 'n', 00H, 'o', 00H, 'r', 00H, 'e', 00H, 'd', 00H
	DB	' ', 00H, 'w', 00H, 'h', 00H, 'e', 00H, 'n', 00H, ' ', 00H, 'e'
	DB	00H, 'r', 00H, 'r', 00H, 'o', 00H, 'r', 00H, ' ', 00H, 'c', 00H
	DB	'o', 00H, 'd', 00H, 'e', 00H, ' ', 00H, 's', 00H, 'p', 00H, 'e'
	DB	00H, 'c', 00H, 'i', 00H, 'f', 00H, 'i', 00H, 'e', 00H, 'd', 00H
	DB	00H, 00H
	ORG $+4
$SG78652 DB	'GetErrorStringA', 00H
$SG78653 DB	'W:\cpp\void\dr/plat-win32.c', 00H
	ORG $+4
$SG78658 DB	'n', 00H, 'o', 00H, ' ', 00H, 'e', 00H, 'r', 00H, 'r', 00H
	DB	'o', 00H, 'r', 00H, ' ', 00H, 'm', 00H, 'e', 00H, 's', 00H, 's'
	DB	00H, 'a', 00H, 'g', 00H, 'e', 00H, ',', 00H, ' ', 00H, 'o', 00H
	DB	'r', 00H, ' ', 00H, 'm', 00H, 'e', 00H, 's', 00H, 's', 00H, 'a'
	DB	00H, 'g', 00H, 'e', 00H, ' ', 00H, 't', 00H, 'o', 00H, 'o', 00H
	DB	' ', 00H, 'l', 00H, 'a', 00H, 'r', 00H, 'g', 00H, 'e', 00H, 00H
	DB	00H
	ORG $+2
$SG78659 DB	'GetErrorStringA', 00H
$SG78660 DB	'W:\cpp\void\dr/plat-win32.c', 00H
	ORG $+4
$SG78661 DB	'no error message, or message too large', 00H
	ORG $+1
$SG78676 DB	'CreateInheritablePipe', 00H
	ORG $+2
$SG78675 DB	'F', 00H, 'a', 00H, 'i', 00H, 'l', 00H, 'e', 00H, 'd', 00H
	DB	' ', 00H, 'T', 00H, 'o', 00H, ' ', 00H, 'S', 00H, 'e', 00H, 't'
	DB	00H, ' ', 00H, 'H', 00H, 'a', 00H, 'n', 00H, 'd', 00H, 'l', 00H
	DB	'e', 00H, ' ', 00H, 'I', 00H, 'n', 00H, 'f', 00H, 'o', 00H, 'r'
	DB	00H, 'm', 00H, 'a', 00H, 't', 00H, 'i', 00H, 'o', 00H, 'n', 00H
	DB	' ', 00H, '[', 00H, '%', 00H, 's', 00H, ']', 00H, 00H, 00H
	ORG $+4
$SG78677 DB	'W:\cpp\void\dr/plat-win32.c', 00H
	ORG $+4
?stbi__bmask@@3QBIB DD 00H				; stbi__bmask
	DD	01H
	DD	03H
	DD	07H
	DD	0fH
	DD	01fH
	DD	03fH
	DD	07fH
	DD	0ffH
	DD	01ffH
	DD	03ffH
	DD	07ffH
	DD	0fffH
	DD	01fffH
	DD	03fffH
	DD	07fffH
	DD	0ffffH
$SG80173 DB	'%', 00H, 's', 00H, 00H, 00H
	ORG $+6
$SG86897 DB	'W', 00H, ':', 00H, '\', 00H, 'c', 00H, 'p', 00H, 'p', 00H
	DB	'\', 00H, 'v', 00H, 'o', 00H, 'i', 00H, 'd', 00H, '\', 00H, 'v'
	DB	00H, 'e', 00H, 'n', 00H, 'd', 00H, 'o', 00H, 'r', 00H, '\', 00H
	DB	's', 00H, 't', 00H, 'b', 00H, '\', 00H, 's', 00H, 't', 00H, 'b'
	DB	00H, '_', 00H, 'i', 00H, 'm', 00H, 'a', 00H, 'g', 00H, 'e', 00H
	DB	'.', 00H, 'h', 00H, 00H, 00H
	ORG $+2
$SG78721 DB	'i', 00H, 'n', 00H, 'v', 00H, 'a', 00H, 'l', 00H, 'i', 00H
	DB	'd', 00H, ' ', 00H, 'p', 00H, 'r', 00H, 'o', 00H, 'c', 00H, 'e'
	DB	00H, 's', 00H, 's', 00H, ' ', 00H, 'a', 00H, 'r', 00H, 'g', 00H
	DB	'u', 00H, 'm', 00H, 'e', 00H, 'n', 00H, 't', 00H, 's', 00H, 00H
	DB	00H
	ORG $+4
$SG86898 DB	'(', 00H, '(', 00H, '(', 00H, 'j', 00H, '-', 00H, '>', 00H
	DB	'c', 00H, 'o', 00H, 'd', 00H, 'e', 00H, '_', 00H, 'b', 00H, 'u'
	DB	00H, 'f', 00H, 'f', 00H, 'e', 00H, 'r', 00H, ')', 00H, ' ', 00H
	DB	'>', 00H, '>', 00H, ' ', 00H, '(', 00H, '3', 00H, '2', 00H, ' '
	DB	00H, '-', 00H, ' ', 00H, 'h', 00H, '-', 00H, '>', 00H, 's', 00H
	DB	'i', 00H, 'z', 00H, 'e', 00H, '[', 00H, 'c', 00H, ']', 00H, ')'
	DB	00H, ')', 00H, ' ', 00H, '&', 00H, ' ', 00H, 's', 00H, 't', 00H
	DB	'b', 00H, 'i', 00H, '_', 00H, '_', 00H, 'b', 00H, 'm', 00H, 'a'
	DB	00H, 's', 00H, 'k', 00H, '[', 00H, 'h', 00H, '-', 00H, '>', 00H
	DB	's', 00H, 'i', 00H, 'z', 00H, 'e', 00H, '[', 00H, 'c', 00H, ']'
	DB	00H, ']', 00H, ')', 00H, ' ', 00H, '=', 00H, '=', 00H, ' ', 00H
	DB	'h', 00H, '-', 00H, '>', 00H, 'c', 00H, 'o', 00H, 'd', 00H, 'e'
	DB	00H, '[', 00H, 'c', 00H, ']', 00H, 00H, 00H
$SG88408 DB	'bad H', 00H
	ORG $+6
?stbi__jbias@@3QBHB DD 00H				; stbi__jbias
	DD	0ffffffffH
	DD	0fffffffdH
	DD	0fffffff9H
	DD	0fffffff1H
	DD	0ffffffe1H
	DD	0ffffffc1H
	DD	0ffffff81H
	DD	0ffffff01H
	DD	0fffffe01H
	DD	0fffffc01H
	DD	0fffff801H
	DD	0fffff001H
	DD	0ffffe001H
	DD	0ffffc001H
	DD	0ffff8001H
$SG78718 DB	'f', 00H, 'a', 00H, 'i', 00H, 'l', 00H, 'e', 00H, 'd', 00H
	DB	' ', 00H, 't', 00H, 'o', 00H, ' ', 00H, 'c', 00H, 'r', 00H, 'e'
	DB	00H, 'a', 00H, 't', 00H, 'e', 00H, ' ', 00H, 'p', 00H, 'r', 00H
	DB	'o', 00H, 'c', 00H, 'e', 00H, 's', 00H, 's', 00H, ' ', 00H, 'p'
	DB	00H, 'i', 00H, 'p', 00H, 'e', 00H, 's', 00H, 00H, 00H
	ORG $+2
$SG78719 DB	'CreateProcessWithArguments', 00H
	ORG $+5
$SG78720 DB	'W:\cpp\void\dr/plat-win32.c', 00H
	ORG $+4
$SG78722 DB	'CreateProcessWithArguments', 00H
	ORG $+5
$SG78723 DB	'W:\cpp\void\dr/plat-win32.c', 00H
	ORG $+4
?stbi__jpeg_dezigzag@@3QBEB DB 00H			; stbi__jpeg_dezigzag
	DB	01H
	DB	08H
	DB	010H
	DB	09H
	DB	02H
	DB	03H
	DB	0aH
	DB	011H
	DB	018H
	DB	020H
	DB	019H
	DB	012H
	DB	0bH
	DB	04H
	DB	05H
	DB	0cH
	DB	013H
	DB	01aH
	DB	021H
	DB	028H
	DB	030H
	DB	029H
	DB	022H
	DB	01bH
	DB	014H
	DB	0dH
	DB	06H
	DB	07H
	DB	0eH
	DB	015H
	DB	01cH
	DB	023H
	DB	02aH
	DB	031H
	DB	038H
	DB	039H
	DB	032H
	DB	02bH
	DB	024H
	DB	01dH
	DB	016H
	DB	0fH
	DB	017H
	DB	01eH
	DB	025H
	DB	02cH
	DB	033H
	DB	03aH
	DB	03bH
	DB	034H
	DB	02dH
	DB	026H
	DB	01fH
	DB	027H
	DB	02eH
	DB	035H
	DB	03cH
	DB	03dH
	DB	036H
	DB	02fH
	DB	037H
	DB	03eH
	DB	03fH
	DB	03fH
	DB	03fH
	DB	03fH
	DB	03fH
	DB	03fH
	DB	03fH
	DB	03fH
	DB	03fH
	DB	03fH
	DB	03fH
	DB	03fH
	DB	03fH
	DB	03fH
	DB	03fH
	DB	03fH
	ORG $+1
$SG86946 DB	'bad huffman code', 00H
	ORG $+7
$SG78758 DB	'FlushProcessOutputAndErrorToStandardOut', 00H
$SG78757 DB	'w', 00H, 'r', 00H, 'i', 00H, 't', 00H, 'e', 00H, ' ', 00H
	DB	'c', 00H, 'o', 00H, 'n', 00H, 's', 00H, 'o', 00H, 'l', 00H, 'e'
	DB	00H, ' ', 00H, 'f', 00H, 'a', 00H, 'i', 00H, 'l', 00H, 'e', 00H
	DB	'd', 00H, ',', 00H, ' ', 00H, 'a', 00H, 'r', 00H, 'e', 00H, ' '
	DB	00H, 'y', 00H, 'o', 00H, 'u', 00H, ' ', 00H, 'u', 00H, 's', 00H
	DB	'i', 00H, 'n', 00H, 'g', 00H, ' ', 00H, 'v', 00H, 'i', 00H, 's'
	DB	00H, 'u', 00H, 'a', 00H, 'l', 00H, ' ', 00H, 's', 00H, 't', 00H
	DB	'u', 00H, 'd', 00H, 'i', 00H, 'o', 00H, '?', 00H, 00H, 00H
	ORG $+2
$SG86951 DB	'bad huffman code', 00H
	ORG $+7
$SG78759 DB	'W:\cpp\void\dr/plat-win32.c', 00H
	ORG $+4
$SG78761 DB	'w', 00H, 'r', 00H, 'i', 00H, 't', 00H, 'e', 00H, ' ', 00H
	DB	'c', 00H, 'o', 00H, 'n', 00H, 's', 00H, 'o', 00H, 'l', 00H, 'e'
	DB	00H, ' ', 00H, 'f', 00H, 'a', 00H, 'i', 00H, 'l', 00H, 'e', 00H
	DB	'd', 00H, ',', 00H, ' ', 00H, 'a', 00H, 'r', 00H, 'e', 00H, ' '
	DB	00H, 'y', 00H, 'o', 00H, 'u', 00H, ' ', 00H, 'u', 00H, 's', 00H
	DB	'i', 00H, 'n', 00H, 'g', 00H, ' ', 00H, 'v', 00H, 'i', 00H, 's'
	DB	00H, 'u', 00H, 'a', 00H, 'l', 00H, ' ', 00H, 's', 00H, 't', 00H
	DB	'u', 00H, 'd', 00H, 'i', 00H, 'o', 00H, '?', 00H, 00H, 00H
	ORG $+2
$SG78762 DB	'FlushProcessOutputAndErrorToStandardOut', 00H
$SG78763 DB	'W:\cpp\void\dr/plat-win32.c', 00H
	ORG $+4
$SG86967 DB	'can''t merge dc and ac', 00H
	ORG $+2
$SG86973 DB	'can''t merge dc and ac', 00H
	ORG $+2
$SG78804 DB	'user32.dll', 00H
	ORG $+5
$SG78805 DB	'SetProcessDPIAwarenessContext', 00H
	ORG $+2
$SG78806 DB	'SetProcessDPIAware', 00H
	ORG $+5
$SG87010 DB	'can''t merge dc and ac', 00H
	ORG $+2
$SG87018 DB	'bad huffman code', 00H
	ORG $+7
$SG87031 DB	'bad huffman code', 00H
	ORG $+7
$SG87038 DB	'bad huffman code', 00H
	ORG $+7
$SG78862 DB	'(', 00H, '.', 00H, 'F', 00H, 'i', 00H, 'l', 00H, 'e', 00H
	DB	'N', 00H, 'a', 00H, 'm', 00H, 'e', 00H, ' ', 00H, '=', 00H, ' '
	DB	00H, '%', 00H, 's', 00H, ')', 00H, 00H, 00H
	ORG $+6
$SG78863 DB	'LoadFileData', 00H
	ORG $+3
$SG78864 DB	'W:\cpp\void\dr/plat-win32.c', 00H
	ORG $+4
$SG78868 DB	'F', 00H, 'a', 00H, 'i', 00H, 'l', 00H, 'e', 00H, 'd', 00H
	DB	' ', 00H, 'T', 00H, 'o', 00H, ' ', 00H, 'R', 00H, 'e', 00H, 'a'
	DB	00H, 'd', 00H, ' ', 00H, 'F', 00H, 'i', 00H, 'l', 00H, 'e', 00H
	DB	' ', 00H, '[', 00H, '%', 00H, 's', 00H, ']', 00H, 00H, 00H
	ORG $+6
$SG78869 DB	'LoadFileData', 00H
	ORG $+3
$SG78870 DB	'W:\cpp\void\dr/plat-win32.c', 00H
	ORG $+4
$SG78872 DB	'F', 00H, 'a', 00H, 'i', 00H, 'l', 00H, 'e', 00H, 'd', 00H
	DB	' ', 00H, 'T', 00H, 'o', 00H, ' ', 00H, 'L', 00H, 'o', 00H, 'a'
	DB	00H, 'd', 00H, ' ', 00H, 'F', 00H, 'i', 00H, 'l', 00H, 'e', 00H
	DB	' ', 00H, '[', 00H, '%', 00H, 's', 00H, ']', 00H, 00H, 00H
	ORG $+6
$SG78873 DB	'LoadFileData', 00H
	ORG $+3
$SG78874 DB	'W:\cpp\void\dr/plat-win32.c', 00H
	ORG $+4
$SG78889 DB	'f', 00H, 'a', 00H, 'i', 00H, 'l', 00H, 'e', 00H, 'd', 00H
	DB	' ', 00H, 't', 00H, 'o', 00H, ' ', 00H, 'r', 00H, 'e', 00H, 'a'
	DB	00H, 'd', 00H, ' ', 00H, 'f', 00H, 'i', 00H, 'l', 00H, 'e', 00H
	DB	' ', 00H, '[', 00H, '%', 00H, 's', 00H, ']', 00H, 00H, 00H
	ORG $+6
$SG78890 DB	'WriteFileData', 00H
	ORG $+2
$SG78891 DB	'W:\cpp\void\dr/plat-win32.c', 00H
	ORG $+4
$SG78892 DB	'f', 00H, 'a', 00H, 'i', 00H, 'l', 00H, 'e', 00H, 'd', 00H
	DB	' ', 00H, 't', 00H, 'o', 00H, ' ', 00H, 'w', 00H, 'r', 00H, 'i'
	DB	00H, 't', 00H, 'e', 00H, ' ', 00H, 't', 00H, 'o', 00H, ' ', 00H
	DB	'f', 00H, 'i', 00H, 'l', 00H, 'e', 00H, ' ', 00H, '[', 00H, '%'
	DB	00H, 's', 00H, ']', 00H, 00H, 00H
	ORG $+6
$SG78893 DB	'WriteFileData', 00H
	ORG $+2
$SG78894 DB	'W:\cpp\void\dr/plat-win32.c', 00H
$SG88411 DB	'bad V', 00H
	ORG $+6
$SG79019 DB	'w', 00H, 'r', 00H, 'o', 00H, 'n', 00H, 'g', 00H, ' ', 00H
	DB	'o', 00H, 'r', 00H, 'd', 00H, 'e', 00H, 'r', 00H, ' ', 00H, 'o'
	DB	00H, 'f', 00H, ' ', 00H, 'i', 00H, 'n', 00H, 'p', 00H, 'u', 00H
	DB	't', 00H, 's', 00H, ',', 00H, ' ', 00H, 'a', 00H, 'b', 00H, 's'
	DB	00H, 'o', 00H, 'l', 00H, 'u', 00H, 't', 00H, 'e', 00H, ' ', 00H
	DB	'p', 00H, 'a', 00H, 't', 00H, 'h', 00H, ' ', 00H, 's', 00H, 'h'
	DB	00H, 'o', 00H, 'u', 00H, 'l', 00H, 'd', 00H, ' ', 00H, 'g', 00H
	DB	'o', 00H, ' ', 00H, 'f', 00H, 'i', 00H, 'r', 00H, 's', 00H, 't'
	DB	00H, 00H, 00H
	ORG $+6
$SG79020 DB	'FileNameMerge', 00H
	ORG $+2
$SG79021 DB	'W:\cpp\void\dr/plat-win32.c', 00H
	ORG $+4
$SG79086 DB	'f', 00H, 'a', 00H, 'i', 00H, 'l', 00H, 'e', 00H, 'd', 00H
	DB	' ', 00H, 't', 00H, 'o', 00H, ' ', 00H, 'c', 00H, 'r', 00H, 'e'
	DB	00H, 'a', 00H, 't', 00H, 'e', 00H, ' ', 00H, 'c', 00H, 'o', 00H
	DB	'm', 00H, 'p', 00H, 'l', 00H, 'e', 00H, 't', 00H, 'e', 00H, ' '
	DB	00H, 'p', 00H, 'a', 00H, 't', 00H, 'h', 00H, ',', 00H, ' ', 00H
	DB	'%', 00H, 's', 00H, 00H, 00H
	ORG $+2
$SG79087 DB	'CreateCompleteFilePath', 00H
	ORG $+1
$SG79088 DB	'W:\cpp\void\dr/plat-win32.c', 00H
	ORG $+4
$SG79153 DB	'F', 00H, 'i', 00H, 'l', 00H, 'e', 00H, ' ', 00H, 'P', 00H
	DB	'r', 00H, 'e', 00H, 's', 00H, 'e', 00H, 'n', 00H, 't', 00H, ' '
	DB	00H, '%', 00H, 's', 00H, 00H, 00H
$SG79154 DB	'FileTreeReviseSingle', 00H
	ORG $+3
$SG79155 DB	'W:\cpp\void\dr/plat-win32.c', 00H
	ORG $+4
$SG79158 DB	'F', 00H, 'i', 00H, 'l', 00H, 'e', 00H, ' ', 00H, 'R', 00H
	DB	'e', 00H, 'm', 00H, 'o', 00H, 'v', 00H, 'e', 00H, 'd', 00H, ' '
	DB	00H, '%', 00H, 's', 00H, 00H, 00H
$SG79159 DB	'FileTreeReviseSingle', 00H
	ORG $+3
$SG79160 DB	'W:\cpp\void\dr/plat-win32.c', 00H
	ORG $+4
$SG79162 DB	'N', 00H, 'O', 00H, '_', 00H, 'M', 00H, 'E', 00H, 'S', 00H
	DB	'S', 00H, 'A', 00H, 'G', 00H, 'E', 00H, 00H, 00H
	ORG $+2
$SG79163 DB	'Old->File.IsFile == New->File.IsFile', 00H
	ORG $+3
$SG79164 DB	'FileTreeReviseSingle', 00H
	ORG $+3
$SG79165 DB	'W:\cpp\void\dr/plat-win32.c', 00H
	ORG $+4
$SG79167 DB	'F', 00H, 'i', 00H, 'l', 00H, 'e', 00H, ' ', 00H, 'T', 00H
	DB	'i', 00H, 'm', 00H, 'e', 00H, ' ', 00H, 'M', 00H, 'a', 00H, 'd'
	DB	00H, 'e', 00H, ' ', 00H, 'C', 00H, 'h', 00H, 'a', 00H, 'n', 00H
	DB	'g', 00H, 'e', 00H, 'd', 00H, ' ', 00H, '%', 00H, 's', 00H, 00H
	DB	00H
	ORG $+4
$SG79168 DB	'FileTreeReviseSingle', 00H
	ORG $+3
$SG79169 DB	'W:\cpp\void\dr/plat-win32.c', 00H
	ORG $+4
$SG79171 DB	'F', 00H, 'i', 00H, 'l', 00H, 'e', 00H, ' ', 00H, 'T', 00H
	DB	'i', 00H, 'm', 00H, 'e', 00H, ' ', 00H, 'E', 00H, 'd', 00H, 'i'
	DB	00H, 't', 00H, ' ', 00H, 'C', 00H, 'h', 00H, 'a', 00H, 'n', 00H
	DB	'g', 00H, 'e', 00H, 'd', 00H, ' ', 00H, '%', 00H, 's', 00H, 00H
	DB	00H
	ORG $+4
$SG79172 DB	'FileTreeReviseSingle', 00H
	ORG $+3
$SG79173 DB	'W:\cpp\void\dr/plat-win32.c', 00H
	ORG $+4
$SG79175 DB	'F', 00H, 'i', 00H, 'l', 00H, 'e', 00H, ' ', 00H, 'T', 00H
	DB	'i', 00H, 'm', 00H, 'e', 00H, ' ', 00H, 'R', 00H, 'e', 00H, 'a'
	DB	00H, 'd', 00H, ' ', 00H, 'C', 00H, 'h', 00H, 'a', 00H, 'n', 00H
	DB	'g', 00H, 'e', 00H, 'd', 00H, ' ', 00H, '%', 00H, 's', 00H, 00H
	DB	00H
	ORG $+4
$SG79176 DB	'FileTreeReviseSingle', 00H
	ORG $+3
$SG79177 DB	'W:\cpp\void\dr/plat-win32.c', 00H
	ORG $+4
$SG95587 DB	'N', 00H, 'O', 00H, '_', 00H, 'M', 00H, 'E', 00H, 'S', 00H
	DB	'S', 00H, 'A', 00H, 'G', 00H, 'E', 00H, 00H, 00H
	ORG $+2
$SG95588 DB	'PixelPosition.X >= 0', 00H
	ORG $+3
$SG95589 DB	'ZenGluiDrawableTextureView', 00H
	ORG $+5
$SG95590 DB	'W:\cpp\void\detroit\brazen-immediate.h', 00H
	ORG $+1
$SG95591 DB	'N', 00H, 'O', 00H, '_', 00H, 'M', 00H, 'E', 00H, 'S', 00H
	DB	'S', 00H, 'A', 00H, 'G', 00H, 'E', 00H, 00H, 00H
	ORG $+2
$SG95592 DB	'PixelPosition.X < Texture->DimenX', 00H
	ORG $+6
$SG95593 DB	'ZenGluiDrawableTextureView', 00H
	ORG $+5
$SG95594 DB	'W:\cpp\void\detroit\brazen-immediate.h', 00H
	ORG $+1
$SG95595 DB	'N', 00H, 'O', 00H, '_', 00H, 'M', 00H, 'E', 00H, 'S', 00H
	DB	'S', 00H, 'A', 00H, 'G', 00H, 'E', 00H, 00H, 00H
	ORG $+2
$SG95596 DB	'PixelPosition.Y >= 0', 00H
	ORG $+3
$SG95597 DB	'ZenGluiDrawableTextureView', 00H
	ORG $+5
$SG95598 DB	'W:\cpp\void\detroit\brazen-immediate.h', 00H
	ORG $+1
$SG95599 DB	'N', 00H, 'O', 00H, '_', 00H, 'M', 00H, 'E', 00H, 'S', 00H
	DB	'S', 00H, 'A', 00H, 'G', 00H, 'E', 00H, 00H, 00H
	ORG $+2
$SG95600 DB	'PixelPosition.Y < Texture->DimenY', 00H
	ORG $+6
$SG95601 DB	'ZenGluiDrawableTextureView', 00H
	ORG $+5
$SG95602 DB	'W:\cpp\void\detroit\brazen-immediate.h', 00H
	ORG $+1
$SG79327 DB	'N', 00H, 'O', 00H, '_', 00H, 'M', 00H, 'E', 00H, 'S', 00H
	DB	'S', 00H, 'A', 00H, 'G', 00H, 'E', 00H, 00H, 00H
	ORG $+2
$SG79328 DB	'Queue->ConsumerTail <= Queue->Consumer', 00H
	ORG $+1
$SG79329 DB	'FileQueueGetTask', 00H
	ORG $+7
$SG79330 DB	'W:\cpp\void\dr/plat-win32.c', 00H
	ORG $+4
$SG79331 DB	'N', 00H, 'O', 00H, '_', 00H, 'M', 00H, 'E', 00H, 'S', 00H
	DB	'S', 00H, 'A', 00H, 'G', 00H, 'E', 00H, 00H, 00H
	ORG $+2
$SG79332 DB	'Queue->ProducerTail <= Queue->Producer', 00H
	ORG $+1
$SG79333 DB	'FileQueueGetTask', 00H
	ORG $+7
$SG79334 DB	'W:\cpp\void\dr/plat-win32.c', 00H
$SG88413 DB	'bad TQ', 00H
	ORG $+5
$SG79338 DB	'N', 00H, 'o', 00H, 't', 00H, ' ', 00H, 'E', 00H, 'n', 00H
	DB	'o', 00H, 'u', 00H, 'g', 00H, 'h', 00H, ' ', 00H, 'T', 00H, 'a'
	DB	00H, 's', 00H, 'k', 00H, 's', 00H, ',', 00H, ' ', 00H, 'A', 00H
	DB	's', 00H, 'k', 00H, 'e', 00H, 'd', 00H, ' ', 00H, 'F', 00H, 'o'
	DB	00H, 'r', 00H, ' ', 00H, '[', 00H, '%', 00H, 'i', 00H, ']', 00H
	DB	' ', 00H, 'T', 00H, 'h', 00H, 'e', 00H, 'r', 00H, 'e', 00H, ' '
	DB	00H, 'A', 00H, 'r', 00H, 'e', 00H, ' ', 00H, 'O', 00H, 'n', 00H
	DB	'l', 00H, 'y', 00H, ' ', 00H, '[', 00H, '%', 00H, 'i', 00H, ']'
	DB	00H, 00H, 00H
	ORG $+6
$SG79339 DB	'FileQueueGetTask', 00H
	ORG $+7
$SG79340 DB	'W:\cpp\void\dr/plat-win32.c', 00H
	ORG $+4
$SG79359 DB	'N', 00H, 'O', 00H, '_', 00H, 'M', 00H, 'E', 00H, 'S', 00H
	DB	'S', 00H, 'A', 00H, 'G', 00H, 'E', 00H, 00H, 00H
	ORG $+2
$SG79360 DB	'Queue->ConsumerTail <= Queue->Consumer', 00H
	ORG $+1
$SG79361 DB	'FileQueueSetTask', 00H
	ORG $+7
$SG79362 DB	'W:\cpp\void\dr/plat-win32.c', 00H
	ORG $+4
$SG79363 DB	'N', 00H, 'O', 00H, '_', 00H, 'M', 00H, 'E', 00H, 'S', 00H
	DB	'S', 00H, 'A', 00H, 'G', 00H, 'E', 00H, 00H, 00H
	ORG $+2
$SG79364 DB	'Queue->ProducerTail <= Queue->Producer', 00H
	ORG $+1
$SG79365 DB	'FileQueueSetTask', 00H
	ORG $+7
$SG79366 DB	'W:\cpp\void\dr/plat-win32.c', 00H
	ORG $+4
$SG79370 DB	'T', 00H, 'o', 00H, 'o', 00H, ' ', 00H, 'M', 00H, 'a', 00H
	DB	'n', 00H, 'y', 00H, ' ', 00H, 'T', 00H, 'a', 00H, 's', 00H, 'k'
	DB	00H, 's', 00H, 00H, 00H
	ORG $+2
$SG79371 DB	'FileQueueSetTask', 00H
	ORG $+7
$SG79372 DB	'W:\cpp\void\dr/plat-win32.c', 00H
	ORG $+4
$SG79396 DB	'T', 00H, 'h', 00H, 'r', 00H, 'e', 00H, 'a', 00H, 'd', 00H
	DB	' ', 00H, 'E', 00H, 'n', 00H, 't', 00H, 'e', 00H, 'r', 00H, 's'
	DB	00H, 00H, 00H
	ORG $+4
$SG79397 DB	'FileQueueThreadRoutine', 00H
	ORG $+1
$SG79398 DB	'W:\cpp\void\dr/plat-win32.c', 00H
	ORG $+4
$SG79399 DB	'F', 00H, 'i', 00H, 'l', 00H, 'e', 00H, 'T', 00H, 'a', 00H
	DB	's', 00H, 'k', 00H, '.', 00H, 'W', 00H, 'o', 00H, 'r', 00H, 'k'
	DB	00H, ' ', 00H, 'N', 00H, 'U', 00H, 'L', 00H, 'L', 00H, 00H, 00H
	ORG $+2
$SG79400 DB	'FileTask.Work != NULL', 00H
	ORG $+2
$SG79401 DB	'FileQueueThreadRoutine', 00H
	ORG $+1
$SG79402 DB	'W:\cpp\void\dr/plat-win32.c', 00H
	ORG $+4
$SG79406 DB	'T', 00H, 'h', 00H, 'r', 00H, 'e', 00H, 'a', 00H, 'd', 00H
	DB	' ', 00H, 'L', 00H, 'e', 00H, 'a', 00H, 'v', 00H, 'e', 00H, 's'
	DB	00H, 00H, 00H
	ORG $+4
$SG79407 DB	'FileQueueThreadRoutine', 00H
	ORG $+1
$SG79408 DB	'W:\cpp\void\dr/plat-win32.c', 00H
	ORG $+4
$SG153142 DB	'I', 00H, 'n', 00H, 'v', 00H, 'a', 00H, 'l', 00H, 'i', 00H
	DB	'd', 00H, ' ', 00H, 'a', 00H, 'r', 00H, 'c', 00H, 'h', 00H, 'i'
	DB	00H, 'v', 00H, 'e', 00H, 00H, 00H
$SG153143 DB	'Archive->InfoSize == sizeof(* External)', 00H
$SG153144 DB	'ZenAccessionTexture', 00H
	ORG $+4
$SG153145 DB	'W:\cpp\void\detroit\detroit-d3d11.h', 00H
	ORG $+4
$SG153150 DB	'm', 00H, 'a', 00H, 'x', 00H, 'i', 00H, 'm', 00H, 'u', 00H
	DB	'm', 00H, ' ', 00H, 'n', 00H, 'u', 00H, 'm', 00H, 'b', 00H, 'e'
	DB	00H, 'r', 00H, ' ', 00H, 'o', 00H, 'f', 00H, ' ', 00H, 't', 00H
	DB	'e', 00H, 'x', 00H, 't', 00H, 'u', 00H, 'r', 00H, 'e', 00H, ' '
	DB	00H, 'r', 00H, 'e', 00H, 'c', 00H, 'o', 00H, 'r', 00H, 'd', 00H
	DB	's', 00H, ' ', 00H, 'r', 00H, 'e', 00H, 'a', 00H, 'c', 00H, 'h'
	DB	00H, 'e', 00H, 'd', 00H, 00H, 00H
	ORG $+4
$SG153151 DB	'ZenAccessionTexture', 00H
	ORG $+4
$SG153152 DB	'W:\cpp\void\detroit\detroit-d3d11.h', 00H
	ORG $+4
$SG153163 DB	'I', 00H, 'n', 00H, 'v', 00H, 'a', 00H, 'l', 00H, 'i', 00H
	DB	'd', 00H, ' ', 00H, 'a', 00H, 'r', 00H, 'c', 00H, 'h', 00H, 'i'
	DB	00H, 'v', 00H, 'e', 00H, 00H, 00H
$SG153164 DB	'Archive->InfoSize == sizeof(* External)', 00H
$SG153165 DB	'ZenAccessionGlyphic', 00H
	ORG $+4
$SG153166 DB	'W:\cpp\void\detroit\detroit-d3d11.h', 00H
	ORG $+4
$SG153171 DB	'm', 00H, 'a', 00H, 'x', 00H, 'i', 00H, 'm', 00H, 'u', 00H
	DB	'm', 00H, ' ', 00H, 'n', 00H, 'u', 00H, 'm', 00H, 'b', 00H, 'e'
	DB	00H, 'r', 00H, ' ', 00H, 'o', 00H, 'f', 00H, ' ', 00H, 'g', 00H
	DB	'l', 00H, 'y', 00H, 'p', 00H, 'h', 00H, 'i', 00H, 'c', 00H, ' '
	DB	00H, 'r', 00H, 'e', 00H, 'c', 00H, 'o', 00H, 'r', 00H, 'd', 00H
	DB	's', 00H, ' ', 00H, 'r', 00H, 'e', 00H, 'a', 00H, 'c', 00H, 'h'
	DB	00H, 'e', 00H, 'd', 00H, 00H, 00H
	ORG $+4
$SG153172 DB	'ZenAccessionGlyphic', 00H
	ORG $+4
$SG153173 DB	'W:\cpp\void\detroit\detroit-d3d11.h', 00H
	ORG $+4
$SG153184 DB	'I', 00H, 'n', 00H, 'v', 00H, 'a', 00H, 'l', 00H, 'i', 00H
	DB	'd', 00H, ' ', 00H, 'a', 00H, 'r', 00H, 'c', 00H, 'h', 00H, 'i'
	DB	00H, 'v', 00H, 'e', 00H, ',', 00H, ' ', 00H, '%', 00H, 'i', 00H
	DB	' ', 00H, '!', 00H, '=', 00H, ' ', 00H, '%', 00H, 'i', 00H, 00H
	DB	00H
	ORG $+4
$SG153185 DB	'Archive->InfoSize == sizeof(* External)', 00H
$SG153186 DB	'ZenAccessionWindow', 00H
	ORG $+5
$SG79458 DB	'F', 00H, 'i', 00H, 'l', 00H, 'e', 00H, 'Q', 00H, 'u', 00H
	DB	'e', 00H, 'u', 00H, 'e', 00H, '.', 00H, 'C', 00H, 'o', 00H, 'r'
	DB	00H, 'e', 00H, '[', 00H, '%', 00H, 'i', 00H, ']', 00H, '.', 00H
	DB	'S', 00H, 'e', 00H, 't', 00H, 's', 00H, ' ', 00H, '=', 00H, ' '
	DB	00H, '%', 00H, 'i', 00H, ',', 00H, ' ', 00H, 'G', 00H, 'e', 00H
	DB	't', 00H, 's', 00H, ' ', 00H, '=', 00H, ' ', 00H, '%', 00H, 'i'
	DB	00H, 00H, 00H
$SG153187 DB	'W:\cpp\void\detroit\detroit-d3d11.h', 00H
	ORG $+4
$SG79459 DB	'FileQueueBegin', 00H
	ORG $+1
$SG79460 DB	'W:\cpp\void\dr/plat-win32.c', 00H
$SG88420 DB	'bad H', 00H
	ORG $+6
$SG153192 DB	'm', 00H, 'a', 00H, 'x', 00H, 'i', 00H, 'm', 00H, 'u', 00H
	DB	'm', 00H, ' ', 00H, 'n', 00H, 'u', 00H, 'm', 00H, 'b', 00H, 'e'
	DB	00H, 'r', 00H, ' ', 00H, 'o', 00H, 'f', 00H, ' ', 00H, 'w', 00H
	DB	'i', 00H, 'n', 00H, 'd', 00H, 'o', 00H, 'w', 00H, ' ', 00H, 'r'
	DB	00H, 'e', 00H, 'c', 00H, 'o', 00H, 'r', 00H, 'd', 00H, 's', 00H
	DB	' ', 00H, 'r', 00H, 'e', 00H, 'a', 00H, 'c', 00H, 'h', 00H, 'e'
	DB	00H, 'd', 00H, 00H, 00H
	ORG $+6
$SG153193 DB	'ZenAccessionWindow', 00H
	ORG $+5
$SG153194 DB	'W:\cpp\void\detroit\detroit-d3d11.h', 00H
	ORG $+4
$SG79487 DB	'ARCHIVE', 00H
$SG79488 DB	'COMPRESSED', 00H
	ORG $+5
$SG79490 DB	'DIRECTORY', 00H
	ORG $+6
$SG79491 DB	'ENCRYPTED', 00H
	ORG $+6
$SG79493 DB	'INTEGRITY_STREAM', 00H
	ORG $+7
$SG79495 DB	'NOT_CONTENT_INDEXED', 00H
	ORG $+4
$SG79496 DB	'NO_SCRUB_DATA', 00H
	ORG $+2
$SG79497 DB	'OFFLINE', 00H
$SG79498 DB	'READONLY', 00H
	ORG $+7
$SG79499 DB	'RECALL_ON_DATA_ACCESS', 00H
	ORG $+2
$SG79500 DB	'RECALL_ON_OPEN', 00H
	ORG $+1
$SG79501 DB	'REPARSE_POINT', 00H
	ORG $+2
$SG79502 DB	'SPARSE_FILE', 00H
	ORG $+4
$SG79504 DB	'TEMPORARY', 00H
	ORG $+6
$SG79505 DB	'VIRTUAL', 00H
$SG79507 DB	'UNPINNED', 00H
	ORG $+7
$SG79521 DB	'INVALID_FILE_ATTRIBUTES', 00H
$SG79532 DB	'W', 00H, 'M', 00H, '_', 00H, 'N', 00H, 'U', 00H, 'L', 00H
	DB	'L', 00H, '(', 00H, '0', 00H, 'x', 00H, '0', 00H, '0', 00H, '0'
	DB	00H, '0', 00H, ')', 00H, 00H, 00H
$SG79534 DB	'W', 00H, 'M', 00H, '_', 00H, 'C', 00H, 'R', 00H, 'E', 00H
	DB	'A', 00H, 'T', 00H, 'E', 00H, '(', 00H, '0', 00H, 'x', 00H, '0'
	DB	00H, '0', 00H, '0', 00H, '1', 00H, ')', 00H, 00H, 00H
	ORG $+4
$SG79536 DB	'W', 00H, 'M', 00H, '_', 00H, 'D', 00H, 'E', 00H, 'S', 00H
	DB	'T', 00H, 'R', 00H, 'O', 00H, 'Y', 00H, '(', 00H, '0', 00H, 'x'
	DB	00H, '0', 00H, '0', 00H, '0', 00H, '2', 00H, ')', 00H, 00H, 00H
	ORG $+2
$SG79538 DB	'W', 00H, 'M', 00H, '_', 00H, 'M', 00H, 'O', 00H, 'V', 00H
	DB	'E', 00H, '(', 00H, '0', 00H, 'x', 00H, '0', 00H, '0', 00H, '0'
	DB	00H, '3', 00H, ')', 00H, 00H, 00H
$SG79540 DB	'W', 00H, 'M', 00H, '_', 00H, 'S', 00H, 'I', 00H, 'Z', 00H
	DB	'E', 00H, '(', 00H, '0', 00H, 'x', 00H, '0', 00H, '0', 00H, '0'
	DB	00H, '5', 00H, ')', 00H, 00H, 00H
$SG79542 DB	'W', 00H, 'M', 00H, '_', 00H, 'A', 00H, 'C', 00H, 'T', 00H
	DB	'I', 00H, 'V', 00H, 'A', 00H, 'T', 00H, 'E', 00H, '(', 00H, '0'
	DB	00H, 'x', 00H, '0', 00H, '0', 00H, '0', 00H, '6', 00H, ')', 00H
	DB	00H, 00H
$SG79544 DB	'W', 00H, 'M', 00H, '_', 00H, 'S', 00H, 'E', 00H, 'T', 00H
	DB	'F', 00H, 'O', 00H, 'C', 00H, 'U', 00H, 'S', 00H, '(', 00H, '0'
	DB	00H, 'x', 00H, '0', 00H, '0', 00H, '0', 00H, '7', 00H, ')', 00H
	DB	00H, 00H
$SG79546 DB	'W', 00H, 'M', 00H, '_', 00H, 'K', 00H, 'I', 00H, 'L', 00H
	DB	'L', 00H, 'F', 00H, 'O', 00H, 'C', 00H, 'U', 00H, 'S', 00H, '('
	DB	00H, '0', 00H, 'x', 00H, '0', 00H, '0', 00H, '0', 00H, '8', 00H
	DB	')', 00H, 00H, 00H
	ORG $+6
$SG79548 DB	'W', 00H, 'M', 00H, '_', 00H, 'E', 00H, 'N', 00H, 'A', 00H
	DB	'B', 00H, 'L', 00H, 'E', 00H, '(', 00H, '0', 00H, 'x', 00H, '0'
	DB	00H, '0', 00H, '0', 00H, 'A', 00H, ')', 00H, 00H, 00H
	ORG $+4
$SG79550 DB	'W', 00H, 'M', 00H, '_', 00H, 'S', 00H, 'E', 00H, 'T', 00H
	DB	'R', 00H, 'E', 00H, 'D', 00H, 'R', 00H, 'A', 00H, 'W', 00H, '('
	DB	00H, '0', 00H, 'x', 00H, '0', 00H, '0', 00H, '0', 00H, 'B', 00H
	DB	')', 00H, 00H, 00H
	ORG $+6
$SG79552 DB	'W', 00H, 'M', 00H, '_', 00H, 'S', 00H, 'E', 00H, 'T', 00H
	DB	'T', 00H, 'E', 00H, 'X', 00H, 'T', 00H, '(', 00H, '0', 00H, 'x'
	DB	00H, '0', 00H, '0', 00H, '0', 00H, 'C', 00H, ')', 00H, 00H, 00H
	ORG $+2
$SG79554 DB	'W', 00H, 'M', 00H, '_', 00H, 'G', 00H, 'E', 00H, 'T', 00H
	DB	'T', 00H, 'E', 00H, 'X', 00H, 'T', 00H, '(', 00H, '0', 00H, 'x'
	DB	00H, '0', 00H, '0', 00H, '0', 00H, 'D', 00H, ')', 00H, 00H, 00H
	ORG $+2
$SG79556 DB	'W', 00H, 'M', 00H, '_', 00H, 'G', 00H, 'E', 00H, 'T', 00H
	DB	'T', 00H, 'E', 00H, 'X', 00H, 'T', 00H, 'L', 00H, 'E', 00H, 'N'
	DB	00H, 'G', 00H, 'T', 00H, 'H', 00H, '(', 00H, '0', 00H, 'x', 00H
	DB	'0', 00H, '0', 00H, '0', 00H, 'E', 00H, ')', 00H, 00H, 00H
	ORG $+6
$SG79558 DB	'W', 00H, 'M', 00H, '_', 00H, 'P', 00H, 'A', 00H, 'I', 00H
	DB	'N', 00H, 'T', 00H, '(', 00H, '0', 00H, 'x', 00H, '0', 00H, '0'
	DB	00H, '0', 00H, 'F', 00H, ')', 00H, 00H, 00H
	ORG $+6
$SG79560 DB	'W', 00H, 'M', 00H, '_', 00H, 'C', 00H, 'L', 00H, 'O', 00H
	DB	'S', 00H, 'E', 00H, '(', 00H, '0', 00H, 'x', 00H, '0', 00H, '0'
	DB	00H, '1', 00H, '0', 00H, ')', 00H, 00H, 00H
	ORG $+6
$SG79562 DB	'W', 00H, 'M', 00H, '_', 00H, 'Q', 00H, 'U', 00H, 'E', 00H
	DB	'R', 00H, 'Y', 00H, 'E', 00H, 'N', 00H, 'D', 00H, 'S', 00H, 'E'
	DB	00H, 'S', 00H, 'S', 00H, 'I', 00H, 'O', 00H, 'N', 00H, '(', 00H
	DB	'0', 00H, 'x', 00H, '0', 00H, '0', 00H, '1', 00H, '1', 00H, ')'
	DB	00H, 00H, 00H
	ORG $+2
$SG79564 DB	'W', 00H, 'M', 00H, '_', 00H, 'Q', 00H, 'U', 00H, 'E', 00H
	DB	'R', 00H, 'Y', 00H, 'O', 00H, 'P', 00H, 'E', 00H, 'N', 00H, '('
	DB	00H, '0', 00H, 'x', 00H, '0', 00H, '0', 00H, '1', 00H, '3', 00H
	DB	')', 00H, 00H, 00H
	ORG $+6
$SG79566 DB	'W', 00H, 'M', 00H, '_', 00H, 'E', 00H, 'N', 00H, 'D', 00H
	DB	'S', 00H, 'E', 00H, 'S', 00H, 'S', 00H, 'I', 00H, 'O', 00H, 'N'
	DB	00H, '(', 00H, '0', 00H, 'x', 00H, '0', 00H, '0', 00H, '1', 00H
	DB	'6', 00H, ')', 00H, 00H, 00H
	ORG $+4
$SG79568 DB	'W', 00H, 'M', 00H, '_', 00H, 'Q', 00H, 'U', 00H, 'I', 00H
	DB	'T', 00H, '(', 00H, '0', 00H, 'x', 00H, '0', 00H, '0', 00H, '1'
	DB	00H, '2', 00H, ')', 00H, 00H, 00H
$SG79570 DB	'W', 00H, 'M', 00H, '_', 00H, 'E', 00H, 'R', 00H, 'A', 00H
	DB	'S', 00H, 'E', 00H, 'B', 00H, 'K', 00H, 'G', 00H, 'N', 00H, 'D'
	DB	00H, '(', 00H, '0', 00H, 'x', 00H, '0', 00H, '0', 00H, '1', 00H
	DB	'4', 00H, ')', 00H, 00H, 00H
	ORG $+4
$SG79572 DB	'W', 00H, 'M', 00H, '_', 00H, 'S', 00H, 'Y', 00H, 'S', 00H
	DB	'C', 00H, 'O', 00H, 'L', 00H, 'O', 00H, 'R', 00H, 'C', 00H, 'H'
	DB	00H, 'A', 00H, 'N', 00H, 'G', 00H, 'E', 00H, '(', 00H, '0', 00H
	DB	'x', 00H, '0', 00H, '0', 00H, '1', 00H, '5', 00H, ')', 00H, 00H
	DB	00H
	ORG $+4
$SG79574 DB	'W', 00H, 'M', 00H, '_', 00H, 'S', 00H, 'H', 00H, 'O', 00H
	DB	'W', 00H, 'W', 00H, 'I', 00H, 'N', 00H, 'D', 00H, 'O', 00H, 'W'
	DB	00H, '(', 00H, '0', 00H, 'x', 00H, '0', 00H, '0', 00H, '1', 00H
	DB	'8', 00H, ')', 00H, 00H, 00H
	ORG $+4
$SG79576 DB	'W', 00H, 'M', 00H, '_', 00H, 'W', 00H, 'I', 00H, 'N', 00H
	DB	'I', 00H, 'N', 00H, 'I', 00H, 'C', 00H, 'H', 00H, 'A', 00H, 'N'
	DB	00H, 'G', 00H, 'E', 00H, '(', 00H, '0', 00H, 'x', 00H, '0', 00H
	DB	'0', 00H, '1', 00H, 'A', 00H, ')', 00H, 00H, 00H
$SG79578 DB	'W', 00H, 'M', 00H, '_', 00H, 'D', 00H, 'E', 00H, 'V', 00H
	DB	'M', 00H, 'O', 00H, 'D', 00H, 'E', 00H, 'C', 00H, 'H', 00H, 'A'
	DB	00H, 'N', 00H, 'G', 00H, 'E', 00H, '(', 00H, '0', 00H, 'x', 00H
	DB	'0', 00H, '0', 00H, '1', 00H, 'B', 00H, ')', 00H, 00H, 00H
	ORG $+6
$SG79580 DB	'W', 00H, 'M', 00H, '_', 00H, 'A', 00H, 'C', 00H, 'T', 00H
	DB	'I', 00H, 'V', 00H, 'A', 00H, 'T', 00H, 'E', 00H, 'A', 00H, 'P'
	DB	00H, 'P', 00H, '(', 00H, '0', 00H, 'x', 00H, '0', 00H, '0', 00H
	DB	'1', 00H, 'C', 00H, ')', 00H, 00H, 00H
	ORG $+2
$SG79582 DB	'W', 00H, 'M', 00H, '_', 00H, 'F', 00H, 'O', 00H, 'N', 00H
	DB	'T', 00H, 'C', 00H, 'H', 00H, 'A', 00H, 'N', 00H, 'G', 00H, 'E'
	DB	00H, '(', 00H, '0', 00H, 'x', 00H, '0', 00H, '0', 00H, '1', 00H
	DB	'D', 00H, ')', 00H, 00H, 00H
	ORG $+4
$SG79584 DB	'W', 00H, 'M', 00H, '_', 00H, 'T', 00H, 'I', 00H, 'M', 00H
	DB	'E', 00H, 'C', 00H, 'H', 00H, 'A', 00H, 'N', 00H, 'G', 00H, 'E'
	DB	00H, '(', 00H, '0', 00H, 'x', 00H, '0', 00H, '0', 00H, '1', 00H
	DB	'E', 00H, ')', 00H, 00H, 00H
	ORG $+4
$SG79586 DB	'W', 00H, 'M', 00H, '_', 00H, 'C', 00H, 'A', 00H, 'N', 00H
	DB	'C', 00H, 'E', 00H, 'L', 00H, 'M', 00H, 'O', 00H, 'D', 00H, 'E'
	DB	00H, '(', 00H, '0', 00H, 'x', 00H, '0', 00H, '0', 00H, '1', 00H
	DB	'F', 00H, ')', 00H, 00H, 00H
	ORG $+4
$SG79588 DB	'W', 00H, 'M', 00H, '_', 00H, 'S', 00H, 'E', 00H, 'T', 00H
	DB	'C', 00H, 'U', 00H, 'R', 00H, 'S', 00H, 'O', 00H, 'R', 00H, '('
	DB	00H, '0', 00H, 'x', 00H, '0', 00H, '0', 00H, '2', 00H, '0', 00H
	DB	')', 00H, 00H, 00H
	ORG $+6
$SG79590 DB	'W', 00H, 'M', 00H, '_', 00H, 'M', 00H, 'O', 00H, 'U', 00H
	DB	'S', 00H, 'E', 00H, 'A', 00H, 'C', 00H, 'T', 00H, 'I', 00H, 'V'
	DB	00H, 'A', 00H, 'T', 00H, 'E', 00H, '(', 00H, '0', 00H, 'x', 00H
	DB	'0', 00H, '0', 00H, '2', 00H, '1', 00H, ')', 00H, 00H, 00H
	ORG $+6
$SG79592 DB	'W', 00H, 'M', 00H, '_', 00H, 'C', 00H, 'H', 00H, 'I', 00H
	DB	'L', 00H, 'D', 00H, 'A', 00H, 'C', 00H, 'T', 00H, 'I', 00H, 'V'
	DB	00H, 'A', 00H, 'T', 00H, 'E', 00H, '(', 00H, '0', 00H, 'x', 00H
	DB	'0', 00H, '0', 00H, '2', 00H, '2', 00H, ')', 00H, 00H, 00H
	ORG $+6
$SG79594 DB	'W', 00H, 'M', 00H, '_', 00H, 'Q', 00H, 'U', 00H, 'E', 00H
	DB	'U', 00H, 'E', 00H, 'S', 00H, 'Y', 00H, 'N', 00H, 'C', 00H, '('
	DB	00H, '0', 00H, 'x', 00H, '0', 00H, '0', 00H, '2', 00H, '3', 00H
	DB	')', 00H, 00H, 00H
	ORG $+6
$SG79596 DB	'W', 00H, 'M', 00H, '_', 00H, 'G', 00H, 'E', 00H, 'T', 00H
	DB	'M', 00H, 'I', 00H, 'N', 00H, 'M', 00H, 'A', 00H, 'X', 00H, 'I'
	DB	00H, 'N', 00H, 'F', 00H, 'O', 00H, '(', 00H, '0', 00H, 'x', 00H
	DB	'0', 00H, '0', 00H, '2', 00H, '4', 00H, ')', 00H, 00H, 00H
	ORG $+6
$SG79598 DB	'W', 00H, 'M', 00H, '_', 00H, 'P', 00H, 'A', 00H, 'I', 00H
	DB	'N', 00H, 'T', 00H, 'I', 00H, 'C', 00H, 'O', 00H, 'N', 00H, '('
	DB	00H, '0', 00H, 'x', 00H, '0', 00H, '0', 00H, '2', 00H, '6', 00H
	DB	')', 00H, 00H, 00H
	ORG $+6
$SG79600 DB	'W', 00H, 'M', 00H, '_', 00H, 'I', 00H, 'C', 00H, 'O', 00H
	DB	'N', 00H, 'E', 00H, 'R', 00H, 'A', 00H, 'S', 00H, 'E', 00H, 'B'
	DB	00H, 'K', 00H, 'G', 00H, 'N', 00H, 'D', 00H, '(', 00H, '0', 00H
	DB	'x', 00H, '0', 00H, '0', 00H, '2', 00H, '7', 00H, ')', 00H, 00H
	DB	00H
	ORG $+4
$SG79602 DB	'W', 00H, 'M', 00H, '_', 00H, 'N', 00H, 'E', 00H, 'X', 00H
	DB	'T', 00H, 'D', 00H, 'L', 00H, 'G', 00H, 'C', 00H, 'T', 00H, 'L'
	DB	00H, '(', 00H, '0', 00H, 'x', 00H, '0', 00H, '0', 00H, '2', 00H
	DB	'8', 00H, ')', 00H, 00H, 00H
	ORG $+4
$SG79604 DB	'W', 00H, 'M', 00H, '_', 00H, 'S', 00H, 'P', 00H, 'O', 00H
	DB	'O', 00H, 'L', 00H, 'E', 00H, 'R', 00H, 'S', 00H, 'T', 00H, 'A'
	DB	00H, 'T', 00H, 'U', 00H, 'S', 00H, '(', 00H, '0', 00H, 'x', 00H
	DB	'0', 00H, '0', 00H, '2', 00H, 'A', 00H, ')', 00H, 00H, 00H
	ORG $+6
$SG79606 DB	'W', 00H, 'M', 00H, '_', 00H, 'D', 00H, 'R', 00H, 'A', 00H
	DB	'W', 00H, 'I', 00H, 'T', 00H, 'E', 00H, 'M', 00H, '(', 00H, '0'
	DB	00H, 'x', 00H, '0', 00H, '0', 00H, '2', 00H, 'B', 00H, ')', 00H
	DB	00H, 00H
$SG79608 DB	'W', 00H, 'M', 00H, '_', 00H, 'M', 00H, 'E', 00H, 'A', 00H
	DB	'S', 00H, 'U', 00H, 'R', 00H, 'E', 00H, 'I', 00H, 'T', 00H, 'E'
	DB	00H, 'M', 00H, '(', 00H, '0', 00H, 'x', 00H, '0', 00H, '0', 00H
	DB	'2', 00H, 'C', 00H, ')', 00H, 00H, 00H
	ORG $+2
$SG79610 DB	'W', 00H, 'M', 00H, '_', 00H, 'D', 00H, 'E', 00H, 'L', 00H
	DB	'E', 00H, 'T', 00H, 'E', 00H, 'I', 00H, 'T', 00H, 'E', 00H, 'M'
	DB	00H, '(', 00H, '0', 00H, 'x', 00H, '0', 00H, '0', 00H, '2', 00H
	DB	'D', 00H, ')', 00H, 00H, 00H
	ORG $+4
$SG79612 DB	'W', 00H, 'M', 00H, '_', 00H, 'V', 00H, 'K', 00H, 'E', 00H
	DB	'Y', 00H, 'T', 00H, 'O', 00H, 'I', 00H, 'T', 00H, 'E', 00H, 'M'
	DB	00H, '(', 00H, '0', 00H, 'x', 00H, '0', 00H, '0', 00H, '2', 00H
	DB	'E', 00H, ')', 00H, 00H, 00H
	ORG $+4
$SG79614 DB	'W', 00H, 'M', 00H, '_', 00H, 'C', 00H, 'H', 00H, 'A', 00H
	DB	'R', 00H, 'T', 00H, 'O', 00H, 'I', 00H, 'T', 00H, 'E', 00H, 'M'
	DB	00H, '(', 00H, '0', 00H, 'x', 00H, '0', 00H, '0', 00H, '2', 00H
	DB	'F', 00H, ')', 00H, 00H, 00H
	ORG $+4
$SG79616 DB	'W', 00H, 'M', 00H, '_', 00H, 'S', 00H, 'E', 00H, 'T', 00H
	DB	'F', 00H, 'O', 00H, 'N', 00H, 'T', 00H, '(', 00H, '0', 00H, 'x'
	DB	00H, '0', 00H, '0', 00H, '3', 00H, '0', 00H, ')', 00H, 00H, 00H
	ORG $+2
$SG79618 DB	'W', 00H, 'M', 00H, '_', 00H, 'G', 00H, 'E', 00H, 'T', 00H
	DB	'F', 00H, 'O', 00H, 'N', 00H, 'T', 00H, '(', 00H, '0', 00H, 'x'
	DB	00H, '0', 00H, '0', 00H, '3', 00H, '1', 00H, ')', 00H, 00H, 00H
	ORG $+2
$SG79620 DB	'W', 00H, 'M', 00H, '_', 00H, 'S', 00H, 'E', 00H, 'T', 00H
	DB	'H', 00H, 'O', 00H, 'T', 00H, 'K', 00H, 'E', 00H, 'Y', 00H, '('
	DB	00H, '0', 00H, 'x', 00H, '0', 00H, '0', 00H, '3', 00H, '2', 00H
	DB	')', 00H, 00H, 00H
	ORG $+6
$SG79622 DB	'W', 00H, 'M', 00H, '_', 00H, 'G', 00H, 'E', 00H, 'T', 00H
	DB	'H', 00H, 'O', 00H, 'T', 00H, 'K', 00H, 'E', 00H, 'Y', 00H, '('
	DB	00H, '0', 00H, 'x', 00H, '0', 00H, '0', 00H, '3', 00H, '3', 00H
	DB	')', 00H, 00H, 00H
	ORG $+6
$SG79624 DB	'W', 00H, 'M', 00H, '_', 00H, 'Q', 00H, 'U', 00H, 'E', 00H
	DB	'R', 00H, 'Y', 00H, 'D', 00H, 'R', 00H, 'A', 00H, 'G', 00H, 'I'
	DB	00H, 'C', 00H, 'O', 00H, 'N', 00H, '(', 00H, '0', 00H, 'x', 00H
	DB	'0', 00H, '0', 00H, '3', 00H, '7', 00H, ')', 00H, 00H, 00H
	ORG $+6
$SG79626 DB	'W', 00H, 'M', 00H, '_', 00H, 'C', 00H, 'O', 00H, 'M', 00H
	DB	'P', 00H, 'A', 00H, 'R', 00H, 'E', 00H, 'I', 00H, 'T', 00H, 'E'
	DB	00H, 'M', 00H, '(', 00H, '0', 00H, 'x', 00H, '0', 00H, '0', 00H
	DB	'3', 00H, '9', 00H, ')', 00H, 00H, 00H
	ORG $+2
$SG79628 DB	'W', 00H, 'M', 00H, '_', 00H, 'G', 00H, 'E', 00H, 'T', 00H
	DB	'O', 00H, 'B', 00H, 'J', 00H, 'E', 00H, 'C', 00H, 'T', 00H, '('
	DB	00H, '0', 00H, 'x', 00H, '0', 00H, '0', 00H, '3', 00H, 'D', 00H
	DB	')', 00H, 00H, 00H
	ORG $+6
$SG79630 DB	'W', 00H, 'M', 00H, '_', 00H, 'C', 00H, 'O', 00H, 'M', 00H
	DB	'P', 00H, 'A', 00H, 'C', 00H, 'T', 00H, 'I', 00H, 'N', 00H, 'G'
	DB	00H, '(', 00H, '0', 00H, 'x', 00H, '0', 00H, '0', 00H, '4', 00H
	DB	'1', 00H, ')', 00H, 00H, 00H
	ORG $+4
$SG79632 DB	'W', 00H, 'M', 00H, '_', 00H, 'C', 00H, 'O', 00H, 'M', 00H
	DB	'M', 00H, 'N', 00H, 'O', 00H, 'T', 00H, 'I', 00H, 'F', 00H, 'Y'
	DB	00H, '(', 00H, '0', 00H, 'x', 00H, '0', 00H, '0', 00H, '4', 00H
	DB	'2', 00H, ')', 00H, 00H, 00H
	ORG $+4
$SG79634 DB	'W', 00H, 'M', 00H, '_', 00H, 'W', 00H, 'I', 00H, 'N', 00H
	DB	'D', 00H, 'O', 00H, 'W', 00H, 'P', 00H, 'O', 00H, 'S', 00H, 'C'
	DB	00H, 'H', 00H, 'A', 00H, 'N', 00H, 'G', 00H, 'I', 00H, 'N', 00H
	DB	'G', 00H, '(', 00H, '0', 00H, 'x', 00H, '0', 00H, '0', 00H, '4'
	DB	00H, '6', 00H, ')', 00H, 00H, 00H
	ORG $+6
$SG79636 DB	'W', 00H, 'M', 00H, '_', 00H, 'W', 00H, 'I', 00H, 'N', 00H
	DB	'D', 00H, 'O', 00H, 'W', 00H, 'P', 00H, 'O', 00H, 'S', 00H, 'C'
	DB	00H, 'H', 00H, 'A', 00H, 'N', 00H, 'G', 00H, 'E', 00H, 'D', 00H
	DB	'(', 00H, '0', 00H, 'x', 00H, '0', 00H, '0', 00H, '4', 00H, '7'
	DB	00H, ')', 00H, 00H, 00H
$SG79638 DB	'W', 00H, 'M', 00H, '_', 00H, 'P', 00H, 'O', 00H, 'W', 00H
	DB	'E', 00H, 'R', 00H, '(', 00H, '0', 00H, 'x', 00H, '0', 00H, '0'
	DB	00H, '4', 00H, '8', 00H, ')', 00H, 00H, 00H
	ORG $+6
$SG79640 DB	'W', 00H, 'M', 00H, '_', 00H, 'C', 00H, 'O', 00H, 'P', 00H
	DB	'Y', 00H, 'D', 00H, 'A', 00H, 'T', 00H, 'A', 00H, '(', 00H, '0'
	DB	00H, 'x', 00H, '0', 00H, '0', 00H, '4', 00H, 'A', 00H, ')', 00H
	DB	00H, 00H
$SG79642 DB	'W', 00H, 'M', 00H, '_', 00H, 'C', 00H, 'A', 00H, 'N', 00H
	DB	'C', 00H, 'E', 00H, 'L', 00H, 'J', 00H, 'O', 00H, 'U', 00H, 'R'
	DB	00H, 'N', 00H, 'A', 00H, 'L', 00H, '(', 00H, '0', 00H, 'x', 00H
	DB	'0', 00H, '0', 00H, '4', 00H, 'B', 00H, ')', 00H, 00H, 00H
	ORG $+6
$SG79644 DB	'W', 00H, 'M', 00H, '_', 00H, 'N', 00H, 'O', 00H, 'T', 00H
	DB	'I', 00H, 'F', 00H, 'Y', 00H, '(', 00H, '0', 00H, 'x', 00H, '0'
	DB	00H, '0', 00H, '4', 00H, 'E', 00H, ')', 00H, 00H, 00H
$SG88422 DB	'bad V', 00H
	ORG $+6
$SG79646 DB	'W', 00H, 'M', 00H, '_', 00H, 'I', 00H, 'N', 00H, 'P', 00H
	DB	'U', 00H, 'T', 00H, 'L', 00H, 'A', 00H, 'N', 00H, 'G', 00H, 'C'
	DB	00H, 'H', 00H, 'A', 00H, 'N', 00H, 'G', 00H, 'E', 00H, 'R', 00H
	DB	'E', 00H, 'Q', 00H, 'U', 00H, 'E', 00H, 'S', 00H, 'T', 00H, '('
	DB	00H, '0', 00H, 'x', 00H, '0', 00H, '0', 00H, '5', 00H, '0', 00H
	DB	')', 00H, 00H, 00H
	ORG $+4
$SG79648 DB	'W', 00H, 'M', 00H, '_', 00H, 'I', 00H, 'N', 00H, 'P', 00H
	DB	'U', 00H, 'T', 00H, 'L', 00H, 'A', 00H, 'N', 00H, 'G', 00H, 'C'
	DB	00H, 'H', 00H, 'A', 00H, 'N', 00H, 'G', 00H, 'E', 00H, '(', 00H
	DB	'0', 00H, 'x', 00H, '0', 00H, '0', 00H, '5', 00H, '1', 00H, ')'
	DB	00H, 00H, 00H
	ORG $+2
$SG79650 DB	'W', 00H, 'M', 00H, '_', 00H, 'T', 00H, 'C', 00H, 'A', 00H
	DB	'R', 00H, 'D', 00H, '(', 00H, '0', 00H, 'x', 00H, '0', 00H, '0'
	DB	00H, '5', 00H, '2', 00H, ')', 00H, 00H, 00H
	ORG $+6
$SG79652 DB	'W', 00H, 'M', 00H, '_', 00H, 'H', 00H, 'E', 00H, 'L', 00H
	DB	'P', 00H, '(', 00H, '0', 00H, 'x', 00H, '0', 00H, '0', 00H, '5'
	DB	00H, '3', 00H, ')', 00H, 00H, 00H
$SG79654 DB	'W', 00H, 'M', 00H, '_', 00H, 'U', 00H, 'S', 00H, 'E', 00H
	DB	'R', 00H, 'C', 00H, 'H', 00H, 'A', 00H, 'N', 00H, 'G', 00H, 'E'
	DB	00H, 'D', 00H, '(', 00H, '0', 00H, 'x', 00H, '0', 00H, '0', 00H
	DB	'5', 00H, '4', 00H, ')', 00H, 00H, 00H
	ORG $+2
$SG79656 DB	'W', 00H, 'M', 00H, '_', 00H, 'N', 00H, 'O', 00H, 'T', 00H
	DB	'I', 00H, 'F', 00H, 'Y', 00H, 'F', 00H, 'O', 00H, 'R', 00H, 'M'
	DB	00H, 'A', 00H, 'T', 00H, '(', 00H, '0', 00H, 'x', 00H, '0', 00H
	DB	'0', 00H, '5', 00H, '5', 00H, ')', 00H, 00H, 00H
$SG79658 DB	'W', 00H, 'M', 00H, '_', 00H, 'C', 00H, 'O', 00H, 'N', 00H
	DB	'T', 00H, 'E', 00H, 'X', 00H, 'T', 00H, 'M', 00H, 'E', 00H, 'N'
	DB	00H, 'U', 00H, '(', 00H, '0', 00H, 'x', 00H, '0', 00H, '0', 00H
	DB	'7', 00H, 'B', 00H, ')', 00H, 00H, 00H
	ORG $+2
$SG79660 DB	'W', 00H, 'M', 00H, '_', 00H, 'S', 00H, 'T', 00H, 'Y', 00H
	DB	'L', 00H, 'E', 00H, 'C', 00H, 'H', 00H, 'A', 00H, 'N', 00H, 'G'
	DB	00H, 'I', 00H, 'N', 00H, 'G', 00H, '(', 00H, '0', 00H, 'x', 00H
	DB	'0', 00H, '0', 00H, '7', 00H, 'C', 00H, ')', 00H, 00H, 00H
	ORG $+6
$SG79662 DB	'W', 00H, 'M', 00H, '_', 00H, 'S', 00H, 'T', 00H, 'Y', 00H
	DB	'L', 00H, 'E', 00H, 'C', 00H, 'H', 00H, 'A', 00H, 'N', 00H, 'G'
	DB	00H, 'E', 00H, 'D', 00H, '(', 00H, '0', 00H, 'x', 00H, '0', 00H
	DB	'0', 00H, '7', 00H, 'D', 00H, ')', 00H, 00H, 00H
$SG79664 DB	'W', 00H, 'M', 00H, '_', 00H, 'D', 00H, 'I', 00H, 'S', 00H
	DB	'P', 00H, 'L', 00H, 'A', 00H, 'Y', 00H, 'C', 00H, 'H', 00H, 'A'
	DB	00H, 'N', 00H, 'G', 00H, 'E', 00H, '(', 00H, '0', 00H, 'x', 00H
	DB	'0', 00H, '0', 00H, '7', 00H, 'E', 00H, ')', 00H, 00H, 00H
	ORG $+6
$SG79666 DB	'W', 00H, 'M', 00H, '_', 00H, 'G', 00H, 'E', 00H, 'T', 00H
	DB	'I', 00H, 'C', 00H, 'O', 00H, 'N', 00H, '(', 00H, '0', 00H, 'x'
	DB	00H, '0', 00H, '0', 00H, '7', 00H, 'F', 00H, ')', 00H, 00H, 00H
	ORG $+2
$SG79668 DB	'W', 00H, 'M', 00H, '_', 00H, 'S', 00H, 'E', 00H, 'T', 00H
	DB	'I', 00H, 'C', 00H, 'O', 00H, 'N', 00H, '(', 00H, '0', 00H, 'x'
	DB	00H, '0', 00H, '0', 00H, '8', 00H, '0', 00H, ')', 00H, 00H, 00H
	ORG $+2
$SG79670 DB	'W', 00H, 'M', 00H, '_', 00H, 'N', 00H, 'C', 00H, 'C', 00H
	DB	'R', 00H, 'E', 00H, 'A', 00H, 'T', 00H, 'E', 00H, '(', 00H, '0'
	DB	00H, 'x', 00H, '0', 00H, '0', 00H, '8', 00H, '1', 00H, ')', 00H
	DB	00H, 00H
$SG79672 DB	'W', 00H, 'M', 00H, '_', 00H, 'N', 00H, 'C', 00H, 'D', 00H
	DB	'E', 00H, 'S', 00H, 'T', 00H, 'R', 00H, 'O', 00H, 'Y', 00H, '('
	DB	00H, '0', 00H, 'x', 00H, '0', 00H, '0', 00H, '8', 00H, '2', 00H
	DB	')', 00H, 00H, 00H
	ORG $+6
$SG79674 DB	'W', 00H, 'M', 00H, '_', 00H, 'N', 00H, 'C', 00H, 'C', 00H
	DB	'A', 00H, 'L', 00H, 'C', 00H, 'S', 00H, 'I', 00H, 'Z', 00H, 'E'
	DB	00H, '(', 00H, '0', 00H, 'x', 00H, '0', 00H, '0', 00H, '8', 00H
	DB	'3', 00H, ')', 00H, 00H, 00H
	ORG $+4
$SG79676 DB	'W', 00H, 'M', 00H, '_', 00H, 'N', 00H, 'C', 00H, 'H', 00H
	DB	'I', 00H, 'T', 00H, 'T', 00H, 'E', 00H, 'S', 00H, 'T', 00H, '('
	DB	00H, '0', 00H, 'x', 00H, '0', 00H, '0', 00H, '8', 00H, '4', 00H
	DB	')', 00H, 00H, 00H
	ORG $+6
$SG79678 DB	'W', 00H, 'M', 00H, '_', 00H, 'N', 00H, 'C', 00H, 'P', 00H
	DB	'A', 00H, 'I', 00H, 'N', 00H, 'T', 00H, '(', 00H, '0', 00H, 'x'
	DB	00H, '0', 00H, '0', 00H, '8', 00H, '5', 00H, ')', 00H, 00H, 00H
	ORG $+2
$SG79680 DB	'W', 00H, 'M', 00H, '_', 00H, 'N', 00H, 'C', 00H, 'A', 00H
	DB	'C', 00H, 'T', 00H, 'I', 00H, 'V', 00H, 'A', 00H, 'T', 00H, 'E'
	DB	00H, '(', 00H, '0', 00H, 'x', 00H, '0', 00H, '0', 00H, '8', 00H
	DB	'6', 00H, ')', 00H, 00H, 00H
	ORG $+4
$SG79682 DB	'W', 00H, 'M', 00H, '_', 00H, 'G', 00H, 'E', 00H, 'T', 00H
	DB	'D', 00H, 'L', 00H, 'G', 00H, 'C', 00H, 'O', 00H, 'D', 00H, 'E'
	DB	00H, '(', 00H, '0', 00H, 'x', 00H, '0', 00H, '0', 00H, '8', 00H
	DB	'7', 00H, ')', 00H, 00H, 00H
	ORG $+4
$SG79684 DB	'W', 00H, 'M', 00H, '_', 00H, 'S', 00H, 'Y', 00H, 'N', 00H
	DB	'C', 00H, 'P', 00H, 'A', 00H, 'I', 00H, 'N', 00H, 'T', 00H, '('
	DB	00H, '0', 00H, 'x', 00H, '0', 00H, '0', 00H, '8', 00H, '8', 00H
	DB	')', 00H, 00H, 00H
	ORG $+6
$SG79686 DB	'W', 00H, 'M', 00H, '_', 00H, 'N', 00H, 'C', 00H, 'M', 00H
	DB	'O', 00H, 'U', 00H, 'S', 00H, 'E', 00H, 'M', 00H, 'O', 00H, 'V'
	DB	00H, 'E', 00H, '(', 00H, '0', 00H, 'x', 00H, '0', 00H, '0', 00H
	DB	'A', 00H, '0', 00H, ')', 00H, 00H, 00H
	ORG $+2
$SG79688 DB	'W', 00H, 'M', 00H, '_', 00H, 'N', 00H, 'C', 00H, 'L', 00H
	DB	'B', 00H, 'U', 00H, 'T', 00H, 'T', 00H, 'O', 00H, 'N', 00H, 'D'
	DB	00H, 'O', 00H, 'W', 00H, 'N', 00H, '(', 00H, '0', 00H, 'x', 00H
	DB	'0', 00H, '0', 00H, 'A', 00H, '1', 00H, ')', 00H, 00H, 00H
	ORG $+6
$SG79690 DB	'W', 00H, 'M', 00H, '_', 00H, 'N', 00H, 'C', 00H, 'L', 00H
	DB	'B', 00H, 'U', 00H, 'T', 00H, 'T', 00H, 'O', 00H, 'N', 00H, 'U'
	DB	00H, 'P', 00H, '(', 00H, '0', 00H, 'x', 00H, '0', 00H, '0', 00H
	DB	'A', 00H, '2', 00H, ')', 00H, 00H, 00H
	ORG $+2
$SG79692 DB	'W', 00H, 'M', 00H, '_', 00H, 'N', 00H, 'C', 00H, 'L', 00H
	DB	'B', 00H, 'U', 00H, 'T', 00H, 'T', 00H, 'O', 00H, 'N', 00H, 'D'
	DB	00H, 'B', 00H, 'L', 00H, 'C', 00H, 'L', 00H, 'K', 00H, '(', 00H
	DB	'0', 00H, 'x', 00H, '0', 00H, '0', 00H, 'A', 00H, '3', 00H, ')'
	DB	00H, 00H, 00H
	ORG $+2
$SG79694 DB	'W', 00H, 'M', 00H, '_', 00H, 'N', 00H, 'C', 00H, 'R', 00H
	DB	'B', 00H, 'U', 00H, 'T', 00H, 'T', 00H, 'O', 00H, 'N', 00H, 'D'
	DB	00H, 'O', 00H, 'W', 00H, 'N', 00H, '(', 00H, '0', 00H, 'x', 00H
	DB	'0', 00H, '0', 00H, 'A', 00H, '4', 00H, ')', 00H, 00H, 00H
	ORG $+6
$SG79696 DB	'W', 00H, 'M', 00H, '_', 00H, 'N', 00H, 'C', 00H, 'R', 00H
	DB	'B', 00H, 'U', 00H, 'T', 00H, 'T', 00H, 'O', 00H, 'N', 00H, 'U'
	DB	00H, 'P', 00H, '(', 00H, '0', 00H, 'x', 00H, '0', 00H, '0', 00H
	DB	'A', 00H, '5', 00H, ')', 00H, 00H, 00H
	ORG $+2
$SG79698 DB	'W', 00H, 'M', 00H, '_', 00H, 'N', 00H, 'C', 00H, 'R', 00H
	DB	'B', 00H, 'U', 00H, 'T', 00H, 'T', 00H, 'O', 00H, 'N', 00H, 'D'
	DB	00H, 'B', 00H, 'L', 00H, 'C', 00H, 'L', 00H, 'K', 00H, '(', 00H
	DB	'0', 00H, 'x', 00H, '0', 00H, '0', 00H, 'A', 00H, '6', 00H, ')'
	DB	00H, 00H, 00H
	ORG $+2
$SG79700 DB	'W', 00H, 'M', 00H, '_', 00H, 'N', 00H, 'C', 00H, 'M', 00H
	DB	'B', 00H, 'U', 00H, 'T', 00H, 'T', 00H, 'O', 00H, 'N', 00H, 'D'
	DB	00H, 'O', 00H, 'W', 00H, 'N', 00H, '(', 00H, '0', 00H, 'x', 00H
	DB	'0', 00H, '0', 00H, 'A', 00H, '7', 00H, ')', 00H, 00H, 00H
	ORG $+6
$SG79702 DB	'W', 00H, 'M', 00H, '_', 00H, 'N', 00H, 'C', 00H, 'M', 00H
	DB	'B', 00H, 'U', 00H, 'T', 00H, 'T', 00H, 'O', 00H, 'N', 00H, 'U'
	DB	00H, 'P', 00H, '(', 00H, '0', 00H, 'x', 00H, '0', 00H, '0', 00H
	DB	'A', 00H, '8', 00H, ')', 00H, 00H, 00H
	ORG $+2
$SG79704 DB	'W', 00H, 'M', 00H, '_', 00H, 'N', 00H, 'C', 00H, 'M', 00H
	DB	'B', 00H, 'U', 00H, 'T', 00H, 'T', 00H, 'O', 00H, 'N', 00H, 'D'
	DB	00H, 'B', 00H, 'L', 00H, 'C', 00H, 'L', 00H, 'K', 00H, '(', 00H
	DB	'0', 00H, 'x', 00H, '0', 00H, '0', 00H, 'A', 00H, '9', 00H, ')'
	DB	00H, 00H, 00H
	ORG $+2
$SG79706 DB	'W', 00H, 'M', 00H, '_', 00H, 'N', 00H, 'C', 00H, 'X', 00H
	DB	'B', 00H, 'U', 00H, 'T', 00H, 'T', 00H, 'O', 00H, 'N', 00H, 'D'
	DB	00H, 'O', 00H, 'W', 00H, 'N', 00H, '(', 00H, '0', 00H, 'x', 00H
	DB	'0', 00H, '0', 00H, 'A', 00H, 'B', 00H, ')', 00H, 00H, 00H
	ORG $+6
$SG79708 DB	'W', 00H, 'M', 00H, '_', 00H, 'N', 00H, 'C', 00H, 'X', 00H
	DB	'B', 00H, 'U', 00H, 'T', 00H, 'T', 00H, 'O', 00H, 'N', 00H, 'U'
	DB	00H, 'P', 00H, '(', 00H, '0', 00H, 'x', 00H, '0', 00H, '0', 00H
	DB	'A', 00H, 'C', 00H, ')', 00H, 00H, 00H
	ORG $+2
$SG79710 DB	'W', 00H, 'M', 00H, '_', 00H, 'N', 00H, 'C', 00H, 'X', 00H
	DB	'B', 00H, 'U', 00H, 'T', 00H, 'T', 00H, 'O', 00H, 'N', 00H, 'D'
	DB	00H, 'B', 00H, 'L', 00H, 'C', 00H, 'L', 00H, 'K', 00H, '(', 00H
	DB	'0', 00H, 'x', 00H, '0', 00H, '0', 00H, 'A', 00H, 'D', 00H, ')'
	DB	00H, 00H, 00H
	ORG $+2
$SG79712 DB	'W', 00H, 'M', 00H, '_', 00H, 'I', 00H, 'N', 00H, 'P', 00H
	DB	'U', 00H, 'T', 00H, '_', 00H, 'D', 00H, 'E', 00H, 'V', 00H, 'I'
	DB	00H, 'C', 00H, 'E', 00H, '_', 00H, 'C', 00H, 'H', 00H, 'A', 00H
	DB	'N', 00H, 'G', 00H, 'E', 00H, '(', 00H, '0', 00H, 'x', 00H, '0'
	DB	00H, '0', 00H, 'F', 00H, 'E', 00H, ')', 00H, 00H, 00H
	ORG $+2
$SG79714 DB	'W', 00H, 'M', 00H, '_', 00H, 'I', 00H, 'N', 00H, 'P', 00H
	DB	'U', 00H, 'T', 00H, '(', 00H, '0', 00H, 'x', 00H, '0', 00H, '0'
	DB	00H, 'F', 00H, 'F', 00H, ')', 00H, 00H, 00H
	ORG $+6
$SG79716 DB	'W', 00H, 'M', 00H, '_', 00H, 'K', 00H, 'E', 00H, 'Y', 00H
	DB	'D', 00H, 'O', 00H, 'W', 00H, 'N', 00H, '_', 00H, 'O', 00H, 'R'
	DB	00H, '_', 00H, 'K', 00H, 'E', 00H, 'Y', 00H, 'F', 00H, 'I', 00H
	DB	'R', 00H, 'S', 00H, 'T', 00H, '(', 00H, '0', 00H, 'x', 00H, '0'
	DB	00H, '1', 00H, '0', 00H, '0', 00H, ')', 00H, 00H, 00H
	ORG $+2
$SG79718 DB	'W', 00H, 'M', 00H, '_', 00H, 'K', 00H, 'E', 00H, 'Y', 00H
	DB	'U', 00H, 'P', 00H, '(', 00H, '0', 00H, 'x', 00H, '0', 00H, '1'
	DB	00H, '0', 00H, '1', 00H, ')', 00H, 00H, 00H
	ORG $+6
$SG79720 DB	'W', 00H, 'M', 00H, '_', 00H, 'C', 00H, 'H', 00H, 'A', 00H
	DB	'R', 00H, '(', 00H, '0', 00H, 'x', 00H, '0', 00H, '1', 00H, '0'
	DB	00H, '2', 00H, ')', 00H, 00H, 00H
$SG79722 DB	'W', 00H, 'M', 00H, '_', 00H, 'D', 00H, 'E', 00H, 'A', 00H
	DB	'D', 00H, 'C', 00H, 'H', 00H, 'A', 00H, 'R', 00H, '(', 00H, '0'
	DB	00H, 'x', 00H, '0', 00H, '1', 00H, '0', 00H, '3', 00H, ')', 00H
	DB	00H, 00H
$SG79724 DB	'W', 00H, 'M', 00H, '_', 00H, 'S', 00H, 'Y', 00H, 'S', 00H
	DB	'K', 00H, 'E', 00H, 'Y', 00H, 'D', 00H, 'O', 00H, 'W', 00H, 'N'
	DB	00H, '(', 00H, '0', 00H, 'x', 00H, '0', 00H, '1', 00H, '0', 00H
	DB	'4', 00H, ')', 00H, 00H, 00H
	ORG $+4
$SG79726 DB	'W', 00H, 'M', 00H, '_', 00H, 'S', 00H, 'Y', 00H, 'S', 00H
	DB	'K', 00H, 'E', 00H, 'Y', 00H, 'U', 00H, 'P', 00H, '(', 00H, '0'
	DB	00H, 'x', 00H, '0', 00H, '1', 00H, '0', 00H, '5', 00H, ')', 00H
	DB	00H, 00H
$SG79728 DB	'W', 00H, 'M', 00H, '_', 00H, 'S', 00H, 'Y', 00H, 'S', 00H
	DB	'C', 00H, 'H', 00H, 'A', 00H, 'R', 00H, '(', 00H, '0', 00H, 'x'
	DB	00H, '0', 00H, '1', 00H, '0', 00H, '6', 00H, ')', 00H, 00H, 00H
	ORG $+2
$SG79730 DB	'W', 00H, 'M', 00H, '_', 00H, 'S', 00H, 'Y', 00H, 'S', 00H
	DB	'D', 00H, 'E', 00H, 'A', 00H, 'D', 00H, 'C', 00H, 'H', 00H, 'A'
	DB	00H, 'R', 00H, '(', 00H, '0', 00H, 'x', 00H, '0', 00H, '1', 00H
	DB	'0', 00H, '7', 00H, ')', 00H, 00H, 00H
	ORG $+2
$SG79732 DB	'W', 00H, 'M', 00H, '_', 00H, 'K', 00H, 'E', 00H, 'Y', 00H
	DB	'L', 00H, 'A', 00H, 'S', 00H, 'T', 00H, '_', 00H, 'O', 00H, 'R'
	DB	00H, '_', 00H, 'U', 00H, 'N', 00H, 'I', 00H, 'C', 00H, 'H', 00H
	DB	'A', 00H, 'R', 00H, '(', 00H, '0', 00H, 'x', 00H, '0', 00H, '1'
	DB	00H, '0', 00H, '9', 00H, ')', 00H, 00H, 00H
	ORG $+4
$SG79734 DB	'U', 00H, 'N', 00H, 'I', 00H, 'C', 00H, 'O', 00H, 'D', 00H
	DB	'E', 00H, '_', 00H, 'N', 00H, 'O', 00H, 'C', 00H, 'H', 00H, 'A'
	DB	00H, 'R', 00H, '(', 00H, '0', 00H, 'x', 00H, 'F', 00H, 'F', 00H
	DB	'F', 00H, 'F', 00H, ')', 00H, 00H, 00H
	ORG $+2
$SG79736 DB	'W', 00H, 'M', 00H, '_', 00H, 'K', 00H, 'E', 00H, 'Y', 00H
	DB	'L', 00H, 'A', 00H, 'S', 00H, 'T', 00H, '(', 00H, '0', 00H, 'x'
	DB	00H, '0', 00H, '1', 00H, '0', 00H, '8', 00H, ')', 00H, 00H, 00H
	ORG $+2
$SG79746 DB	'W', 00H, 'M', 00H, '_', 00H, 'C', 00H, 'O', 00H, 'M', 00H
	DB	'M', 00H, 'A', 00H, 'N', 00H, 'D', 00H, '(', 00H, '0', 00H, 'x'
	DB	00H, '0', 00H, '1', 00H, '1', 00H, '1', 00H, ')', 00H, 00H, 00H
	ORG $+2
$SG79738 DB	'W', 00H, 'M', 00H, '_', 00H, 'I', 00H, 'M', 00H, 'E', 00H
	DB	'_', 00H, 'S', 00H, 'T', 00H, 'A', 00H, 'R', 00H, 'T', 00H, 'C'
	DB	00H, 'O', 00H, 'M', 00H, 'P', 00H, 'O', 00H, 'S', 00H, 'I', 00H
	DB	'T', 00H, 'I', 00H, 'O', 00H, 'N', 00H, '(', 00H, '0', 00H, 'x'
	DB	00H, '0', 00H, '1', 00H, '0', 00H, 'D', 00H, ')', 00H, 00H, 00H
$SG79740 DB	'W', 00H, 'M', 00H, '_', 00H, 'I', 00H, 'M', 00H, 'E', 00H
	DB	'_', 00H, 'E', 00H, 'N', 00H, 'D', 00H, 'C', 00H, 'O', 00H, 'M'
	DB	00H, 'P', 00H, 'O', 00H, 'S', 00H, 'I', 00H, 'T', 00H, 'I', 00H
	DB	'O', 00H, 'N', 00H, '(', 00H, '0', 00H, 'x', 00H, '0', 00H, '1'
	DB	00H, '0', 00H, 'E', 00H, ')', 00H, 00H, 00H
	ORG $+4
$SG79742 DB	'W', 00H, 'M', 00H, '_', 00H, 'I', 00H, 'M', 00H, 'E', 00H
	DB	'_', 00H, 'K', 00H, 'E', 00H, 'Y', 00H, 'L', 00H, 'A', 00H, 'S'
	DB	00H, 'T', 00H, '_', 00H, 'O', 00H, 'R', 00H, '_', 00H, 'C', 00H
	DB	'O', 00H, 'M', 00H, 'P', 00H, 'O', 00H, 'S', 00H, 'I', 00H, 'T'
	DB	00H, 'I', 00H, 'O', 00H, 'N', 00H, '(', 00H, '0', 00H, 'x', 00H
	DB	'0', 00H, '1', 00H, '0', 00H, 'F', 00H, ')', 00H, 00H, 00H
	ORG $+4
$SG79744 DB	'W', 00H, 'M', 00H, '_', 00H, 'I', 00H, 'N', 00H, 'I', 00H
	DB	'T', 00H, 'D', 00H, 'I', 00H, 'A', 00H, 'L', 00H, 'O', 00H, 'G'
	DB	00H, '(', 00H, '0', 00H, 'x', 00H, '0', 00H, '1', 00H, '1', 00H
	DB	'0', 00H, ')', 00H, 00H, 00H
	ORG $+4
$SG79748 DB	'W', 00H, 'M', 00H, '_', 00H, 'S', 00H, 'Y', 00H, 'S', 00H
	DB	'C', 00H, 'O', 00H, 'M', 00H, 'M', 00H, 'A', 00H, 'N', 00H, 'D'
	DB	00H, '(', 00H, '0', 00H, 'x', 00H, '0', 00H, '1', 00H, '1', 00H
	DB	'2', 00H, ')', 00H, 00H, 00H
	ORG $+4
$SG79750 DB	'W', 00H, 'M', 00H, '_', 00H, 'T', 00H, 'I', 00H, 'M', 00H
	DB	'E', 00H, 'R', 00H, '(', 00H, '0', 00H, 'x', 00H, '0', 00H, '1'
	DB	00H, '1', 00H, '3', 00H, ')', 00H, 00H, 00H
	ORG $+6
$SG79752 DB	'W', 00H, 'M', 00H, '_', 00H, 'H', 00H, 'S', 00H, 'C', 00H
	DB	'R', 00H, 'O', 00H, 'L', 00H, 'L', 00H, '(', 00H, '0', 00H, 'x'
	DB	00H, '0', 00H, '1', 00H, '1', 00H, '4', 00H, ')', 00H, 00H, 00H
	ORG $+2
$SG79754 DB	'W', 00H, 'M', 00H, '_', 00H, 'V', 00H, 'S', 00H, 'C', 00H
	DB	'R', 00H, 'O', 00H, 'L', 00H, 'L', 00H, '(', 00H, '0', 00H, 'x'
	DB	00H, '0', 00H, '1', 00H, '1', 00H, '5', 00H, ')', 00H, 00H, 00H
	ORG $+2
$SG79756 DB	'W', 00H, 'M', 00H, '_', 00H, 'I', 00H, 'N', 00H, 'I', 00H
	DB	'T', 00H, 'M', 00H, 'E', 00H, 'N', 00H, 'U', 00H, '(', 00H, '0'
	DB	00H, 'x', 00H, '0', 00H, '1', 00H, '1', 00H, '6', 00H, ')', 00H
	DB	00H, 00H
$SG79758 DB	'W', 00H, 'M', 00H, '_', 00H, 'I', 00H, 'N', 00H, 'I', 00H
	DB	'T', 00H, 'M', 00H, 'E', 00H, 'N', 00H, 'U', 00H, 'P', 00H, 'O'
	DB	00H, 'P', 00H, 'U', 00H, 'P', 00H, '(', 00H, '0', 00H, 'x', 00H
	DB	'0', 00H, '1', 00H, '1', 00H, '7', 00H, ')', 00H, 00H, 00H
	ORG $+6
$SG79760 DB	'W', 00H, 'M', 00H, '_', 00H, 'G', 00H, 'E', 00H, 'S', 00H
	DB	'T', 00H, 'U', 00H, 'R', 00H, 'E', 00H, '(', 00H, '0', 00H, 'x'
	DB	00H, '0', 00H, '1', 00H, '1', 00H, '9', 00H, ')', 00H, 00H, 00H
	ORG $+2
$SG79762 DB	'W', 00H, 'M', 00H, '_', 00H, 'G', 00H, 'E', 00H, 'S', 00H
	DB	'T', 00H, 'U', 00H, 'R', 00H, 'E', 00H, 'N', 00H, 'O', 00H, 'T'
	DB	00H, 'I', 00H, 'F', 00H, 'Y', 00H, '(', 00H, '0', 00H, 'x', 00H
	DB	'0', 00H, '1', 00H, '1', 00H, 'A', 00H, ')', 00H, 00H, 00H
	ORG $+6
$SG79764 DB	'W', 00H, 'M', 00H, '_', 00H, 'M', 00H, 'E', 00H, 'N', 00H
	DB	'U', 00H, 'S', 00H, 'E', 00H, 'L', 00H, 'E', 00H, 'C', 00H, 'T'
	DB	00H, '(', 00H, '0', 00H, 'x', 00H, '0', 00H, '1', 00H, '1', 00H
	DB	'F', 00H, ')', 00H, 00H, 00H
	ORG $+4
$SG79766 DB	'W', 00H, 'M', 00H, '_', 00H, 'M', 00H, 'E', 00H, 'N', 00H
	DB	'U', 00H, 'C', 00H, 'H', 00H, 'A', 00H, 'R', 00H, '(', 00H, '0'
	DB	00H, 'x', 00H, '0', 00H, '1', 00H, '2', 00H, '0', 00H, ')', 00H
	DB	00H, 00H
$SG79768 DB	'W', 00H, 'M', 00H, '_', 00H, 'E', 00H, 'N', 00H, 'T', 00H
	DB	'E', 00H, 'R', 00H, 'I', 00H, 'D', 00H, 'L', 00H, 'E', 00H, '('
	DB	00H, '0', 00H, 'x', 00H, '0', 00H, '1', 00H, '2', 00H, '1', 00H
	DB	')', 00H, 00H, 00H
	ORG $+6
$SG79770 DB	'W', 00H, 'M', 00H, '_', 00H, 'M', 00H, 'E', 00H, 'N', 00H
	DB	'U', 00H, 'R', 00H, 'B', 00H, 'U', 00H, 'T', 00H, 'T', 00H, 'O'
	DB	00H, 'N', 00H, 'U', 00H, 'P', 00H, '(', 00H, '0', 00H, 'x', 00H
	DB	'0', 00H, '1', 00H, '2', 00H, '2', 00H, ')', 00H, 00H, 00H
	ORG $+6
$SG79772 DB	'W', 00H, 'M', 00H, '_', 00H, 'M', 00H, 'E', 00H, 'N', 00H
	DB	'U', 00H, 'D', 00H, 'R', 00H, 'A', 00H, 'G', 00H, '(', 00H, '0'
	DB	00H, 'x', 00H, '0', 00H, '1', 00H, '2', 00H, '3', 00H, ')', 00H
	DB	00H, 00H
$SG79774 DB	'W', 00H, 'M', 00H, '_', 00H, 'M', 00H, 'E', 00H, 'N', 00H
	DB	'U', 00H, 'G', 00H, 'E', 00H, 'T', 00H, 'O', 00H, 'B', 00H, 'J'
	DB	00H, 'E', 00H, 'C', 00H, 'T', 00H, '(', 00H, '0', 00H, 'x', 00H
	DB	'0', 00H, '1', 00H, '2', 00H, '4', 00H, ')', 00H, 00H, 00H
	ORG $+6
$SG79776 DB	'W', 00H, 'M', 00H, '_', 00H, 'U', 00H, 'N', 00H, 'I', 00H
	DB	'N', 00H, 'I', 00H, 'T', 00H, 'M', 00H, 'E', 00H, 'N', 00H, 'U'
	DB	00H, 'P', 00H, 'O', 00H, 'P', 00H, 'U', 00H, 'P', 00H, '(', 00H
	DB	'0', 00H, 'x', 00H, '0', 00H, '1', 00H, '2', 00H, '5', 00H, ')'
	DB	00H, 00H, 00H
	ORG $+2
$SG79778 DB	'W', 00H, 'M', 00H, '_', 00H, 'M', 00H, 'E', 00H, 'N', 00H
	DB	'U', 00H, 'C', 00H, 'O', 00H, 'M', 00H, 'M', 00H, 'A', 00H, 'N'
	DB	00H, 'D', 00H, '(', 00H, '0', 00H, 'x', 00H, '0', 00H, '1', 00H
	DB	'2', 00H, '6', 00H, ')', 00H, 00H, 00H
	ORG $+2
$SG79780 DB	'W', 00H, 'M', 00H, '_', 00H, 'C', 00H, 'H', 00H, 'A', 00H
	DB	'N', 00H, 'G', 00H, 'E', 00H, 'U', 00H, 'I', 00H, 'S', 00H, 'T'
	DB	00H, 'A', 00H, 'T', 00H, 'E', 00H, '(', 00H, '0', 00H, 'x', 00H
	DB	'0', 00H, '1', 00H, '2', 00H, '7', 00H, ')', 00H, 00H, 00H
	ORG $+6
$SG79782 DB	'W', 00H, 'M', 00H, '_', 00H, 'U', 00H, 'P', 00H, 'D', 00H
	DB	'A', 00H, 'T', 00H, 'E', 00H, 'U', 00H, 'I', 00H, 'S', 00H, 'T'
	DB	00H, 'A', 00H, 'T', 00H, 'E', 00H, '(', 00H, '0', 00H, 'x', 00H
	DB	'0', 00H, '1', 00H, '2', 00H, '8', 00H, ')', 00H, 00H, 00H
	ORG $+6
$SG79784 DB	'W', 00H, 'M', 00H, '_', 00H, 'Q', 00H, 'U', 00H, 'E', 00H
	DB	'R', 00H, 'Y', 00H, 'U', 00H, 'I', 00H, 'S', 00H, 'T', 00H, 'A'
	DB	00H, 'T', 00H, 'E', 00H, '(', 00H, '0', 00H, 'x', 00H, '0', 00H
	DB	'1', 00H, '2', 00H, '9', 00H, ')', 00H, 00H, 00H
$SG79786 DB	'W', 00H, 'M', 00H, '_', 00H, 'C', 00H, 'T', 00H, 'L', 00H
	DB	'C', 00H, 'O', 00H, 'L', 00H, 'O', 00H, 'R', 00H, 'M', 00H, 'S'
	DB	00H, 'G', 00H, 'B', 00H, 'O', 00H, 'X', 00H, '(', 00H, '0', 00H
	DB	'x', 00H, '0', 00H, '1', 00H, '3', 00H, '2', 00H, ')', 00H, 00H
	DB	00H
	ORG $+4
$SG79788 DB	'W', 00H, 'M', 00H, '_', 00H, 'C', 00H, 'T', 00H, 'L', 00H
	DB	'C', 00H, 'O', 00H, 'L', 00H, 'O', 00H, 'R', 00H, 'E', 00H, 'D'
	DB	00H, 'I', 00H, 'T', 00H, '(', 00H, '0', 00H, 'x', 00H, '0', 00H
	DB	'1', 00H, '3', 00H, '3', 00H, ')', 00H, 00H, 00H
$SG79790 DB	'W', 00H, 'M', 00H, '_', 00H, 'C', 00H, 'T', 00H, 'L', 00H
	DB	'C', 00H, 'O', 00H, 'L', 00H, 'O', 00H, 'R', 00H, 'L', 00H, 'I'
	DB	00H, 'S', 00H, 'T', 00H, 'B', 00H, 'O', 00H, 'X', 00H, '(', 00H
	DB	'0', 00H, 'x', 00H, '0', 00H, '1', 00H, '3', 00H, '4', 00H, ')'
	DB	00H, 00H, 00H
	ORG $+2
$SG79792 DB	'W', 00H, 'M', 00H, '_', 00H, 'C', 00H, 'T', 00H, 'L', 00H
	DB	'C', 00H, 'O', 00H, 'L', 00H, 'O', 00H, 'R', 00H, 'B', 00H, 'T'
	DB	00H, 'N', 00H, '(', 00H, '0', 00H, 'x', 00H, '0', 00H, '1', 00H
	DB	'3', 00H, '5', 00H, ')', 00H, 00H, 00H
	ORG $+2
$SG79794 DB	'W', 00H, 'M', 00H, '_', 00H, 'C', 00H, 'T', 00H, 'L', 00H
	DB	'C', 00H, 'O', 00H, 'L', 00H, 'O', 00H, 'R', 00H, 'D', 00H, 'L'
	DB	00H, 'G', 00H, '(', 00H, '0', 00H, 'x', 00H, '0', 00H, '1', 00H
	DB	'3', 00H, '6', 00H, ')', 00H, 00H, 00H
	ORG $+2
$SG79796 DB	'W', 00H, 'M', 00H, '_', 00H, 'C', 00H, 'T', 00H, 'L', 00H
	DB	'C', 00H, 'O', 00H, 'L', 00H, 'O', 00H, 'R', 00H, 'S', 00H, 'C'
	DB	00H, 'R', 00H, 'O', 00H, 'L', 00H, 'L', 00H, 'B', 00H, 'A', 00H
	DB	'R', 00H, '(', 00H, '0', 00H, 'x', 00H, '0', 00H, '1', 00H, '3'
	DB	00H, '7', 00H, ')', 00H, 00H, 00H
	ORG $+6
$SG79798 DB	'W', 00H, 'M', 00H, '_', 00H, 'C', 00H, 'T', 00H, 'L', 00H
	DB	'C', 00H, 'O', 00H, 'L', 00H, 'O', 00H, 'R', 00H, 'S', 00H, 'T'
	DB	00H, 'A', 00H, 'T', 00H, 'I', 00H, 'C', 00H, '(', 00H, '0', 00H
	DB	'x', 00H, '0', 00H, '1', 00H, '3', 00H, '8', 00H, ')', 00H, 00H
	DB	00H
	ORG $+4
$SG79800 DB	'M', 00H, 'N', 00H, '_', 00H, 'G', 00H, 'E', 00H, 'T', 00H
	DB	'H', 00H, 'M', 00H, 'E', 00H, 'N', 00H, 'U', 00H, '(', 00H, '0'
	DB	00H, 'x', 00H, '0', 00H, '1', 00H, 'E', 00H, '1', 00H, ')', 00H
	DB	00H, 00H
$SG79802 DB	'W', 00H, 'M', 00H, '_', 00H, 'M', 00H, 'O', 00H, 'U', 00H
	DB	'S', 00H, 'E', 00H, 'M', 00H, 'O', 00H, 'V', 00H, 'E', 00H, '_'
	DB	00H, 'O', 00H, 'R', 00H, '_', 00H, 'M', 00H, 'O', 00H, 'U', 00H
	DB	'S', 00H, 'E', 00H, 'F', 00H, 'I', 00H, 'R', 00H, 'S', 00H, 'T'
	DB	00H, '(', 00H, '0', 00H, 'x', 00H, '0', 00H, '2', 00H, '0', 00H
	DB	'0', 00H, ')', 00H, 00H, 00H
	ORG $+2
$SG79804 DB	'W', 00H, 'M', 00H, '_', 00H, 'L', 00H, 'B', 00H, 'U', 00H
	DB	'T', 00H, 'T', 00H, 'O', 00H, 'N', 00H, 'D', 00H, 'O', 00H, 'W'
	DB	00H, 'N', 00H, '(', 00H, '0', 00H, 'x', 00H, '0', 00H, '2', 00H
	DB	'0', 00H, '1', 00H, ')', 00H, 00H, 00H
	ORG $+2
$SG79806 DB	'W', 00H, 'M', 00H, '_', 00H, 'L', 00H, 'B', 00H, 'U', 00H
	DB	'T', 00H, 'T', 00H, 'O', 00H, 'N', 00H, 'U', 00H, 'P', 00H, '('
	DB	00H, '0', 00H, 'x', 00H, '0', 00H, '2', 00H, '0', 00H, '2', 00H
	DB	')', 00H, 00H, 00H
	ORG $+6
$SG79808 DB	'W', 00H, 'M', 00H, '_', 00H, 'L', 00H, 'B', 00H, 'U', 00H
	DB	'T', 00H, 'T', 00H, 'O', 00H, 'N', 00H, 'D', 00H, 'B', 00H, 'L'
	DB	00H, 'C', 00H, 'L', 00H, 'K', 00H, '(', 00H, '0', 00H, 'x', 00H
	DB	'0', 00H, '2', 00H, '0', 00H, '3', 00H, ')', 00H, 00H, 00H
	ORG $+6
$SG79810 DB	'W', 00H, 'M', 00H, '_', 00H, 'R', 00H, 'B', 00H, 'U', 00H
	DB	'T', 00H, 'T', 00H, 'O', 00H, 'N', 00H, 'D', 00H, 'O', 00H, 'W'
	DB	00H, 'N', 00H, '(', 00H, '0', 00H, 'x', 00H, '0', 00H, '2', 00H
	DB	'0', 00H, '4', 00H, ')', 00H, 00H, 00H
	ORG $+2
$SG79812 DB	'W', 00H, 'M', 00H, '_', 00H, 'R', 00H, 'B', 00H, 'U', 00H
	DB	'T', 00H, 'T', 00H, 'O', 00H, 'N', 00H, 'U', 00H, 'P', 00H, '('
	DB	00H, '0', 00H, 'x', 00H, '0', 00H, '2', 00H, '0', 00H, '5', 00H
	DB	')', 00H, 00H, 00H
	ORG $+6
$SG79814 DB	'W', 00H, 'M', 00H, '_', 00H, 'R', 00H, 'B', 00H, 'U', 00H
	DB	'T', 00H, 'T', 00H, 'O', 00H, 'N', 00H, 'D', 00H, 'B', 00H, 'L'
	DB	00H, 'C', 00H, 'L', 00H, 'K', 00H, '(', 00H, '0', 00H, 'x', 00H
	DB	'0', 00H, '2', 00H, '0', 00H, '6', 00H, ')', 00H, 00H, 00H
	ORG $+6
$SG79816 DB	'W', 00H, 'M', 00H, '_', 00H, 'M', 00H, 'B', 00H, 'U', 00H
	DB	'T', 00H, 'T', 00H, 'O', 00H, 'N', 00H, 'D', 00H, 'O', 00H, 'W'
	DB	00H, 'N', 00H, '(', 00H, '0', 00H, 'x', 00H, '0', 00H, '2', 00H
	DB	'0', 00H, '7', 00H, ')', 00H, 00H, 00H
	ORG $+2
$SG79818 DB	'W', 00H, 'M', 00H, '_', 00H, 'M', 00H, 'B', 00H, 'U', 00H
	DB	'T', 00H, 'T', 00H, 'O', 00H, 'N', 00H, 'U', 00H, 'P', 00H, '('
	DB	00H, '0', 00H, 'x', 00H, '0', 00H, '2', 00H, '0', 00H, '8', 00H
	DB	')', 00H, 00H, 00H
	ORG $+6
$SG79820 DB	'W', 00H, 'M', 00H, '_', 00H, 'M', 00H, 'B', 00H, 'U', 00H
	DB	'T', 00H, 'T', 00H, 'O', 00H, 'N', 00H, 'D', 00H, 'B', 00H, 'L'
	DB	00H, 'C', 00H, 'L', 00H, 'K', 00H, '(', 00H, '0', 00H, 'x', 00H
	DB	'0', 00H, '2', 00H, '0', 00H, '9', 00H, ')', 00H, 00H, 00H
	ORG $+6
$SG79822 DB	'W', 00H, 'M', 00H, '_', 00H, 'M', 00H, 'O', 00H, 'U', 00H
	DB	'S', 00H, 'E', 00H, 'W', 00H, 'H', 00H, 'E', 00H, 'E', 00H, 'L'
	DB	00H, '(', 00H, '0', 00H, 'x', 00H, '0', 00H, '2', 00H, '0', 00H
	DB	'A', 00H, ')', 00H, 00H, 00H
	ORG $+4
$SG79824 DB	'W', 00H, 'M', 00H, '_', 00H, 'X', 00H, 'B', 00H, 'U', 00H
	DB	'T', 00H, 'T', 00H, 'O', 00H, 'N', 00H, 'D', 00H, 'O', 00H, 'W'
	DB	00H, 'N', 00H, '(', 00H, '0', 00H, 'x', 00H, '0', 00H, '2', 00H
	DB	'0', 00H, 'B', 00H, ')', 00H, 00H, 00H
	ORG $+2
$SG79826 DB	'W', 00H, 'M', 00H, '_', 00H, 'X', 00H, 'B', 00H, 'U', 00H
	DB	'T', 00H, 'T', 00H, 'O', 00H, 'N', 00H, 'U', 00H, 'P', 00H, '('
	DB	00H, '0', 00H, 'x', 00H, '0', 00H, '2', 00H, '0', 00H, 'C', 00H
	DB	')', 00H, 00H, 00H
	ORG $+6
$SG79828 DB	'W', 00H, 'M', 00H, '_', 00H, 'X', 00H, 'B', 00H, 'U', 00H
	DB	'T', 00H, 'T', 00H, 'O', 00H, 'N', 00H, 'D', 00H, 'B', 00H, 'L'
	DB	00H, 'C', 00H, 'L', 00H, 'K', 00H, '(', 00H, '0', 00H, 'x', 00H
	DB	'0', 00H, '2', 00H, '0', 00H, 'D', 00H, ')', 00H, 00H, 00H
	ORG $+6
$SG79832 DB	'W', 00H, 'M', 00H, '_', 00H, 'P', 00H, 'A', 00H, 'R', 00H
	DB	'E', 00H, 'N', 00H, 'T', 00H, 'N', 00H, 'O', 00H, 'T', 00H, 'I'
	DB	00H, 'F', 00H, 'Y', 00H, '(', 00H, '0', 00H, 'x', 00H, '0', 00H
	DB	'2', 00H, '1', 00H, '0', 00H, ')', 00H, 00H, 00H
$SG79834 DB	'W', 00H, 'M', 00H, '_', 00H, 'E', 00H, 'N', 00H, 'T', 00H
	DB	'E', 00H, 'R', 00H, 'M', 00H, 'E', 00H, 'N', 00H, 'U', 00H, 'L'
	DB	00H, 'O', 00H, 'O', 00H, 'P', 00H, '(', 00H, '0', 00H, 'x', 00H
	DB	'0', 00H, '2', 00H, '1', 00H, '1', 00H, ')', 00H, 00H, 00H
	ORG $+6
$SG79830 DB	'W', 00H, 'M', 00H, '_', 00H, 'M', 00H, 'O', 00H, 'U', 00H
	DB	'S', 00H, 'E', 00H, 'H', 00H, 'W', 00H, 'H', 00H, 'E', 00H, 'E'
	DB	00H, 'L', 00H, '_', 00H, 'O', 00H, 'R', 00H, '_', 00H, 'M', 00H
	DB	'O', 00H, 'U', 00H, 'S', 00H, 'E', 00H, 'L', 00H, 'A', 00H, 'S'
	DB	00H, 'T', 00H, '(', 00H, '0', 00H, 'x', 00H, '0', 00H, '2', 00H
	DB	'0', 00H, 'E', 00H, ')', 00H, 00H, 00H
$SG79836 DB	'W', 00H, 'M', 00H, '_', 00H, 'E', 00H, 'X', 00H, 'I', 00H
	DB	'T', 00H, 'M', 00H, 'E', 00H, 'N', 00H, 'U', 00H, 'L', 00H, 'O'
	DB	00H, 'O', 00H, 'P', 00H, '(', 00H, '0', 00H, 'x', 00H, '0', 00H
	DB	'2', 00H, '1', 00H, '2', 00H, ')', 00H, 00H, 00H
$SG79838 DB	'W', 00H, 'M', 00H, '_', 00H, 'N', 00H, 'E', 00H, 'X', 00H
	DB	'T', 00H, 'M', 00H, 'E', 00H, 'N', 00H, 'U', 00H, '(', 00H, '0'
	DB	00H, 'x', 00H, '0', 00H, '2', 00H, '1', 00H, '3', 00H, ')', 00H
	DB	00H, 00H
$SG79840 DB	'W', 00H, 'M', 00H, '_', 00H, 'S', 00H, 'I', 00H, 'Z', 00H
	DB	'I', 00H, 'N', 00H, 'G', 00H, '(', 00H, '0', 00H, 'x', 00H, '0'
	DB	00H, '2', 00H, '1', 00H, '4', 00H, ')', 00H, 00H, 00H
	ORG $+4
$SG79842 DB	'W', 00H, 'M', 00H, '_', 00H, 'C', 00H, 'A', 00H, 'P', 00H
	DB	'T', 00H, 'U', 00H, 'R', 00H, 'E', 00H, 'C', 00H, 'H', 00H, 'A'
	DB	00H, 'N', 00H, 'G', 00H, 'E', 00H, 'D', 00H, '(', 00H, '0', 00H
	DB	'x', 00H, '0', 00H, '2', 00H, '1', 00H, '5', 00H, ')', 00H, 00H
	DB	00H
	ORG $+4
$SG79844 DB	'W', 00H, 'M', 00H, '_', 00H, 'M', 00H, 'O', 00H, 'V', 00H
	DB	'I', 00H, 'N', 00H, 'G', 00H, '(', 00H, '0', 00H, 'x', 00H, '0'
	DB	00H, '2', 00H, '1', 00H, '6', 00H, ')', 00H, 00H, 00H
	ORG $+4
$SG79846 DB	'W', 00H, 'M', 00H, '_', 00H, 'P', 00H, 'O', 00H, 'W', 00H
	DB	'E', 00H, 'R', 00H, 'B', 00H, 'R', 00H, 'O', 00H, 'A', 00H, 'D'
	DB	00H, 'C', 00H, 'A', 00H, 'S', 00H, 'T', 00H, '(', 00H, '0', 00H
	DB	'x', 00H, '0', 00H, '2', 00H, '1', 00H, '8', 00H, ')', 00H, 00H
	DB	00H
	ORG $+4
$SG79848 DB	'W', 00H, 'M', 00H, '_', 00H, 'D', 00H, 'E', 00H, 'V', 00H
	DB	'I', 00H, 'C', 00H, 'E', 00H, 'C', 00H, 'H', 00H, 'A', 00H, 'N'
	DB	00H, 'G', 00H, 'E', 00H, '(', 00H, '0', 00H, 'x', 00H, '0', 00H
	DB	'2', 00H, '1', 00H, '9', 00H, ')', 00H, 00H, 00H
$SG79850 DB	'W', 00H, 'M', 00H, '_', 00H, 'M', 00H, 'D', 00H, 'I', 00H
	DB	'C', 00H, 'R', 00H, 'E', 00H, 'A', 00H, 'T', 00H, 'E', 00H, '('
	DB	00H, '0', 00H, 'x', 00H, '0', 00H, '2', 00H, '2', 00H, '0', 00H
	DB	')', 00H, 00H, 00H
	ORG $+6
$SG79852 DB	'W', 00H, 'M', 00H, '_', 00H, 'M', 00H, 'D', 00H, 'I', 00H
	DB	'D', 00H, 'E', 00H, 'S', 00H, 'T', 00H, 'R', 00H, 'O', 00H, 'Y'
	DB	00H, '(', 00H, '0', 00H, 'x', 00H, '0', 00H, '2', 00H, '2', 00H
	DB	'1', 00H, ')', 00H, 00H, 00H
	ORG $+4
$SG79854 DB	'W', 00H, 'M', 00H, '_', 00H, 'M', 00H, 'D', 00H, 'I', 00H
	DB	'A', 00H, 'C', 00H, 'T', 00H, 'I', 00H, 'V', 00H, 'A', 00H, 'T'
	DB	00H, 'E', 00H, '(', 00H, '0', 00H, 'x', 00H, '0', 00H, '2', 00H
	DB	'2', 00H, '2', 00H, ')', 00H, 00H, 00H
	ORG $+2
$SG79856 DB	'W', 00H, 'M', 00H, '_', 00H, 'M', 00H, 'D', 00H, 'I', 00H
	DB	'R', 00H, 'E', 00H, 'S', 00H, 'T', 00H, 'O', 00H, 'R', 00H, 'E'
	DB	00H, '(', 00H, '0', 00H, 'x', 00H, '0', 00H, '2', 00H, '2', 00H
	DB	'3', 00H, ')', 00H, 00H, 00H
	ORG $+4
$SG79858 DB	'W', 00H, 'M', 00H, '_', 00H, 'M', 00H, 'D', 00H, 'I', 00H
	DB	'N', 00H, 'E', 00H, 'X', 00H, 'T', 00H, '(', 00H, '0', 00H, 'x'
	DB	00H, '0', 00H, '2', 00H, '2', 00H, '4', 00H, ')', 00H, 00H, 00H
	ORG $+2
$SG79860 DB	'W', 00H, 'M', 00H, '_', 00H, 'M', 00H, 'D', 00H, 'I', 00H
	DB	'M', 00H, 'A', 00H, 'X', 00H, 'I', 00H, 'M', 00H, 'I', 00H, 'Z'
	DB	00H, 'E', 00H, '(', 00H, '0', 00H, 'x', 00H, '0', 00H, '2', 00H
	DB	'2', 00H, '5', 00H, ')', 00H, 00H, 00H
	ORG $+2
$SG79862 DB	'W', 00H, 'M', 00H, '_', 00H, 'M', 00H, 'D', 00H, 'I', 00H
	DB	'T', 00H, 'I', 00H, 'L', 00H, 'E', 00H, '(', 00H, '0', 00H, 'x'
	DB	00H, '0', 00H, '2', 00H, '2', 00H, '6', 00H, ')', 00H, 00H, 00H
	ORG $+2
$SG79864 DB	'W', 00H, 'M', 00H, '_', 00H, 'M', 00H, 'D', 00H, 'I', 00H
	DB	'C', 00H, 'A', 00H, 'S', 00H, 'C', 00H, 'A', 00H, 'D', 00H, 'E'
	DB	00H, '(', 00H, '0', 00H, 'x', 00H, '0', 00H, '2', 00H, '2', 00H
	DB	'7', 00H, ')', 00H, 00H, 00H
	ORG $+4
$SG79866 DB	'W', 00H, 'M', 00H, '_', 00H, 'M', 00H, 'D', 00H, 'I', 00H
	DB	'I', 00H, 'C', 00H, 'O', 00H, 'N', 00H, 'A', 00H, 'R', 00H, 'R'
	DB	00H, 'A', 00H, 'N', 00H, 'G', 00H, 'E', 00H, '(', 00H, '0', 00H
	DB	'x', 00H, '0', 00H, '2', 00H, '2', 00H, '8', 00H, ')', 00H, 00H
	DB	00H
	ORG $+4
$SG79868 DB	'W', 00H, 'M', 00H, '_', 00H, 'M', 00H, 'D', 00H, 'I', 00H
	DB	'G', 00H, 'E', 00H, 'T', 00H, 'A', 00H, 'C', 00H, 'T', 00H, 'I'
	DB	00H, 'V', 00H, 'E', 00H, '(', 00H, '0', 00H, 'x', 00H, '0', 00H
	DB	'2', 00H, '2', 00H, '9', 00H, ')', 00H, 00H, 00H
$SG79870 DB	'W', 00H, 'M', 00H, '_', 00H, 'M', 00H, 'D', 00H, 'I', 00H
	DB	'S', 00H, 'E', 00H, 'T', 00H, 'M', 00H, 'E', 00H, 'N', 00H, 'U'
	DB	00H, '(', 00H, '0', 00H, 'x', 00H, '0', 00H, '2', 00H, '3', 00H
	DB	'0', 00H, ')', 00H, 00H, 00H
	ORG $+4
$SG79872 DB	'W', 00H, 'M', 00H, '_', 00H, 'E', 00H, 'N', 00H, 'T', 00H
	DB	'E', 00H, 'R', 00H, 'S', 00H, 'I', 00H, 'Z', 00H, 'E', 00H, 'M'
	DB	00H, 'O', 00H, 'V', 00H, 'E', 00H, '(', 00H, '0', 00H, 'x', 00H
	DB	'0', 00H, '2', 00H, '3', 00H, '1', 00H, ')', 00H, 00H, 00H
	ORG $+6
$SG79874 DB	'W', 00H, 'M', 00H, '_', 00H, 'E', 00H, 'X', 00H, 'I', 00H
	DB	'T', 00H, 'S', 00H, 'I', 00H, 'Z', 00H, 'E', 00H, 'M', 00H, 'O'
	DB	00H, 'V', 00H, 'E', 00H, '(', 00H, '0', 00H, 'x', 00H, '0', 00H
	DB	'2', 00H, '3', 00H, '2', 00H, ')', 00H, 00H, 00H
$SG79876 DB	'W', 00H, 'M', 00H, '_', 00H, 'D', 00H, 'R', 00H, 'O', 00H
	DB	'P', 00H, 'F', 00H, 'I', 00H, 'L', 00H, 'E', 00H, 'S', 00H, '('
	DB	00H, '0', 00H, 'x', 00H, '0', 00H, '2', 00H, '3', 00H, '3', 00H
	DB	')', 00H, 00H, 00H
	ORG $+6
$SG79878 DB	'W', 00H, 'M', 00H, '_', 00H, 'M', 00H, 'D', 00H, 'I', 00H
	DB	'R', 00H, 'E', 00H, 'F', 00H, 'R', 00H, 'E', 00H, 'S', 00H, 'H'
	DB	00H, 'M', 00H, 'E', 00H, 'N', 00H, 'U', 00H, '(', 00H, '0', 00H
	DB	'x', 00H, '0', 00H, '2', 00H, '3', 00H, '4', 00H, ')', 00H, 00H
	DB	00H
	ORG $+4
$SG79880 DB	'W', 00H, 'M', 00H, '_', 00H, 'P', 00H, 'O', 00H, 'I', 00H
	DB	'N', 00H, 'T', 00H, 'E', 00H, 'R', 00H, 'D', 00H, 'E', 00H, 'V'
	DB	00H, 'I', 00H, 'C', 00H, 'E', 00H, 'C', 00H, 'H', 00H, 'A', 00H
	DB	'N', 00H, 'G', 00H, 'E', 00H, '(', 00H, '0', 00H, 'x', 00H, '2'
	DB	00H, '3', 00H, '8', 00H, ')', 00H, 00H, 00H
	ORG $+4
$SG79882 DB	'W', 00H, 'M', 00H, '_', 00H, 'P', 00H, 'O', 00H, 'I', 00H
	DB	'N', 00H, 'T', 00H, 'E', 00H, 'R', 00H, 'D', 00H, 'E', 00H, 'V'
	DB	00H, 'I', 00H, 'C', 00H, 'E', 00H, 'I', 00H, 'N', 00H, 'R', 00H
	DB	'A', 00H, 'N', 00H, 'G', 00H, 'E', 00H, '(', 00H, '0', 00H, 'x'
	DB	00H, '2', 00H, '3', 00H, '9', 00H, ')', 00H, 00H, 00H
	ORG $+2
$SG79886 DB	'W', 00H, 'M', 00H, '_', 00H, 'T', 00H, 'O', 00H, 'U', 00H
	DB	'C', 00H, 'H', 00H, '(', 00H, '0', 00H, 'x', 00H, '0', 00H, '2'
	DB	00H, '4', 00H, '0', 00H, ')', 00H, 00H, 00H
	ORG $+6
$SG79884 DB	'W', 00H, 'M', 00H, '_', 00H, 'P', 00H, 'O', 00H, 'I', 00H
	DB	'N', 00H, 'T', 00H, 'E', 00H, 'R', 00H, 'D', 00H, 'E', 00H, 'V'
	DB	00H, 'I', 00H, 'C', 00H, 'E', 00H, 'O', 00H, 'U', 00H, 'T', 00H
	DB	'O', 00H, 'F', 00H, 'R', 00H, 'A', 00H, 'N', 00H, 'G', 00H, 'E'
	DB	00H, '(', 00H, '0', 00H, 'x', 00H, '2', 00H, '3', 00H, 'A', 00H
	DB	')', 00H, 00H, 00H
	ORG $+4
$SG79888 DB	'W', 00H, 'M', 00H, '_', 00H, 'N', 00H, 'C', 00H, 'P', 00H
	DB	'O', 00H, 'I', 00H, 'N', 00H, 'T', 00H, 'E', 00H, 'R', 00H, 'U'
	DB	00H, 'P', 00H, 'D', 00H, 'A', 00H, 'T', 00H, 'E', 00H, '(', 00H
	DB	'0', 00H, 'x', 00H, '0', 00H, '2', 00H, '4', 00H, '1', 00H, ')'
	DB	00H, 00H, 00H
	ORG $+2
$SG79890 DB	'W', 00H, 'M', 00H, '_', 00H, 'N', 00H, 'C', 00H, 'P', 00H
	DB	'O', 00H, 'I', 00H, 'N', 00H, 'T', 00H, 'E', 00H, 'R', 00H, 'D'
	DB	00H, 'O', 00H, 'W', 00H, 'N', 00H, '(', 00H, '0', 00H, 'x', 00H
	DB	'0', 00H, '2', 00H, '4', 00H, '2', 00H, ')', 00H, 00H, 00H
	ORG $+6
$SG79892 DB	'W', 00H, 'M', 00H, '_', 00H, 'N', 00H, 'C', 00H, 'P', 00H
	DB	'O', 00H, 'I', 00H, 'N', 00H, 'T', 00H, 'E', 00H, 'R', 00H, 'U'
	DB	00H, 'P', 00H, '(', 00H, '0', 00H, 'x', 00H, '0', 00H, '2', 00H
	DB	'4', 00H, '3', 00H, ')', 00H, 00H, 00H
	ORG $+2
$SG79894 DB	'W', 00H, 'M', 00H, '_', 00H, 'P', 00H, 'O', 00H, 'I', 00H
	DB	'N', 00H, 'T', 00H, 'E', 00H, 'R', 00H, 'U', 00H, 'P', 00H, 'D'
	DB	00H, 'A', 00H, 'T', 00H, 'E', 00H, '(', 00H, '0', 00H, 'x', 00H
	DB	'0', 00H, '2', 00H, '4', 00H, '5', 00H, ')', 00H, 00H, 00H
	ORG $+6
$SG79896 DB	'W', 00H, 'M', 00H, '_', 00H, 'P', 00H, 'O', 00H, 'I', 00H
	DB	'N', 00H, 'T', 00H, 'E', 00H, 'R', 00H, 'D', 00H, 'O', 00H, 'W'
	DB	00H, 'N', 00H, '(', 00H, '0', 00H, 'x', 00H, '0', 00H, '2', 00H
	DB	'4', 00H, '6', 00H, ')', 00H, 00H, 00H
	ORG $+2
$SG79898 DB	'W', 00H, 'M', 00H, '_', 00H, 'P', 00H, 'O', 00H, 'I', 00H
	DB	'N', 00H, 'T', 00H, 'E', 00H, 'R', 00H, 'U', 00H, 'P', 00H, '('
	DB	00H, '0', 00H, 'x', 00H, '0', 00H, '2', 00H, '4', 00H, '7', 00H
	DB	')', 00H, 00H, 00H
	ORG $+6
$SG79900 DB	'W', 00H, 'M', 00H, '_', 00H, 'P', 00H, 'O', 00H, 'I', 00H
	DB	'N', 00H, 'T', 00H, 'E', 00H, 'R', 00H, 'E', 00H, 'N', 00H, 'T'
	DB	00H, 'E', 00H, 'R', 00H, '(', 00H, '0', 00H, 'x', 00H, '0', 00H
	DB	'2', 00H, '4', 00H, '9', 00H, ')', 00H, 00H, 00H
$SG79902 DB	'W', 00H, 'M', 00H, '_', 00H, 'P', 00H, 'O', 00H, 'I', 00H
	DB	'N', 00H, 'T', 00H, 'E', 00H, 'R', 00H, 'L', 00H, 'E', 00H, 'A'
	DB	00H, 'V', 00H, 'E', 00H, '(', 00H, '0', 00H, 'x', 00H, '0', 00H
	DB	'2', 00H, '4', 00H, 'A', 00H, ')', 00H, 00H, 00H
$SG79904 DB	'W', 00H, 'M', 00H, '_', 00H, 'P', 00H, 'O', 00H, 'I', 00H
	DB	'N', 00H, 'T', 00H, 'E', 00H, 'R', 00H, 'A', 00H, 'C', 00H, 'T'
	DB	00H, 'I', 00H, 'V', 00H, 'A', 00H, 'T', 00H, 'E', 00H, '(', 00H
	DB	'0', 00H, 'x', 00H, '0', 00H, '2', 00H, '4', 00H, 'B', 00H, ')'
	DB	00H, 00H, 00H
	ORG $+2
$SG79908 DB	'W', 00H, 'M', 00H, '_', 00H, 'T', 00H, 'O', 00H, 'U', 00H
	DB	'C', 00H, 'H', 00H, 'H', 00H, 'I', 00H, 'T', 00H, 'T', 00H, 'E'
	DB	00H, 'S', 00H, 'T', 00H, 'I', 00H, 'N', 00H, 'G', 00H, '(', 00H
	DB	'0', 00H, 'x', 00H, '0', 00H, '2', 00H, '4', 00H, 'D', 00H, ')'
	DB	00H, 00H, 00H
	ORG $+2
$SG79906 DB	'W', 00H, 'M', 00H, '_', 00H, 'P', 00H, 'O', 00H, 'I', 00H
	DB	'N', 00H, 'T', 00H, 'E', 00H, 'R', 00H, 'C', 00H, 'A', 00H, 'P'
	DB	00H, 'T', 00H, 'U', 00H, 'R', 00H, 'E', 00H, 'C', 00H, 'H', 00H
	DB	'A', 00H, 'N', 00H, 'G', 00H, 'E', 00H, 'D', 00H, '(', 00H, '0'
	DB	00H, 'x', 00H, '0', 00H, '2', 00H, '4', 00H, 'C', 00H, ')', 00H
	DB	00H, 00H
	ORG $+6
$SG79910 DB	'W', 00H, 'M', 00H, '_', 00H, 'P', 00H, 'O', 00H, 'I', 00H
	DB	'N', 00H, 'T', 00H, 'E', 00H, 'R', 00H, 'W', 00H, 'H', 00H, 'E'
	DB	00H, 'E', 00H, 'L', 00H, '(', 00H, '0', 00H, 'x', 00H, '0', 00H
	DB	'2', 00H, '4', 00H, 'E', 00H, ')', 00H, 00H, 00H
$SG79912 DB	'W', 00H, 'M', 00H, '_', 00H, 'P', 00H, 'O', 00H, 'I', 00H
	DB	'N', 00H, 'T', 00H, 'E', 00H, 'R', 00H, 'H', 00H, 'W', 00H, 'H'
	DB	00H, 'E', 00H, 'E', 00H, 'L', 00H, '(', 00H, '0', 00H, 'x', 00H
	DB	'0', 00H, '2', 00H, '4', 00H, 'F', 00H, ')', 00H, 00H, 00H
	ORG $+6
$SG79914 DB	'D', 00H, 'M', 00H, '_', 00H, 'P', 00H, 'O', 00H, 'I', 00H
	DB	'N', 00H, 'T', 00H, 'E', 00H, 'R', 00H, 'H', 00H, 'I', 00H, 'T'
	DB	00H, 'T', 00H, 'E', 00H, 'S', 00H, 'T', 00H, '(', 00H, '0', 00H
	DB	'x', 00H, '0', 00H, '2', 00H, '5', 00H, '0', 00H, ')', 00H, 00H
	DB	00H
	ORG $+4
$SG79916 DB	'W', 00H, 'M', 00H, '_', 00H, 'P', 00H, 'O', 00H, 'I', 00H
	DB	'N', 00H, 'T', 00H, 'E', 00H, 'R', 00H, 'R', 00H, 'O', 00H, 'U'
	DB	00H, 'T', 00H, 'E', 00H, 'D', 00H, 'T', 00H, 'O', 00H, '(', 00H
	DB	'0', 00H, 'x', 00H, '0', 00H, '2', 00H, '5', 00H, '1', 00H, ')'
	DB	00H, 00H, 00H
	ORG $+2
$SG79918 DB	'W', 00H, 'M', 00H, '_', 00H, 'P', 00H, 'O', 00H, 'I', 00H
	DB	'N', 00H, 'T', 00H, 'E', 00H, 'R', 00H, 'R', 00H, 'O', 00H, 'U'
	DB	00H, 'T', 00H, 'E', 00H, 'D', 00H, 'A', 00H, 'W', 00H, 'A', 00H
	DB	'Y', 00H, '(', 00H, '0', 00H, 'x', 00H, '0', 00H, '2', 00H, '5'
	DB	00H, '2', 00H, ')', 00H, 00H, 00H
	ORG $+6
$SG79920 DB	'W', 00H, 'M', 00H, '_', 00H, 'P', 00H, 'O', 00H, 'I', 00H
	DB	'N', 00H, 'T', 00H, 'E', 00H, 'R', 00H, 'R', 00H, 'O', 00H, 'U'
	DB	00H, 'T', 00H, 'E', 00H, 'D', 00H, 'R', 00H, 'E', 00H, 'L', 00H
	DB	'E', 00H, 'A', 00H, 'S', 00H, 'E', 00H, 'D', 00H, '(', 00H, '0'
	DB	00H, 'x', 00H, '0', 00H, '2', 00H, '5', 00H, '3', 00H, ')', 00H
	DB	00H, 00H
	ORG $+6
$SG79922 DB	'W', 00H, 'M', 00H, '_', 00H, 'I', 00H, 'M', 00H, 'E', 00H
	DB	'_', 00H, 'S', 00H, 'E', 00H, 'T', 00H, 'C', 00H, 'O', 00H, 'N'
	DB	00H, 'T', 00H, 'E', 00H, 'X', 00H, 'T', 00H, '(', 00H, '0', 00H
	DB	'x', 00H, '0', 00H, '2', 00H, '8', 00H, '1', 00H, ')', 00H, 00H
	DB	00H
	ORG $+4
$SG79924 DB	'W', 00H, 'M', 00H, '_', 00H, 'I', 00H, 'M', 00H, 'E', 00H
	DB	'_', 00H, 'N', 00H, 'O', 00H, 'T', 00H, 'I', 00H, 'F', 00H, 'Y'
	DB	00H, '(', 00H, '0', 00H, 'x', 00H, '0', 00H, '2', 00H, '8', 00H
	DB	'2', 00H, ')', 00H, 00H, 00H
	ORG $+4
$SG79926 DB	'W', 00H, 'M', 00H, '_', 00H, 'I', 00H, 'M', 00H, 'E', 00H
	DB	'_', 00H, 'C', 00H, 'O', 00H, 'N', 00H, 'T', 00H, 'R', 00H, 'O'
	DB	00H, 'L', 00H, '(', 00H, '0', 00H, 'x', 00H, '0', 00H, '2', 00H
	DB	'8', 00H, '3', 00H, ')', 00H, 00H, 00H
	ORG $+2
$SG79928 DB	'W', 00H, 'M', 00H, '_', 00H, 'I', 00H, 'M', 00H, 'E', 00H
	DB	'_', 00H, 'C', 00H, 'O', 00H, 'M', 00H, 'P', 00H, 'O', 00H, 'S'
	DB	00H, 'I', 00H, 'T', 00H, 'I', 00H, 'O', 00H, 'N', 00H, 'F', 00H
	DB	'U', 00H, 'L', 00H, 'L', 00H, '(', 00H, '0', 00H, 'x', 00H, '0'
	DB	00H, '2', 00H, '8', 00H, '4', 00H, ')', 00H, 00H, 00H
	ORG $+2
$SG79930 DB	'W', 00H, 'M', 00H, '_', 00H, 'I', 00H, 'M', 00H, 'E', 00H
	DB	'_', 00H, 'S', 00H, 'E', 00H, 'L', 00H, 'E', 00H, 'C', 00H, 'T'
	DB	00H, '(', 00H, '0', 00H, 'x', 00H, '0', 00H, '2', 00H, '8', 00H
	DB	'5', 00H, ')', 00H, 00H, 00H
	ORG $+4
$SG79932 DB	'W', 00H, 'M', 00H, '_', 00H, 'I', 00H, 'M', 00H, 'E', 00H
	DB	'_', 00H, 'C', 00H, 'H', 00H, 'A', 00H, 'R', 00H, '(', 00H, '0'
	DB	00H, 'x', 00H, '0', 00H, '2', 00H, '8', 00H, '6', 00H, ')', 00H
	DB	00H, 00H
$SG79934 DB	'W', 00H, 'M', 00H, '_', 00H, 'I', 00H, 'M', 00H, 'E', 00H
	DB	'_', 00H, 'R', 00H, 'E', 00H, 'Q', 00H, 'U', 00H, 'E', 00H, 'S'
	DB	00H, 'T', 00H, '(', 00H, '0', 00H, 'x', 00H, '0', 00H, '2', 00H
	DB	'8', 00H, '8', 00H, ')', 00H, 00H, 00H
	ORG $+2
$SG79936 DB	'W', 00H, 'M', 00H, '_', 00H, 'I', 00H, 'M', 00H, 'E', 00H
	DB	'_', 00H, 'K', 00H, 'E', 00H, 'Y', 00H, 'D', 00H, 'O', 00H, 'W'
	DB	00H, 'N', 00H, '(', 00H, '0', 00H, 'x', 00H, '0', 00H, '2', 00H
	DB	'9', 00H, '0', 00H, ')', 00H, 00H, 00H
	ORG $+2
$SG79938 DB	'W', 00H, 'M', 00H, '_', 00H, 'I', 00H, 'M', 00H, 'E', 00H
	DB	'_', 00H, 'K', 00H, 'E', 00H, 'Y', 00H, 'U', 00H, 'P', 00H, '('
	DB	00H, '0', 00H, 'x', 00H, '0', 00H, '2', 00H, '9', 00H, '1', 00H
	DB	')', 00H, 00H, 00H
	ORG $+6
$SG79940 DB	'W', 00H, 'M', 00H, '_', 00H, 'M', 00H, 'O', 00H, 'U', 00H
	DB	'S', 00H, 'E', 00H, 'H', 00H, 'O', 00H, 'V', 00H, 'E', 00H, 'R'
	DB	00H, '(', 00H, '0', 00H, 'x', 00H, '0', 00H, '2', 00H, 'A', 00H
	DB	'1', 00H, ')', 00H, 00H, 00H
	ORG $+4
$SG79942 DB	'W', 00H, 'M', 00H, '_', 00H, 'M', 00H, 'O', 00H, 'U', 00H
	DB	'S', 00H, 'E', 00H, 'L', 00H, 'E', 00H, 'A', 00H, 'V', 00H, 'E'
	DB	00H, '(', 00H, '0', 00H, 'x', 00H, '0', 00H, '2', 00H, 'A', 00H
	DB	'3', 00H, ')', 00H, 00H, 00H
	ORG $+4
$SG79944 DB	'W', 00H, 'M', 00H, '_', 00H, 'N', 00H, 'C', 00H, 'M', 00H
	DB	'O', 00H, 'U', 00H, 'S', 00H, 'E', 00H, 'H', 00H, 'O', 00H, 'V'
	DB	00H, 'E', 00H, 'R', 00H, '(', 00H, '0', 00H, 'x', 00H, '0', 00H
	DB	'2', 00H, 'A', 00H, '0', 00H, ')', 00H, 00H, 00H
$SG79946 DB	'W', 00H, 'M', 00H, '_', 00H, 'N', 00H, 'C', 00H, 'M', 00H
	DB	'O', 00H, 'U', 00H, 'S', 00H, 'E', 00H, 'L', 00H, 'E', 00H, 'A'
	DB	00H, 'V', 00H, 'E', 00H, '(', 00H, '0', 00H, 'x', 00H, '0', 00H
	DB	'2', 00H, 'A', 00H, '2', 00H, ')', 00H, 00H, 00H
$SG79948 DB	'W', 00H, 'M', 00H, '_', 00H, 'W', 00H, 'T', 00H, 'S', 00H
	DB	'S', 00H, 'E', 00H, 'S', 00H, 'S', 00H, 'I', 00H, 'O', 00H, 'N'
	DB	00H, '_', 00H, 'C', 00H, 'H', 00H, 'A', 00H, 'N', 00H, 'G', 00H
	DB	'E', 00H, '(', 00H, '0', 00H, 'x', 00H, '0', 00H, '2', 00H, 'B'
	DB	00H, '1', 00H, ')', 00H, 00H, 00H
	ORG $+6
$SG79950 DB	'W', 00H, 'M', 00H, '_', 00H, 'T', 00H, 'A', 00H, 'B', 00H
	DB	'L', 00H, 'E', 00H, 'T', 00H, '_', 00H, 'F', 00H, 'I', 00H, 'R'
	DB	00H, 'S', 00H, 'T', 00H, '(', 00H, '0', 00H, 'x', 00H, '0', 00H
	DB	'2', 00H, 'c', 00H, '0', 00H, ')', 00H, 00H, 00H
$SG79952 DB	'W', 00H, 'M', 00H, '_', 00H, 'T', 00H, 'A', 00H, 'B', 00H
	DB	'L', 00H, 'E', 00H, 'T', 00H, '_', 00H, 'L', 00H, 'A', 00H, 'S'
	DB	00H, 'T', 00H, '(', 00H, '0', 00H, 'x', 00H, '0', 00H, '2', 00H
	DB	'd', 00H, 'f', 00H, ')', 00H, 00H, 00H
	ORG $+2
$SG79954 DB	'W', 00H, 'M', 00H, '_', 00H, 'D', 00H, 'P', 00H, 'I', 00H
	DB	'C', 00H, 'H', 00H, 'A', 00H, 'N', 00H, 'G', 00H, 'E', 00H, 'D'
	DB	00H, '(', 00H, '0', 00H, 'x', 00H, '0', 00H, '2', 00H, 'E', 00H
	DB	'0', 00H, ')', 00H, 00H, 00H
$SG88438 DB	'no SOI', 00H
	ORG $+5
$SG79956 DB	'W', 00H, 'M', 00H, '_', 00H, 'D', 00H, 'P', 00H, 'I', 00H
	DB	'C', 00H, 'H', 00H, 'A', 00H, 'N', 00H, 'G', 00H, 'E', 00H, 'D'
	DB	00H, '_', 00H, 'B', 00H, 'E', 00H, 'F', 00H, 'O', 00H, 'R', 00H
	DB	'E', 00H, 'P', 00H, 'A', 00H, 'R', 00H, 'E', 00H, 'N', 00H, 'T'
	DB	00H, '(', 00H, '0', 00H, 'x', 00H, '0', 00H, '2', 00H, 'E', 00H
	DB	'2', 00H, ')', 00H, 00H, 00H
	ORG $+2
$SG79960 DB	'W', 00H, 'M', 00H, '_', 00H, 'G', 00H, 'E', 00H, 'T', 00H
	DB	'D', 00H, 'P', 00H, 'I', 00H, 'S', 00H, 'C', 00H, 'A', 00H, 'L'
	DB	00H, 'E', 00H, 'D', 00H, 'S', 00H, 'I', 00H, 'Z', 00H, 'E', 00H
	DB	'(', 00H, '0', 00H, 'x', 00H, '0', 00H, '2', 00H, 'E', 00H, '4'
	DB	00H, ')', 00H, 00H, 00H
$SG79958 DB	'W', 00H, 'M', 00H, '_', 00H, 'D', 00H, 'P', 00H, 'I', 00H
	DB	'C', 00H, 'H', 00H, 'A', 00H, 'N', 00H, 'G', 00H, 'E', 00H, 'D'
	DB	00H, '_', 00H, 'A', 00H, 'F', 00H, 'T', 00H, 'E', 00H, 'R', 00H
	DB	'P', 00H, 'A', 00H, 'R', 00H, 'E', 00H, 'N', 00H, 'T', 00H, '('
	DB	00H, '0', 00H, 'x', 00H, '0', 00H, '2', 00H, 'E', 00H, '3', 00H
	DB	')', 00H, 00H, 00H
	ORG $+4
$SG79962 DB	'W', 00H, 'M', 00H, '_', 00H, 'C', 00H, 'U', 00H, 'T', 00H
	DB	'(', 00H, '0', 00H, 'x', 00H, '0', 00H, '3', 00H, '0', 00H, '0'
	DB	00H, ')', 00H, 00H, 00H
	ORG $+2
$SG79964 DB	'W', 00H, 'M', 00H, '_', 00H, 'C', 00H, 'O', 00H, 'P', 00H
	DB	'Y', 00H, '(', 00H, '0', 00H, 'x', 00H, '0', 00H, '3', 00H, '0'
	DB	00H, '1', 00H, ')', 00H, 00H, 00H
$SG79966 DB	'W', 00H, 'M', 00H, '_', 00H, 'P', 00H, 'A', 00H, 'S', 00H
	DB	'T', 00H, 'E', 00H, '(', 00H, '0', 00H, 'x', 00H, '0', 00H, '3'
	DB	00H, '0', 00H, '2', 00H, ')', 00H, 00H, 00H
	ORG $+6
$SG79968 DB	'W', 00H, 'M', 00H, '_', 00H, 'C', 00H, 'L', 00H, 'E', 00H
	DB	'A', 00H, 'R', 00H, '(', 00H, '0', 00H, 'x', 00H, '0', 00H, '3'
	DB	00H, '0', 00H, '3', 00H, ')', 00H, 00H, 00H
	ORG $+6
$SG79970 DB	'W', 00H, 'M', 00H, '_', 00H, 'U', 00H, 'N', 00H, 'D', 00H
	DB	'O', 00H, '(', 00H, '0', 00H, 'x', 00H, '0', 00H, '3', 00H, '0'
	DB	00H, '4', 00H, ')', 00H, 00H, 00H
$SG79972 DB	'W', 00H, 'M', 00H, '_', 00H, 'R', 00H, 'E', 00H, 'N', 00H
	DB	'D', 00H, 'E', 00H, 'R', 00H, 'F', 00H, 'O', 00H, 'R', 00H, 'M'
	DB	00H, 'A', 00H, 'T', 00H, '(', 00H, '0', 00H, 'x', 00H, '0', 00H
	DB	'3', 00H, '0', 00H, '5', 00H, ')', 00H, 00H, 00H
$SG79974 DB	'W', 00H, 'M', 00H, '_', 00H, 'R', 00H, 'E', 00H, 'N', 00H
	DB	'D', 00H, 'E', 00H, 'R', 00H, 'A', 00H, 'L', 00H, 'L', 00H, 'F'
	DB	00H, 'O', 00H, 'R', 00H, 'M', 00H, 'A', 00H, 'T', 00H, 'S', 00H
	DB	'(', 00H, '0', 00H, 'x', 00H, '0', 00H, '3', 00H, '0', 00H, '6'
	DB	00H, ')', 00H, 00H, 00H
$SG79976 DB	'W', 00H, 'M', 00H, '_', 00H, 'D', 00H, 'E', 00H, 'S', 00H
	DB	'T', 00H, 'R', 00H, 'O', 00H, 'Y', 00H, 'C', 00H, 'L', 00H, 'I'
	DB	00H, 'P', 00H, 'B', 00H, 'O', 00H, 'A', 00H, 'R', 00H, 'D', 00H
	DB	'(', 00H, '0', 00H, 'x', 00H, '0', 00H, '3', 00H, '0', 00H, '7'
	DB	00H, ')', 00H, 00H, 00H
$SG79978 DB	'W', 00H, 'M', 00H, '_', 00H, 'D', 00H, 'R', 00H, 'A', 00H
	DB	'W', 00H, 'C', 00H, 'L', 00H, 'I', 00H, 'P', 00H, 'B', 00H, 'O'
	DB	00H, 'A', 00H, 'R', 00H, 'D', 00H, '(', 00H, '0', 00H, 'x', 00H
	DB	'0', 00H, '3', 00H, '0', 00H, '8', 00H, ')', 00H, 00H, 00H
	ORG $+6
$SG79980 DB	'W', 00H, 'M', 00H, '_', 00H, 'P', 00H, 'A', 00H, 'I', 00H
	DB	'N', 00H, 'T', 00H, 'C', 00H, 'L', 00H, 'I', 00H, 'P', 00H, 'B'
	DB	00H, 'O', 00H, 'A', 00H, 'R', 00H, 'D', 00H, '(', 00H, '0', 00H
	DB	'x', 00H, '0', 00H, '3', 00H, '0', 00H, '9', 00H, ')', 00H, 00H
	DB	00H
	ORG $+4
$SG79982 DB	'W', 00H, 'M', 00H, '_', 00H, 'V', 00H, 'S', 00H, 'C', 00H
	DB	'R', 00H, 'O', 00H, 'L', 00H, 'L', 00H, 'C', 00H, 'L', 00H, 'I'
	DB	00H, 'P', 00H, 'B', 00H, 'O', 00H, 'A', 00H, 'R', 00H, 'D', 00H
	DB	'(', 00H, '0', 00H, 'x', 00H, '0', 00H, '3', 00H, '0', 00H, 'A'
	DB	00H, ')', 00H, 00H, 00H
$SG79984 DB	'W', 00H, 'M', 00H, '_', 00H, 'S', 00H, 'I', 00H, 'Z', 00H
	DB	'E', 00H, 'C', 00H, 'L', 00H, 'I', 00H, 'P', 00H, 'B', 00H, 'O'
	DB	00H, 'A', 00H, 'R', 00H, 'D', 00H, '(', 00H, '0', 00H, 'x', 00H
	DB	'0', 00H, '3', 00H, '0', 00H, 'B', 00H, ')', 00H, 00H, 00H
	ORG $+6
$SG79986 DB	'W', 00H, 'M', 00H, '_', 00H, 'A', 00H, 'S', 00H, 'K', 00H
	DB	'C', 00H, 'B', 00H, 'F', 00H, 'O', 00H, 'R', 00H, 'M', 00H, 'A'
	DB	00H, 'T', 00H, 'N', 00H, 'A', 00H, 'M', 00H, 'E', 00H, '(', 00H
	DB	'0', 00H, 'x', 00H, '0', 00H, '3', 00H, '0', 00H, 'C', 00H, ')'
	DB	00H, 00H, 00H
	ORG $+2
$SG79988 DB	'W', 00H, 'M', 00H, '_', 00H, 'C', 00H, 'H', 00H, 'A', 00H
	DB	'N', 00H, 'G', 00H, 'E', 00H, 'C', 00H, 'B', 00H, 'C', 00H, 'H'
	DB	00H, 'A', 00H, 'I', 00H, 'N', 00H, '(', 00H, '0', 00H, 'x', 00H
	DB	'0', 00H, '3', 00H, '0', 00H, 'D', 00H, ')', 00H, 00H, 00H
	ORG $+6
$SG79990 DB	'W', 00H, 'M', 00H, '_', 00H, 'H', 00H, 'S', 00H, 'C', 00H
	DB	'R', 00H, 'O', 00H, 'L', 00H, 'L', 00H, 'C', 00H, 'L', 00H, 'I'
	DB	00H, 'P', 00H, 'B', 00H, 'O', 00H, 'A', 00H, 'R', 00H, 'D', 00H
	DB	'(', 00H, '0', 00H, 'x', 00H, '0', 00H, '3', 00H, '0', 00H, 'E'
	DB	00H, ')', 00H, 00H, 00H
$SG79992 DB	'W', 00H, 'M', 00H, '_', 00H, 'Q', 00H, 'U', 00H, 'E', 00H
	DB	'R', 00H, 'Y', 00H, 'N', 00H, 'E', 00H, 'W', 00H, 'P', 00H, 'A'
	DB	00H, 'L', 00H, 'E', 00H, 'T', 00H, 'T', 00H, 'E', 00H, '(', 00H
	DB	'0', 00H, 'x', 00H, '0', 00H, '3', 00H, '0', 00H, 'F', 00H, ')'
	DB	00H, 00H, 00H
	ORG $+2
$SG79994 DB	'W', 00H, 'M', 00H, '_', 00H, 'P', 00H, 'A', 00H, 'L', 00H
	DB	'E', 00H, 'T', 00H, 'T', 00H, 'E', 00H, 'I', 00H, 'S', 00H, 'C'
	DB	00H, 'H', 00H, 'A', 00H, 'N', 00H, 'G', 00H, 'I', 00H, 'N', 00H
	DB	'G', 00H, '(', 00H, '0', 00H, 'x', 00H, '0', 00H, '3', 00H, '1'
	DB	00H, '0', 00H, ')', 00H, 00H, 00H
	ORG $+6
$SG79996 DB	'W', 00H, 'M', 00H, '_', 00H, 'P', 00H, 'A', 00H, 'L', 00H
	DB	'E', 00H, 'T', 00H, 'T', 00H, 'E', 00H, 'C', 00H, 'H', 00H, 'A'
	DB	00H, 'N', 00H, 'G', 00H, 'E', 00H, 'D', 00H, '(', 00H, '0', 00H
	DB	'x', 00H, '0', 00H, '3', 00H, '1', 00H, '1', 00H, ')', 00H, 00H
	DB	00H
	ORG $+4
$SG79998 DB	'W', 00H, 'M', 00H, '_', 00H, 'H', 00H, 'O', 00H, 'T', 00H
	DB	'K', 00H, 'E', 00H, 'Y', 00H, '(', 00H, '0', 00H, 'x', 00H, '0'
	DB	00H, '3', 00H, '1', 00H, '2', 00H, ')', 00H, 00H, 00H
	ORG $+4
$SG80000 DB	'W', 00H, 'M', 00H, '_', 00H, 'P', 00H, 'R', 00H, 'I', 00H
	DB	'N', 00H, 'T', 00H, '(', 00H, '0', 00H, 'x', 00H, '0', 00H, '3'
	DB	00H, '1', 00H, '7', 00H, ')', 00H, 00H, 00H
	ORG $+6
$SG80002 DB	'W', 00H, 'M', 00H, '_', 00H, 'P', 00H, 'R', 00H, 'I', 00H
	DB	'N', 00H, 'T', 00H, 'C', 00H, 'L', 00H, 'I', 00H, 'E', 00H, 'N'
	DB	00H, 'T', 00H, '(', 00H, '0', 00H, 'x', 00H, '0', 00H, '3', 00H
	DB	'1', 00H, '8', 00H, ')', 00H, 00H, 00H
	ORG $+2
$SG80004 DB	'W', 00H, 'M', 00H, '_', 00H, 'A', 00H, 'P', 00H, 'P', 00H
	DB	'C', 00H, 'O', 00H, 'M', 00H, 'M', 00H, 'A', 00H, 'N', 00H, 'D'
	DB	00H, '(', 00H, '0', 00H, 'x', 00H, '0', 00H, '3', 00H, '1', 00H
	DB	'9', 00H, ')', 00H, 00H, 00H
	ORG $+4
$SG80006 DB	'W', 00H, 'M', 00H, '_', 00H, 'T', 00H, 'H', 00H, 'E', 00H
	DB	'M', 00H, 'E', 00H, 'C', 00H, 'H', 00H, 'A', 00H, 'N', 00H, 'G'
	DB	00H, 'E', 00H, 'D', 00H, '(', 00H, '0', 00H, 'x', 00H, '0', 00H
	DB	'3', 00H, '1', 00H, 'A', 00H, ')', 00H, 00H, 00H
$SG80008 DB	'W', 00H, 'M', 00H, '_', 00H, 'C', 00H, 'L', 00H, 'I', 00H
	DB	'P', 00H, 'B', 00H, 'O', 00H, 'A', 00H, 'R', 00H, 'D', 00H, 'U'
	DB	00H, 'P', 00H, 'D', 00H, 'A', 00H, 'T', 00H, 'E', 00H, '(', 00H
	DB	'0', 00H, 'x', 00H, '0', 00H, '3', 00H, '1', 00H, 'D', 00H, ')'
	DB	00H, 00H, 00H
	ORG $+2
$SG80024 DB	'W', 00H, 'M', 00H, '_', 00H, 'H', 00H, 'A', 00H, 'N', 00H
	DB	'D', 00H, 'H', 00H, 'E', 00H, 'L', 00H, 'D', 00H, 'F', 00H, 'I'
	DB	00H, 'R', 00H, 'S', 00H, 'T', 00H, '(', 00H, '0', 00H, 'x', 00H
	DB	'0', 00H, '3', 00H, '5', 00H, '8', 00H, ')', 00H, 00H, 00H
	ORG $+6
$SG80010 DB	'W', 00H, 'M', 00H, '_', 00H, 'D', 00H, 'W', 00H, 'M', 00H
	DB	'C', 00H, 'O', 00H, 'M', 00H, 'P', 00H, 'O', 00H, 'S', 00H, 'I'
	DB	00H, 'T', 00H, 'I', 00H, 'O', 00H, 'N', 00H, 'C', 00H, 'H', 00H
	DB	'A', 00H, 'N', 00H, 'G', 00H, 'E', 00H, 'D', 00H, '(', 00H, '0'
	DB	00H, 'x', 00H, '0', 00H, '3', 00H, '1', 00H, 'E', 00H, ')', 00H
	DB	00H, 00H
	ORG $+6
$SG80026 DB	'W', 00H, 'M', 00H, '_', 00H, 'H', 00H, 'A', 00H, 'N', 00H
	DB	'D', 00H, 'H', 00H, 'E', 00H, 'L', 00H, 'D', 00H, 'L', 00H, 'A'
	DB	00H, 'S', 00H, 'T', 00H, '(', 00H, '0', 00H, 'x', 00H, '0', 00H
	DB	'3', 00H, '5', 00H, 'F', 00H, ')', 00H, 00H, 00H
$SG80028 DB	'W', 00H, 'M', 00H, '_', 00H, 'A', 00H, 'F', 00H, 'X', 00H
	DB	'F', 00H, 'I', 00H, 'R', 00H, 'S', 00H, 'T', 00H, '(', 00H, '0'
	DB	00H, 'x', 00H, '0', 00H, '3', 00H, '6', 00H, '0', 00H, ')', 00H
	DB	00H, 00H
$SG80012 DB	'W', 00H, 'M', 00H, '_', 00H, 'D', 00H, 'W', 00H, 'M', 00H
	DB	'N', 00H, 'C', 00H, 'R', 00H, 'E', 00H, 'N', 00H, 'D', 00H, 'E'
	DB	00H, 'R', 00H, 'I', 00H, 'N', 00H, 'G', 00H, 'C', 00H, 'H', 00H
	DB	'A', 00H, 'N', 00H, 'G', 00H, 'E', 00H, 'D', 00H, '(', 00H, '0'
	DB	00H, 'x', 00H, '0', 00H, '3', 00H, '1', 00H, 'F', 00H, ')', 00H
	DB	00H, 00H
	ORG $+6
$SG80030 DB	'W', 00H, 'M', 00H, '_', 00H, 'A', 00H, 'F', 00H, 'X', 00H
	DB	'L', 00H, 'A', 00H, 'S', 00H, 'T', 00H, '(', 00H, '0', 00H, 'x'
	DB	00H, '0', 00H, '3', 00H, '7', 00H, 'F', 00H, ')', 00H, 00H, 00H
	ORG $+2
$SG80014 DB	'W', 00H, 'M', 00H, '_', 00H, 'D', 00H, 'W', 00H, 'M', 00H
	DB	'C', 00H, 'O', 00H, 'L', 00H, 'O', 00H, 'R', 00H, 'I', 00H, 'Z'
	DB	00H, 'A', 00H, 'T', 00H, 'I', 00H, 'O', 00H, 'N', 00H, 'C', 00H
	DB	'O', 00H, 'L', 00H, 'O', 00H, 'R', 00H, 'C', 00H, 'H', 00H, 'A'
	DB	00H, 'N', 00H, 'G', 00H, 'E', 00H, 'D', 00H, '(', 00H, '0', 00H
	DB	'x', 00H, '0', 00H, '3', 00H, '2', 00H, '0', 00H, ')', 00H, 00H
	DB	00H
	ORG $+2
$SG80016 DB	'W', 00H, 'M', 00H, '_', 00H, 'D', 00H, 'W', 00H, 'M', 00H
	DB	'W', 00H, 'I', 00H, 'N', 00H, 'D', 00H, 'O', 00H, 'W', 00H, 'M'
	DB	00H, 'A', 00H, 'X', 00H, 'I', 00H, 'M', 00H, 'I', 00H, 'Z', 00H
	DB	'E', 00H, 'D', 00H, 'C', 00H, 'H', 00H, 'A', 00H, 'N', 00H, 'G'
	DB	00H, 'E', 00H, '(', 00H, '0', 00H, 'x', 00H, '0', 00H, '3', 00H
	DB	'2', 00H, '1', 00H, ')', 00H, 00H, 00H
$SG80062 DB	'STATIC_ALLOCATOR', 00H
	ORG $+7
$SG80018 DB	'W', 00H, 'M', 00H, '_', 00H, 'D', 00H, 'W', 00H, 'M', 00H
	DB	'S', 00H, 'E', 00H, 'N', 00H, 'D', 00H, 'I', 00H, 'C', 00H, 'O'
	DB	00H, 'N', 00H, 'I', 00H, 'C', 00H, 'T', 00H, 'H', 00H, 'U', 00H
	DB	'M', 00H, 'B', 00H, 'N', 00H, 'A', 00H, 'I', 00H, 'L', 00H, '('
	DB	00H, '0', 00H, 'x', 00H, '0', 00H, '3', 00H, '2', 00H, '3', 00H
	DB	')', 00H, 00H, 00H
$SG88442 DB	'no SOF', 00H
	ORG $+5
$SG80020 DB	'W', 00H, 'M', 00H, '_', 00H, 'D', 00H, 'W', 00H, 'M', 00H
	DB	'S', 00H, 'E', 00H, 'N', 00H, 'D', 00H, 'I', 00H, 'C', 00H, 'O'
	DB	00H, 'N', 00H, 'I', 00H, 'C', 00H, 'L', 00H, 'I', 00H, 'V', 00H
	DB	'E', 00H, 'P', 00H, 'R', 00H, 'E', 00H, 'V', 00H, 'I', 00H, 'E'
	DB	00H, 'W', 00H, 'B', 00H, 'I', 00H, 'T', 00H, 'M', 00H, 'A', 00H
	DB	'P', 00H, '(', 00H, '0', 00H, 'x', 00H, '0', 00H, '3', 00H, '2'
	DB	00H, '6', 00H, ')', 00H, 00H, 00H
	ORG $+4
$SG80022 DB	'W', 00H, 'M', 00H, '_', 00H, 'G', 00H, 'E', 00H, 'T', 00H
	DB	'T', 00H, 'I', 00H, 'T', 00H, 'L', 00H, 'E', 00H, 'B', 00H, 'A'
	DB	00H, 'R', 00H, 'I', 00H, 'N', 00H, 'F', 00H, 'O', 00H, 'E', 00H
	DB	'X', 00H, '(', 00H, '0', 00H, 'x', 00H, '0', 00H, '3', 00H, '3'
	DB	00H, 'F', 00H, ')', 00H, 00H, 00H
	ORG $+6
$SG80032 DB	'W', 00H, 'M', 00H, '_', 00H, 'P', 00H, 'E', 00H, 'N', 00H
	DB	'W', 00H, 'I', 00H, 'N', 00H, 'F', 00H, 'I', 00H, 'R', 00H, 'S'
	DB	00H, 'T', 00H, '(', 00H, '0', 00H, 'x', 00H, '0', 00H, '3', 00H
	DB	'8', 00H, '0', 00H, ')', 00H, 00H, 00H
	ORG $+2
$SG80034 DB	'W', 00H, 'M', 00H, '_', 00H, 'P', 00H, 'E', 00H, 'N', 00H
	DB	'W', 00H, 'I', 00H, 'N', 00H, 'L', 00H, 'A', 00H, 'S', 00H, 'T'
	DB	00H, '(', 00H, '0', 00H, 'x', 00H, '0', 00H, '3', 00H, '8', 00H
	DB	'F', 00H, ')', 00H, 00H, 00H
	ORG $+4
$SG80036 DB	'W', 00H, 'M', 00H, '_', 00H, 'A', 00H, 'P', 00H, 'P', 00H
	DB	'(', 00H, '0', 00H, 'x', 00H, '8', 00H, '0', 00H, '0', 00H, '0'
	DB	00H, ')', 00H, 00H, 00H
	ORG $+2
$SG80037 DB	'U', 00H, 'N', 00H, 'K', 00H, 'N', 00H, 'O', 00H, 'W', 00H
	DB	'N', 00H, 00H, 00H
$SG80061 DB	's', 00H, 'i', 00H, 'z', 00H, 'e', 00H, ' ', 00H, 't', 00H
	DB	'o', 00H, 'o', 00H, ' ', 00H, 'b', 00H, 'i', 00H, 'g', 00H, 00H
	DB	00H
	ORG $+6
$SG80063 DB	'W:\cpp\void\dr/cator.c', 00H
	ORG $+1
$SG80067 DB	'N', 00H, 'O', 00H, '_', 00H, 'M', 00H, 'E', 00H, 'S', 00H
	DB	'S', 00H, 'A', 00H, 'G', 00H, 'E', 00H, 00H, 00H
	ORG $+2
$SG80068 DB	'not supported for static allocations', 00H
	ORG $+3
$SG80069 DB	'!"not supported for static allocations"', 00H
$SG80070 DB	'STATIC_ALLOCATOR', 00H
	ORG $+7
$SG80071 DB	'W:\cpp\void\dr/cator.c', 00H
	ORG $+1
$SG88272 DB	'expected marker', 00H
$SG88275 DB	'bad DRI len', 00H
	ORG $+4
$SG88278 DB	'bad DQT type', 00H
	ORG $+3
$SG80087 DB	'W:\cpp\void\dr/cator.c', 00H
	ORG $+1
$SG88280 DB	'bad DQT table', 00H
	ORG $+2
$SG88284 DB	'bad DHT header', 00H
	ORG $+1
$SG88296 DB	'bad COM len', 00H
	ORG $+4
$SG88297 DB	'bad APP len', 00H
	ORG $+4
$SG80110 DB	'T', 00H, 'R', 00H, 'A', 00H, 'C', 00H, 'E', 00H, ':', 00H
	DB	' ', 00H, ' ', 00H, ' ', 00H, ' ', 00H, 00H, 00H
	ORG $+2
$SG80112 DB	'D', 00H, 'E', 00H, 'B', 00H, 'U', 00H, 'G', 00H, ':', 00H
	DB	' ', 00H, ' ', 00H, ' ', 00H, ' ', 00H, 00H, 00H
	ORG $+2
$SG88305 DB	'unknown marker', 00H
	ORG $+1
$SG80114 DB	'I', 00H, 'N', 00H, 'F', 00H, 'O', 00H, ':', 00H, ' ', 00H
	DB	' ', 00H, ' ', 00H, ' ', 00H, ' ', 00H, 00H, 00H
	ORG $+2
$SG80116 DB	'W', 00H, 'A', 00H, 'R', 00H, 'N', 00H, 'I', 00H, 'N', 00H
	DB	'G', 00H, ':', 00H, ' ', 00H, ' ', 00H, 00H, 00H
	ORG $+2
$SG80118 DB	'E', 00H, 'R', 00H, 'R', 00H, 'O', 00H, 'R', 00H, ':', 00H
	DB	' ', 00H, ' ', 00H, ' ', 00H, ' ', 00H, 00H, 00H
	ORG $+2
$SG80120 DB	'F', 00H, 'A', 00H, 'T', 00H, 'A', 00H, 'L', 00H, ':', 00H
	DB	' ', 00H, ' ', 00H, ' ', 00H, ' ', 00H, 00H, 00H
	ORG $+2
$SG80122 DB	'V', 00H, 'E', 00H, 'R', 00H, 'B', 00H, 'O', 00H, 'S', 00H
	DB	'E', 00H, ':', 00H, ' ', 00H, ' ', 00H, 00H, 00H
	ORG $+2
$SG80124 DB	'P', 00H, 'E', 00H, 'D', 00H, 'A', 00H, 'N', 00H, 'T', 00H
	DB	'I', 00H, 'C', 00H, ':', 00H, ' ', 00H, 00H, 00H
	ORG $+2
$SG80125 DB	'I', 00H, 'N', 00H, 'V', 00H, 'A', 00H, 'L', 00H, 'I', 00H
	DB	'D', 00H, '_', 00H, 'T', 00H, 'R', 00H, 'A', 00H, 'C', 00H, 'E'
	DB	00H, '_', 00H, 'M', 00H, 'E', 00H, 'S', 00H, 'S', 00H, 'A', 00H
	DB	'G', 00H, 'E', 00H, 00H, 00H
	ORG $+4
$SG88324 DB	'bad SOS component count', 00H
$SG88326 DB	'bad SOS len', 00H
	ORG $+4
$SG88330 DB	'bad DC huff', 00H
	ORG $+4
$SG88332 DB	'bad AC huff', 00H
	ORG $+4
$SG80142 DB	'K', 00H, 'L', 00H, 'A', 00H, 'R', 00H, 'K', 00H, '_', 00H
	DB	'A', 00H, 'P', 00H, 'P', 00H, ' ', 00H, '%', 00H, 's', 00H, ' '
	DB	00H, '%', 00H, 's', 00H, ',', 00H, ' ', 00H, '%', 00H, 's', 00H
	DB	'(', 00H, ')', 00H, ' ', 00H, '[', 00H, '%', 00H, 'i', 00H, ']'
	DB	00H, ' ', 00H, '%', 00H, 's', 00H, 0aH, 00H, 00H, 00H
	ORG $+2
$SG88337 DB	'bad SOS', 00H
$SG88339 DB	'bad SOS', 00H
$SG88342 DB	'bad SOS', 00H
$SG80156 DB	'T', 00H, 'R', 00H, 'A', 00H, 'C', 00H, 'E', 00H, '_', 00H
	DB	'B', 00H, 'L', 00H, 'O', 00H, 'C', 00H, 'K', 00H, ' ', 00H, '['
	DB	00H, '%', 00H, 's', 00H, ']', 00H, ' ', 00H, '%', 00H, 'f', 00H
	DB	'(', 00H, 'm', 00H, 's', 00H, ')', 00H, 00H, 00H
$SG88390 DB	'bad SOF len', 00H
	ORG $+4
$SG88392 DB	'only 8-bit', 00H
	ORG $+5
$SG88394 DB	'no header height', 00H
	ORG $+7
$SG88396 DB	'0 width', 00H
$SG88398 DB	'too large', 00H
	ORG $+6
$SG88400 DB	'too large', 00H
	ORG $+6
$SG88402 DB	'bad component count', 00H
	ORG $+4
$SG88404 DB	'bad SOF len', 00H
	ORG $+4
$SG88416 DB	'too large', 00H
	ORG $+6
$SG88424 DB	'outofmem', 00H
	ORG $+7
$SG88427 DB	'outofmem', 00H
	ORG $+7
$SG88468 DB	'bad DNL len', 00H
	ORG $+4
$SG88470 DB	'bad DNL height', 00H
	ORG $+1
$SG154315 DB	'modules\renderer\model.hlsl', 00H
	ORG $+4
$SG154316 DB	'plain3D', 00H
$SG154317 DB	'POSITION', 00H
	ORG $+7
$SG154318 DB	'plain3D', 00H
$SG154319 DB	'modules\renderer\textured.hlsl', 00H
	ORG $+1
$SG154320 DB	'textured3D', 00H
	ORG $+5
$SG154321 DB	'TEXCOORD', 00H
	ORG $+7
$SG154322 DB	'POSITION', 00H
	ORG $+7
$SG154323 DB	'textured3D', 00H
	ORG $+5
$SG154324 DB	'modules\renderer\text.hlsl', 00H
	ORG $+5
$SG154325 DB	'POSITION', 00H
	ORG $+7
$SG154326 DB	'GLYPHIDX', 00H
	ORG $+3
$SG154327 DB	'text', 00H
	ORG $+7
$SG154328 DB	'TEXCOORD', 00H
	ORG $+3
$SG154329 DB	'COLOR', 00H
	ORG $+6
$SG154330 DB	'POSITION', 00H
	ORG $+7
$SG154331 DB	'ImGui::ShaderBundle(A)', 00H
	ORG $+1
$SG154332 DB	'TEXCOORD', 00H
	ORG $+3
$SG154333 DB	'COLOR', 00H
	ORG $+6
$SG154334 DB	'POSITION', 00H
	ORG $+7
$SG154335 DB	'ImGui::ShaderBundle(B)', 00H
	ORG $+1
$SG154336 DB	'TEXCOORD', 00H
	ORG $+3
$SG154337 DB	'COLOR', 00H
	ORG $+6
$SG154338 DB	'POSITION', 00H
	ORG $+7
$SG154339 DB	'ImGui::ShaderBundle(C)', 00H
	ORG $+1
$SG154368 DB	'f', 00H, 'a', 00H, 'i', 00H, 'l', 00H, 'e', 00H, 'd', 00H
	DB	' ', 00H, 't', 00H, 'o', 00H, ' ', 00H, 'i', 00H, 'n', 00H, 'i'
	DB	00H, 't', 00H, 'i', 00H, 'a', 00H, 'l', 00H, 'i', 00H, 'z', 00H
	DB	'e', 00H, ' ', 00H, 'd', 00H, 'r', 00H, 'i', 00H, 'v', 00H, 'e'
	DB	00H, 'r', 00H, 00H, 00H
$SG154369 DB	'D3D11Driver_InitializeCompatible', 00H
	ORG $+7
$SG154370 DB	'W:\cpp\void\detroit\detroit-d3d11.c', 00H
$SG154692 DB	'MainVS', 00H
	ORG $+5
$SG154376 DB	'cbuffer ConstBuffer : register(b0)', 0dH, 0aH, '{ float4'
	DB	'x4 ProjectionMatrix;', 0dH, 0aH, '};', 0dH, 0aH, 'struct VS_I'
	DB	'NPUT', 0dH, 0aH, '{ float2 pos : POSITION;', 0dH, 0aH, '  flo'
	DB	'at4 col : COLOR0;', 0dH, 0aH, '};', 0dH, 0aH, 'struct PS_INPU'
	DB	'T', 0dH, 0aH, '{ float4 pos : SV_POSITION;', 0dH, 0aH, '  flo'
	DB	'at4 col : COLOR0;', 0dH, 0aH, '  float4 tex : TEXCOORD0;', 0dH
	DB	0aH, '};', 0dH, 0aH, 'PS_INPUT MainVS(VS_INPUT input)', 0dH, 0aH
	DB	'{ PS_INPUT output;', 0dH, 0aH, '  output.pos = mul( Projectio'
	DB	'nMatrix, float4(input.pos.xy, 0.f, 1.f));', 0dH, 0aH, '  outp'
	DB	'ut.col = input.col;', 0dH, 0aH, '  output.tex = float4(0,0,0,'
	DB	'0);', 0dH, 0aH, '  return output;', 0dH, 0aH, '}', 0dH, 0aH, 'f'
	DB	'loat4 MainPS(PS_INPUT input) : SV_Target', 0dH, 0aH, '{ retur'
	DB	'n input.col;', 0dH, 0aH, '}', 0dH, 0aH, 00H
$SG154695 DB	'MainPS', 00H
	ORG $+5
$SG154382 DB	'cbuffer ConstBuffer : register(b0)', 0dH, 0aH, '{ float4'
	DB	'x4 ProjectionMatrix;', 0dH, 0aH, '};', 0dH, 0aH, 'struct VS_I'
	DB	'NPUT', 0dH, 0aH, '{ float2 pos : POSITION;', 0dH, 0aH, '  flo'
	DB	'at4 col : COLOR0;', 0dH, 0aH, '  float2 uv  : TEXCOORD0;', 0dH
	DB	0aH, '};', 0dH, 0aH, 'struct PS_INPUT', 0dH, 0aH, '{ float4 po'
	DB	's : SV_POSITION;', 0dH, 0aH, '  float4 col : COLOR0;', 0dH, 0aH
	DB	'  float2 uv  : TEXCOORD0;', 0dH, 0aH, '};', 0dH, 0aH, 'PS_INP'
	DB	'UT MainVS(VS_INPUT input)', 0dH, 0aH, '{ PS_INPUT output;', 0dH
	DB	0aH, '  output.pos = mul( ProjectionMatrix, float4(input.pos.x'
	DB	'y, 0.f, 1.f));', 0dH, 0aH, '  output.col = input.col;', 0dH, 0aH
	DB	'  output.uv  = input.uv;', 0dH, 0aH, '  return output;', 0dH, 0aH
	DB	'}', 0dH, 0aH, 'SamplerState     sampler0;', 0dH, 0aH, 'Textur'
	DB	'e2D<float> texture0;', 0dH, 0aH, 'float4 MainPS(PS_INPUT inpu'
	DB	't) : SV_Target', 0dH, 0aH, '{ float alpha = texture0.Sample(s'
	DB	'ampler0, input.uv);', 0dH, 0aH, '  float4 out_col = input.col'
	DB	' * alpha;', 0dH, 0aH, '  return out_col;', 0dH, 0aH, '}', 0dH
	DB	0aH, 00H
	ORG $+5
$SG154388 DB	'cbuffer ConstBuffer : register(b0)', 0dH, 0aH, '{ float4'
	DB	'x4 ProjectionMatrix;', 0dH, 0aH, '  float    SmoothStepMin;', 0dH
	DB	0aH, '  float    SmoothStepMax;', 0dH, 0aH, '};', 0dH, 0aH, 's'
	DB	'truct VS_INPUT', 0dH, 0aH, '{ float2 pos : POSITION;', 0dH, 0aH
	DB	'  float4 col : COLOR0;', 0dH, 0aH, '  float2 uv  : TEXCOORD0;'
	DB	0dH, 0aH, '};', 0dH, 0aH, 'struct PS_INPUT', 0dH, 0aH, '{ floa'
	DB	't4 pos : SV_POSITION;', 0dH, 0aH, '  float4 col : COLOR0;', 0dH
	DB	0aH, '  float2 uv  : TEXCOORD0;', 0dH, 0aH, '};', 0dH, 0aH, 'P'
	DB	'S_INPUT MainVS(VS_INPUT input)', 0dH, 0aH, '{ PS_INPUT output'
	DB	';', 0dH, 0aH, '  output.pos = mul( ProjectionMatrix, float4(i'
	DB	'nput.pos.xy, 0.f, 1.f));', 0dH, 0aH, '  output.col = input.co'
	DB	'l;', 0dH, 0aH, '  output.uv  = input.uv;', 0dH, 0aH, '  retur'
	DB	'n output;', 0dH, 0aH, '}', 0dH, 0aH, 'SamplerState     sample'
	DB	'r0;', 0dH, 0aH, 'Texture2D<float> texture0;', 0dH, 0aH, 'floa'
	DB	't4 MainPS(PS_INPUT input) : SV_Target', 0dH, 0aH, '{', 0dH, 0aH
	DB	'  float  Distance = texture0.Sample(sampler0, input.uv);', 0dH
	DB	0aH, '  float  Alpha    = smoothstep(SmoothStepMin, SmoothStep'
	DB	'Max, Distance);', 0dH, 0aH, '  float4 Color    = float4(input'
	DB	'.col.rgb * Alpha, Alpha);', 0dH, 0aH, '  return Color;', 0dH, 0aH
	DB	'}', 0dH, 0aH, 00H
	ORG $+5
$SG154408 DB	'u', 00H, 'n', 00H, 's', 00H, 'u', 00H, 'p', 00H, 'p', 00H
	DB	'o', 00H, 'r', 00H, 't', 00H, 'e', 00H, 'd', 00H, ' ', 00H, 'f'
	DB	00H, 'l', 00H, 'a', 00H, 'g', 00H, 's', 00H, 00H, 00H
	ORG $+4
$SG154409 DB	'ZenExternalizeResourceAccessFlags', 00H
	ORG $+6
$SG154410 DB	'W:\cpp\void\detroit\detroit-d3d11.c', 00H
	ORG $+4
$SG154432 DB	'f', 00H, 'a', 00H, 'i', 00H, 'l', 00H, 'e', 00H, 'd', 00H
	DB	' ', 00H, 't', 00H, 'o', 00H, ' ', 00H, 'g', 00H, 'e', 00H, 't'
	DB	00H, ' ', 00H, 'I', 00H, 'D', 00H, 'X', 00H, 'G', 00H, 'I', 00H
	DB	'_', 00H, 'F', 00H, 'A', 00H, 'C', 00H, 'T', 00H, 'O', 00H, 'R'
	DB	00H, 'Y', 00H, 00H, 00H
$SG154433 DB	'ID3D11Driver_GetFactory', 00H
$SG154434 DB	'W:\cpp\void\detroit\detroit-d3d11.c', 00H
	ORG $+4
$SG88975 DB	'bad req_comp', 00H
	ORG $+3
$SG154513 DB	'f', 00H, 'a', 00H, 'i', 00H, 'l', 00H, 'e', 00H, 'd', 00H
	DB	00H, 00H
	ORG $+2
$SG154514 DB	'ID3D11Driver_CreateBuffer', 00H
	ORG $+6
$SG154515 DB	'W:\cpp\void\detroit\detroit-d3d11.c', 00H
	ORG $+4
$SG88981 DB	'outofmem', 00H
	ORG $+7
$SG88991 DB	'outofmem', 00H
	ORG $+7
$SG154554 DB	'f', 00H, 'a', 00H, 'i', 00H, 'l', 00H, 'e', 00H, 'd', 00H
	DB	00H, 00H
	ORG $+2
$SG154555 DB	'ID3D11Driver_CreateBufferShaderAccess', 00H
	ORG $+2
$SG154556 DB	'W:\cpp\void\detroit\detroit-d3d11.c', 00H
	ORG $+4
$SG154567 DB	'f', 00H, 'a', 00H, 'i', 00H, 'l', 00H, 'e', 00H, 'd', 00H
	DB	00H, 00H
	ORG $+2
$SG154568 DB	'ID3D11Driver_CreateSimpleSampler', 00H
	ORG $+7
$SG154569 DB	'W:\cpp\void\detroit\detroit-d3d11.c', 00H
	ORG $+4
$SG89033 DB	'outofmem', 00H
	ORG $+7
$SG89042 DB	'outofmem', 00H
	ORG $+7
$SG154592 DB	'I', 00H, 'D', 00H, '3', 00H, 'D', 00H, '1', 00H, '1', 00H
	DB	'D', 00H, 'e', 00H, 'v', 00H, 'i', 00H, 'c', 00H, 'e', 00H, '_'
	DB	00H, 'C', 00H, 'r', 00H, 'e', 00H, 'a', 00H, 't', 00H, 'e', 00H
	DB	'S', 00H, 'h', 00H, 'a', 00H, 'd', 00H, 'e', 00H, 'r', 00H, 'R'
	DB	00H, 'e', 00H, 's', 00H, 'o', 00H, 'u', 00H, 'r', 00H, 'c', 00H
	DB	'e', 00H, 'V', 00H, 'i', 00H, 'e', 00H, 'w', 00H, '(', 00H, ')'
	DB	00H, ' ', 00H, '[', 00H, 'F', 00H, 'A', 00H, 'I', 00H, 'L', 00H
	DB	'E', 00H, 'D', 00H, ']', 00H, 00H, 00H
	ORG $+6
$SG154593 DB	'ID3D11Driver_CreateTexture2DShaderAccess', 00H
	ORG $+7
$SG154594 DB	'W:\cpp\void\detroit\detroit-d3d11.c', 00H
	ORG $+4
$SG154595 DB	'i', 00H, 'n', 00H, 'v', 00H, 'a', 00H, 'l', 00H, 'i', 00H
	DB	'd', 00H, ' ', 00H, 'b', 00H, 'i', 00H, 'n', 00H, 'd', 00H, ' '
	DB	00H, 't', 00H, 'a', 00H, 'r', 00H, 'g', 00H, 'e', 00H, 't', 00H
	DB	00H, 00H
$SG154596 DB	'ID3D11Driver_CreateTexture2DShaderAccess', 00H
	ORG $+7
$SG154597 DB	'W:\cpp\void\detroit\detroit-d3d11.c', 00H
	ORG $+4
$SG89064 DB	'outofmem', 00H
	ORG $+7
$SG154611 DB	'I', 00H, 'D', 00H, '3', 00H, 'D', 00H, '1', 00H, '1', 00H
	DB	'D', 00H, 'e', 00H, 'v', 00H, 'i', 00H, 'c', 00H, 'e', 00H, '_'
	DB	00H, 'C', 00H, 'r', 00H, 'e', 00H, 'a', 00H, 't', 00H, 'e', 00H
	DB	'R', 00H, 'e', 00H, 'n', 00H, 'd', 00H, 'e', 00H, 'r', 00H, 'T'
	DB	00H, 'a', 00H, 'r', 00H, 'g', 00H, 'e', 00H, 't', 00H, 'V', 00H
	DB	'i', 00H, 'e', 00H, 'w', 00H, '(', 00H, ')', 00H, ' ', 00H, '['
	DB	00H, 'F', 00H, 'A', 00H, 'I', 00H, 'L', 00H, 'E', 00H, 'D', 00H
	DB	']', 00H, 00H, 00H
	ORG $+2
$SG154612 DB	'ID3D11Driver_CreateTexture2DRenderTargetView', 00H
	ORG $+3
$SG154613 DB	'W:\cpp\void\detroit\detroit-d3d11.c', 00H
	ORG $+4
$SG154614 DB	'i', 00H, 'n', 00H, 'v', 00H, 'a', 00H, 'l', 00H, 'i', 00H
	DB	'd', 00H, ' ', 00H, 'b', 00H, 'i', 00H, 'n', 00H, 'd', 00H, ' '
	DB	00H, 't', 00H, 'a', 00H, 'r', 00H, 'g', 00H, 'e', 00H, 't', 00H
	DB	00H, 00H
$SG154615 DB	'ID3D11Driver_CreateTexture2DRenderTargetView', 00H
	ORG $+3
$SG154616 DB	'W:\cpp\void\detroit\detroit-d3d11.c', 00H
$SG154698 DB	'MainCS', 00H
	ORG $+5
$SG89092 DB	'W', 00H, ':', 00H, '\', 00H, 'c', 00H, 'p', 00H, 'p', 00H
	DB	'\', 00H, 'v', 00H, 'o', 00H, 'i', 00H, 'd', 00H, '\', 00H, 'v'
	DB	00H, 'e', 00H, 'n', 00H, 'd', 00H, 'o', 00H, 'r', 00H, '\', 00H
	DB	's', 00H, 't', 00H, 'b', 00H, '\', 00H, 's', 00H, 't', 00H, 'b'
	DB	00H, '_', 00H, 'i', 00H, 'm', 00H, 'a', 00H, 'g', 00H, 'e', 00H
	DB	'.', 00H, 'h', 00H, 00H, 00H
	ORG $+2
$SG89093 DB	'b', 00H, 'i', 00H, 't', 00H, 's', 00H, ' ', 00H, '<', 00H
	DB	'=', 00H, ' ', 00H, '1', 00H, '6', 00H, 00H, 00H
	ORG $+2
$SG154633 DB	'(', 00H, '.', 00H, 'D', 00H, 'i', 00H, 'm', 00H, 'e', 00H
	DB	'n', 00H, 'X', 00H, ' ', 00H, '=', 00H, ' ', 00H, '%', 00H, 'i'
	DB	00H, ',', 00H, ' ', 00H, '.', 00H, 'D', 00H, 'i', 00H, 'm', 00H
	DB	'e', 00H, 'n', 00H, 'Y', 00H, ' ', 00H, '=', 00H, ' ', 00H, '%'
	DB	00H, 'i', 00H, ')', 00H, 00H, 00H
	ORG $+6
$SG154634 DB	'ID3D11Driver_CreateTexture2D', 00H
	ORG $+3
$SG154635 DB	'W:\cpp\void\detroit\detroit-d3d11.c', 00H
	ORG $+4
$SG154639 DB	'f', 00H, 'a', 00H, 'i', 00H, 'l', 00H, 'e', 00H, 'd', 00H
	DB	00H, 00H
	ORG $+2
$SG154640 DB	'ID3D11Driver_CreateTexture2D', 00H
	ORG $+3
$SG154641 DB	'W:\cpp\void\detroit\detroit-d3d11.c', 00H
	ORG $+4
$SG89128 DB	'bad sizes', 00H
	ORG $+6
$SG89131 DB	'bad codelengths', 00H
$SG154688 DB	'invalid', 00H
$SG154689 DB	'invalid', 00H
$SG154704 DB	'vs_4_0', 00H
	ORG $+1
$SG154707 DB	'ps_4_0', 00H
	ORG $+1
$SG154709 DB	'cs_4_0', 00H
	ORG $+1
$SG154715 DB	'vs_5_0', 00H
	ORG $+1
$SG154718 DB	'ps_5_0', 00H
	ORG $+1
$SG154720 DB	'cs_5_0', 00H
	ORG $+1
$SG154749 DB	'u', 00H, 'n', 00H, 'e', 00H, 'x', 00H, 'p', 00H, 'e', 00H
	DB	'c', 00H, 't', 00H, 'e', 00H, 'd', 00H, 00H, 00H
	ORG $+2
$SG154750 DB	'ID3D11Driver_CreateShaderInternal', 00H
	ORG $+6
$SG154751 DB	'W:\cpp\void\detroit\detroit-d3d11.c', 00H
	ORG $+4
$SG89216 DB	'output buffer limit', 00H
	ORG $+4
$SG89218 DB	'outofmem', 00H
	ORG $+7
$SG89220 DB	'outofmem', 00H
	ORG $+7
$SG89222 DB	'outofmem', 00H
	ORG $+7
?stbi__zlength_base@@3QBHB DD 03H			; stbi__zlength_base
	DD	04H
	DD	05H
	DD	06H
	DD	07H
	DD	08H
	DD	09H
	DD	0aH
	DD	0bH
	DD	0dH
	DD	0fH
	DD	011H
	DD	013H
	DD	017H
	DD	01bH
	DD	01fH
	DD	023H
	DD	02bH
	DD	033H
	DD	03bH
	DD	043H
	DD	053H
	DD	063H
	DD	073H
	DD	083H
	DD	0a3H
	DD	0c3H
	DD	0e3H
	DD	0102H
	DD	00H
	DD	00H
	ORG $+4
?stbi__zlength_extra@@3QBHB DD 00H			; stbi__zlength_extra
	DD	00H
	DD	00H
	DD	00H
	DD	00H
	DD	00H
	DD	00H
	DD	00H
	DD	01H
	DD	01H
	DD	01H
	DD	01H
	DD	02H
	DD	02H
	DD	02H
	DD	02H
	DD	03H
	DD	03H
	DD	03H
	DD	03H
	DD	04H
	DD	04H
	DD	04H
	DD	04H
	DD	05H
	DD	05H
	DD	05H
	DD	05H
	DD	00H
	DD	00H
	DD	00H
	ORG $+4
?stbi__zdist_base@@3QBHB DD 01H				; stbi__zdist_base
	DD	02H
	DD	03H
	DD	04H
	DD	05H
	DD	07H
	DD	09H
	DD	0dH
	DD	011H
	DD	019H
	DD	021H
	DD	031H
	DD	041H
	DD	061H
	DD	081H
	DD	0c1H
	DD	0101H
	DD	0181H
	DD	0201H
	DD	0301H
	DD	0401H
	DD	0601H
	DD	0801H
	DD	0c01H
	DD	01001H
	DD	01801H
	DD	02001H
	DD	03001H
	DD	04001H
	DD	06001H
	DD	00H
	DD	00H
?stbi__zdist_extra@@3QBHB DD 00H			; stbi__zdist_extra
	DD	00H
	DD	00H
	DD	00H
	DD	01H
	DD	01H
	DD	02H
	DD	02H
	DD	03H
	DD	03H
	DD	04H
	DD	04H
	DD	05H
	DD	05H
	DD	06H
	DD	06H
	DD	07H
	DD	07H
	DD	08H
	DD	08H
	DD	09H
	DD	09H
	DD	0aH
	DD	0aH
	DD	0bH
	DD	0bH
	DD	0cH
	DD	0cH
	DD	0dH
	DD	0dH
	ORG $+8
$SG89250 DB	'bad huffman code', 00H
	ORG $+7
$SG89256 DB	'bad huffman code', 00H
	ORG $+7
$SG89259 DB	'bad dist', 00H
	ORG $+7
$SG154801 DB	'COMPILE_SHADER', 00H
	ORG $+1
$SG154806 DB	'*', 00H, '*', 00H, '*', 00H, ' ', 00H, 's', 00H, 'h', 00H
	DB	'a', 00H, 'd', 00H, 'e', 00H, 'r', 00H, ' ', 00H, 'c', 00H, 'o'
	DB	00H, 'm', 00H, 'p', 00H, 'i', 00H, 'l', 00H, 'a', 00H, 't', 00H
	DB	'i', 00H, 'o', 00H, 'n', 00H, ' ', 00H, 'e', 00H, 'n', 00H, 'd'
	DB	00H, 'e', 00H, 'd', 00H, ' ', 00H, 'w', 00H, 'i', 00H, 't', 00H
	DB	'h', 00H, ' ', 00H, 'm', 00H, 'e', 00H, 's', 00H, 's', 00H, 'a'
	DB	00H, 'g', 00H, 'e', 00H, ' ', 00H, '*', 00H, '*', 00H, '*', 00H
	DB	00H, 00H
	ORG $+4
$SG154807 DB	'ID3D11Driver_CreateShaderFromData', 00H
	ORG $+6
$SG154808 DB	'W:\cpp\void\detroit\detroit-d3d11.c', 00H
$SG154809 DB	'%', 00H, 's', 00H, 00H, 00H
	ORG $+6
$SG154810 DB	'ID3D11Driver_CreateShaderFromData', 00H
	ORG $+6
$SG154811 DB	'W:\cpp\void\detroit\detroit-d3d11.c', 00H
	ORG $+12
$SG154812 DB	'*', 00H, '*', 00H, '*', 00H, '*', 00H, '*', 00H, '*', 00H
	DB	'*', 00H, '*', 00H, '*', 00H, '*', 00H, '*', 00H, '*', 00H, '*'
	DB	00H, '*', 00H, '*', 00H, '*', 00H, '*', 00H, '*', 00H, '*', 00H
	DB	'*', 00H, '*', 00H, '*', 00H, '*', 00H, '*', 00H, '*', 00H, '*'
	DB	00H, '*', 00H, '*', 00H, '*', 00H, '*', 00H, '*', 00H, '*', 00H
	DB	'*', 00H, '*', 00H, '*', 00H, '*', 00H, '*', 00H, '*', 00H, '*'
	DB	00H, '*', 00H, '*', 00H, '*', 00H, '*', 00H, '*', 00H, '*', 00H
	DB	00H, 00H
	ORG $+4
$SG154813 DB	'ID3D11Driver_CreateShaderFromData', 00H
	ORG $+6
$SG154814 DB	'W:\cpp\void\detroit\detroit-d3d11.c', 00H
	ORG $+4
$SG89293 DB	'bad codelengths', 00H
$SG89299 DB	'bad codelengths', 00H
$SG89304 DB	'bad codelengths', 00H
$SG89306 DB	'bad codelengths', 00H
$SG89308 DB	'bad codelengths', 00H
$SG154861 DB	'N', 00H, 'O', 00H, '_', 00H, 'M', 00H, 'E', 00H, 'S', 00H
	DB	'S', 00H, 'A', 00H, 'G', 00H, 'E', 00H, 00H, 00H
	ORG $+2
$SG89325 DB	'zlib corrupt', 00H
	ORG $+3
$SG154862 DB	'(void *)Record == (void *)External', 00H
	ORG $+5
$SG154863 DB	'ID3D11Driver_BorrowTextureChronicle', 00H
	ORG $+4
$SG89327 DB	'zlib corrupt', 00H
	ORG $+3
$SG154864 DB	'W:\cpp\void\detroit\detroit-d3d11.c', 00H
	ORG $+4
$SG154865 DB	'N', 00H, 'U', 00H, 'L', 00H, 'L', 00H, ' ', 00H, 'T', 00H
	DB	'E', 00H, 'X', 00H, 'T', 00H, 'U', 00H, 'R', 00H, 'E', 00H, ','
	DB	00H, ' ', 00H, 'C', 00H, 'A', 00H, 'N', 00H, 'N', 00H, 'O', 00H
	DB	'T', 00H, ' ', 00H, 'M', 00H, 'A', 00H, 'P', 00H, 00H, 00H
	ORG $+6
$SG89329 DB	'read past buffer', 00H
	ORG $+7
$SG154866 DB	'Record->Resource != NULL', 00H
	ORG $+7
$SG154867 DB	'ID3D11Driver_BorrowTextureChronicle', 00H
	ORG $+4
$SG154868 DB	'W:\cpp\void\detroit\detroit-d3d11.c', 00H
	ORG $+4
$SG154869 DB	'M', 00H, 'A', 00H, 'P', 00H, ' ', 00H, 'A', 00H, 'L', 00H
	DB	'R', 00H, 'E', 00H, 'A', 00H, 'D', 00H, 'Y', 00H, ' ', 00H, 'A'
	DB	00H, 'C', 00H, 'T', 00H, 'I', 00H, 'V', 00H, 'E', 00H, ',', 00H
	DB	' ', 00H, '%', 00H, 'i', 00H, 00H, 00H
	ORG $+2
$SG154870 DB	'Record->BorrowedCounter == 0', 00H
	ORG $+3
$SG154871 DB	'ID3D11Driver_BorrowTextureChronicle', 00H
	ORG $+4
$SG154872 DB	'W:\cpp\void\detroit\detroit-d3d11.c', 00H
	ORG $+4
$SG89339 DB	'bad zlib header', 00H
$SG89341 DB	'bad zlib header', 00H
$SG89343 DB	'no preset dict', 00H
	ORG $+1
$SG154880 DB	'N', 00H, 'O', 00H, '_', 00H, 'M', 00H, 'E', 00H, 'S', 00H
	DB	'S', 00H, 'A', 00H, 'G', 00H, 'E', 00H, 00H, 00H
	ORG $+2
$SG154881 DB	'TODO(RJ):', 00H
	ORG $+6
$SG89345 DB	'bad compression', 00H
$SG154883 DB	'ID3D11Driver_BorrowTextureChronicle', 00H
	ORG $+4
?stbi__zdefault_length@@3QBEB DB 08H			; stbi__zdefault_length
	DB	08H
	DB	08H
	DB	08H
	DB	08H
	DB	08H
	DB	08H
	DB	08H
	DB	08H
	DB	08H
	DB	08H
	DB	08H
	DB	08H
	DB	08H
	DB	08H
	DB	08H
	DB	08H
	DB	08H
	DB	08H
	DB	08H
	DB	08H
	DB	08H
	DB	08H
	DB	08H
	DB	08H
	DB	08H
	DB	08H
	DB	08H
	DB	08H
	DB	08H
	DB	08H
	DB	08H
	DB	08H
	DB	08H
	DB	08H
	DB	08H
	DB	08H
	DB	08H
	DB	08H
	DB	08H
	DB	08H
	DB	08H
	DB	08H
	DB	08H
	DB	08H
	DB	08H
	DB	08H
	DB	08H
	DB	08H
	DB	08H
	DB	08H
	DB	08H
	DB	08H
	DB	08H
	DB	08H
	DB	08H
	DB	08H
	DB	08H
	DB	08H
	DB	08H
	DB	08H
	DB	08H
	DB	08H
	DB	08H
	DB	08H
	DB	08H
	DB	08H
	DB	08H
	DB	08H
	DB	08H
	DB	08H
	DB	08H
	DB	08H
	DB	08H
	DB	08H
	DB	08H
	DB	08H
	DB	08H
	DB	08H
	DB	08H
	DB	08H
	DB	08H
	DB	08H
	DB	08H
	DB	08H
	DB	08H
	DB	08H
	DB	08H
	DB	08H
	DB	08H
	DB	08H
	DB	08H
	DB	08H
	DB	08H
	DB	08H
	DB	08H
	DB	08H
	DB	08H
	DB	08H
	DB	08H
	DB	08H
	DB	08H
	DB	08H
	DB	08H
	DB	08H
	DB	08H
	DB	08H
	DB	08H
	DB	08H
	DB	08H
	DB	08H
	DB	08H
	DB	08H
	DB	08H
	DB	08H
	DB	08H
	DB	08H
	DB	08H
	DB	08H
	DB	08H
	DB	08H
	DB	08H
	DB	08H
	DB	08H
	DB	08H
	DB	08H
	DB	08H
	DB	08H
	DB	08H
	DB	08H
	DB	08H
	DB	08H
	DB	08H
	DB	08H
	DB	08H
	DB	08H
	DB	08H
	DB	08H
	DB	08H
	DB	08H
	DB	08H
	DB	08H
	DB	08H
	DB	08H
	DB	09H
	DB	09H
	DB	09H
	DB	09H
	DB	09H
	DB	09H
	DB	09H
	DB	09H
	DB	09H
	DB	09H
	DB	09H
	DB	09H
	DB	09H
	DB	09H
	DB	09H
	DB	09H
	DB	09H
	DB	09H
	DB	09H
	DB	09H
	DB	09H
	DB	09H
	DB	09H
	DB	09H
	DB	09H
	DB	09H
	DB	09H
	DB	09H
	DB	09H
	DB	09H
	DB	09H
	DB	09H
	DB	09H
	DB	09H
	DB	09H
	DB	09H
	DB	09H
	DB	09H
	DB	09H
	DB	09H
	DB	09H
	DB	09H
	DB	09H
	DB	09H
	DB	09H
	DB	09H
	DB	09H
	DB	09H
	DB	09H
	DB	09H
	DB	09H
	DB	09H
	DB	09H
	DB	09H
	DB	09H
	DB	09H
	DB	09H
	DB	09H
	DB	09H
	DB	09H
	DB	09H
	DB	09H
	DB	09H
	DB	09H
	DB	09H
	DB	09H
	DB	09H
	DB	09H
	DB	09H
	DB	09H
	DB	09H
	DB	09H
	DB	09H
	DB	09H
	DB	09H
	DB	09H
	DB	09H
	DB	09H
	DB	09H
	DB	09H
	DB	09H
	DB	09H
	DB	09H
	DB	09H
	DB	09H
	DB	09H
	DB	09H
	DB	09H
	DB	09H
	DB	09H
	DB	09H
	DB	09H
	DB	09H
	DB	09H
	DB	09H
	DB	09H
	DB	09H
	DB	09H
	DB	09H
	DB	09H
	DB	09H
	DB	09H
	DB	09H
	DB	09H
	DB	09H
	DB	09H
	DB	09H
	DB	09H
	DB	09H
	DB	09H
	DB	09H
	DB	09H
	DB	07H
	DB	07H
	DB	07H
	DB	07H
	DB	07H
	DB	07H
	DB	07H
	DB	07H
	DB	07H
	DB	07H
	DB	07H
	DB	07H
	DB	07H
	DB	07H
	DB	07H
	DB	07H
	DB	07H
	DB	07H
	DB	07H
	DB	07H
	DB	07H
	DB	07H
	DB	07H
	DB	07H
	DB	08H
	DB	08H
	DB	08H
	DB	08H
	DB	08H
	DB	08H
	DB	08H
	DB	08H
$SG154882 DB	'!"TODO(RJ):"', 00H
	ORG $+3
?stbi__zdefault_distance@@3QBEB DB 05H			; stbi__zdefault_distance
	DB	05H
	DB	05H
	DB	05H
	DB	05H
	DB	05H
	DB	05H
	DB	05H
	DB	05H
	DB	05H
	DB	05H
	DB	05H
	DB	05H
	DB	05H
	DB	05H
	DB	05H
	DB	05H
	DB	05H
	DB	05H
	DB	05H
	DB	05H
	DB	05H
	DB	05H
	DB	05H
	DB	05H
	DB	05H
	DB	05H
	DB	05H
	DB	05H
	DB	05H
	DB	05H
	DB	05H
$SG154884 DB	'W:\cpp\void\detroit\detroit-d3d11.c', 00H
	ORG $+4
$SG154885 DB	'f', 00H, 'a', 00H, 'i', 00H, 'l', 00H, 'e', 00H, 'd', 00H
	DB	00H, 00H
	ORG $+2
$SG154886 DB	'ID3D11Driver_BorrowTextureChronicle', 00H
	ORG $+4
$SG154887 DB	'W:\cpp\void\detroit\detroit-d3d11.c', 00H
	ORG $+4
$SG154898 DB	'f', 00H, 'a', 00H, 'i', 00H, 'l', 00H, 'e', 00H, 'd', 00H
	DB	00H, 00H
	ORG $+2
$SG154899 DB	'ID3D11Driver_ReturnTextureChronicle', 00H
	ORG $+4
$SG154900 DB	'W:\cpp\void\detroit\detroit-d3d11.c', 00H
	ORG $+4
$SG89482 DB	'bad png sig', 00H
	ORG $+4
?STANDARD_BASIS_X@@3Tf32x3@@B DD 03f800000r	; 1	; STANDARD_BASIS_X
	DD	000000000r			; 0
	DD	000000000r			; 0
	ORG $+4
?STANDARD_BASIS_Y@@3Tf32x3@@B DD 000000000r	; 0	; STANDARD_BASIS_Y
	DD	03f800000r			; 1
	DD	000000000r			; 0
	ORG $+4
?STANDARD_BASIS_Z@@3Tf32x3@@B DD 000000000r	; 0	; STANDARD_BASIS_Z
	DD	000000000r			; 0
	DD	03f800000r			; 1
	ORG $+4
?stbi__depth_scale_table@@3QBEB DB 00H			; stbi__depth_scale_table
	DB	0ffH
	DB	055H
	DB	00H
	DB	011H
	DB	00H
	DB	00H
	DB	00H
	DB	01H
	ORG $+7
$SG89677 DB	'too large', 00H
	ORG $+6
$SG89679 DB	'not enough pixels', 00H
	ORG $+6
$SG89672 DB	'W', 00H, ':', 00H, '\', 00H, 'c', 00H, 'p', 00H, 'p', 00H
	DB	'\', 00H, 'v', 00H, 'o', 00H, 'i', 00H, 'd', 00H, '\', 00H, 'v'
	DB	00H, 'e', 00H, 'n', 00H, 'd', 00H, 'o', 00H, 'r', 00H, '\', 00H
	DB	's', 00H, 't', 00H, 'b', 00H, '\', 00H, 's', 00H, 't', 00H, 'b'
	DB	00H, '_', 00H, 'i', 00H, 'm', 00H, 'a', 00H, 'g', 00H, 'e', 00H
	DB	'.', 00H, 'h', 00H, 00H, 00H
	ORG $+2
$SG89681 DB	'invalid filter', 00H
	ORG $+1
$SG155232 DB	'ID3D11Window_Present', 00H
	ORG $+3
$SG89673 DB	'o', 00H, 'u', 00H, 't', 00H, '_', 00H, 'n', 00H, ' ', 00H
	DB	'=', 00H, '=', 00H, ' ', 00H, 's', 00H, '-', 00H, '>', 00H, 'i'
	DB	00H, 'm', 00H, 'g', 00H, '_', 00H, 'n', 00H, ' ', 00H, '|', 00H
	DB	'|', 00H, ' ', 00H, 'o', 00H, 'u', 00H, 't', 00H, '_', 00H, 'n'
	DB	00H, ' ', 00H, '=', 00H, '=', 00H, ' ', 00H, 's', 00H, '-', 00H
	DB	'>', 00H, 'i', 00H, 'm', 00H, 'g', 00H, '_', 00H, 'n', 00H, '+'
	DB	00H, '1', 00H, 00H, 00H
	ORG $+6
$SG89675 DB	'outofmem', 00H
	ORG $+7
$SG89684 DB	'invalid width', 00H
	ORG $+2
$SG155231 DB	'i', 00H, 'n', 00H, 't', 00H, 'e', 00H, 'r', 00H, 'n', 00H
	DB	'a', 00H, 'l', 00H, ' ', 00H, 'e', 00H, 'r', 00H, 'r', 00H, 'o'
	DB	00H, 'r', 00H, 00H, 00H
	ORG $+2
$SG155233 DB	'W:\cpp\void\detroit\detroit-d3d11.c', 00H
	ORG $+4
$SG155234 DB	'i', 00H, 'n', 00H, 't', 00H, 'e', 00H, 'r', 00H, 'n', 00H
	DB	'a', 00H, 'l', 00H, ' ', 00H, 'e', 00H, 'r', 00H, 'r', 00H, 'o'
	DB	00H, 'r', 00H, 00H, 00H
	ORG $+2
$SG155235 DB	'ID3D11Window_Present', 00H
	ORG $+3
$SG155236 DB	'W:\cpp\void\detroit\detroit-d3d11.c', 00H
	ORG $+4
$SG155237 DB	'i', 00H, 'n', 00H, 'v', 00H, 'a', 00H, 'l', 00H, 'i', 00H
	DB	'd', 00H, ' ', 00H, 'w', 00H, 'i', 00H, 'n', 00H, 'd', 00H, 'o'
	DB	00H, 'w', 00H, 00H, 00H
	ORG $+2
$SG155238 DB	'ID3D11Window_Present', 00H
	ORG $+3
$SG155239 DB	'W:\cpp\void\detroit\detroit-d3d11.c', 00H
	ORG $+4
$SG89709 DB	'W', 00H, ':', 00H, '\', 00H, 'c', 00H, 'p', 00H, 'p', 00H
	DB	'\', 00H, 'v', 00H, 'o', 00H, 'i', 00H, 'd', 00H, '\', 00H, 'v'
	DB	00H, 'e', 00H, 'n', 00H, 'd', 00H, 'o', 00H, 'r', 00H, '\', 00H
	DB	's', 00H, 't', 00H, 'b', 00H, '\', 00H, 's', 00H, 't', 00H, 'b'
	DB	00H, '_', 00H, 'i', 00H, 'm', 00H, 'a', 00H, 'g', 00H, 'e', 00H
	DB	'.', 00H, 'h', 00H, 00H, 00H
	ORG $+2
$SG89710 DB	'i', 00H, 'm', 00H, 'g', 00H, '_', 00H, 'n', 00H, '+', 00H
	DB	'1', 00H, ' ', 00H, '=', 00H, '=', 00H, ' ', 00H, 'o', 00H, 'u'
	DB	00H, 't', 00H, '_', 00H, 'n', 00H, 00H, 00H
	ORG $+6
$SG89740 DB	'W', 00H, ':', 00H, '\', 00H, 'c', 00H, 'p', 00H, 'p', 00H
	DB	'\', 00H, 'v', 00H, 'o', 00H, 'i', 00H, 'd', 00H, '\', 00H, 'v'
	DB	00H, 'e', 00H, 'n', 00H, 'd', 00H, 'o', 00H, 'r', 00H, '\', 00H
	DB	's', 00H, 't', 00H, 'b', 00H, '\', 00H, 's', 00H, 't', 00H, 'b'
	DB	00H, '_', 00H, 'i', 00H, 'm', 00H, 'a', 00H, 'g', 00H, 'e', 00H
	DB	'.', 00H, 'h', 00H, 00H, 00H
	ORG $+2
$SG89741 DB	'i', 00H, 'm', 00H, 'g', 00H, '_', 00H, 'n', 00H, ' ', 00H
	DB	'=', 00H, '=', 00H, ' ', 00H, '3', 00H, 00H, 00H
	ORG $+2
$SG89779 DB	'outofmem', 00H
	ORG $+7
$SG155327 DB	's', 00H, 't', 00H, 'a', 00H, 'c', 00H, 'k', 00H, ' ', 00H
	DB	'u', 00H, 'n', 00H, 'd', 00H, 'e', 00H, 'r', 00H, 'f', 00H, 'l'
	DB	00H, 'o', 00H, 'w', 00H, 00H, 00H
$SG155328 DB	'ID3D11Graphics_MatrixStackCheck', 00H
$SG155329 DB	'W:\cpp\void\detroit\detroit-d3d11.c', 00H
	ORG $+4
$SG155331 DB	's', 00H, 't', 00H, 'a', 00H, 'c', 00H, 'k', 00H, ' ', 00H
	DB	'o', 00H, 'v', 00H, 'e', 00H, 'r', 00H, 'f', 00H, 'l', 00H, 'o'
	DB	00H, 'w', 00H, 00H, 00H
	ORG $+2
$SG155332 DB	'ID3D11Graphics_MatrixStackCheck', 00H
$SG155333 DB	'W:\cpp\void\detroit\detroit-d3d11.c', 00H
	ORG $+4
$SG155334 DB	'l', 00H, 'o', 00H, 'o', 00H, 's', 00H, 'e', 00H, ' ', 00H
	DB	's', 00H, 't', 00H, 'a', 00H, 'c', 00H, 'k', 00H, ' ', 00H, 'p'
	DB	00H, 'o', 00H, 'i', 00H, 'n', 00H, 't', 00H, 'e', 00H, 'r', 00H
	DB	00H, 00H
$SG155335 DB	'ID3D11Graphics_MatrixStackCheck', 00H
$SG155336 DB	'W:\cpp\void\detroit\detroit-d3d11.c', 00H
	ORG $+4
$SG89799 DB	'W', 00H, ':', 00H, '\', 00H, 'c', 00H, 'p', 00H, 'p', 00H
	DB	'\', 00H, 'v', 00H, 'o', 00H, 'i', 00H, 'd', 00H, '\', 00H, 'v'
	DB	00H, 'e', 00H, 'n', 00H, 'd', 00H, 'o', 00H, 'r', 00H, '\', 00H
	DB	's', 00H, 't', 00H, 'b', 00H, '\', 00H, 's', 00H, 't', 00H, 'b'
	DB	00H, '_', 00H, 'i', 00H, 'm', 00H, 'a', 00H, 'g', 00H, 'e', 00H
	DB	'.', 00H, 'h', 00H, 00H, 00H
	ORG $+2
$SG89800 DB	'o', 00H, 'u', 00H, 't', 00H, '_', 00H, 'n', 00H, ' ', 00H
	DB	'=', 00H, '=', 00H, ' ', 00H, '2', 00H, ' ', 00H, '|', 00H, '|'
	DB	00H, ' ', 00H, 'o', 00H, 'u', 00H, 't', 00H, '_', 00H, 'n', 00H
	DB	' ', 00H, '=', 00H, '=', 00H, ' ', 00H, '4', 00H, 00H, 00H
	ORG $+6
$SG89822 DB	'W', 00H, ':', 00H, '\', 00H, 'c', 00H, 'p', 00H, 'p', 00H
	DB	'\', 00H, 'v', 00H, 'o', 00H, 'i', 00H, 'd', 00H, '\', 00H, 'v'
	DB	00H, 'e', 00H, 'n', 00H, 'd', 00H, 'o', 00H, 'r', 00H, '\', 00H
	DB	's', 00H, 't', 00H, 'b', 00H, '\', 00H, 's', 00H, 't', 00H, 'b'
	DB	00H, '_', 00H, 'i', 00H, 'm', 00H, 'a', 00H, 'g', 00H, 'e', 00H
	DB	'.', 00H, 'h', 00H, 00H, 00H
	ORG $+2
$SG89823 DB	'o', 00H, 'u', 00H, 't', 00H, '_', 00H, 'n', 00H, ' ', 00H
	DB	'=', 00H, '=', 00H, ' ', 00H, '2', 00H, ' ', 00H, '|', 00H, '|'
	DB	00H, ' ', 00H, 'o', 00H, 'u', 00H, 't', 00H, '_', 00H, 'n', 00H
	DB	' ', 00H, '=', 00H, '=', 00H, ' ', 00H, '4', 00H, 00H, 00H
	ORG $+6
$SG89849 DB	'outofmem', 00H
	ORG $+7
$SG89895 DB	'W', 00H, ':', 00H, '\', 00H, 'c', 00H, 'p', 00H, 'p', 00H
	DB	'\', 00H, 'v', 00H, 'o', 00H, 'i', 00H, 'd', 00H, '\', 00H, 'v'
	DB	00H, 'e', 00H, 'n', 00H, 'd', 00H, 'o', 00H, 'r', 00H, '\', 00H
	DB	's', 00H, 't', 00H, 'b', 00H, '\', 00H, 's', 00H, 't', 00H, 'b'
	DB	00H, '_', 00H, 'i', 00H, 'm', 00H, 'a', 00H, 'g', 00H, 'e', 00H
	DB	'.', 00H, 'h', 00H, 00H, 00H
	ORG $+2
$SG89896 DB	's', 00H, '-', 00H, '>', 00H, 'i', 00H, 'm', 00H, 'g', 00H
	DB	'_', 00H, 'o', 00H, 'u', 00H, 't', 00H, '_', 00H, 'n', 00H, ' '
	DB	00H, '=', 00H, '=', 00H, ' ', 00H, '4', 00H, 00H, 00H
	ORG $+4
$SG89993 DB	'multiple IHDR', 00H
	ORG $+2
$SG89995 DB	'bad IHDR len', 00H
	ORG $+3
$SG89997 DB	'too large', 00H
	ORG $+6
$SG89999 DB	'too large', 00H
	ORG $+6
$SG90001 DB	'1/2/4/8/16-bit only', 00H
	ORG $+4
$SG90003 DB	'bad ctype', 00H
	ORG $+6
$SG90005 DB	'bad ctype', 00H
	ORG $+6
$SG81813 DB	'N', 00H, 'O', 00H, '_', 00H, 'M', 00H, 'E', 00H, 'S', 00H
	DB	'S', 00H, 'A', 00H, 'G', 00H, 'E', 00H, 00H, 00H
	ORG $+2
$SG81814 DB	'invalid aspect ratio!', 00H
	ORG $+2
$SG81815 DB	'AspectRatio != 0 && "invalid aspect ratio!"', 00H
	ORG $+4
$SG81816 DB	'MatrixP', 00H
$SG90009 DB	'bad ctype', 00H
	ORG $+6
$SG81817 DB	'W:\cpp\void\detroit\brazen-math.h', 00H
	ORG $+6
$SG90011 DB	'bad comp method', 00H
$SG90013 DB	'bad filter method', 00H
	ORG $+6
$SG90015 DB	'bad interlace method', 00H
	ORG $+3
$SG90018 DB	'0-pixel image', 00H
	ORG $+2
$SG90022 DB	'too large', 00H
	ORG $+6
$SG90025 DB	'too large', 00H
	ORG $+6
$SG90028 DB	'first not IHDR', 00H
	ORG $+1
$SG90030 DB	'invalid PLTE', 00H
	ORG $+3
$SG90032 DB	'invalid PLTE', 00H
	ORG $+3
$SG90035 DB	'first not IHDR', 00H
	ORG $+1
$SG90037 DB	'tRNS after IDAT', 00H
$SG90042 DB	'tRNS before PLTE', 00H
	ORG $+7
$SG90044 DB	'bad tRNS len', 00H
	ORG $+3
$SG90046 DB	'tRNS with alpha', 00H
$SG90048 DB	'bad tRNS len', 00H
	ORG $+3
$SG155585 DB	'assets\fonts\%s.zen', 00H
	ORG $+4
$SG155587 DB	'assets\fonts\%s.ttf', 00H
	ORG $+4
$SG155589 DB	'C:\Windows\Fonts\%s.ttf', 00H
$SG90053 DB	'first not IHDR', 00H
	ORG $+1
$SG90055 DB	'no PLTE', 00H
$SG90061 DB	'outofmem', 00H
	ORG $+7
$SG90063 DB	'outofdata', 00H
	ORG $+6
$SG90066 DB	'first not IHDR', 00H
	ORG $+1
$SG90069 DB	'no IDAT', 00H
$SG90089 DB	'first not IHDR', 00H
	ORG $+1
$SG90108 DB	'bad req_comp', 00H
CONST	ENDS
PUBLIC	__local_stdio_printf_options
PUBLIC	_vsnwprintf_l
PUBLIC	_vsnwprintf
PUBLIC	_vfprintf_l
PUBLIC	printf
PUBLIC	_vsnprintf_l
PUBLIC	_vsprintf_l
PUBLIC	_vsprintf_s_l
PUBLIC	vsprintf_s
PUBLIC	sprintf
PUBLIC	??0_TRACE_BLOCK@@QEAA@UTRACE_LOCATION@@PEB_W@Z	; _TRACE_BLOCK::_TRACE_BLOCK
PUBLIC	??1_TRACE_BLOCK@@QEAA@XZ			; _TRACE_BLOCK::~_TRACE_BLOCK
PUBLIC	??Bstr32@@QEAAPEADXZ				; str32::operator char *
PUBLIC	??Bstr32@@QEAA_JXZ				; str32::operator __int64
PUBLIC	??Bstr32@@QEAA_KXZ				; str32::operator unsigned __int64
PUBLIC	??Bstr32@@QEAANXZ				; str32::operator double
PUBLIC	??Bstr32@@QEAAMXZ				; str32::operator float
PUBLIC	??Bstr32@@QEAAIXZ				; str32::operator unsigned int
PUBLIC	??Bstr32@@QEAAHXZ				; str32::operator int
PUBLIC	??7str32@@QEAAHXZ				; str32::operator!
PUBLIC	WinMain
PUBLIC	stbtt_BakeFontBitmap
PUBLIC	stbtt_GetBakedQuad
PUBLIC	stbtt_GetScaledFontVMetrics
PUBLIC	stbtt_PackBegin
PUBLIC	stbtt_PackEnd
PUBLIC	stbtt_PackFontRange
PUBLIC	stbtt_PackFontRanges
PUBLIC	stbtt_PackSetOversampling
PUBLIC	stbtt_PackSetSkipMissingCodepoints
PUBLIC	stbtt_GetPackedQuad
PUBLIC	stbtt_PackFontRangesGatherRects
PUBLIC	stbtt_PackFontRangesPackRects
PUBLIC	stbtt_PackFontRangesRenderIntoRects
PUBLIC	stbtt_GetNumberOfFonts
PUBLIC	stbtt_GetFontOffsetForIndex
PUBLIC	stbtt_InitFont
PUBLIC	stbtt_FindGlyphIndex
PUBLIC	stbtt_ScaleForPixelHeight
PUBLIC	stbtt_ScaleForMappingEmToPixels
PUBLIC	stbtt_GetFontVMetrics
PUBLIC	stbtt_GetFontVMetricsOS2
PUBLIC	stbtt_GetFontBoundingBox
PUBLIC	stbtt_GetCodepointHMetrics
PUBLIC	stbtt_GetCodepointKernAdvance
PUBLIC	stbtt_GetCodepointBox
PUBLIC	stbtt_GetGlyphHMetrics
PUBLIC	stbtt_GetGlyphKernAdvance
PUBLIC	stbtt_GetGlyphBox
PUBLIC	stbtt_GetKerningTableLength
PUBLIC	stbtt_GetKerningTable
PUBLIC	stbtt_IsGlyphEmpty
PUBLIC	stbtt_GetCodepointShape
PUBLIC	stbtt_GetGlyphShape
PUBLIC	stbtt_FreeShape
PUBLIC	stbtt_FindSVGDoc
PUBLIC	stbtt_GetCodepointSVG
PUBLIC	stbtt_GetGlyphSVG
PUBLIC	stbtt_FreeBitmap
PUBLIC	stbtt_GetCodepointBitmap
PUBLIC	stbtt_GetCodepointBitmapSubpixel
PUBLIC	stbtt_MakeCodepointBitmap
PUBLIC	stbtt_MakeCodepointBitmapSubpixel
PUBLIC	stbtt_MakeCodepointBitmapSubpixelPrefilter
PUBLIC	stbtt_GetCodepointBitmapBox
PUBLIC	stbtt_GetCodepointBitmapBoxSubpixel
PUBLIC	stbtt_GetGlyphBitmap
PUBLIC	stbtt_GetGlyphBitmapSubpixel
PUBLIC	stbtt_MakeGlyphBitmap
PUBLIC	stbtt_MakeGlyphBitmapSubpixel
PUBLIC	stbtt_MakeGlyphBitmapSubpixelPrefilter
PUBLIC	stbtt_GetGlyphBitmapBox
PUBLIC	stbtt_GetGlyphBitmapBoxSubpixel
PUBLIC	stbtt_Rasterize
PUBLIC	stbtt_FreeSDF
PUBLIC	stbtt_GetGlyphSDF
PUBLIC	stbtt_GetCodepointSDF
PUBLIC	stbtt_FindMatchingFont
PUBLIC	stbtt_CompareUTF8toUTF16_bigendian
PUBLIC	stbtt_GetFontNameString
PUBLIC	stbi_load_from_memory
PUBLIC	stbi_load_from_callbacks
PUBLIC	stbi_load
PUBLIC	stbi_load_from_file
PUBLIC	stbi_load_gif_from_memory
PUBLIC	stbi_load_16_from_memory
PUBLIC	stbi_load_16_from_callbacks
PUBLIC	stbi_load_16
PUBLIC	stbi_load_from_file_16
PUBLIC	stbi_loadf_from_memory
PUBLIC	stbi_loadf_from_callbacks
PUBLIC	stbi_loadf
PUBLIC	stbi_loadf_from_file
PUBLIC	stbi_hdr_to_ldr_gamma
PUBLIC	stbi_hdr_to_ldr_scale
PUBLIC	stbi_ldr_to_hdr_gamma
PUBLIC	stbi_ldr_to_hdr_scale
PUBLIC	stbi_is_hdr_from_callbacks
PUBLIC	stbi_is_hdr_from_memory
PUBLIC	stbi_is_hdr
PUBLIC	stbi_is_hdr_from_file
PUBLIC	stbi_failure_reason
PUBLIC	stbi_image_free
PUBLIC	stbi_info_from_memory
PUBLIC	stbi_info_from_callbacks
PUBLIC	stbi_is_16_bit_from_memory
PUBLIC	stbi_is_16_bit_from_callbacks
PUBLIC	stbi_info
PUBLIC	stbi_info_from_file
PUBLIC	stbi_is_16_bit
PUBLIC	stbi_is_16_bit_from_file
PUBLIC	stbi_set_unpremultiply_on_load
PUBLIC	stbi_convert_iphone_png_to_rgb
PUBLIC	stbi_set_flip_vertically_on_load
PUBLIC	stbi_convert_iphone_png_to_rgb_thread
PUBLIC	stbi_set_flip_vertically_on_load_thread
PUBLIC	stbi_zlib_decode_malloc_guesssize
PUBLIC	stbi_zlib_decode_malloc_guesssize_headerflag
PUBLIC	stbi_zlib_decode_malloc
PUBLIC	stbi_zlib_decode_buffer
PUBLIC	stbi_zlib_decode_noheader_malloc
PUBLIC	stbi_zlib_decode_noheader_buffer
PUBLIC	?stbi__unpremultiply_on_load_thread@@YAXH@Z	; stbi__unpremultiply_on_load_thread
PUBLIC	stbi_write_png
PUBLIC	stbi_write_bmp
PUBLIC	stbi_write_tga
PUBLIC	stbi_write_hdr
PUBLIC	stbi_write_jpg
PUBLIC	stbi_write_png_to_func
PUBLIC	stbi_write_bmp_to_func
PUBLIC	stbi_write_tga_to_func
PUBLIC	stbi_write_hdr_to_func
PUBLIC	stbi_write_jpg_to_func
PUBLIC	stbi_flip_vertically_on_write
PUBLIC	stbi_zlib_compress
PUBLIC	stbi_write_png_to_mem
PUBLIC	?NewReflectTree@@YAPEAUReflectTree@@H@Z		; NewReflectTree
PUBLIC	?CreateEnum@@YAPEAUReflectTree@@PEBD@Z		; CreateEnum
PUBLIC	?CreateStruct@@YAPEAUReflectTree@@PEBD@Z	; CreateStruct
PUBLIC	?AddValue@@YAPEAUReflectTree@@PEAU1@HPEBD@Z	; AddValue
PUBLIC	?AddMember@@YAPEAUReflectTree@@PEAU1@0PEAXPEBD@Z ; AddMember
PUBLIC	?rand_f@@YAMMM@Z				; rand_f
PUBLIC	?_OptionsStorage@?1??__local_stdio_printf_options@@9@4_KA ; `__local_stdio_printf_options'::`2'::_OptionsStorage
PUBLIC	__real@00000000
PUBLIC	__real@0000000000000000
PUBLIC	__real@0a4fb11f
PUBLIC	__real@3b808081
PUBLIC	__real@3c23d70a
PUBLIC	__real@3d800000
PUBLIC	__real@3da685db
PUBLIC	__real@3dcccccd
PUBLIC	__real@3de978d5
PUBLIC	__real@3e800000
PUBLIC	__real@3e991687
PUBLIC	__real@3ea99ae9
PUBLIC	__real@3eb33333
PUBLIC	__real@3ec3ef15
PUBLIC	__real@3ed65e89
PUBLIC	__real@3f000000
PUBLIC	__real@3f0a8bd4
PUBLIC	__real@3f1645a2
PUBLIC	__real@3f3504f3
PUBLIC	__real@3f7d70a4
PUBLIC	__real@3f800000
PUBLIC	__real@3fa73d75
PUBLIC	__real@3fd5555560000000
PUBLIC	__real@3fddb3d7
PUBLIC	__real@3ff0000000000000
PUBLIC	__real@3ff028f5c0000000
PUBLIC	__real@3ff921fafc8b007a
PUBLIC	__real@40000000
PUBLIC	__real@4000000000000000
PUBLIC	__real@4024000000000000
PUBLIC	__real@40400000
PUBLIC	__real@4059000000000000
PUBLIC	__real@4066800000000000
PUBLIC	__real@40800000
PUBLIC	__real@4083000000000000
PUBLIC	__real@408f400000000000
PUBLIC	__real@41100000
PUBLIC	__real@41900000
PUBLIC	__real@41c80000
PUBLIC	__real@41d80000
PUBLIC	__real@41f00000
PUBLIC	__real@42000000
PUBLIC	__real@420c0000
PUBLIC	__real@42200000
PUBLIC	__real@422c0000
PUBLIC	__real@42400000
PUBLIC	__real@42480000
PUBLIC	__real@42960000
PUBLIC	__real@42be0000
PUBLIC	__real@42c80000
PUBLIC	__real@42e60000
PUBLIC	__real@43000000
PUBLIC	__real@43660000
PUBLIC	__real@43700000
PUBLIC	__real@437f0000
PUBLIC	__real@43800000
PUBLIC	__real@44800000
PUBLIC	__real@46800000
PUBLIC	__real@477fff00
PUBLIC	__real@47800000
PUBLIC	__real@497423f0
PUBLIC	__real@4f800000
PUBLIC	__real@be2cca2e
PUBLIC	__real@bf000000
PUBLIC	__real@bf800000
PUBLIC	__real@c0000000
PUBLIC	__real@c1d80000
PUBLIC	__xmm@00000200000002000000020000000200
PUBLIC	__xmm@00080008000800080008000800080008
PUBLIC	__xmm@00ff00ff00ff00ff00ff00ff00ff00ff
PUBLIC	__xmm@01010000010100000101000001010000
PUBLIC	__xmm@08a914e808a914e808a914e808a914e8
PUBLIC	__xmm@11c8e09e11c8e09e11c8e09e11c8e09e
PUBLIC	__xmm@11c8f9c311c8f9c311c8f9c311c8f9c3
PUBLIC	__xmm@12d0046b12d0046b12d0046b12d0046b
PUBLIC	__xmm@166f166f166f166f166f166f166f166f
PUBLIC	__xmm@1c5a1c5a1c5a1c5a1c5a1c5a1c5a1c5a
PUBLIC	__xmm@80000000000000008000000000000000
PUBLIC	__xmm@80000000800000008000000080000000
PUBLIC	__xmm@80808080808080808080808080808080
PUBLIC	__xmm@e09ee565e09ee565e09ee565e09ee565
PUBLIC	__xmm@e9cf12d0e9cf12d0e9cf12d0e9cf12d0
PUBLIC	__xmm@eb1a08a9eb1a08a9eb1a08a9eb1a08a9
PUBLIC	__xmm@f493f493f493f493f493f493f493f493
PUBLIC	__xmm@f9c31a9df9c31a9df9c31a9df9c31a9d
PUBLIC	__xmm@fa7efa7efa7efa7efa7efa7efa7efa7e
PUBLIC	__ymm@0000000000000000000000000000000000000000000000000000000000000000
PUBLIC	__ymm@3f8000003f8000003f8000003f8000003f8000003f8000003f8000003f800000
EXTRN	_Init_thread_header:PROC
EXTRN	_Init_thread_footer:PROC
EXTRN	__imp__aligned_free_dbg:PROC
EXTRN	__imp__aligned_realloc_dbg:PROC
EXTRN	abs:PROC
EXTRN	acos:PROC
EXTRN	cos:PROC
EXTRN	exp:PROC
EXTRN	fabs:PROC
EXTRN	fmod:PROC
EXTRN	pow:PROC
EXTRN	sqrt:PROC
EXTRN	__imp_ceil:PROC
EXTRN	__imp_floor:PROC
EXTRN	__imp_frexp:PROC
EXTRN	__imp_ldexp:PROC
EXTRN	__imp_ceilf:PROC
EXTRN	__imp_sqrtf:PROC
EXTRN	__imp___acrt_iob_func:PROC
EXTRN	__imp___stdio_common_vswprintf:PROC
EXTRN	__imp_fopen_s:PROC
EXTRN	__imp_fclose:PROC
EXTRN	__imp_feof:PROC
EXTRN	__imp_ferror:PROC
EXTRN	__imp_fgetc:PROC
EXTRN	__imp_fread:PROC
EXTRN	__imp_fseek:PROC
EXTRN	__imp_ftell:PROC
EXTRN	__imp_fwrite:PROC
EXTRN	__imp_ungetc:PROC
EXTRN	__imp___stdio_common_vfprintf:PROC
EXTRN	__imp___stdio_common_vsprintf:PROC
EXTRN	__imp___stdio_common_vsprintf_s:PROC
EXTRN	__imp_free:PROC
EXTRN	__imp_malloc:PROC
EXTRN	__imp_realloc:PROC
EXTRN	__imp__aligned_malloc:PROC
EXTRN	_lrotl:PROC
EXTRN	__imp_strtol:PROC
EXTRN	memcmp:PROC
EXTRN	memcpy:PROC
EXTRN	memmove:PROC
EXTRN	memset:PROC
EXTRN	__imp_wcslen:PROC
EXTRN	strcmp:PROC
EXTRN	strlen:PROC
EXTRN	__imp_strncmp:PROC
EXTRN	__imp_GetStdHandle:PROC
EXTRN	__imp_SetCurrentDirectoryA:PROC
EXTRN	__imp_GetCurrentDirectoryA:PROC
EXTRN	__imp_CreateFileA:PROC
EXTRN	__imp_GetFileAttributesA:PROC
EXTRN	__imp_GetFileSize:PROC
EXTRN	__imp_ReadFile:PROC
EXTRN	__imp_WriteFile:PROC
EXTRN	__imp_DebugBreak:PROC
EXTRN	__imp_OutputDebugStringW:PROC
EXTRN	__imp_CloseHandle:PROC
EXTRN	__imp_GetLastError:PROC
EXTRN	__imp_SetLastError:PROC
EXTRN	__imp_QueryPerformanceCounter:PROC
EXTRN	__imp_QueryPerformanceFrequency:PROC
EXTRN	__imp_WaitForSingleObjectEx:PROC
EXTRN	__imp_Sleep:PROC
EXTRN	__imp_ExitProcess:PROC
EXTRN	__imp_GetCurrentThreadId:PROC
EXTRN	__imp_VirtualAlloc:PROC
EXTRN	__imp_VirtualFree:PROC
EXTRN	__imp_FreeLibrary:PROC
EXTRN	__imp_GetModuleHandleW:PROC
EXTRN	__imp_GetProcAddress:PROC
EXTRN	__imp_LoadLibraryA:PROC
EXTRN	__imp_SwitchToFiber:PROC
EXTRN	__imp_CreateFiber:PROC
EXTRN	__imp_ConvertThreadToFiber:PROC
EXTRN	__imp_FormatMessageA:PROC
EXTRN	__imp_TranslateMessage:PROC
EXTRN	__imp_DispatchMessageW:PROC
EXTRN	__imp_PeekMessageA:PROC
EXTRN	__imp_DefWindowProcW:PROC
EXTRN	__imp_PostQuitMessage:PROC
EXTRN	__imp_RegisterClassW:PROC
EXTRN	__imp_CreateWindowExW:PROC
EXTRN	__imp_IsWindow:PROC
EXTRN	__imp_ShowWindow:PROC
EXTRN	__imp_SetWindowPos:PROC
EXTRN	__imp_GetWindowPlacement:PROC
EXTRN	__imp_SetTimer:PROC
EXTRN	__imp_KillTimer:PROC
EXTRN	__imp_GetClientRect:PROC
EXTRN	__imp_AdjustWindowRect:PROC
EXTRN	__imp_MessageBoxA:PROC
EXTRN	__imp_GetWindowLongPtrA:PROC
EXTRN	__imp_SetWindowLongPtrA:PROC
EXTRN	__imp_MultiByteToWideChar:PROC
EXTRN	__imp_AllocConsole:PROC
EXTRN	__imp_WriteConsoleW:PROC
EXTRN	__imp_GetConsoleWindow:PROC
EXTRN	__imp_timeBeginPeriod:PROC
EXTRN	__imp_timeEndPeriod:PROC
EXTRN	__imp_WSAGetLastError:PROC
EXTRN	__imp__wassert:PROC
EXTRN	D3DCompile:PROC
EXTRN	D3D11CreateDevice:PROC
EXTRN	__GSHandlerCheck:PROC
EXTRN	__chkstk:PROC
EXTRN	__security_check_cookie:PROC
EXTRN	_Init_thread_epoch:DWORD
EXTRN	IID_IDXGIDevice:BYTE
EXTRN	IID_IDXGIFactory2:BYTE
EXTRN	IID_ID3D11Texture2D:BYTE
EXTRN	IID_ID3D11InfoQueue:BYTE
EXTRN	__ImageBase:BYTE
EXTRN	__security_cookie:QWORD
EXTRN	_fltused:DWORD
EXTRN	_tls_index:DWORD
;	COMDAT ?_OptionsStorage@?1??__local_stdio_printf_options@@9@4_KA
_BSS	SEGMENT
?_OptionsStorage@?1??__local_stdio_printf_options@@9@4_KA DQ 01H DUP (?) ; `__local_stdio_printf_options'::`2'::_OptionsStorage
_BSS	ENDS
_BSS	SEGMENT
?Global_TraceMessageHook@@3P6AHUTRACE_LOCATION@@HHPEB_WPEAD@ZEA DQ 01H DUP (?) ; Global_TraceMessageHook
?ARGUMENTS@@3U_ARGUMENTS@@A DB 030H DUP (?)		; ARGUMENTS
?SYSTEM@@3U_SYSTEM@@A DB 048H DUP (?)			; SYSTEM
?PROCESS@@3U_PROCESS@@A DB 088H DUP (?)			; PROCESS
_BSS	ENDS
;	COMDAT ?Bed@?1??STATIC_ALLOCATOR@@YAPEAXPEAXHH_K01@Z@4PEADEA
_TLS	SEGMENT
?Bed@?1??STATIC_ALLOCATOR@@YAPEAXPEAXHH_K01@Z@4PEADEA DQ 01H DUP (?) ; `STATIC_ALLOCATOR'::`2'::Bed
_TLS	ENDS
;	COMDAT ?$S1@?1??STATIC_ALLOCATOR@@YAPEAXPEAXHH_K01@Z@4IA
_TLS	SEGMENT
?$S1@?1??STATIC_ALLOCATOR@@YAPEAXPEAXHH_K01@Z@4IA DD 01H DUP (?) ; `STATIC_ALLOCATOR'::`2'::$S1
_TLS	ENDS
_BSS	SEGMENT
?STANDARD_BASIS@@3QBTf32x3@@B DB 024H DUP (?)		; STANDARD_BASIS
_BSS	ENDS
_TLS	SEGMENT
?stbi__g_failure_reason@@3PEBDEB DQ 01H DUP (?)		; stbi__g_failure_reason
_TLS	ENDS
_BSS	SEGMENT
?stbi__vertically_flip_on_load_global@@3HA DD 01H DUP (?) ; stbi__vertically_flip_on_load_global
_BSS	ENDS
_TLS	SEGMENT
?stbi__vertically_flip_on_load_local@@3HA DD 01H DUP (?) ; stbi__vertically_flip_on_load_local
?stbi__vertically_flip_on_load_set@@3HA DD 01H DUP (?)	; stbi__vertically_flip_on_load_set
_TLS	ENDS
_BSS	SEGMENT
?stbi__unpremultiply_on_load_global@@3HA DD 01H DUP (?)	; stbi__unpremultiply_on_load_global
?stbi__de_iphone_flag_global@@3HA DD 01H DUP (?)	; stbi__de_iphone_flag_global
_BSS	ENDS
_TLS	SEGMENT
?stbi__unpremultiply_on_load_local@@3HA DD 01H DUP (?)	; stbi__unpremultiply_on_load_local
?stbi__unpremultiply_on_load_set@@3HA DD 01H DUP (?)	; stbi__unpremultiply_on_load_set
?stbi__de_iphone_flag_local@@3HA DD 01H DUP (?)		; stbi__de_iphone_flag_local
?stbi__de_iphone_flag_set@@3HA DD 01H DUP (?)		; stbi__de_iphone_flag_set
_TLS	ENDS
_BSS	SEGMENT
?stbi__flip_vertically_on_write@@3HA DD 01H DUP (?)	; stbi__flip_vertically_on_write
?STANDARD_BASIS_COLOR@@3QBTf32x4@@B DB 030H DUP (?)	; STANDARD_BASIS_COLOR
_BSS	ENDS
;	COMDAT ?ActiveFocus@?1??ZenGluiReviseClickFocus@@YAHPEAUZEN_IMGLUI@@HTi32x4@@PEBX@Z@4PEBXEB
_BSS	SEGMENT
?ActiveFocus@?1??ZenGluiReviseClickFocus@@YAHPEAUZEN_IMGLUI@@HTi32x4@@PEBX@Z@4PEBXEB DQ 01H DUP (?) ; `ZenGluiReviseClickFocus'::`2'::ActiveFocus
_BSS	ENDS
;	COMDAT ?CursorStart@?1??ZenGluiPushWindow@@YAXPEAUZEN_IMGLUI@@PEBD1PEATi32x4@@@Z@4Ui32x2@@A
_BSS	SEGMENT
?CursorStart@?1??ZenGluiPushWindow@@YAXPEAUZEN_IMGLUI@@PEBD1PEATi32x4@@@Z@4Ui32x2@@A DQ 01H DUP (?) ; `ZenGluiPushWindow'::`2'::CursorStart
_BSS	ENDS
_BSS	SEGMENT
?TemporaryPushCounterUntilAStackIsAdded@@3HA DD 01H DUP (?) ; TemporaryPushCounterUntilAStackIsAdded
?Zen@@3UZenCore@@A DB 03650H DUP (?)			; Zen
?DrawableTexture@@3UZenTexture@@A DB 020H DUP (?)	; DrawableTexture
?BoundDrawableTexture@@3PEAUZenTexture@@EA DQ 01H DUP (?) ; BoundDrawableTexture
_BSS	ENDS
;	COMDAT ?TextEditView@?1??ZenOfflineTrainerWindowView@@YAHPEAUZEN_IMGLUI@@PEAUNetworkTrainerValues@@HPEATi32x4@@@Z@4UZenTextEditView@@A
_BSS	SEGMENT
?TextEditView@?1??ZenOfflineTrainerWindowView@@YAHPEAUZEN_IMGLUI@@PEAUNetworkTrainerValues@@HPEATi32x4@@@Z@4UZenTextEditView@@A DB 040H DUP (?) ; `ZenOfflineTrainerWindowView'::`2'::TextEditView
_BSS	ENDS
;	COMDAT ?$TSS0@?3??MAIN@@YAXXZ@4HA
_BSS	SEGMENT
?$TSS0@?3??MAIN@@YAXXZ@4HA DD 01H DUP (?)		; `MAIN'::`4'::$TSS0
_BSS	ENDS
;	COMDAT ?FontWindowLocation@?3??MAIN@@YAXXZ@4Ti32x4@@A
_BSS	SEGMENT
?FontWindowLocation@?3??MAIN@@YAXXZ@4Ti32x4@@A DB 010H DUP (?) ; `MAIN'::`4'::FontWindowLocation
_BSS	ENDS
;	COMDAT ?$TSS1@?3??MAIN@@YAXXZ@4HA
_BSS	SEGMENT
?$TSS1@?3??MAIN@@YAXXZ@4HA DD 01H DUP (?)		; `MAIN'::`4'::$TSS1
_BSS	ENDS
;	COMDAT ?Checked@?3??MAIN@@YAXXZ@4HA
_BSS	SEGMENT
?Checked@?3??MAIN@@YAXXZ@4HA DD 01H DUP (?)		; `MAIN'::`4'::Checked
_BSS	ENDS
;	COMDAT pdata
pdata	SEGMENT
$pdata$_vsnwprintf_l DD imagerel $LN5
	DD	imagerel $LN5+118
	DD	imagerel $unwind$_vsnwprintf_l
pdata	ENDS
;	COMDAT pdata
pdata	SEGMENT
$pdata$_vsnwprintf DD imagerel $LN3
	DD	imagerel $LN3+62
	DD	imagerel $unwind$_vsnwprintf
pdata	ENDS
;	COMDAT pdata
pdata	SEGMENT
$pdata$_vfprintf_l DD imagerel $LN3
	DD	imagerel $LN3+68
	DD	imagerel $unwind$_vfprintf_l
pdata	ENDS
;	COMDAT pdata
pdata	SEGMENT
$pdata$printf DD imagerel $LN3
	DD	imagerel $LN3+105
	DD	imagerel $unwind$printf
pdata	ENDS
;	COMDAT pdata
pdata	SEGMENT
$pdata$_vsnprintf_l DD imagerel $LN5
	DD	imagerel $LN5+118
	DD	imagerel $unwind$_vsnprintf_l
pdata	ENDS
;	COMDAT pdata
pdata	SEGMENT
$pdata$_vsprintf_l DD imagerel $LN3
	DD	imagerel $LN3+66
	DD	imagerel $unwind$_vsprintf_l
pdata	ENDS
;	COMDAT pdata
pdata	SEGMENT
$pdata$_vsprintf_s_l DD imagerel $LN5
	DD	imagerel $LN5+111
	DD	imagerel $unwind$_vsprintf_s_l
pdata	ENDS
;	COMDAT pdata
pdata	SEGMENT
$pdata$vsprintf_s DD imagerel $LN3
	DD	imagerel $LN3+62
	DD	imagerel $unwind$vsprintf_s
pdata	ENDS
;	COMDAT pdata
pdata	SEGMENT
$pdata$sprintf DD imagerel $LN3
	DD	imagerel $LN3+79
	DD	imagerel $unwind$sprintf
pdata	ENDS
pdata	SEGMENT
$pdata$?rx7__stoi@@YAHHPEA_JPEBD1@Z DD imagerel ?rx7__stoi@@YAHHPEA_JPEBD1@Z
	DD	imagerel ?rx7__stoi@@YAHHPEA_JPEBD1@Z+496
	DD	imagerel $unwind$?rx7__stoi@@YAHHPEA_JPEBD1@Z
$pdata$??0_TRACE_BLOCK@@QEAA@UTRACE_LOCATION@@PEB_W@Z DD imagerel $LN3
	DD	imagerel $LN3+81
	DD	imagerel $unwind$??0_TRACE_BLOCK@@QEAA@UTRACE_LOCATION@@PEB_W@Z
$pdata$??1_TRACE_BLOCK@@QEAA@XZ DD imagerel $LN7
	DD	imagerel $LN7+242
	DD	imagerel $unwind$??1_TRACE_BLOCK@@QEAA@XZ
$pdata$?TraceLocation@@YA?AUTRACE_LOCATION@@PEBD0HH@Z DD imagerel ?TraceLocation@@YA?AUTRACE_LOCATION@@PEBD0HH@Z
	DD	imagerel ?TraceLocation@@YA?AUTRACE_LOCATION@@PEBD0HH@Z+92
	DD	imagerel $unwind$?TraceLocation@@YA?AUTRACE_LOCATION@@PEBD0HH@Z
$pdata$?OutputTraceMessage@@YAXUTRACE_LOCATION@@HPEB_WZZ DD imagerel ?OutputTraceMessage@@YAXUTRACE_LOCATION@@HPEB_WZZ
	DD	imagerel ?OutputTraceMessage@@YAXUTRACE_LOCATION@@HPEB_WZZ+424
	DD	imagerel $unwind$?OutputTraceMessage@@YAXUTRACE_LOCATION@@HPEB_WZZ
$pdata$?StaticAlloc@@YAPEAXH_K@Z DD imagerel ?StaticAlloc@@YAPEAXH_K@Z
	DD	imagerel ?StaticAlloc@@YAPEAXH_K@Z+82
	DD	imagerel $unwind$?StaticAlloc@@YAPEAXH_K@Z
$pdata$?HeapAlloc@@YAPEAXH_K@Z DD imagerel ?HeapAlloc@@YAPEAXH_K@Z
	DD	imagerel ?HeapAlloc@@YAPEAXH_K@Z+82
	DD	imagerel $unwind$?HeapAlloc@@YAPEAXH_K@Z
$pdata$?HeapFree@@YAXPEAX@Z DD imagerel ?HeapFree@@YAXPEAX@Z
	DD	imagerel ?HeapFree@@YAXPEAX@Z+51
	DD	imagerel $unwind$?HeapFree@@YAXPEAX@Z
$pdata$?STATIC_ALLOCATOR@@YAPEAXPEAXHH_K01@Z DD imagerel ?STATIC_ALLOCATOR@@YAPEAXPEAXHH_K01@Z
	DD	imagerel ?STATIC_ALLOCATOR@@YAPEAXPEAXHH_K01@Z+810
	DD	imagerel $unwind$?STATIC_ALLOCATOR@@YAPEAXPEAXHH_K01@Z
$pdata$?HEAP_ALLOCATOR@@YAPEAXPEAXHH_K01@Z DD imagerel ?HEAP_ALLOCATOR@@YAPEAXPEAXHH_K01@Z
	DD	imagerel ?HEAP_ALLOCATOR@@YAPEAXPEAXHH_K01@Z+222
	DD	imagerel $unwind$?HEAP_ALLOCATOR@@YAPEAXPEAXHH_K01@Z
$pdata$??Bstr32@@QEAA_JXZ DD imagerel $LN3
	DD	imagerel $LN3+48
	DD	imagerel $unwind$??Bstr32@@QEAA_JXZ
$pdata$??Bstr32@@QEAA_KXZ DD imagerel $LN3
	DD	imagerel $LN3+48
	DD	imagerel $unwind$??Bstr32@@QEAA_KXZ
$pdata$??Bstr32@@QEAANXZ DD imagerel $LN3
	DD	imagerel $LN3+53
	DD	imagerel $unwind$??Bstr32@@QEAANXZ
$pdata$??Bstr32@@QEAAMXZ DD imagerel $LN3
	DD	imagerel $LN3+53
	DD	imagerel $unwind$??Bstr32@@QEAAMXZ
$pdata$??Bstr32@@QEAAIXZ DD imagerel $LN3
	DD	imagerel $LN3+48
	DD	imagerel $unwind$??Bstr32@@QEAAIXZ
$pdata$??Bstr32@@QEAAHXZ DD imagerel $LN3
	DD	imagerel $LN3+48
	DD	imagerel $unwind$??Bstr32@@QEAAHXZ
$pdata$??7str32@@QEAAHXZ DD imagerel $LN5
	DD	imagerel $LN5+43
	DD	imagerel $unwind$??7str32@@QEAAHXZ
$pdata$?strtoi@@YA_JUstr32@@@Z DD imagerel ?strtoi@@YA_JUstr32@@@Z
	DD	imagerel ?strtoi@@YA_JUstr32@@@Z+71
	DD	imagerel $unwind$?strtoi@@YA_JUstr32@@@Z
$pdata$?MAIN@@YAXXZ DD imagerel ?MAIN@@YAXXZ
	DD	imagerel ?MAIN@@YAXXZ+3269
	DD	imagerel $unwind$?MAIN@@YAXXZ
$pdata$?FileExists@@YAHPEBD@Z DD imagerel ?FileExists@@YAHPEBD@Z
	DD	imagerel ?FileExists@@YAHPEBD@Z+66
	DD	imagerel $unwind$?FileExists@@YAHPEBD@Z
$pdata$?GetThreadID@@YAHXZ DD imagerel ?GetThreadID@@YAHXZ
	DD	imagerel ?GetThreadID@@YAHXZ+15
	DD	imagerel $unwind$?GetThreadID@@YAHXZ
$pdata$?GetPerformanceFrequency@@YA_KXZ DD imagerel ?GetPerformanceFrequency@@YA_KXZ
	DD	imagerel ?GetPerformanceFrequency@@YA_KXZ+25
	DD	imagerel $unwind$?GetPerformanceFrequency@@YA_KXZ
$pdata$?GetPerformanceCounter@@YA_KXZ DD imagerel ?GetPerformanceCounter@@YA_KXZ
	DD	imagerel ?GetPerformanceCounter@@YA_KXZ+25
	DD	imagerel $unwind$?GetPerformanceCounter@@YA_KXZ
$pdata$?Widen@@YAPEA_WHPEBD@Z DD imagerel ?Widen@@YAPEA_WHPEBD@Z
	DD	imagerel ?Widen@@YAPEA_WHPEBD@Z+339
	DD	imagerel $unwind$?Widen@@YAPEA_WHPEBD@Z
$pdata$?OutputW@@YAXPEB_W@Z DD imagerel ?OutputW@@YAXPEB_W@Z
	DD	imagerel ?OutputW@@YAXPEB_W@Z+103
	DD	imagerel $unwind$?OutputW@@YAXPEB_W@Z
$pdata$?DebugBreakExtended@@YAHUTRACE_LOCATION@@PEBD@Z DD imagerel ?DebugBreakExtended@@YAHUTRACE_LOCATION@@PEBD@Z
	DD	imagerel ?DebugBreakExtended@@YAHUTRACE_LOCATION@@PEBD@Z+475
	DD	imagerel $unwind$?DebugBreakExtended@@YAHUTRACE_LOCATION@@PEBD@Z
$pdata$?UnloadFileData@@YAXPEAX@Z DD imagerel ?UnloadFileData@@YAXPEAX@Z
	DD	imagerel ?UnloadFileData@@YAXPEAX@Z+33
	DD	imagerel $unwind$?UnloadFileData@@YAXPEAX@Z
$pdata$?WriteFileData@@YAIIPEAXPEBD@Z DD imagerel ?WriteFileData@@YAIIPEAXPEBD@Z
	DD	imagerel ?WriteFileData@@YAIIPEAXPEBD@Z+504
	DD	imagerel $unwind$?WriteFileData@@YAIIPEAXPEBD@Z
$pdata$?LoadFileData@@YAPEAXPEAIPEBD@Z DD imagerel ?LoadFileData@@YAPEAXPEAIPEBD@Z
	DD	imagerel ?LoadFileData@@YAPEAXPEAIPEBD@Z+794
	DD	imagerel $unwind$?LoadFileData@@YAPEAXPEAIPEBD@Z
$pdata$?GetErrorCode@@YAHH@Z DD imagerel ?GetErrorCode@@YAHH@Z
	DD	imagerel ?GetErrorCode@@YAHH@Z+180
	DD	imagerel $unwind$?GetErrorCode@@YAHH@Z
$pdata$?GetErrorStringA@@YAPEBDHH@Z DD imagerel ?GetErrorStringA@@YAPEBDHH@Z
	DD	imagerel ?GetErrorStringA@@YAPEBDHH@Z+473
	DD	imagerel $unwind$?GetErrorStringA@@YAPEBDHH@Z
$pdata$?AssertExtendedW@@YAHUTRACE_LOCATION@@PEBDHPEB_WZZ DD imagerel ?AssertExtendedW@@YAHUTRACE_LOCATION@@PEBDHPEB_WZZ
	DD	imagerel ?AssertExtendedW@@YAHUTRACE_LOCATION@@PEBDHPEB_WZZ+257
	DD	imagerel $unwind$?AssertExtendedW@@YAHUTRACE_LOCATION@@PEBDHPEB_WZZ
$pdata$?FormatExtendedA@@YAPEADHPEBDPEADPEAH@Z DD imagerel ?FormatExtendedA@@YAPEADHPEBDPEADPEAH@Z
	DD	imagerel ?FormatExtendedA@@YAPEADHPEBDPEADPEAH@Z+119
	DD	imagerel $unwind$?FormatExtendedA@@YAPEADHPEBDPEADPEAH@Z
$pdata$?FormatExtendedW@@YAPEA_WHPEB_WPEADPEAH@Z DD imagerel ?FormatExtendedW@@YAPEA_WHPEB_WPEADPEAH@Z
	DD	imagerel ?FormatExtendedW@@YAPEA_WHPEB_WPEADPEAH@Z+122
	DD	imagerel $unwind$?FormatExtendedW@@YAPEA_WHPEB_WPEADPEAH@Z
$pdata$?FormatA@@YAPEADPEBDZZ DD imagerel ?FormatA@@YAPEADPEBDZZ
	DD	imagerel ?FormatA@@YAPEADPEBDZZ+104
	DD	imagerel $unwind$?FormatA@@YAPEADPEBDZZ
$pdata$?FormatW@@YAPEA_WPEB_WZZ DD imagerel ?FormatW@@YAPEA_WPEB_WZZ
	DD	imagerel ?FormatW@@YAPEA_WPEB_WZZ+105
	DD	imagerel $unwind$?FormatW@@YAPEA_WPEB_WZZ
$pdata$?RuneIsEOL@@YAHH@Z DD imagerel ?RuneIsEOL@@YAHH@Z
	DD	imagerel ?RuneIsEOL@@YAHH@Z+46
	DD	imagerel $unwind$?RuneIsEOL@@YAHH@Z
$pdata$WinMain DD imagerel $LN9
	DD	imagerel $LN9+480
	DD	imagerel $unwind$WinMain
$pdata$?PlatformInitialize@@YAXXZ DD imagerel ?PlatformInitialize@@YAXXZ
	DD	imagerel ?PlatformInitialize@@YAXXZ+267
	DD	imagerel $unwind$?PlatformInitialize@@YAXXZ
$pdata$?PlatformDeinitialize@@YAXXZ DD imagerel ?PlatformDeinitialize@@YAXXZ
	DD	imagerel ?PlatformDeinitialize@@YAXXZ+30
	DD	imagerel $unwind$?PlatformDeinitialize@@YAXXZ
$pdata$?CStrW@@YAPEB_WPEBD@Z DD imagerel ?CStrW@@YAPEB_WPEBD@Z
	DD	imagerel ?CStrW@@YAPEB_WPEBD@Z+29
	DD	imagerel $unwind$?CStrW@@YAPEB_WPEBD@Z
$pdata$?FileNameIsSymLink@@YAHPEBD@Z DD imagerel ?FileNameIsSymLink@@YAHPEBD@Z
	DD	imagerel ?FileNameIsSymLink@@YAHPEBD@Z+131
	DD	imagerel $unwind$?FileNameIsSymLink@@YAHPEBD@Z
$pdata$?TraceMessageKindToString@@YAPEB_WH@Z DD imagerel ?TraceMessageKindToString@@YAPEB_WH@Z
	DD	imagerel ?TraceMessageKindToString@@YAPEB_WH@Z+160
	DD	imagerel $unwind$?TraceMessageKindToString@@YAPEB_WH@Z
$pdata$?f32x2_make@@YA?AUf32x2@@MM@Z DD imagerel ?f32x2_make@@YA?AUf32x2@@MM@Z
	DD	imagerel ?f32x2_make@@YA?AUf32x2@@MM@Z+48
	DD	imagerel $unwind$?f32x2_make@@YA?AUf32x2@@MM@Z
pdata	ENDS
;	COMDAT pdata
pdata	SEGMENT
$pdata$??__ESTANDARD_BASIS@@YAXXZ DD imagerel ??__ESTANDARD_BASIS@@YAXXZ
	DD	imagerel ??__ESTANDARD_BASIS@@YAXXZ+87
	DD	imagerel $unwind$??__ESTANDARD_BASIS@@YAXXZ
pdata	ENDS
pdata	SEGMENT
$pdata$??D@YA?AUf32x2@@U0@0@Z DD imagerel ??D@YA?AUf32x2@@U0@0@Z
	DD	imagerel ??D@YA?AUf32x2@@U0@0@Z+58
	DD	imagerel $unwind$??D@YA?AUf32x2@@U0@0@Z
$pdata$??D@YA?AUf32x2@@U0@Ui32x2@@@Z DD imagerel ??D@YA?AUf32x2@@U0@Ui32x2@@@Z
	DD	imagerel ??D@YA?AUf32x2@@U0@Ui32x2@@@Z+72
	DD	imagerel $unwind$??D@YA?AUf32x2@@U0@Ui32x2@@@Z
$pdata$??K@YA?AUf32x2@@MUi32x2@@@Z DD imagerel ??K@YA?AUf32x2@@MUi32x2@@@Z
	DD	imagerel ??K@YA?AUf32x2@@MUi32x2@@@Z+73
	DD	imagerel $unwind$??K@YA?AUf32x2@@MUi32x2@@@Z
$pdata$??G@YA?AUi32x2@@U0@0@Z DD imagerel ??G@YA?AUi32x2@@U0@0@Z
	DD	imagerel ??G@YA?AUi32x2@@U0@0@Z+54
	DD	imagerel $unwind$??G@YA?AUi32x2@@U0@0@Z
$pdata$??G@YA?AUf32x2@@U0@0@Z DD imagerel ??G@YA?AUf32x2@@U0@0@Z
	DD	imagerel ??G@YA?AUf32x2@@U0@0@Z+58
	DD	imagerel $unwind$??G@YA?AUf32x2@@U0@0@Z
$pdata$?MatrixI@@YA?AUf32_4x4@@XZ DD imagerel ?MatrixI@@YA?AUf32_4x4@@XZ
	DD	imagerel ?MatrixI@@YA?AUf32_4x4@@XZ+233
	DD	imagerel $unwind$?MatrixI@@YA?AUf32_4x4@@XZ
$pdata$?PIXEL_FORMAT_SIZE@@YAHH@Z DD imagerel ?PIXEL_FORMAT_SIZE@@YAHH@Z
	DD	imagerel ?PIXEL_FORMAT_SIZE@@YAHH@Z+66
	DD	imagerel $unwind$?PIXEL_FORMAT_SIZE@@YAHH@Z
$pdata$stbtt_BakeFontBitmap DD imagerel $LN3
	DD	imagerel $LN3+111
	DD	imagerel $unwind$stbtt_BakeFontBitmap
$pdata$stbtt_GetBakedQuad DD imagerel $LN5
	DD	imagerel $LN5+549
	DD	imagerel $unwind$stbtt_GetBakedQuad
$pdata$stbtt_GetScaledFontVMetrics DD imagerel $LN5
	DD	imagerel $LN5+265
	DD	imagerel $unwind$stbtt_GetScaledFontVMetrics
$pdata$stbtt_PackBegin DD imagerel $LN10
	DD	imagerel $LN10+417
	DD	imagerel $unwind$stbtt_PackBegin
$pdata$stbtt_PackEnd DD imagerel $LN3
	DD	imagerel $LN3+44
	DD	imagerel $unwind$stbtt_PackEnd
$pdata$stbtt_PackFontRange DD imagerel $LN3
	DD	imagerel $LN3+125
	DD	imagerel $unwind$stbtt_PackFontRange
$pdata$stbtt_PackFontRanges DD imagerel $LN13
	DD	imagerel $LN13+597
	DD	imagerel $unwind$stbtt_PackFontRanges
$pdata$stbtt_PackSetOversampling DD imagerel $LN7
	DD	imagerel $LN7+131
	DD	imagerel $unwind$stbtt_PackSetOversampling
$pdata$stbtt_GetPackedQuad DD imagerel $LN5
	DD	imagerel $LN5+622
	DD	imagerel $unwind$stbtt_GetPackedQuad
$pdata$stbtt_PackFontRangesGatherRects DD imagerel $LN17
	DD	imagerel $LN17+832
	DD	imagerel $unwind$stbtt_PackFontRangesGatherRects
$pdata$stbtt_PackFontRangesPackRects DD imagerel $LN3
	DD	imagerel $LN3+48
	DD	imagerel $unwind$stbtt_PackFontRangesPackRects
$pdata$stbtt_PackFontRangesRenderIntoRects DD imagerel $LN22
	DD	imagerel $LN22+2037
	DD	imagerel $unwind$stbtt_PackFontRangesRenderIntoRects
$pdata$stbtt_GetNumberOfFonts DD imagerel $LN3
	DD	imagerel $LN3+24
	DD	imagerel $unwind$stbtt_GetNumberOfFonts
$pdata$stbtt_GetFontOffsetForIndex DD imagerel $LN3
	DD	imagerel $LN3+32
	DD	imagerel $unwind$stbtt_GetFontOffsetForIndex
$pdata$stbtt_InitFont DD imagerel $LN3
	DD	imagerel $LN3+44
	DD	imagerel $unwind$stbtt_InitFont
$pdata$stbtt_FindGlyphIndex DD imagerel $LN33
	DD	imagerel $LN33+1540
	DD	imagerel $unwind$stbtt_FindGlyphIndex
$pdata$stbtt_ScaleForPixelHeight DD imagerel $LN3
	DD	imagerel $LN3+116
	DD	imagerel $unwind$stbtt_ScaleForPixelHeight
$pdata$stbtt_ScaleForMappingEmToPixels DD imagerel $LN3
	DD	imagerel $LN3+77
	DD	imagerel $unwind$stbtt_ScaleForMappingEmToPixels
$pdata$stbtt_GetFontVMetrics DD imagerel $LN6
	DD	imagerel $LN6+170
	DD	imagerel $unwind$stbtt_GetFontVMetrics
$pdata$stbtt_GetFontVMetricsOS2 DD imagerel $LN7
	DD	imagerel $LN7+210
	DD	imagerel $unwind$stbtt_GetFontVMetricsOS2
$pdata$stbtt_GetFontBoundingBox DD imagerel $LN3
	DD	imagerel $LN3+185
	DD	imagerel $unwind$stbtt_GetFontBoundingBox
$pdata$stbtt_GetCodepointHMetrics DD imagerel $LN3
	DD	imagerel $LN3+64
	DD	imagerel $unwind$stbtt_GetCodepointHMetrics
$pdata$stbtt_GetCodepointKernAdvance DD imagerel $LN4
	DD	imagerel $LN4+104
	DD	imagerel $unwind$stbtt_GetCodepointKernAdvance
$pdata$stbtt_GetCodepointBox DD imagerel $LN3
	DD	imagerel $LN3+84
	DD	imagerel $unwind$stbtt_GetCodepointBox
$pdata$stbtt_GetGlyphHMetrics DD imagerel $LN9
	DD	imagerel $LN9+357
	DD	imagerel $unwind$stbtt_GetGlyphHMetrics
$pdata$stbtt_GetGlyphKernAdvance DD imagerel $LN6
	DD	imagerel $LN6+121
	DD	imagerel $unwind$stbtt_GetGlyphKernAdvance
$pdata$stbtt_GetGlyphBox DD imagerel $LN10
	DD	imagerel $LN10+297
	DD	imagerel $unwind$stbtt_GetGlyphBox
$pdata$stbtt_GetKerningTableLength DD imagerel $LN6
	DD	imagerel $LN6+130
	DD	imagerel $unwind$stbtt_GetKerningTableLength
$pdata$stbtt_GetKerningTable DD imagerel $LN10
	DD	imagerel $LN10+349
	DD	imagerel $unwind$stbtt_GetKerningTable
$pdata$stbtt_IsGlyphEmpty DD imagerel $LN9
	DD	imagerel $LN9+185
	DD	imagerel $unwind$stbtt_IsGlyphEmpty
$pdata$stbtt_GetCodepointShape DD imagerel $LN3
	DD	imagerel $LN3+54
	DD	imagerel $unwind$stbtt_GetCodepointShape
$pdata$stbtt_GetGlyphShape DD imagerel $LN5
	DD	imagerel $LN5+76
	DD	imagerel $unwind$stbtt_GetGlyphShape
$pdata$stbtt_FreeShape DD imagerel $LN3
	DD	imagerel $LN3+30
	DD	imagerel $unwind$stbtt_FreeShape
$pdata$stbtt_FindSVGDoc DD imagerel $LN7
	DD	imagerel $LN7+200
	DD	imagerel $unwind$stbtt_FindSVGDoc
$pdata$stbtt_GetCodepointSVG DD imagerel $LN3
	DD	imagerel $LN3+54
	DD	imagerel $unwind$stbtt_GetCodepointSVG
$pdata$stbtt_GetGlyphSVG DD imagerel $LN6
	DD	imagerel $LN6+162
	DD	imagerel $unwind$stbtt_GetGlyphSVG
$pdata$stbtt_FreeBitmap DD imagerel $LN3
	DD	imagerel $LN3+30
	DD	imagerel $unwind$stbtt_FreeBitmap
$pdata$stbtt_GetCodepointBitmap DD imagerel $LN3
	DD	imagerel $LN3+125
	DD	imagerel $unwind$stbtt_GetCodepointBitmap
$pdata$stbtt_GetCodepointBitmapSubpixel DD imagerel $LN3
	DD	imagerel $LN3+148
	DD	imagerel $unwind$stbtt_GetCodepointBitmapSubpixel
$pdata$stbtt_MakeCodepointBitmap DD imagerel $LN3
	DD	imagerel $LN3+124
	DD	imagerel $unwind$stbtt_MakeCodepointBitmap
$pdata$stbtt_MakeCodepointBitmapSubpixel DD imagerel $LN3
	DD	imagerel $LN3+146
	DD	imagerel $unwind$stbtt_MakeCodepointBitmapSubpixel
$pdata$stbtt_MakeCodepointBitmapSubpixelPrefilter DD imagerel $LN3
	DD	imagerel $LN3+209
	DD	imagerel $unwind$stbtt_MakeCodepointBitmapSubpixelPrefilter
$pdata$stbtt_GetCodepointBitmapBox DD imagerel $LN3
	DD	imagerel $LN3+126
	DD	imagerel $unwind$stbtt_GetCodepointBitmapBox
$pdata$stbtt_GetCodepointBitmapBoxSubpixel DD imagerel $LN3
	DD	imagerel $LN3+150
	DD	imagerel $unwind$stbtt_GetCodepointBitmapBoxSubpixel
$pdata$stbtt_GetGlyphBitmap DD imagerel $LN3
	DD	imagerel $LN3+125
	DD	imagerel $unwind$stbtt_GetGlyphBitmap
$pdata$stbtt_GetGlyphBitmapSubpixel DD imagerel $LN12
	DD	imagerel $LN12+686
	DD	imagerel $unwind$stbtt_GetGlyphBitmapSubpixel
$pdata$stbtt_MakeGlyphBitmap DD imagerel $LN3
	DD	imagerel $LN3+124
	DD	imagerel $unwind$stbtt_MakeGlyphBitmap
$pdata$stbtt_MakeGlyphBitmapSubpixel DD imagerel $LN4
	DD	imagerel $LN4+383
	DD	imagerel $unwind$stbtt_MakeGlyphBitmapSubpixel
$pdata$stbtt_MakeGlyphBitmapSubpixelPrefilter DD imagerel $LN5
	DD	imagerel $LN5+310
	DD	imagerel $unwind$stbtt_MakeGlyphBitmapSubpixelPrefilter
$pdata$stbtt_GetGlyphBitmapBox DD imagerel $LN3
	DD	imagerel $LN3+126
	DD	imagerel $unwind$stbtt_GetGlyphBitmapBox
$pdata$stbtt_GetGlyphBitmapBoxSubpixel DD imagerel $LN13
	DD	imagerel $LN13+419
	DD	imagerel $unwind$stbtt_GetGlyphBitmapBoxSubpixel
$pdata$stbtt_Rasterize DD imagerel $LN6
	DD	imagerel $LN6+355
	DD	imagerel $unwind$stbtt_Rasterize
$pdata$stbtt_FreeSDF DD imagerel $LN3
	DD	imagerel $LN3+30
	DD	imagerel $unwind$stbtt_FreeSDF
$pdata$stbtt_GetGlyphSDF DD imagerel $LN83
	DD	imagerel $LN83+6497
	DD	imagerel $unwind$stbtt_GetGlyphSDF
$pdata$stbtt_GetCodepointSDF DD imagerel $LN3
	DD	imagerel $LN3+147
	DD	imagerel $unwind$stbtt_GetCodepointSDF
$pdata$stbtt_FindMatchingFont DD imagerel $LN3
	DD	imagerel $LN3+44
	DD	imagerel $unwind$stbtt_FindMatchingFont
$pdata$stbtt_CompareUTF8toUTF16_bigendian DD imagerel $LN3
	DD	imagerel $LN3+52
	DD	imagerel $unwind$stbtt_CompareUTF8toUTF16_bigendian
$pdata$stbtt_GetFontNameString DD imagerel $LN8
	DD	imagerel $LN8+445
	DD	imagerel $unwind$stbtt_GetFontNameString
$pdata$?stbtt__buf_get8@@YAEPEAUstbtt__buf@@@Z DD imagerel ?stbtt__buf_get8@@YAEPEAUstbtt__buf@@@Z
	DD	imagerel ?stbtt__buf_get8@@YAEPEAUstbtt__buf@@@Z+82
	DD	imagerel $unwind$?stbtt__buf_get8@@YAEPEAUstbtt__buf@@@Z
$pdata$?stbtt__buf_seek@@YAXPEAUstbtt__buf@@H@Z DD imagerel ?stbtt__buf_seek@@YAXPEAUstbtt__buf@@H@Z
	DD	imagerel ?stbtt__buf_seek@@YAXPEAUstbtt__buf@@H@Z+122
	DD	imagerel $unwind$?stbtt__buf_seek@@YAXPEAUstbtt__buf@@H@Z
$pdata$?stbtt__buf_skip@@YAXPEAUstbtt__buf@@H@Z DD imagerel ?stbtt__buf_skip@@YAXPEAUstbtt__buf@@H@Z
	DD	imagerel ?stbtt__buf_skip@@YAXPEAUstbtt__buf@@H@Z+42
	DD	imagerel $unwind$?stbtt__buf_skip@@YAXPEAUstbtt__buf@@H@Z
$pdata$?stbtt__buf_get@@YAIPEAUstbtt__buf@@H@Z DD imagerel ?stbtt__buf_get@@YAIPEAUstbtt__buf@@H@Z
	DD	imagerel ?stbtt__buf_get@@YAIPEAUstbtt__buf@@H@Z+140
	DD	imagerel $unwind$?stbtt__buf_get@@YAIPEAUstbtt__buf@@H@Z
$pdata$?stbtt__new_buf@@YA?AUstbtt__buf@@PEBX_K@Z DD imagerel ?stbtt__new_buf@@YA?AUstbtt__buf@@PEBX_K@Z
	DD	imagerel ?stbtt__new_buf@@YA?AUstbtt__buf@@PEBX_K@Z+118
	DD	imagerel $unwind$?stbtt__new_buf@@YA?AUstbtt__buf@@PEBX_K@Z
$pdata$?stbtt__buf_range@@YA?AUstbtt__buf@@PEBU1@HH@Z DD imagerel ?stbtt__buf_range@@YA?AUstbtt__buf@@PEBU1@HH@Z
	DD	imagerel ?stbtt__buf_range@@YA?AUstbtt__buf@@PEBU1@HH@Z+192
	DD	imagerel $unwind$?stbtt__buf_range@@YA?AUstbtt__buf@@PEBU1@HH@Z
$pdata$?stbtt__cff_get_index@@YA?AUstbtt__buf@@PEAU1@@Z DD imagerel ?stbtt__cff_get_index@@YA?AUstbtt__buf@@PEAU1@@Z
	DD	imagerel ?stbtt__cff_get_index@@YA?AUstbtt__buf@@PEAU1@@Z+249
	DD	imagerel $unwind$?stbtt__cff_get_index@@YA?AUstbtt__buf@@PEAU1@@Z
$pdata$?stbtt__cff_int@@YAIPEAUstbtt__buf@@@Z DD imagerel ?stbtt__cff_int@@YAIPEAUstbtt__buf@@@Z
	DD	imagerel ?stbtt__cff_int@@YAIPEAUstbtt__buf@@@Z+289
	DD	imagerel $unwind$?stbtt__cff_int@@YAIPEAUstbtt__buf@@@Z
$pdata$?stbtt__cff_skip_operand@@YAXPEAUstbtt__buf@@@Z DD imagerel ?stbtt__cff_skip_operand@@YAXPEAUstbtt__buf@@@Z
	DD	imagerel ?stbtt__cff_skip_operand@@YAXPEAUstbtt__buf@@@Z+163
	DD	imagerel $unwind$?stbtt__cff_skip_operand@@YAXPEAUstbtt__buf@@@Z
$pdata$?stbtt__dict_get@@YA?AUstbtt__buf@@PEAU1@H@Z DD imagerel ?stbtt__dict_get@@YA?AUstbtt__buf@@PEAU1@H@Z
	DD	imagerel ?stbtt__dict_get@@YA?AUstbtt__buf@@PEAU1@H@Z+368
	DD	imagerel $unwind$?stbtt__dict_get@@YA?AUstbtt__buf@@PEAU1@H@Z
$pdata$?stbtt__dict_get_ints@@YAXPEAUstbtt__buf@@HHPEAI@Z DD imagerel ?stbtt__dict_get_ints@@YAXPEAUstbtt__buf@@HHPEAI@Z
	DD	imagerel ?stbtt__dict_get_ints@@YAXPEAUstbtt__buf@@HHPEAI@Z+141
	DD	imagerel $unwind$?stbtt__dict_get_ints@@YAXPEAUstbtt__buf@@HHPEAI@Z
$pdata$?stbtt__cff_index_count@@YAHPEAUstbtt__buf@@@Z DD imagerel ?stbtt__cff_index_count@@YAHPEAUstbtt__buf@@@Z
	DD	imagerel ?stbtt__cff_index_count@@YAHPEAUstbtt__buf@@@Z+41
	DD	imagerel $unwind$?stbtt__cff_index_count@@YAHPEAUstbtt__buf@@@Z
$pdata$?stbtt__cff_index_get@@YA?AUstbtt__buf@@U1@H@Z DD imagerel ?stbtt__cff_index_get@@YA?AUstbtt__buf@@U1@H@Z
	DD	imagerel ?stbtt__cff_index_get@@YA?AUstbtt__buf@@U1@H@Z+324
	DD	imagerel $unwind$?stbtt__cff_index_get@@YA?AUstbtt__buf@@U1@H@Z
$pdata$?stbtt__find_table@@YAIPEAEIPEBD@Z DD imagerel ?stbtt__find_table@@YAIPEAEIPEBD@Z
	DD	imagerel ?stbtt__find_table@@YAIPEAEIPEBD@Z+349
	DD	imagerel $unwind$?stbtt__find_table@@YAIPEAEIPEBD@Z
$pdata$?stbtt_GetFontOffsetForIndex_internal@@YAHPEAEH@Z DD imagerel ?stbtt_GetFontOffsetForIndex_internal@@YAHPEAEH@Z
	DD	imagerel ?stbtt_GetFontOffsetForIndex_internal@@YAHPEAEH@Z+366
	DD	imagerel $unwind$?stbtt_GetFontOffsetForIndex_internal@@YAHPEAEH@Z
$pdata$?stbtt_GetNumberOfFonts_internal@@YAHPEAE@Z DD imagerel ?stbtt_GetNumberOfFonts_internal@@YAHPEAE@Z
	DD	imagerel ?stbtt_GetNumberOfFonts_internal@@YAHPEAE@Z+283
	DD	imagerel $unwind$?stbtt_GetNumberOfFonts_internal@@YAHPEAE@Z
$pdata$?stbtt__get_subrs@@YA?AUstbtt__buf@@U1@0@Z DD imagerel ?stbtt__get_subrs@@YA?AUstbtt__buf@@U1@0@Z
	DD	imagerel ?stbtt__get_subrs@@YA?AUstbtt__buf@@U1@0@Z+485
	DD	imagerel $unwind$?stbtt__get_subrs@@YA?AUstbtt__buf@@U1@0@Z
$pdata$?stbtt__get_svg@@YAHPEAUstbtt_fontinfo@@@Z DD imagerel ?stbtt__get_svg@@YAHPEAUstbtt_fontinfo@@@Z
	DD	imagerel ?stbtt__get_svg@@YAHPEAUstbtt_fontinfo@@@Z+137
	DD	imagerel $unwind$?stbtt__get_svg@@YAHPEAUstbtt_fontinfo@@@Z
$pdata$?stbtt_InitFont_internal@@YAHPEAUstbtt_fontinfo@@PEAEH@Z DD imagerel ?stbtt_InitFont_internal@@YAHPEAUstbtt_fontinfo@@PEAEH@Z
	DD	imagerel ?stbtt_InitFont_internal@@YAHPEAUstbtt_fontinfo@@PEAEH@Z+2243
	DD	imagerel $unwind$?stbtt_InitFont_internal@@YAHPEAUstbtt_fontinfo@@PEAEH@Z
$pdata$?stbtt__GetGlyfOffset@@YAHPEBUstbtt_fontinfo@@H@Z DD imagerel ?stbtt__GetGlyfOffset@@YAHPEBUstbtt_fontinfo@@H@Z
	DD	imagerel ?stbtt__GetGlyfOffset@@YAHPEBUstbtt_fontinfo@@H@Z+393
	DD	imagerel $unwind$?stbtt__GetGlyfOffset@@YAHPEBUstbtt_fontinfo@@H@Z
$pdata$?stbtt__GetGlyphInfoT2@@YAHPEBUstbtt_fontinfo@@HPEAH111@Z DD imagerel ?stbtt__GetGlyphInfoT2@@YAHPEBUstbtt_fontinfo@@HPEAH111@Z
	DD	imagerel ?stbtt__GetGlyphInfoT2@@YAHPEBUstbtt_fontinfo@@HPEAH111@Z+387
	DD	imagerel $unwind$?stbtt__GetGlyphInfoT2@@YAHPEBUstbtt_fontinfo@@HPEAH111@Z
$pdata$?stbtt__close_shape@@YAHPEAUstbtt_vertex@@HHHHHHHHH@Z DD imagerel ?stbtt__close_shape@@YAHPEAUstbtt_vertex@@HHHHHHHHH@Z
	DD	imagerel ?stbtt__close_shape@@YAHPEAUstbtt_vertex@@HHHHHHHHH@Z+416
	DD	imagerel $unwind$?stbtt__close_shape@@YAHPEAUstbtt_vertex@@HHHHHHHHH@Z
$pdata$?stbtt__GetGlyphShapeTT@@YAHPEBUstbtt_fontinfo@@HPEAPEAUstbtt_vertex@@@Z DD imagerel ?stbtt__GetGlyphShapeTT@@YAHPEBUstbtt_fontinfo@@HPEAPEAUstbtt_vertex@@@Z
	DD	imagerel ?stbtt__GetGlyphShapeTT@@YAHPEBUstbtt_fontinfo@@HPEAPEAUstbtt_vertex@@@Z+5055
	DD	imagerel $unwind$?stbtt__GetGlyphShapeTT@@YAHPEBUstbtt_fontinfo@@HPEAPEAUstbtt_vertex@@@Z
$pdata$?stbtt__csctx_v@@YAXPEAUstbtt__csctx@@EHHHHHH@Z DD imagerel ?stbtt__csctx_v@@YAXPEAUstbtt__csctx@@EHHHHHH@Z
	DD	imagerel ?stbtt__csctx_v@@YAXPEAUstbtt__csctx@@EHHHHHH@Z+250
	DD	imagerel $unwind$?stbtt__csctx_v@@YAXPEAUstbtt__csctx@@EHHHHHH@Z
$pdata$?stbtt__csctx_close_shape@@YAXPEAUstbtt__csctx@@@Z DD imagerel ?stbtt__csctx_close_shape@@YAXPEAUstbtt__csctx@@@Z
	DD	imagerel ?stbtt__csctx_close_shape@@YAXPEAUstbtt__csctx@@@Z+130
	DD	imagerel $unwind$?stbtt__csctx_close_shape@@YAXPEAUstbtt__csctx@@@Z
$pdata$?stbtt__csctx_rmove_to@@YAXPEAUstbtt__csctx@@MM@Z DD imagerel ?stbtt__csctx_rmove_to@@YAXPEAUstbtt__csctx@@MM@Z
	DD	imagerel ?stbtt__csctx_rmove_to@@YAXPEAUstbtt__csctx@@MM@Z+214
	DD	imagerel $unwind$?stbtt__csctx_rmove_to@@YAXPEAUstbtt__csctx@@MM@Z
$pdata$?stbtt__csctx_rline_to@@YAXPEAUstbtt__csctx@@MM@Z DD imagerel ?stbtt__csctx_rline_to@@YAXPEAUstbtt__csctx@@MM@Z
	DD	imagerel ?stbtt__csctx_rline_to@@YAXPEAUstbtt__csctx@@MM@Z+148
	DD	imagerel $unwind$?stbtt__csctx_rline_to@@YAXPEAUstbtt__csctx@@MM@Z
$pdata$?stbtt__csctx_rccurve_to@@YAXPEAUstbtt__csctx@@MMMMMM@Z DD imagerel ?stbtt__csctx_rccurve_to@@YAXPEAUstbtt__csctx@@MMMMMM@Z
	DD	imagerel ?stbtt__csctx_rccurve_to@@YAXPEAUstbtt__csctx@@MMMMMM@Z+244
	DD	imagerel $unwind$?stbtt__csctx_rccurve_to@@YAXPEAUstbtt__csctx@@MMMMMM@Z
$pdata$?stbtt__get_subr@@YA?AUstbtt__buf@@U1@H@Z DD imagerel ?stbtt__get_subr@@YA?AUstbtt__buf@@U1@H@Z
	DD	imagerel ?stbtt__get_subr@@YA?AUstbtt__buf@@U1@H@Z+303
	DD	imagerel $unwind$?stbtt__get_subr@@YA?AUstbtt__buf@@U1@H@Z
$pdata$?stbtt__cid_get_glyph_subrs@@YA?AUstbtt__buf@@PEBUstbtt_fontinfo@@H@Z DD imagerel ?stbtt__cid_get_glyph_subrs@@YA?AUstbtt__buf@@PEBUstbtt_fontinfo@@H@Z
	DD	imagerel ?stbtt__cid_get_glyph_subrs@@YA?AUstbtt__buf@@PEBUstbtt_fontinfo@@H@Z+559
	DD	imagerel $unwind$?stbtt__cid_get_glyph_subrs@@YA?AUstbtt__buf@@PEBUstbtt_fontinfo@@H@Z
$pdata$?stbtt__run_charstring@@YAHPEBUstbtt_fontinfo@@HPEAUstbtt__csctx@@@Z DD imagerel ?stbtt__run_charstring@@YAHPEBUstbtt_fontinfo@@HPEAUstbtt__csctx@@@Z
	DD	imagerel ?stbtt__run_charstring@@YAHPEBUstbtt_fontinfo@@HPEAUstbtt__csctx@@@Z+5164
	DD	imagerel $unwind$?stbtt__run_charstring@@YAHPEBUstbtt_fontinfo@@HPEAUstbtt__csctx@@@Z
$pdata$?stbtt__GetGlyphShapeT2@@YAHPEBUstbtt_fontinfo@@HPEAPEAUstbtt_vertex@@@Z DD imagerel ?stbtt__GetGlyphShapeT2@@YAHPEBUstbtt_fontinfo@@HPEAPEAUstbtt_vertex@@@Z
	DD	imagerel ?stbtt__GetGlyphShapeT2@@YAHPEBUstbtt_fontinfo@@HPEAPEAUstbtt_vertex@@@Z+407
	DD	imagerel $unwind$?stbtt__GetGlyphShapeT2@@YAHPEBUstbtt_fontinfo@@HPEAPEAUstbtt_vertex@@@Z
$pdata$?stbtt__GetGlyphKernInfoAdvance@@YAHPEBUstbtt_fontinfo@@HH@Z DD imagerel ?stbtt__GetGlyphKernInfoAdvance@@YAHPEBUstbtt_fontinfo@@HH@Z
	DD	imagerel ?stbtt__GetGlyphKernInfoAdvance@@YAHPEBUstbtt_fontinfo@@HH@Z+313
	DD	imagerel $unwind$?stbtt__GetGlyphKernInfoAdvance@@YAHPEBUstbtt_fontinfo@@HH@Z
$pdata$?stbtt__GetCoverageIndex@@YAHPEAEH@Z DD imagerel ?stbtt__GetCoverageIndex@@YAHPEAEH@Z
	DD	imagerel ?stbtt__GetCoverageIndex@@YAHPEAEH@Z+553
	DD	imagerel $unwind$?stbtt__GetCoverageIndex@@YAHPEAEH@Z
$pdata$?stbtt__GetGlyphClass@@YAHPEAEH@Z DD imagerel ?stbtt__GetGlyphClass@@YAHPEAEH@Z
	DD	imagerel ?stbtt__GetGlyphClass@@YAHPEAEH@Z+472
	DD	imagerel $unwind$?stbtt__GetGlyphClass@@YAHPEAEH@Z
$pdata$?stbtt__GetGlyphGPOSInfoAdvance@@YAHPEBUstbtt_fontinfo@@HH@Z DD imagerel ?stbtt__GetGlyphGPOSInfoAdvance@@YAHPEBUstbtt_fontinfo@@HH@Z
	DD	imagerel ?stbtt__GetGlyphGPOSInfoAdvance@@YAHPEBUstbtt_fontinfo@@HH@Z+1552
	DD	imagerel $unwind$?stbtt__GetGlyphGPOSInfoAdvance@@YAHPEBUstbtt_fontinfo@@HH@Z
$pdata$?stbtt__hheap_alloc@@YAPEAXPEAUstbtt__hheap@@_KPEAX@Z DD imagerel ?stbtt__hheap_alloc@@YAPEAXPEAUstbtt__hheap@@_KPEAX@Z
	DD	imagerel ?stbtt__hheap_alloc@@YAPEAXPEAUstbtt__hheap@@_KPEAX@Z+300
	DD	imagerel $unwind$?stbtt__hheap_alloc@@YAPEAXPEAUstbtt__hheap@@_KPEAX@Z
$pdata$?stbtt__hheap_cleanup@@YAXPEAUstbtt__hheap@@PEAX@Z DD imagerel ?stbtt__hheap_cleanup@@YAXPEAUstbtt__hheap@@PEAX@Z
	DD	imagerel ?stbtt__hheap_cleanup@@YAXPEAUstbtt__hheap@@PEAX@Z+76
	DD	imagerel $unwind$?stbtt__hheap_cleanup@@YAXPEAUstbtt__hheap@@PEAX@Z
$pdata$?stbtt__new_active@@YAPEAUstbtt__active_edge@@PEAUstbtt__hheap@@PEAUstbtt__edge@@HMPEAX@Z DD imagerel ?stbtt__new_active@@YAPEAUstbtt__active_edge@@PEAUstbtt__hheap@@PEAUstbtt__edge@@HMPEAX@Z
	DD	imagerel ?stbtt__new_active@@YAPEAUstbtt__active_edge@@PEAUstbtt__hheap@@PEAUstbtt__edge@@HMPEAX@Z+440
	DD	imagerel $unwind$?stbtt__new_active@@YAPEAUstbtt__active_edge@@PEAUstbtt__hheap@@PEAUstbtt__edge@@HMPEAX@Z
$pdata$?stbtt__handle_clipped_edge@@YAXPEAMHPEAUstbtt__active_edge@@MMMM@Z DD imagerel ?stbtt__handle_clipped_edge@@YAXPEAMHPEAUstbtt__active_edge@@MMMM@Z
	DD	imagerel ?stbtt__handle_clipped_edge@@YAXPEAMHPEAUstbtt__active_edge@@MMMM@Z+1093
	DD	imagerel $unwind$?stbtt__handle_clipped_edge@@YAXPEAMHPEAUstbtt__active_edge@@MMMM@Z
$pdata$?stbtt__sized_trapezoid_area@@YAMMMM@Z DD imagerel ?stbtt__sized_trapezoid_area@@YAMMMM@Z
	DD	imagerel ?stbtt__sized_trapezoid_area@@YAMMMM@Z+139
	DD	imagerel $unwind$?stbtt__sized_trapezoid_area@@YAMMMM@Z
$pdata$?stbtt__position_trapezoid_area@@YAMMMMMM@Z DD imagerel ?stbtt__position_trapezoid_area@@YAMMMMMM@Z
	DD	imagerel ?stbtt__position_trapezoid_area@@YAMMMMMM@Z+71
	DD	imagerel $unwind$?stbtt__position_trapezoid_area@@YAMMMMMM@Z
$pdata$?stbtt__fill_active_edges_new@@YAXPEAM0HPEAUstbtt__active_edge@@M@Z DD imagerel ?stbtt__fill_active_edges_new@@YAXPEAM0HPEAUstbtt__active_edge@@M@Z
	DD	imagerel ?stbtt__fill_active_edges_new@@YAXPEAM0HPEAUstbtt__active_edge@@M@Z+4086
	DD	imagerel $unwind$?stbtt__fill_active_edges_new@@YAXPEAM0HPEAUstbtt__active_edge@@M@Z
$pdata$?stbtt__rasterize_sorted_edges@@YAXPEAUstbtt__bitmap@@PEAUstbtt__edge@@HHHHPEAX@Z DD imagerel ?stbtt__rasterize_sorted_edges@@YAXPEAUstbtt__bitmap@@PEAUstbtt__edge@@HHHHPEAX@Z
	DD	imagerel ?stbtt__rasterize_sorted_edges@@YAXPEAUstbtt__bitmap@@PEAUstbtt__edge@@HHHHPEAX@Z+1285
	DD	imagerel $unwind$?stbtt__rasterize_sorted_edges@@YAXPEAUstbtt__bitmap@@PEAUstbtt__edge@@HHHHPEAX@Z
$pdata$?stbtt__sort_edges_ins_sort@@YAXPEAUstbtt__edge@@H@Z DD imagerel ?stbtt__sort_edges_ins_sort@@YAXPEAUstbtt__edge@@H@Z
	DD	imagerel ?stbtt__sort_edges_ins_sort@@YAXPEAUstbtt__edge@@H@Z+340
	DD	imagerel $unwind$?stbtt__sort_edges_ins_sort@@YAXPEAUstbtt__edge@@H@Z
$pdata$?stbtt__sort_edges_quicksort@@YAXPEAUstbtt__edge@@H@Z DD imagerel ?stbtt__sort_edges_quicksort@@YAXPEAUstbtt__edge@@H@Z
	DD	imagerel ?stbtt__sort_edges_quicksort@@YAXPEAUstbtt__edge@@H@Z+1114
	DD	imagerel $unwind$?stbtt__sort_edges_quicksort@@YAXPEAUstbtt__edge@@H@Z
$pdata$?stbtt__sort_edges@@YAXPEAUstbtt__edge@@H@Z DD imagerel ?stbtt__sort_edges@@YAXPEAUstbtt__edge@@H@Z
	DD	imagerel ?stbtt__sort_edges@@YAXPEAUstbtt__edge@@H@Z+46
	DD	imagerel $unwind$?stbtt__sort_edges@@YAXPEAUstbtt__edge@@H@Z
$pdata$?stbtt__rasterize@@YAXPEAUstbtt__bitmap@@PEAUstbtt__point@@PEAHHMMMMHHHPEAX@Z DD imagerel ?stbtt__rasterize@@YAXPEAUstbtt__bitmap@@PEAUstbtt__point@@PEAHHMMMMHHHPEAX@Z
	DD	imagerel ?stbtt__rasterize@@YAXPEAUstbtt__bitmap@@PEAUstbtt__point@@PEAHHMMMMHHHPEAX@Z+1004
	DD	imagerel $unwind$?stbtt__rasterize@@YAXPEAUstbtt__bitmap@@PEAUstbtt__point@@PEAHHMMMMHHHPEAX@Z
$pdata$?stbtt__tesselate_curve@@YAHPEAUstbtt__point@@PEAHMMMMMMMH@Z DD imagerel ?stbtt__tesselate_curve@@YAHPEAUstbtt__point@@PEAHMMMMMMMH@Z
	DD	imagerel ?stbtt__tesselate_curve@@YAHPEAUstbtt__point@@PEAHMMMMMMMH@Z+637
	DD	imagerel $unwind$?stbtt__tesselate_curve@@YAHPEAUstbtt__point@@PEAHMMMMMMMH@Z
$pdata$?stbtt__tesselate_cubic@@YAXPEAUstbtt__point@@PEAHMMMMMMMMMH@Z DD imagerel ?stbtt__tesselate_cubic@@YAXPEAUstbtt__point@@PEAHMMMMMMMMMH@Z
	DD	imagerel ?stbtt__tesselate_cubic@@YAXPEAUstbtt__point@@PEAHMMMMMMMMMH@Z+1345
