; Listing generated by Microsoft (R) Optimizing Compiler Version 19.34.31937.0 

include listing.inc

INCLUDELIB LIBCMTD
INCLUDELIB OLDNAMES

PUBLIC	?offsets@TableStruct_s2clientprotocol_2fdata_2eproto@@2QBIB ; TableStruct_s2clientprotocol_2fdata_2eproto::offsets
PUBLIC	?descriptor_table_s2clientprotocol_2fdata_2eproto@@3UDescriptorTable@internal@protobuf@google@@B ; descriptor_table_s2clientprotocol_2fdata_2eproto
PUBLIC	?New@AbilityData@SC2APIProtocol@@UEBAPEAV12@PEAVArena@protobuf@google@@@Z ; SC2APIProtocol::AbilityData::New
PUBLIC	?MergeImpl@AbilityData@SC2APIProtocol@@CAXAEAVMessage@protobuf@google@@AEBV345@@Z ; SC2APIProtocol::AbilityData::MergeImpl
PUBLIC	?Clear@AbilityData@SC2APIProtocol@@UEAAXXZ	; SC2APIProtocol::AbilityData::Clear
PUBLIC	?IsInitialized@AbilityData@SC2APIProtocol@@UEBA_NXZ ; SC2APIProtocol::AbilityData::IsInitialized
PUBLIC	?ByteSizeLong@AbilityData@SC2APIProtocol@@UEBA_KXZ ; SC2APIProtocol::AbilityData::ByteSizeLong
PUBLIC	?_InternalParse@AbilityData@SC2APIProtocol@@UEAAPEBDPEBDPEAVParseContext@internal@protobuf@google@@@Z ; SC2APIProtocol::AbilityData::_InternalParse
PUBLIC	?_InternalSerialize@AbilityData@SC2APIProtocol@@UEBAPEAEPEAEPEAVEpsCopyOutputStream@io@protobuf@google@@@Z ; SC2APIProtocol::AbilityData::_InternalSerialize
PUBLIC	?GetCachedSize@AbilityData@SC2APIProtocol@@UEBAHXZ ; SC2APIProtocol::AbilityData::GetCachedSize
PUBLIC	?SetCachedSize@AbilityData@SC2APIProtocol@@EEBAXH@Z ; SC2APIProtocol::AbilityData::SetCachedSize
PUBLIC	?_class_data_@AbilityData@SC2APIProtocol@@2UClassData@Message@protobuf@google@@B ; SC2APIProtocol::AbilityData::_class_data_
PUBLIC	?GetClassData@AbilityData@SC2APIProtocol@@UEBAPEBUClassData@Message@protobuf@google@@XZ ; SC2APIProtocol::AbilityData::GetClassData
PUBLIC	?GetMetadata@AbilityData@SC2APIProtocol@@UEBA?AUMetadata@protobuf@google@@XZ ; SC2APIProtocol::AbilityData::GetMetadata
PUBLIC	??_7AbilityData@SC2APIProtocol@@6B@		; SC2APIProtocol::AbilityData::`vftable'
PUBLIC	??_GAbilityData@SC2APIProtocol@@UEAAPEAXI@Z	; SC2APIProtocol::AbilityData::`scalar deleting destructor'
PUBLIC	?New@DamageBonus@SC2APIProtocol@@UEBAPEAV12@PEAVArena@protobuf@google@@@Z ; SC2APIProtocol::DamageBonus::New
PUBLIC	?MergeImpl@DamageBonus@SC2APIProtocol@@CAXAEAVMessage@protobuf@google@@AEBV345@@Z ; SC2APIProtocol::DamageBonus::MergeImpl
PUBLIC	?Clear@DamageBonus@SC2APIProtocol@@UEAAXXZ	; SC2APIProtocol::DamageBonus::Clear
PUBLIC	?IsInitialized@DamageBonus@SC2APIProtocol@@UEBA_NXZ ; SC2APIProtocol::DamageBonus::IsInitialized
PUBLIC	?ByteSizeLong@DamageBonus@SC2APIProtocol@@UEBA_KXZ ; SC2APIProtocol::DamageBonus::ByteSizeLong
PUBLIC	?_InternalParse@DamageBonus@SC2APIProtocol@@UEAAPEBDPEBDPEAVParseContext@internal@protobuf@google@@@Z ; SC2APIProtocol::DamageBonus::_InternalParse
PUBLIC	?_InternalSerialize@DamageBonus@SC2APIProtocol@@UEBAPEAEPEAEPEAVEpsCopyOutputStream@io@protobuf@google@@@Z ; SC2APIProtocol::DamageBonus::_InternalSerialize
PUBLIC	?GetCachedSize@DamageBonus@SC2APIProtocol@@UEBAHXZ ; SC2APIProtocol::DamageBonus::GetCachedSize
PUBLIC	?SetCachedSize@DamageBonus@SC2APIProtocol@@EEBAXH@Z ; SC2APIProtocol::DamageBonus::SetCachedSize
PUBLIC	?_class_data_@DamageBonus@SC2APIProtocol@@2UClassData@Message@protobuf@google@@B ; SC2APIProtocol::DamageBonus::_class_data_
PUBLIC	?GetClassData@DamageBonus@SC2APIProtocol@@UEBAPEBUClassData@Message@protobuf@google@@XZ ; SC2APIProtocol::DamageBonus::GetClassData
PUBLIC	?GetMetadata@DamageBonus@SC2APIProtocol@@UEBA?AUMetadata@protobuf@google@@XZ ; SC2APIProtocol::DamageBonus::GetMetadata
PUBLIC	??_7DamageBonus@SC2APIProtocol@@6B@		; SC2APIProtocol::DamageBonus::`vftable'
PUBLIC	??_GDamageBonus@SC2APIProtocol@@UEAAPEAXI@Z	; SC2APIProtocol::DamageBonus::`scalar deleting destructor'
PUBLIC	?MergeImpl@Weapon@SC2APIProtocol@@CAXAEAVMessage@protobuf@google@@AEBV345@@Z ; SC2APIProtocol::Weapon::MergeImpl
PUBLIC	?_class_data_@Weapon@SC2APIProtocol@@2UClassData@Message@protobuf@google@@B ; SC2APIProtocol::Weapon::_class_data_
PUBLIC	?MergeImpl@UnitTypeData@SC2APIProtocol@@CAXAEAVMessage@protobuf@google@@AEBV345@@Z ; SC2APIProtocol::UnitTypeData::MergeImpl
PUBLIC	?_class_data_@UnitTypeData@SC2APIProtocol@@2UClassData@Message@protobuf@google@@B ; SC2APIProtocol::UnitTypeData::_class_data_
PUBLIC	?New@UpgradeData@SC2APIProtocol@@UEBAPEAV12@PEAVArena@protobuf@google@@@Z ; SC2APIProtocol::UpgradeData::New
PUBLIC	?MergeImpl@UpgradeData@SC2APIProtocol@@CAXAEAVMessage@protobuf@google@@AEBV345@@Z ; SC2APIProtocol::UpgradeData::MergeImpl
PUBLIC	?Clear@UpgradeData@SC2APIProtocol@@UEAAXXZ	; SC2APIProtocol::UpgradeData::Clear
PUBLIC	?IsInitialized@UpgradeData@SC2APIProtocol@@UEBA_NXZ ; SC2APIProtocol::UpgradeData::IsInitialized
PUBLIC	?ByteSizeLong@UpgradeData@SC2APIProtocol@@UEBA_KXZ ; SC2APIProtocol::UpgradeData::ByteSizeLong
PUBLIC	?_InternalParse@UpgradeData@SC2APIProtocol@@UEAAPEBDPEBDPEAVParseContext@internal@protobuf@google@@@Z ; SC2APIProtocol::UpgradeData::_InternalParse
PUBLIC	?_InternalSerialize@UpgradeData@SC2APIProtocol@@UEBAPEAEPEAEPEAVEpsCopyOutputStream@io@protobuf@google@@@Z ; SC2APIProtocol::UpgradeData::_InternalSerialize
PUBLIC	?GetCachedSize@UpgradeData@SC2APIProtocol@@UEBAHXZ ; SC2APIProtocol::UpgradeData::GetCachedSize
PUBLIC	?SetCachedSize@UpgradeData@SC2APIProtocol@@EEBAXH@Z ; SC2APIProtocol::UpgradeData::SetCachedSize
PUBLIC	?_class_data_@UpgradeData@SC2APIProtocol@@2UClassData@Message@protobuf@google@@B ; SC2APIProtocol::UpgradeData::_class_data_
PUBLIC	?GetClassData@UpgradeData@SC2APIProtocol@@UEBAPEBUClassData@Message@protobuf@google@@XZ ; SC2APIProtocol::UpgradeData::GetClassData
PUBLIC	?GetMetadata@UpgradeData@SC2APIProtocol@@UEBA?AUMetadata@protobuf@google@@XZ ; SC2APIProtocol::UpgradeData::GetMetadata
PUBLIC	??_7UpgradeData@SC2APIProtocol@@6B@		; SC2APIProtocol::UpgradeData::`vftable'
PUBLIC	??_GUpgradeData@SC2APIProtocol@@UEAAPEAXI@Z	; SC2APIProtocol::UpgradeData::`scalar deleting destructor'
PUBLIC	?New@BuffData@SC2APIProtocol@@UEBAPEAV12@PEAVArena@protobuf@google@@@Z ; SC2APIProtocol::BuffData::New
PUBLIC	?MergeImpl@BuffData@SC2APIProtocol@@CAXAEAVMessage@protobuf@google@@AEBV345@@Z ; SC2APIProtocol::BuffData::MergeImpl
PUBLIC	?Clear@BuffData@SC2APIProtocol@@UEAAXXZ		; SC2APIProtocol::BuffData::Clear
PUBLIC	?IsInitialized@BuffData@SC2APIProtocol@@UEBA_NXZ ; SC2APIProtocol::BuffData::IsInitialized
PUBLIC	?ByteSizeLong@BuffData@SC2APIProtocol@@UEBA_KXZ	; SC2APIProtocol::BuffData::ByteSizeLong
PUBLIC	?_InternalParse@BuffData@SC2APIProtocol@@UEAAPEBDPEBDPEAVParseContext@internal@protobuf@google@@@Z ; SC2APIProtocol::BuffData::_InternalParse
PUBLIC	?_InternalSerialize@BuffData@SC2APIProtocol@@UEBAPEAEPEAEPEAVEpsCopyOutputStream@io@protobuf@google@@@Z ; SC2APIProtocol::BuffData::_InternalSerialize
PUBLIC	?GetCachedSize@BuffData@SC2APIProtocol@@UEBAHXZ	; SC2APIProtocol::BuffData::GetCachedSize
PUBLIC	?SetCachedSize@BuffData@SC2APIProtocol@@EEBAXH@Z ; SC2APIProtocol::BuffData::SetCachedSize
PUBLIC	?_class_data_@BuffData@SC2APIProtocol@@2UClassData@Message@protobuf@google@@B ; SC2APIProtocol::BuffData::_class_data_
PUBLIC	?GetClassData@BuffData@SC2APIProtocol@@UEBAPEBUClassData@Message@protobuf@google@@XZ ; SC2APIProtocol::BuffData::GetClassData
PUBLIC	?GetMetadata@BuffData@SC2APIProtocol@@UEBA?AUMetadata@protobuf@google@@XZ ; SC2APIProtocol::BuffData::GetMetadata
PUBLIC	??_7BuffData@SC2APIProtocol@@6B@		; SC2APIProtocol::BuffData::`vftable'
PUBLIC	??_GBuffData@SC2APIProtocol@@UEAAPEAXI@Z	; SC2APIProtocol::BuffData::`scalar deleting destructor'
PUBLIC	?New@EffectData@SC2APIProtocol@@UEBAPEAV12@PEAVArena@protobuf@google@@@Z ; SC2APIProtocol::EffectData::New
PUBLIC	?MergeImpl@EffectData@SC2APIProtocol@@CAXAEAVMessage@protobuf@google@@AEBV345@@Z ; SC2APIProtocol::EffectData::MergeImpl
PUBLIC	?Clear@EffectData@SC2APIProtocol@@UEAAXXZ	; SC2APIProtocol::EffectData::Clear
PUBLIC	?IsInitialized@EffectData@SC2APIProtocol@@UEBA_NXZ ; SC2APIProtocol::EffectData::IsInitialized
PUBLIC	?ByteSizeLong@EffectData@SC2APIProtocol@@UEBA_KXZ ; SC2APIProtocol::EffectData::ByteSizeLong
PUBLIC	?_InternalParse@EffectData@SC2APIProtocol@@UEAAPEBDPEBDPEAVParseContext@internal@protobuf@google@@@Z ; SC2APIProtocol::EffectData::_InternalParse
PUBLIC	?_InternalSerialize@EffectData@SC2APIProtocol@@UEBAPEAEPEAEPEAVEpsCopyOutputStream@io@protobuf@google@@@Z ; SC2APIProtocol::EffectData::_InternalSerialize
PUBLIC	?GetCachedSize@EffectData@SC2APIProtocol@@UEBAHXZ ; SC2APIProtocol::EffectData::GetCachedSize
PUBLIC	?SetCachedSize@EffectData@SC2APIProtocol@@EEBAXH@Z ; SC2APIProtocol::EffectData::SetCachedSize
PUBLIC	?_class_data_@EffectData@SC2APIProtocol@@2UClassData@Message@protobuf@google@@B ; SC2APIProtocol::EffectData::_class_data_
PUBLIC	?GetClassData@EffectData@SC2APIProtocol@@UEBAPEBUClassData@Message@protobuf@google@@XZ ; SC2APIProtocol::EffectData::GetClassData
PUBLIC	?GetMetadata@EffectData@SC2APIProtocol@@UEBA?AUMetadata@protobuf@google@@XZ ; SC2APIProtocol::EffectData::GetMetadata
PUBLIC	??_7EffectData@SC2APIProtocol@@6B@		; SC2APIProtocol::EffectData::`vftable'
PUBLIC	??_GEffectData@SC2APIProtocol@@UEAAPEAXI@Z	; SC2APIProtocol::EffectData::`scalar deleting destructor'
PUBLIC	??_R0?AVAbilityData@SC2APIProtocol@@@8		; SC2APIProtocol::AbilityData `RTTI Type Descriptor'
PUBLIC	??_R0?AVDamageBonus@SC2APIProtocol@@@8		; SC2APIProtocol::DamageBonus `RTTI Type Descriptor'
PUBLIC	??_R0?AVUpgradeData@SC2APIProtocol@@@8		; SC2APIProtocol::UpgradeData `RTTI Type Descriptor'
PUBLIC	??_R0?AVBuffData@SC2APIProtocol@@@8		; SC2APIProtocol::BuffData `RTTI Type Descriptor'
PUBLIC	??_R0?AVEffectData@SC2APIProtocol@@@8		; SC2APIProtocol::EffectData `RTTI Type Descriptor'
PUBLIC	??_R0?AVMessage@protobuf@google@@@8		; google::protobuf::Message `RTTI Type Descriptor'
PUBLIC	??_R3Message@protobuf@google@@8			; google::protobuf::Message::`RTTI Class Hierarchy Descriptor'
PUBLIC	??_R2Message@protobuf@google@@8			; google::protobuf::Message::`RTTI Base Class Array'
PUBLIC	??_R1A@?0A@EA@Message@protobuf@google@@8	; google::protobuf::Message::`RTTI Base Class Descriptor at (0,-1,0,64)'
PUBLIC	??_R1A@?0A@EA@MessageLite@protobuf@google@@8	; google::protobuf::MessageLite::`RTTI Base Class Descriptor at (0,-1,0,64)'
PUBLIC	??_R0?AVMessageLite@protobuf@google@@@8		; google::protobuf::MessageLite `RTTI Type Descriptor'
PUBLIC	??_R3MessageLite@protobuf@google@@8		; google::protobuf::MessageLite::`RTTI Class Hierarchy Descriptor'
PUBLIC	??_R2MessageLite@protobuf@google@@8		; google::protobuf::MessageLite::`RTTI Base Class Array'
PUBLIC	??_R4AbilityData@SC2APIProtocol@@6B@		; SC2APIProtocol::AbilityData::`RTTI Complete Object Locator'
PUBLIC	??_R3AbilityData@SC2APIProtocol@@8		; SC2APIProtocol::AbilityData::`RTTI Class Hierarchy Descriptor'
PUBLIC	??_R2AbilityData@SC2APIProtocol@@8		; SC2APIProtocol::AbilityData::`RTTI Base Class Array'
PUBLIC	??_R1A@?0A@EA@AbilityData@SC2APIProtocol@@8	; SC2APIProtocol::AbilityData::`RTTI Base Class Descriptor at (0,-1,0,64)'
PUBLIC	??_R4BuffData@SC2APIProtocol@@6B@		; SC2APIProtocol::BuffData::`RTTI Complete Object Locator'
PUBLIC	??_R3BuffData@SC2APIProtocol@@8			; SC2APIProtocol::BuffData::`RTTI Class Hierarchy Descriptor'
PUBLIC	??_R2BuffData@SC2APIProtocol@@8			; SC2APIProtocol::BuffData::`RTTI Base Class Array'
PUBLIC	??_R1A@?0A@EA@BuffData@SC2APIProtocol@@8	; SC2APIProtocol::BuffData::`RTTI Base Class Descriptor at (0,-1,0,64)'
PUBLIC	??_R4DamageBonus@SC2APIProtocol@@6B@		; SC2APIProtocol::DamageBonus::`RTTI Complete Object Locator'
PUBLIC	??_R3DamageBonus@SC2APIProtocol@@8		; SC2APIProtocol::DamageBonus::`RTTI Class Hierarchy Descriptor'
PUBLIC	??_R2DamageBonus@SC2APIProtocol@@8		; SC2APIProtocol::DamageBonus::`RTTI Base Class Array'
PUBLIC	??_R1A@?0A@EA@DamageBonus@SC2APIProtocol@@8	; SC2APIProtocol::DamageBonus::`RTTI Base Class Descriptor at (0,-1,0,64)'
PUBLIC	??_R4EffectData@SC2APIProtocol@@6B@		; SC2APIProtocol::EffectData::`RTTI Complete Object Locator'
PUBLIC	??_R3EffectData@SC2APIProtocol@@8		; SC2APIProtocol::EffectData::`RTTI Class Hierarchy Descriptor'
PUBLIC	??_R2EffectData@SC2APIProtocol@@8		; SC2APIProtocol::EffectData::`RTTI Base Class Array'
PUBLIC	??_R1A@?0A@EA@EffectData@SC2APIProtocol@@8	; SC2APIProtocol::EffectData::`RTTI Base Class Descriptor at (0,-1,0,64)'
PUBLIC	??_R4UpgradeData@SC2APIProtocol@@6B@		; SC2APIProtocol::UpgradeData::`RTTI Complete Object Locator'
PUBLIC	??_R3UpgradeData@SC2APIProtocol@@8		; SC2APIProtocol::UpgradeData::`RTTI Class Hierarchy Descriptor'
PUBLIC	??_R2UpgradeData@SC2APIProtocol@@8		; SC2APIProtocol::UpgradeData::`RTTI Base Class Array'
PUBLIC	??_R1A@?0A@EA@UpgradeData@SC2APIProtocol@@8	; SC2APIProtocol::UpgradeData::`RTTI Base Class Descriptor at (0,-1,0,64)'
PUBLIC	?OnDemandRegisterArenaDtor@MessageLite@protobuf@google@@UEAAXPEAVArena@23@@Z ; google::protobuf::MessageLite::OnDemandRegisterArenaDtor
EXTRN	??_EAbilityData@SC2APIProtocol@@UEAAPEAXI@Z:PROC ; SC2APIProtocol::AbilityData::`vector deleting destructor'
EXTRN	??_EDamageBonus@SC2APIProtocol@@UEAAPEAXI@Z:PROC ; SC2APIProtocol::DamageBonus::`vector deleting destructor'
EXTRN	??_EUpgradeData@SC2APIProtocol@@UEAAPEAXI@Z:PROC ; SC2APIProtocol::UpgradeData::`vector deleting destructor'
EXTRN	??_EBuffData@SC2APIProtocol@@UEAAPEAXI@Z:PROC	; SC2APIProtocol::BuffData::`vector deleting destructor'
EXTRN	?MergeFrom@Message@protobuf@google@@UEAAXAEBV123@@Z:PROC ; google::protobuf::Message::MergeFrom
EXTRN	?InitializationErrorString@Message@protobuf@google@@UEBA?AV?$basic_string@DU?$char_traits@D@std@@V?$allocator@D@2@@std@@XZ:PROC ; google::protobuf::Message::InitializationErrorString
EXTRN	?SpaceUsedLong@Message@protobuf@google@@UEBA_KXZ:PROC ; google::protobuf::Message::SpaceUsedLong
EXTRN	?GetTypeName@Message@protobuf@google@@UEBA?AV?$basic_string@DU?$char_traits@D@std@@V?$allocator@D@2@@std@@XZ:PROC ; google::protobuf::Message::GetTypeName
EXTRN	?CheckTypeAndMergeFrom@Message@protobuf@google@@UEAAXAEBVMessageLite@23@@Z:PROC ; google::protobuf::Message::CheckTypeAndMergeFrom
EXTRN	?CopyWithSourceCheck@Message@protobuf@google@@KAXAEAV123@AEBV123@@Z:PROC ; google::protobuf::Message::CopyWithSourceCheck
EXTRN	??_EEffectData@SC2APIProtocol@@UEAAPEAXI@Z:PROC	; SC2APIProtocol::EffectData::`vector deleting destructor'
EXTRN	??_7type_info@@6B@:BYTE				; type_info::`vftable'
EXTRN	?fixed_address_empty_string@internal@protobuf@google@@3V?$ExplicitlyConstructed@V?$basic_string@DU?$char_traits@D@std@@V?$allocator@D@2@@std@@$07@123@A:BYTE ; google::protobuf::internal::fixed_address_empty_string
EXTRN	?descriptor_table_s2clientprotocol_2fcommon_2eproto@@3UDescriptorTable@internal@protobuf@google@@B:BYTE ; descriptor_table_s2clientprotocol_2fcommon_2eproto
_BSS	SEGMENT
?file_level_metadata_s2clientprotocol_2fdata_2eproto@@3PAUMetadata@protobuf@google@@A DB 070H DUP (?) ; file_level_metadata_s2clientprotocol_2fdata_2eproto
?file_level_enum_descriptors_s2clientprotocol_2fdata_2eproto@@3PAPEBVEnumDescriptor@protobuf@google@@A DQ 03H DUP (?) ; file_level_enum_descriptors_s2clientprotocol_2fdata_2eproto
?descriptor_table_s2clientprotocol_2fdata_2eproto_once@@3Uonce_flag@std@@A DQ 01H DUP (?) ; descriptor_table_s2clientprotocol_2fdata_2eproto_once
_BSS	ENDS
;	COMDAT ??_R1A@?0A@EA@UpgradeData@SC2APIProtocol@@8
rdata$r	SEGMENT
??_R1A@?0A@EA@UpgradeData@SC2APIProtocol@@8 DD imagerel ??_R0?AVUpgradeData@SC2APIProtocol@@@8 ; SC2APIProtocol::UpgradeData::`RTTI Base Class Descriptor at (0,-1,0,64)'
	DD	02H
	DD	00H
	DD	0ffffffffH
	DD	00H
	DD	040H
	DD	imagerel ??_R3UpgradeData@SC2APIProtocol@@8
rdata$r	ENDS
;	COMDAT ??_R2UpgradeData@SC2APIProtocol@@8
rdata$r	SEGMENT
??_R2UpgradeData@SC2APIProtocol@@8 DD imagerel ??_R1A@?0A@EA@UpgradeData@SC2APIProtocol@@8 ; SC2APIProtocol::UpgradeData::`RTTI Base Class Array'
	DD	imagerel ??_R1A@?0A@EA@Message@protobuf@google@@8
	DD	imagerel ??_R1A@?0A@EA@MessageLite@protobuf@google@@8
	ORG $+3
rdata$r	ENDS
;	COMDAT ??_R3UpgradeData@SC2APIProtocol@@8
rdata$r	SEGMENT
??_R3UpgradeData@SC2APIProtocol@@8 DD 00H		; SC2APIProtocol::UpgradeData::`RTTI Class Hierarchy Descriptor'
	DD	00H
	DD	03H
	DD	imagerel ??_R2UpgradeData@SC2APIProtocol@@8
rdata$r	ENDS
;	COMDAT ??_R4UpgradeData@SC2APIProtocol@@6B@
rdata$r	SEGMENT
??_R4UpgradeData@SC2APIProtocol@@6B@ DD 01H		; SC2APIProtocol::UpgradeData::`RTTI Complete Object Locator'
	DD	00H
	DD	00H
	DD	imagerel ??_R0?AVUpgradeData@SC2APIProtocol@@@8
	DD	imagerel ??_R3UpgradeData@SC2APIProtocol@@8
	DD	imagerel ??_R4UpgradeData@SC2APIProtocol@@6B@
rdata$r	ENDS
;	COMDAT ??_R1A@?0A@EA@EffectData@SC2APIProtocol@@8
rdata$r	SEGMENT
??_R1A@?0A@EA@EffectData@SC2APIProtocol@@8 DD imagerel ??_R0?AVEffectData@SC2APIProtocol@@@8 ; SC2APIProtocol::EffectData::`RTTI Base Class Descriptor at (0,-1,0,64)'
	DD	02H
	DD	00H
	DD	0ffffffffH
	DD	00H
	DD	040H
	DD	imagerel ??_R3EffectData@SC2APIProtocol@@8
rdata$r	ENDS
;	COMDAT ??_R2EffectData@SC2APIProtocol@@8
rdata$r	SEGMENT
??_R2EffectData@SC2APIProtocol@@8 DD imagerel ??_R1A@?0A@EA@EffectData@SC2APIProtocol@@8 ; SC2APIProtocol::EffectData::`RTTI Base Class Array'
	DD	imagerel ??_R1A@?0A@EA@Message@protobuf@google@@8
	DD	imagerel ??_R1A@?0A@EA@MessageLite@protobuf@google@@8
	ORG $+3
rdata$r	ENDS
;	COMDAT ??_R3EffectData@SC2APIProtocol@@8
rdata$r	SEGMENT
??_R3EffectData@SC2APIProtocol@@8 DD 00H		; SC2APIProtocol::EffectData::`RTTI Class Hierarchy Descriptor'
	DD	00H
	DD	03H
	DD	imagerel ??_R2EffectData@SC2APIProtocol@@8
rdata$r	ENDS
;	COMDAT ??_R4EffectData@SC2APIProtocol@@6B@
rdata$r	SEGMENT
??_R4EffectData@SC2APIProtocol@@6B@ DD 01H		; SC2APIProtocol::EffectData::`RTTI Complete Object Locator'
	DD	00H
	DD	00H
	DD	imagerel ??_R0?AVEffectData@SC2APIProtocol@@@8
	DD	imagerel ??_R3EffectData@SC2APIProtocol@@8
	DD	imagerel ??_R4EffectData@SC2APIProtocol@@6B@
rdata$r	ENDS
;	COMDAT ??_R1A@?0A@EA@DamageBonus@SC2APIProtocol@@8
rdata$r	SEGMENT
??_R1A@?0A@EA@DamageBonus@SC2APIProtocol@@8 DD imagerel ??_R0?AVDamageBonus@SC2APIProtocol@@@8 ; SC2APIProtocol::DamageBonus::`RTTI Base Class Descriptor at (0,-1,0,64)'
	DD	02H
	DD	00H
	DD	0ffffffffH
	DD	00H
	DD	040H
	DD	imagerel ??_R3DamageBonus@SC2APIProtocol@@8
rdata$r	ENDS
;	COMDAT ??_R2DamageBonus@SC2APIProtocol@@8
rdata$r	SEGMENT
??_R2DamageBonus@SC2APIProtocol@@8 DD imagerel ??_R1A@?0A@EA@DamageBonus@SC2APIProtocol@@8 ; SC2APIProtocol::DamageBonus::`RTTI Base Class Array'
	DD	imagerel ??_R1A@?0A@EA@Message@protobuf@google@@8
	DD	imagerel ??_R1A@?0A@EA@MessageLite@protobuf@google@@8
	ORG $+3
rdata$r	ENDS
;	COMDAT ??_R3DamageBonus@SC2APIProtocol@@8
rdata$r	SEGMENT
??_R3DamageBonus@SC2APIProtocol@@8 DD 00H		; SC2APIProtocol::DamageBonus::`RTTI Class Hierarchy Descriptor'
	DD	00H
	DD	03H
	DD	imagerel ??_R2DamageBonus@SC2APIProtocol@@8
rdata$r	ENDS
;	COMDAT ??_R4DamageBonus@SC2APIProtocol@@6B@
rdata$r	SEGMENT
??_R4DamageBonus@SC2APIProtocol@@6B@ DD 01H		; SC2APIProtocol::DamageBonus::`RTTI Complete Object Locator'
	DD	00H
	DD	00H
	DD	imagerel ??_R0?AVDamageBonus@SC2APIProtocol@@@8
	DD	imagerel ??_R3DamageBonus@SC2APIProtocol@@8
	DD	imagerel ??_R4DamageBonus@SC2APIProtocol@@6B@
rdata$r	ENDS
;	COMDAT ??_R1A@?0A@EA@BuffData@SC2APIProtocol@@8
rdata$r	SEGMENT
??_R1A@?0A@EA@BuffData@SC2APIProtocol@@8 DD imagerel ??_R0?AVBuffData@SC2APIProtocol@@@8 ; SC2APIProtocol::BuffData::`RTTI Base Class Descriptor at (0,-1,0,64)'
	DD	02H
	DD	00H
	DD	0ffffffffH
	DD	00H
	DD	040H
	DD	imagerel ??_R3BuffData@SC2APIProtocol@@8
rdata$r	ENDS
;	COMDAT ??_R2BuffData@SC2APIProtocol@@8
rdata$r	SEGMENT
??_R2BuffData@SC2APIProtocol@@8 DD imagerel ??_R1A@?0A@EA@BuffData@SC2APIProtocol@@8 ; SC2APIProtocol::BuffData::`RTTI Base Class Array'
	DD	imagerel ??_R1A@?0A@EA@Message@protobuf@google@@8
	DD	imagerel ??_R1A@?0A@EA@MessageLite@protobuf@google@@8
	ORG $+3
rdata$r	ENDS
;	COMDAT ??_R3BuffData@SC2APIProtocol@@8
rdata$r	SEGMENT
??_R3BuffData@SC2APIProtocol@@8 DD 00H			; SC2APIProtocol::BuffData::`RTTI Class Hierarchy Descriptor'
	DD	00H
	DD	03H
	DD	imagerel ??_R2BuffData@SC2APIProtocol@@8
rdata$r	ENDS
;	COMDAT ??_R4BuffData@SC2APIProtocol@@6B@
rdata$r	SEGMENT
??_R4BuffData@SC2APIProtocol@@6B@ DD 01H		; SC2APIProtocol::BuffData::`RTTI Complete Object Locator'
	DD	00H
	DD	00H
	DD	imagerel ??_R0?AVBuffData@SC2APIProtocol@@@8
	DD	imagerel ??_R3BuffData@SC2APIProtocol@@8
	DD	imagerel ??_R4BuffData@SC2APIProtocol@@6B@
rdata$r	ENDS
;	COMDAT ??_R1A@?0A@EA@AbilityData@SC2APIProtocol@@8
rdata$r	SEGMENT
??_R1A@?0A@EA@AbilityData@SC2APIProtocol@@8 DD imagerel ??_R0?AVAbilityData@SC2APIProtocol@@@8 ; SC2APIProtocol::AbilityData::`RTTI Base Class Descriptor at (0,-1,0,64)'
	DD	02H
	DD	00H
	DD	0ffffffffH
	DD	00H
	DD	040H
	DD	imagerel ??_R3AbilityData@SC2APIProtocol@@8
rdata$r	ENDS
;	COMDAT ??_R2AbilityData@SC2APIProtocol@@8
rdata$r	SEGMENT
??_R2AbilityData@SC2APIProtocol@@8 DD imagerel ??_R1A@?0A@EA@AbilityData@SC2APIProtocol@@8 ; SC2APIProtocol::AbilityData::`RTTI Base Class Array'
	DD	imagerel ??_R1A@?0A@EA@Message@protobuf@google@@8
	DD	imagerel ??_R1A@?0A@EA@MessageLite@protobuf@google@@8
	ORG $+3
rdata$r	ENDS
;	COMDAT ??_R3AbilityData@SC2APIProtocol@@8
rdata$r	SEGMENT
??_R3AbilityData@SC2APIProtocol@@8 DD 00H		; SC2APIProtocol::AbilityData::`RTTI Class Hierarchy Descriptor'
	DD	00H
	DD	03H
	DD	imagerel ??_R2AbilityData@SC2APIProtocol@@8
rdata$r	ENDS
;	COMDAT ??_R4AbilityData@SC2APIProtocol@@6B@
rdata$r	SEGMENT
??_R4AbilityData@SC2APIProtocol@@6B@ DD 01H		; SC2APIProtocol::AbilityData::`RTTI Complete Object Locator'
	DD	00H
	DD	00H
	DD	imagerel ??_R0?AVAbilityData@SC2APIProtocol@@@8
	DD	imagerel ??_R3AbilityData@SC2APIProtocol@@8
	DD	imagerel ??_R4AbilityData@SC2APIProtocol@@6B@
rdata$r	ENDS
;	COMDAT ??_R2MessageLite@protobuf@google@@8
rdata$r	SEGMENT
??_R2MessageLite@protobuf@google@@8 DD imagerel ??_R1A@?0A@EA@MessageLite@protobuf@google@@8 ; google::protobuf::MessageLite::`RTTI Base Class Array'
	ORG $+3
rdata$r	ENDS
;	COMDAT ??_R3MessageLite@protobuf@google@@8
rdata$r	SEGMENT
??_R3MessageLite@protobuf@google@@8 DD 00H		; google::protobuf::MessageLite::`RTTI Class Hierarchy Descriptor'
	DD	00H
	DD	01H
	DD	imagerel ??_R2MessageLite@protobuf@google@@8
rdata$r	ENDS
;	COMDAT ??_R0?AVMessageLite@protobuf@google@@@8
data$rs	SEGMENT
??_R0?AVMessageLite@protobuf@google@@@8 DQ FLAT:??_7type_info@@6B@ ; google::protobuf::MessageLite `RTTI Type Descriptor'
	DQ	0000000000000000H
	DB	'.?AVMessageLite@protobuf@google@@', 00H
data$rs	ENDS
;	COMDAT ??_R1A@?0A@EA@MessageLite@protobuf@google@@8
rdata$r	SEGMENT
??_R1A@?0A@EA@MessageLite@protobuf@google@@8 DD imagerel ??_R0?AVMessageLite@protobuf@google@@@8 ; google::protobuf::MessageLite::`RTTI Base Class Descriptor at (0,-1,0,64)'
	DD	00H
	DD	00H
	DD	0ffffffffH
	DD	00H
	DD	040H
	DD	imagerel ??_R3MessageLite@protobuf@google@@8
rdata$r	ENDS
;	COMDAT ??_R1A@?0A@EA@Message@protobuf@google@@8
rdata$r	SEGMENT
??_R1A@?0A@EA@Message@protobuf@google@@8 DD imagerel ??_R0?AVMessage@protobuf@google@@@8 ; google::protobuf::Message::`RTTI Base Class Descriptor at (0,-1,0,64)'
	DD	01H
	DD	00H
	DD	0ffffffffH
	DD	00H
	DD	040H
	DD	imagerel ??_R3Message@protobuf@google@@8
rdata$r	ENDS
;	COMDAT ??_R2Message@protobuf@google@@8
rdata$r	SEGMENT
??_R2Message@protobuf@google@@8 DD imagerel ??_R1A@?0A@EA@Message@protobuf@google@@8 ; google::protobuf::Message::`RTTI Base Class Array'
	DD	imagerel ??_R1A@?0A@EA@MessageLite@protobuf@google@@8
	ORG $+3
rdata$r	ENDS
;	COMDAT ??_R3Message@protobuf@google@@8
rdata$r	SEGMENT
??_R3Message@protobuf@google@@8 DD 00H			; google::protobuf::Message::`RTTI Class Hierarchy Descriptor'
	DD	00H
	DD	02H
	DD	imagerel ??_R2Message@protobuf@google@@8
rdata$r	ENDS
;	COMDAT ??_R0?AVMessage@protobuf@google@@@8
data$rs	SEGMENT
??_R0?AVMessage@protobuf@google@@@8 DQ FLAT:??_7type_info@@6B@ ; google::protobuf::Message `RTTI Type Descriptor'
	DQ	0000000000000000H
	DB	'.?AVMessage@protobuf@google@@', 00H
data$rs	ENDS
;	COMDAT ??_R0?AVEffectData@SC2APIProtocol@@@8
data$r	SEGMENT
??_R0?AVEffectData@SC2APIProtocol@@@8 DQ FLAT:??_7type_info@@6B@ ; SC2APIProtocol::EffectData `RTTI Type Descriptor'
	DQ	0000000000000000H
	DB	'.?AVEffectData@SC2APIProtocol@@', 00H
data$r	ENDS
;	COMDAT ??_R0?AVBuffData@SC2APIProtocol@@@8
data$r	SEGMENT
??_R0?AVBuffData@SC2APIProtocol@@@8 DQ FLAT:??_7type_info@@6B@ ; SC2APIProtocol::BuffData `RTTI Type Descriptor'
	DQ	0000000000000000H
	DB	'.?AVBuffData@SC2APIProtocol@@', 00H
data$r	ENDS
;	COMDAT ??_R0?AVUpgradeData@SC2APIProtocol@@@8
data$r	SEGMENT
??_R0?AVUpgradeData@SC2APIProtocol@@@8 DQ FLAT:??_7type_info@@6B@ ; SC2APIProtocol::UpgradeData `RTTI Type Descriptor'
	DQ	0000000000000000H
	DB	'.?AVUpgradeData@SC2APIProtocol@@', 00H
data$r	ENDS
;	COMDAT ??_R0?AVDamageBonus@SC2APIProtocol@@@8
data$r	SEGMENT
??_R0?AVDamageBonus@SC2APIProtocol@@@8 DQ FLAT:??_7type_info@@6B@ ; SC2APIProtocol::DamageBonus `RTTI Type Descriptor'
	DQ	0000000000000000H
	DB	'.?AVDamageBonus@SC2APIProtocol@@', 00H
data$r	ENDS
;	COMDAT ??_R0?AVAbilityData@SC2APIProtocol@@@8
data$r	SEGMENT
??_R0?AVAbilityData@SC2APIProtocol@@@8 DQ FLAT:??_7type_info@@6B@ ; SC2APIProtocol::AbilityData `RTTI Type Descriptor'
	DQ	0000000000000000H
	DB	'.?AVAbilityData@SC2APIProtocol@@', 00H
data$r	ENDS
;	COMDAT ??_7EffectData@SC2APIProtocol@@6B@
CONST	SEGMENT
??_7EffectData@SC2APIProtocol@@6B@ DQ FLAT:??_R4EffectData@SC2APIProtocol@@6B@ ; SC2APIProtocol::EffectData::`vftable'
	DQ	FLAT:??_EEffectData@SC2APIProtocol@@UEAAPEAXI@Z
	DQ	FLAT:?GetTypeName@Message@protobuf@google@@UEBA?AV?$basic_string@DU?$char_traits@D@std@@V?$allocator@D@2@@std@@XZ
	DQ	FLAT:?New@EffectData@SC2APIProtocol@@UEBAPEAV12@PEAVArena@protobuf@google@@@Z
	DQ	FLAT:?Clear@EffectData@SC2APIProtocol@@UEAAXXZ
	DQ	FLAT:?IsInitialized@EffectData@SC2APIProtocol@@UEBA_NXZ
	DQ	FLAT:?InitializationErrorString@Message@protobuf@google@@UEBA?AV?$basic_string@DU?$char_traits@D@std@@V?$allocator@D@2@@std@@XZ
	DQ	FLAT:?CheckTypeAndMergeFrom@Message@protobuf@google@@UEAAXAEBVMessageLite@23@@Z
	DQ	FLAT:?ByteSizeLong@EffectData@SC2APIProtocol@@UEBA_KXZ
	DQ	FLAT:?GetCachedSize@EffectData@SC2APIProtocol@@UEBAHXZ
	DQ	FLAT:?_InternalParse@EffectData@SC2APIProtocol@@UEAAPEBDPEBDPEAVParseContext@internal@protobuf@google@@@Z
	DQ	FLAT:?OnDemandRegisterArenaDtor@MessageLite@protobuf@google@@UEAAXPEAVArena@23@@Z
	DQ	FLAT:?_InternalSerialize@EffectData@SC2APIProtocol@@UEBAPEAEPEAEPEAVEpsCopyOutputStream@io@protobuf@google@@@Z
	DQ	FLAT:?MergeFrom@Message@protobuf@google@@UEAAXAEBV123@@Z
	DQ	FLAT:?SpaceUsedLong@Message@protobuf@google@@UEBA_KXZ
	DQ	FLAT:?SetCachedSize@EffectData@SC2APIProtocol@@EEBAXH@Z
	DQ	FLAT:?GetMetadata@EffectData@SC2APIProtocol@@UEBA?AUMetadata@protobuf@google@@XZ
	DQ	FLAT:?GetClassData@EffectData@SC2APIProtocol@@UEBAPEBUClassData@Message@protobuf@google@@XZ
CONST	ENDS
;	COMDAT ??_7BuffData@SC2APIProtocol@@6B@
CONST	SEGMENT
??_7BuffData@SC2APIProtocol@@6B@ DQ FLAT:??_R4BuffData@SC2APIProtocol@@6B@ ; SC2APIProtocol::BuffData::`vftable'
	DQ	FLAT:??_EBuffData@SC2APIProtocol@@UEAAPEAXI@Z
	DQ	FLAT:?GetTypeName@Message@protobuf@google@@UEBA?AV?$basic_string@DU?$char_traits@D@std@@V?$allocator@D@2@@std@@XZ
	DQ	FLAT:?New@BuffData@SC2APIProtocol@@UEBAPEAV12@PEAVArena@protobuf@google@@@Z
	DQ	FLAT:?Clear@BuffData@SC2APIProtocol@@UEAAXXZ
	DQ	FLAT:?IsInitialized@BuffData@SC2APIProtocol@@UEBA_NXZ
	DQ	FLAT:?InitializationErrorString@Message@protobuf@google@@UEBA?AV?$basic_string@DU?$char_traits@D@std@@V?$allocator@D@2@@std@@XZ
	DQ	FLAT:?CheckTypeAndMergeFrom@Message@protobuf@google@@UEAAXAEBVMessageLite@23@@Z
	DQ	FLAT:?ByteSizeLong@BuffData@SC2APIProtocol@@UEBA_KXZ
	DQ	FLAT:?GetCachedSize@BuffData@SC2APIProtocol@@UEBAHXZ
	DQ	FLAT:?_InternalParse@BuffData@SC2APIProtocol@@UEAAPEBDPEBDPEAVParseContext@internal@protobuf@google@@@Z
	DQ	FLAT:?OnDemandRegisterArenaDtor@MessageLite@protobuf@google@@UEAAXPEAVArena@23@@Z
	DQ	FLAT:?_InternalSerialize@BuffData@SC2APIProtocol@@UEBAPEAEPEAEPEAVEpsCopyOutputStream@io@protobuf@google@@@Z
	DQ	FLAT:?MergeFrom@Message@protobuf@google@@UEAAXAEBV123@@Z
	DQ	FLAT:?SpaceUsedLong@Message@protobuf@google@@UEBA_KXZ
	DQ	FLAT:?SetCachedSize@BuffData@SC2APIProtocol@@EEBAXH@Z
	DQ	FLAT:?GetMetadata@BuffData@SC2APIProtocol@@UEBA?AUMetadata@protobuf@google@@XZ
	DQ	FLAT:?GetClassData@BuffData@SC2APIProtocol@@UEBAPEBUClassData@Message@protobuf@google@@XZ
CONST	ENDS
;	COMDAT ??_7UpgradeData@SC2APIProtocol@@6B@
CONST	SEGMENT
??_7UpgradeData@SC2APIProtocol@@6B@ DQ FLAT:??_R4UpgradeData@SC2APIProtocol@@6B@ ; SC2APIProtocol::UpgradeData::`vftable'
	DQ	FLAT:??_EUpgradeData@SC2APIProtocol@@UEAAPEAXI@Z
	DQ	FLAT:?GetTypeName@Message@protobuf@google@@UEBA?AV?$basic_string@DU?$char_traits@D@std@@V?$allocator@D@2@@std@@XZ
	DQ	FLAT:?New@UpgradeData@SC2APIProtocol@@UEBAPEAV12@PEAVArena@protobuf@google@@@Z
	DQ	FLAT:?Clear@UpgradeData@SC2APIProtocol@@UEAAXXZ
	DQ	FLAT:?IsInitialized@UpgradeData@SC2APIProtocol@@UEBA_NXZ
	DQ	FLAT:?InitializationErrorString@Message@protobuf@google@@UEBA?AV?$basic_string@DU?$char_traits@D@std@@V?$allocator@D@2@@std@@XZ
	DQ	FLAT:?CheckTypeAndMergeFrom@Message@protobuf@google@@UEAAXAEBVMessageLite@23@@Z
	DQ	FLAT:?ByteSizeLong@UpgradeData@SC2APIProtocol@@UEBA_KXZ
	DQ	FLAT:?GetCachedSize@UpgradeData@SC2APIProtocol@@UEBAHXZ
	DQ	FLAT:?_InternalParse@UpgradeData@SC2APIProtocol@@UEAAPEBDPEBDPEAVParseContext@internal@protobuf@google@@@Z
	DQ	FLAT:?OnDemandRegisterArenaDtor@MessageLite@protobuf@google@@UEAAXPEAVArena@23@@Z
	DQ	FLAT:?_InternalSerialize@UpgradeData@SC2APIProtocol@@UEBAPEAEPEAEPEAVEpsCopyOutputStream@io@protobuf@google@@@Z
	DQ	FLAT:?MergeFrom@Message@protobuf@google@@UEAAXAEBV123@@Z
	DQ	FLAT:?SpaceUsedLong@Message@protobuf@google@@UEBA_KXZ
	DQ	FLAT:?SetCachedSize@UpgradeData@SC2APIProtocol@@EEBAXH@Z
	DQ	FLAT:?GetMetadata@UpgradeData@SC2APIProtocol@@UEBA?AUMetadata@protobuf@google@@XZ
	DQ	FLAT:?GetClassData@UpgradeData@SC2APIProtocol@@UEBAPEBUClassData@Message@protobuf@google@@XZ
CONST	ENDS
;	COMDAT ??_7DamageBonus@SC2APIProtocol@@6B@
CONST	SEGMENT
??_7DamageBonus@SC2APIProtocol@@6B@ DQ FLAT:??_R4DamageBonus@SC2APIProtocol@@6B@ ; SC2APIProtocol::DamageBonus::`vftable'
	DQ	FLAT:??_EDamageBonus@SC2APIProtocol@@UEAAPEAXI@Z
	DQ	FLAT:?GetTypeName@Message@protobuf@google@@UEBA?AV?$basic_string@DU?$char_traits@D@std@@V?$allocator@D@2@@std@@XZ
	DQ	FLAT:?New@DamageBonus@SC2APIProtocol@@UEBAPEAV12@PEAVArena@protobuf@google@@@Z
	DQ	FLAT:?Clear@DamageBonus@SC2APIProtocol@@UEAAXXZ
	DQ	FLAT:?IsInitialized@DamageBonus@SC2APIProtocol@@UEBA_NXZ
	DQ	FLAT:?InitializationErrorString@Message@protobuf@google@@UEBA?AV?$basic_string@DU?$char_traits@D@std@@V?$allocator@D@2@@std@@XZ
	DQ	FLAT:?CheckTypeAndMergeFrom@Message@protobuf@google@@UEAAXAEBVMessageLite@23@@Z
	DQ	FLAT:?ByteSizeLong@DamageBonus@SC2APIProtocol@@UEBA_KXZ
	DQ	FLAT:?GetCachedSize@DamageBonus@SC2APIProtocol@@UEBAHXZ
	DQ	FLAT:?_InternalParse@DamageBonus@SC2APIProtocol@@UEAAPEBDPEBDPEAVParseContext@internal@protobuf@google@@@Z
	DQ	FLAT:?OnDemandRegisterArenaDtor@MessageLite@protobuf@google@@UEAAXPEAVArena@23@@Z
	DQ	FLAT:?_InternalSerialize@DamageBonus@SC2APIProtocol@@UEBAPEAEPEAEPEAVEpsCopyOutputStream@io@protobuf@google@@@Z
	DQ	FLAT:?MergeFrom@Message@protobuf@google@@UEAAXAEBV123@@Z
	DQ	FLAT:?SpaceUsedLong@Message@protobuf@google@@UEBA_KXZ
	DQ	FLAT:?SetCachedSize@DamageBonus@SC2APIProtocol@@EEBAXH@Z
	DQ	FLAT:?GetMetadata@DamageBonus@SC2APIProtocol@@UEBA?AUMetadata@protobuf@google@@XZ
	DQ	FLAT:?GetClassData@DamageBonus@SC2APIProtocol@@UEBAPEBUClassData@Message@protobuf@google@@XZ
CONST	ENDS
;	COMDAT ??_7AbilityData@SC2APIProtocol@@6B@
CONST	SEGMENT
??_7AbilityData@SC2APIProtocol@@6B@ DQ FLAT:??_R4AbilityData@SC2APIProtocol@@6B@ ; SC2APIProtocol::AbilityData::`vftable'
	DQ	FLAT:??_EAbilityData@SC2APIProtocol@@UEAAPEAXI@Z
	DQ	FLAT:?GetTypeName@Message@protobuf@google@@UEBA?AV?$basic_string@DU?$char_traits@D@std@@V?$allocator@D@2@@std@@XZ
	DQ	FLAT:?New@AbilityData@SC2APIProtocol@@UEBAPEAV12@PEAVArena@protobuf@google@@@Z
	DQ	FLAT:?Clear@AbilityData@SC2APIProtocol@@UEAAXXZ
	DQ	FLAT:?IsInitialized@AbilityData@SC2APIProtocol@@UEBA_NXZ
	DQ	FLAT:?InitializationErrorString@Message@protobuf@google@@UEBA?AV?$basic_string@DU?$char_traits@D@std@@V?$allocator@D@2@@std@@XZ
	DQ	FLAT:?CheckTypeAndMergeFrom@Message@protobuf@google@@UEAAXAEBVMessageLite@23@@Z
	DQ	FLAT:?ByteSizeLong@AbilityData@SC2APIProtocol@@UEBA_KXZ
	DQ	FLAT:?GetCachedSize@AbilityData@SC2APIProtocol@@UEBAHXZ
	DQ	FLAT:?_InternalParse@AbilityData@SC2APIProtocol@@UEAAPEBDPEBDPEAVParseContext@internal@protobuf@google@@@Z
	DQ	FLAT:?OnDemandRegisterArenaDtor@MessageLite@protobuf@google@@UEAAXPEAVArena@23@@Z
	DQ	FLAT:?_InternalSerialize@AbilityData@SC2APIProtocol@@UEBAPEAEPEAEPEAVEpsCopyOutputStream@io@protobuf@google@@@Z
	DQ	FLAT:?MergeFrom@Message@protobuf@google@@UEAAXAEBV123@@Z
	DQ	FLAT:?SpaceUsedLong@Message@protobuf@google@@UEBA_KXZ
	DQ	FLAT:?SetCachedSize@AbilityData@SC2APIProtocol@@EEBAXH@Z
	DQ	FLAT:?GetMetadata@AbilityData@SC2APIProtocol@@UEBA?AUMetadata@protobuf@google@@XZ
	DQ	FLAT:?GetClassData@AbilityData@SC2APIProtocol@@UEBAPEBUClassData@Message@protobuf@google@@XZ
CONST	ENDS
_DATA	SEGMENT
?descriptor_table_s2clientprotocol_2fdata_2eproto@@3UDescriptorTable@internal@protobuf@google@@B DB 00H ; descriptor_table_s2clientprotocol_2fdata_2eproto
	DB	00H
	ORG $+2
	DD	06fcH
	DQ	FLAT:?descriptor_table_protodef_s2clientprotocol_2fdata_2eproto@@3QBDB
	DQ	FLAT:$SG129376
	DQ	FLAT:?descriptor_table_s2clientprotocol_2fdata_2eproto_once@@3Uonce_flag@std@@A
	DQ	FLAT:?descriptor_table_s2clientprotocol_2fdata_2eproto_deps@@3QBQEBUDescriptorTable@internal@protobuf@google@@B
	DD	01H
	DD	07H
	DQ	FLAT:?schemas@@3QBUMigrationSchema@internal@protobuf@google@@B
	DQ	FLAT:?file_default_instances@@3QBQEBVMessage@protobuf@google@@B
	DQ	FLAT:?offsets@TableStruct_s2clientprotocol_2fdata_2eproto@@2QBIB
	DQ	FLAT:?file_level_metadata_s2clientprotocol_2fdata_2eproto@@3PAUMetadata@protobuf@google@@A
	DQ	FLAT:?file_level_enum_descriptors_s2clientprotocol_2fdata_2eproto@@3PAPEBVEnumDescriptor@protobuf@google@@A
	DQ	0000000000000000H
_DATA	ENDS
CONST	SEGMENT
$SG131196 DB	'SC2APIProtocol.UpgradeData.name', 00H
$SG131239 DB	'SC2APIProtocol.UpgradeData.name', 00H
$SG131274 DB	'vendor\s2clientprotocol\include\s2clientprotocol\data.pb'
	DB	'.cc', 00H
$SG144958 DB	'%s', 00H
	ORG $+1
$SG131275 DB	'CHECK failed: (&from) != (_this): ', 00H
	ORG $+1
$SG144961 DB	00H, 00H
	ORG $+2
$SG131420 DB	'SC2APIProtocol.BuffData.name', 00H
	ORG $+3
$SG131441 DB	'SC2APIProtocol.BuffData.name', 00H
	ORG $+3
$SG131468 DB	'vendor\s2clientprotocol\include\s2clientprotocol\data.pb'
	DB	'.cc', 00H
	ORG $+4
$SG131469 DB	'CHECK failed: (&from) != (_this): ', 00H
	ORG $+5
$SG131614 DB	'SC2APIProtocol.EffectData.name', 00H
	ORG $+1
$SG131621 DB	'SC2APIProtocol.EffectData.friendly_name', 00H
$SG131647 DB	'SC2APIProtocol.EffectData.name', 00H
	ORG $+1
$SG131649 DB	'SC2APIProtocol.EffectData.friendly_name', 00H
$SG131679 DB	'vendor\s2clientprotocol\include\s2clientprotocol\data.pb'
	DB	'.cc', 00H
	ORG $+4
$SG131680 DB	'CHECK failed: (&from) != (_this): ', 00H
	ORG $+5
?_class_data_@AbilityData@SC2APIProtocol@@2UClassData@Message@protobuf@google@@B DQ FLAT:?CopyWithSourceCheck@Message@protobuf@google@@KAXAEAV123@AEBV123@@Z ; SC2APIProtocol::AbilityData::_class_data_
	DQ	FLAT:?MergeImpl@AbilityData@SC2APIProtocol@@CAXAEAVMessage@protobuf@google@@AEBV345@@Z
$SG143430 DB	'CHECK failed: overrun >= 0 && overrun <= kSlopBytes: ', 00H
	ORG $+2
?offsets@TableStruct_s2clientprotocol_2fdata_2eproto@@2QBIB DD 010H ; TableStruct_s2clientprotocol_2fdata_2eproto::offsets
	DD	08H
	DD	0ffffffffH
	DD	0ffffffffH
	DD	0ffffffffH
	DD	0ffffffffH
	DD	038H
	DD	018H
	DD	03cH
	DD	020H
	DD	028H
	DD	030H
	DD	040H
	DD	044H
	DD	054H
	DD	045H
	DD	046H
	DD	047H
	DD	048H
	DD	04cH
	DD	050H
	DD	04H
	DD	00H
	DD	05H
	DD	01H
	DD	02H
	DD	03H
	DD	06H
	DD	07H
	DD	0eH
	DD	08H
	DD	09H
	DD	0aH
	DD	0bH
	DD	0cH
	DD	0dH
	DD	010H
	DD	08H
	DD	0ffffffffH
	DD	0ffffffffH
	DD	0ffffffffH
	DD	0ffffffffH
	DD	01cH
	DD	018H
	DD	01H
	DD	00H
	DD	010H
	DD	08H
	DD	0ffffffffH
	DD	0ffffffffH
	DD	0ffffffffH
	DD	0ffffffffH
	DD	040H
	DD	030H
	DD	018H
	DD	034H
	DD	038H
	DD	03cH
	DD	04H
	DD	00H
	DD	0ffffffffH
	DD	01H
	DD	02H
	DD	03H
	DD	010H
	DD	08H
	DD	0ffffffffH
	DD	0ffffffffH
	DD	0ffffffffH
	DD	0ffffffffH
	DD	058H
	DD	050H
	DD	07cH
	DD	05cH
	DD	068H
	DD	06cH
	DD	070H
	DD	084H
	DD	074H
	DD	078H
	DD	080H
	DD	07dH
	DD	07eH
	DD	090H
	DD	040H
	DD	088H
	DD	08cH
	DD	07fH
	DD	018H
	DD	060H
	DD	064H
	DD	028H
	DD	01H
	DD	00H
	DD	0aH
	DD	02H
	DD	05H
	DD	06H
	DD	07H
	DD	0fH
	DD	08H
	DD	09H
	DD	0eH
	DD	0bH
	DD	0cH
	DD	012H
	DD	0ffffffffH
	DD	010H
	DD	011H
	DD	0dH
	DD	0ffffffffH
	DD	03H
	DD	04H
	DD	0ffffffffH
	DD	010H
	DD	08H
	DD	0ffffffffH
	DD	0ffffffffH
	DD	0ffffffffH
	DD	0ffffffffH
	DD	020H
	DD	018H
	DD	024H
	DD	028H
	DD	02cH
	DD	030H
	DD	01H
	DD	00H
	DD	02H
	DD	03H
	DD	04H
	DD	05H
	DD	010H
	DD	08H
	DD	0ffffffffH
	DD	0ffffffffH
	DD	0ffffffffH
	DD	0ffffffffH
	DD	020H
	DD	018H
	DD	01H
	DD	00H
	DD	010H
	DD	08H
	DD	0ffffffffH
	DD	0ffffffffH
	DD	0ffffffffH
	DD	0ffffffffH
	DD	028H
	DD	018H
	DD	020H
	DD	02cH
	DD	02H
	DD	00H
	DD	01H
	DD	03H
?_class_data_@DamageBonus@SC2APIProtocol@@2UClassData@Message@protobuf@google@@B DQ FLAT:?CopyWithSourceCheck@Message@protobuf@google@@KAXAEAV123@AEBV123@@Z ; SC2APIProtocol::DamageBonus::_class_data_
	DQ	FLAT:?MergeImpl@DamageBonus@SC2APIProtocol@@CAXAEAVMessage@protobuf@google@@AEBV345@@Z
?_class_data_@Weapon@SC2APIProtocol@@2UClassData@Message@protobuf@google@@B DQ FLAT:?CopyWithSourceCheck@Message@protobuf@google@@KAXAEAV123@AEBV123@@Z ; SC2APIProtocol::Weapon::_class_data_
	DQ	FLAT:?MergeImpl@Weapon@SC2APIProtocol@@CAXAEAVMessage@protobuf@google@@AEBV345@@Z
?_class_data_@UnitTypeData@SC2APIProtocol@@2UClassData@Message@protobuf@google@@B DQ FLAT:?CopyWithSourceCheck@Message@protobuf@google@@KAXAEAV123@AEBV123@@Z ; SC2APIProtocol::UnitTypeData::_class_data_
	DQ	FLAT:?MergeImpl@UnitTypeData@SC2APIProtocol@@CAXAEAVMessage@protobuf@google@@AEBV345@@Z
?_class_data_@UpgradeData@SC2APIProtocol@@2UClassData@Message@protobuf@google@@B DQ FLAT:?CopyWithSourceCheck@Message@protobuf@google@@KAXAEAV123@AEBV123@@Z ; SC2APIProtocol::UpgradeData::_class_data_
	DQ	FLAT:?MergeImpl@UpgradeData@SC2APIProtocol@@CAXAEAVMessage@protobuf@google@@AEBV345@@Z
?_class_data_@BuffData@SC2APIProtocol@@2UClassData@Message@protobuf@google@@B DQ FLAT:?CopyWithSourceCheck@Message@protobuf@google@@KAXAEAV123@AEBV123@@Z ; SC2APIProtocol::BuffData::_class_data_
	DQ	FLAT:?MergeImpl@BuffData@SC2APIProtocol@@CAXAEAVMessage@protobuf@google@@AEBV345@@Z
?_class_data_@EffectData@SC2APIProtocol@@2UClassData@Message@protobuf@google@@B DQ FLAT:?CopyWithSourceCheck@Message@protobuf@google@@KAXAEAV123@AEBV123@@Z ; SC2APIProtocol::EffectData::_class_data_
	DQ	FLAT:?MergeImpl@EffectData@SC2APIProtocol@@CAXAEAVMessage@protobuf@google@@AEBV345@@Z
$SG143429 DB	'W:\cpp\void\alistar\tests\vendor\protobuf\src\google/pro'
	DB	'tobuf/parse_context.h', 00H
	ORG $+2
$SG143432 DB	'W:\cpp\void\alistar\tests\vendor\protobuf\src\google/pro'
	DB	'tobuf/parse_context.h', 00H
	ORG $+2
$SG143433 DB	'CHECK failed: (size - chunk_size) <= (kSlopBytes): ', 00H
	ORG $+4
$SG143437 DB	'CHECK failed: (size) > (0): ', 00H
	ORG $+3
$SG144957 DB	'invalid argument', 00H
	ORG $+7
$SG143436 DB	'W:\cpp\void\alistar\tests\vendor\protobuf\src\google/pro'
	DB	'tobuf/parse_context.h', 00H
	ORG $+2
$SG144959 DB	'D:\Program Files\Microsoft Visual Studio\2022\Community\'
	DB	'VC\Tools\MSVC\14.34.31933\include\xmemory', 00H
	ORG $+6
$SG144962 DB	'"', 00H, 'i', 00H, 'n', 00H, 'v', 00H, 'a', 00H, 'l', 00H
	DB	'i', 00H, 'd', 00H, ' ', 00H, 'a', 00H, 'r', 00H, 'g', 00H, 'u'
	DB	00H, 'm', 00H, 'e', 00H, 'n', 00H, 't', 00H, '"', 00H, 00H, 00H
	ORG $+2
$SG144960 DB	'D', 00H, ':', 00H, '\', 00H, 'P', 00H, 'r', 00H, 'o', 00H
	DB	'g', 00H, 'r', 00H, 'a', 00H, 'm', 00H, ' ', 00H, 'F', 00H, 'i'
	DB	00H, 'l', 00H, 'e', 00H, 's', 00H, '\', 00H, 'M', 00H, 'i', 00H
	DB	'c', 00H, 'r', 00H, 'o', 00H, 's', 00H, 'o', 00H, 'f', 00H, 't'
	DB	00H, ' ', 00H, 'V', 00H, 'i', 00H, 's', 00H, 'u', 00H, 'a', 00H
	DB	'l', 00H, ' ', 00H, 'S', 00H, 't', 00H, 'u', 00H, 'd', 00H, 'i'
	DB	00H, 'o', 00H, '\', 00H, '2', 00H, '0', 00H, '2', 00H, '2', 00H
	DB	'\', 00H, 'C', 00H, 'o', 00H, 'm', 00H, 'm', 00H, 'u', 00H, 'n'
	DB	00H, 'i', 00H, 't', 00H, 'y', 00H, '\', 00H, 'V', 00H, 'C', 00H
	DB	'\', 00H, 'T', 00H, 'o', 00H, 'o', 00H, 'l', 00H, 's', 00H, '\'
	DB	00H, 'M', 00H, 'S', 00H, 'V', 00H, 'C', 00H, '\', 00H, '1', 00H
	DB	'4', 00H, '.', 00H, '3', 00H, '4', 00H, '.', 00H, '3', 00H, '1'
	DB	00H, '9', 00H, '3', 00H, '3', 00H, '\', 00H, 'i', 00H, 'n', 00H
	DB	'c', 00H, 'l', 00H, 'u', 00H, 'd', 00H, 'e', 00H, '\', 00H, 'x'
	DB	00H, 'm', 00H, 'e', 00H, 'm', 00H, 'o', 00H, 'r', 00H, 'y', 00H
	DB	00H, 00H
	ORG $+4
?file_default_instances@@3QBQEBVMessage@protobuf@google@@B DQ FLAT:?_AbilityData_default_instance_@SC2APIProtocol@@3UAbilityDataDefaultTypeInternal@1@A ; file_default_instances
	DQ	FLAT:?_DamageBonus_default_instance_@SC2APIProtocol@@3UDamageBonusDefaultTypeInternal@1@A
	DQ	FLAT:?_Weapon_default_instance_@SC2APIProtocol@@3UWeaponDefaultTypeInternal@1@A
	DQ	FLAT:?_UnitTypeData_default_instance_@SC2APIProtocol@@3UUnitTypeDataDefaultTypeInternal@1@A
	DQ	FLAT:?_UpgradeData_default_instance_@SC2APIProtocol@@3UUpgradeDataDefaultTypeInternal@1@A
	DQ	FLAT:?_BuffData_default_instance_@SC2APIProtocol@@3UBuffDataDefaultTypeInternal@1@A
	DQ	FLAT:?_EffectData_default_instance_@SC2APIProtocol@@3UEffectDataDefaultTypeInternal@1@A
?schemas@@3QBUMigrationSchema@internal@protobuf@google@@B DD 00H ; schemas
	DD	015H
	DD	0ffffffffH
	DD	058H
	DD	024H
	DD	02cH
	DD	0ffffffffH
	DD	020H
	DD	02eH
	DD	03aH
	DD	0ffffffffH
	DD	048H
	DD	040H
	DD	05cH
	DD	0ffffffffH
	DD	098H
	DD	072H
	DD	07eH
	DD	0ffffffffH
	DD	038H
	DD	084H
	DD	08cH
	DD	0ffffffffH
	DD	028H
	DD	08eH
	DD	098H
	DD	0ffffffffH
	DD	030H
?descriptor_table_protodef_s2clientprotocol_2fdata_2eproto@@3QBDB DB 0aH, 01bH
	DB	's2clientprotocol/data.proto', 012H, 0eH, 'SC2APIProtocol', 01aH
	DB	01dH, 's2clientprotocol/common.proto"', 0c4H, 03H, 0aH, 0bH, 'A'
	DB	'bilityData', 012H, 012H, 0aH, 0aH, 'ability_id', 018H, 01H, ' '
	DB	01H, '(', 0dH, 012H, 011H, 0aH, 09H, 'link_name', 018H, 02H, ' '
	DB	01H, '(', 09H, 012H, 012H, 0aH, 0aH, 'link_index', 018H, 03H, ' '
	DB	01H, '(', 0dH, 012H, 013H, 0aH, 0bH, 'button_name', 018H, 04H, ' '
	DB	01H, '(', 09H, 012H, 015H, 0aH, 0dH, 'friendly_name', 018H, 05H
	DB	' ', 01H, '(', 09H, 012H, 0eH, 0aH, 06H, 'hotkey', 018H, 06H, ' '
	DB	01H, '(', 09H, 012H, 01cH, 0aH, 014H, 'remaps_to_ability_id', 018H
	DB	07H, ' ', 01H, '(', 0dH, 012H, 011H, 0aH, 09H, 'available', 018H
	DB	08H, ' ', 01H, '(', 08H, 012H, '2', 0aH, 06H, 'target', 018H, 09H
	DB	' ', 01H, '(', 0eH, '2".SC2APIProtocol.AbilityData.Target', 012H
	DB	015H, 0aH, 0dH, 'allow_minimap', 018H, 0aH, ' ', 01H, '(', 08H
	DB	012H, 016H, 0aH, 0eH, 'allow_autocast', 018H, 0bH, ' ', 01H, '('
	DB	08H, 012H, 013H, 0aH, 0bH, 'is_building', 018H, 0cH, ' ', 01H, '('
	DB	08H, 012H, 018H, 0aH, 010H, 'footprint_radius', 018H, 0dH, ' ', 01H
	DB	'(', 02H, 012H, 01cH, 0aH, 014H, 'is_instant_placement', 018H, 0eH
	DB	' ', 01H, '(', 08H, 012H, 012H, 0aH, 0aH, 'cast_range', 018H, 0fH
	DB	' ', 01H, '(', 02H, '"I', 0aH, 06H, 'Target', 012H, 08H, 0aH, 04H
	DB	'None', 010H, 01H, 012H, 09H, 0aH, 05H, 'Point', 010H, 02H, 012H
	DB	08H, 0aH, 04H, 'Unit', 010H, 03H, 012H, 0fH, 0aH, 0bH, 'PointO'
	DB	'rUnit', 010H, 04H, 012H, 0fH, 0aH, 0bH, 'PointOrNone', 010H, 05H
	DB	'"J', 0aH, 0bH, 'DamageBonus', 012H, ',', 0aH, 09H, 'attribute'
	DB	018H, 01H, ' ', 01H, '(', 0eH, '2', 019H, '.SC2APIProtocol.Att'
	DB	'ribute', 012H, 0dH, 0aH, 05H, 'bonus', 018H, 02H, ' ', 01H, '('
	DB	02H, '"', 0d7H, 01H, 0aH, 06H, 'Weapon', 012H, '/', 0aH, 04H, 't'
	DB	'ype', 018H, 01H, ' ', 01H, '(', 0eH, '2!.SC2APIProtocol.Weapo'
	DB	'n.TargetType', 012H, 0eH, 0aH, 06H, 'damage', 018H, 02H, ' ', 01H
	DB	'(', 02H, 012H, '1', 0aH, 0cH, 'damage_bonus', 018H, 03H, ' ', 03H
	DB	'(', 0bH, '2', 01bH, '.SC2APIProtocol.DamageBonus', 012H, 0fH, 0aH
	DB	07H, 'attacks', 018H, 04H, ' ', 01H, '(', 0dH, 012H, 0dH, 0aH, 05H
	DB	'range', 018H, 05H, ' ', 01H, '(', 02H, 012H, 0dH, 0aH, 05H, 's'
	DB	'peed', 018H, 06H, ' ', 01H, '(', 02H, '"*', 0aH, 0aH, 'Target'
	DB	'Type', 012H, 0aH, 0aH, 06H, 'Ground', 010H, 01H, 012H, 07H, 0aH
	DB	03H, 'Air', 010H, 02H, 012H, 07H, 0aH, 03H, 'Any', 010H, 03H, '"'
	DB	095H, 04H, 0aH, 0cH, 'UnitTypeData', 012H, 0fH, 0aH, 07H, 'uni'
	DB	't_id', 018H, 01H, ' ', 01H, '(', 0dH, 012H, 0cH, 0aH, 04H, 'n'
	DB	'ame', 018H, 02H, ' ', 01H, '(', 09H, 012H, 011H, 0aH, 09H, 'a'
	DB	'vailable', 018H, 03H, ' ', 01H, '(', 08H, 012H, 012H, 0aH, 0aH
	DB	'cargo_size', 018H, 04H, ' ', 01H, '(', 0dH, 012H, 014H, 0aH, 0cH
	DB	'mineral_cost', 018H, 0cH, ' ', 01H, '(', 0dH, 012H, 014H, 0aH
	DB	0cH, 'vespene_cost', 018H, 0dH, ' ', 01H, '(', 0dH, 012H, 015H
	DB	0aH, 0dH, 'food_required', 018H, 0eH, ' ', 01H, '(', 02H, 012H
	DB	015H, 0aH, 0dH, 'food_provided', 018H, 012H, ' ', 01H, '(', 02H
	DB	012H, 012H, 0aH, 0aH, 'ability_id', 018H, 0fH, ' ', 01H, '(', 0dH
	DB	012H, '"', 0aH, 04H, 'race', 018H, 010H, ' ', 01H, '(', 0eH, '2'
	DB	014H, '.SC2APIProtocol.Race', 012H, 012H, 0aH, 0aH, 'build_tim'
	DB	'e', 018H, 011H, ' ', 01H, '(', 02H, 012H, 013H, 0aH, 0bH, 'ha'
	DB	's_vespene', 018H, 013H, ' ', 01H, '(', 08H, 012H, 014H, 0aH, 0cH
	DB	'has_minerals', 018H, 014H, ' ', 01H, '(', 08H, 012H, 013H, 0aH
	DB	0bH, 'sight_range', 018H, 019H, ' ', 01H, '(', 02H, 012H, 012H
	DB	0aH, 0aH, 'tech_alias', 018H, 015H, ' ', 03H, '(', 0dH, 012H, 012H
	DB	0aH, 0aH, 'unit_alias', 018H, 016H, ' ', 01H, '(', 0dH, 012H, 018H
	DB	0aH, 010H, 'tech_requirement', 018H, 017H, ' ', 01H, '(', 0dH, 012H
	DB	018H, 0aH, 010H, 'require_attached', 018H, 018H, ' ', 01H, '(', 08H
	DB	012H, '-', 0aH, 0aH, 'attributes', 018H, 08H, ' ', 03H, '(', 0eH
	DB	'2', 019H, '.SC2APIProtocol.Attribute', 012H, 016H, 0aH, 0eH, 'm'
	DB	'ovement_speed', 018H, 09H, ' ', 01H, '(', 02H, 012H, 0dH, 0aH
	DB	05H, 'armor', 018H, 0aH, ' ', 01H, '(', 02H, 012H, '''', 0aH, 07H
	DB	'weapons', 018H, 0bH, ' ', 03H, '(', 0bH, '2', 016H, '.SC2APIP'
	DB	'rotocol.Weapon"', 086H, 01H, 0aH, 0bH, 'UpgradeData', 012H, 012H
	DB	0aH, 0aH, 'upgrade_id', 018H, 01H, ' ', 01H, '(', 0dH, 012H, 0cH
	DB	0aH, 04H, 'name', 018H, 02H, ' ', 01H, '(', 09H, 012H, 014H, 0aH
	DB	0cH, 'mineral_cost', 018H, 03H, ' ', 01H, '(', 0dH, 012H, 014H
	DB	0aH, 0cH, 'vespene_cost', 018H, 04H, ' ', 01H, '(', 0dH, 012H, 015H
	DB	0aH, 0dH, 'research_time', 018H, 05H, ' ', 01H, '(', 02H, 012H
	DB	012H, 0aH, 0aH, 'ability_id', 018H, 06H, ' ', 01H, '(', 0dH, '"'
	DB	')', 0aH, 08H, 'BuffData', 012H, 0fH, 0aH, 07H, 'buff_id', 018H
	DB	01H, ' ', 01H, '(', 0dH, 012H, 0cH, 0aH, 04H, 'name', 018H, 02H
	DB	' ', 01H, '(', 09H, '"T', 0aH, 0aH, 'EffectData', 012H, 011H, 0aH
	DB	09H, 'effect_id', 018H, 01H, ' ', 01H, '(', 0dH, 012H, 0cH, 0aH
	DB	04H, 'name', 018H, 02H, ' ', 01H, '(', 09H, 012H, 015H, 0aH, 0dH
	DB	'friendly_name', 018H, 03H, ' ', 01H, '(', 09H, 012H, 0eH, 0aH
	DB	06H, 'radius', 018H, 04H, ' ', 01H, '(', 02H, '*', 09eH, 01H, 0aH
	DB	09H, 'Attribute', 012H, 09H, 0aH, 05H, 'Light', 010H, 01H, 012H
	DB	0bH, 0aH, 07H, 'Armored', 010H, 02H, 012H, 0eH, 0aH, 0aH, 'Bio'
	DB	'logical', 010H, 03H, 012H, 0eH, 0aH, 0aH, 'Mechanical', 010H, 04H
	DB	012H, 0bH, 0aH, 07H, 'Robotic', 010H, 05H, 012H, 0bH, 0aH, 07H
	DB	'Psionic', 010H, 06H, 012H, 0bH, 0aH, 07H, 'Massive', 010H, 07H
	DB	012H, 0dH, 0aH, 09H, 'Structure', 010H, 08H, 012H, 09H, 0aH, 05H
	DB	'Hover', 010H, 09H, 012H, 0aH, 0aH, 06H, 'Heroic', 010H, 0aH, 012H
	DB	0cH, 0aH, 08H, 'Summoned', 010H, 0bH, 00H	; descriptor_table_protodef_s2clientprotocol_2fdata_2eproto
	ORG $+3
?descriptor_table_s2clientprotocol_2fdata_2eproto_deps@@3QBQEBUDescriptorTable@internal@protobuf@google@@B DQ FLAT:?descriptor_table_s2clientprotocol_2fcommon_2eproto@@3UDescriptorTable@internal@protobuf@google@@B ; descriptor_table_s2clientprotocol_2fdata_2eproto_deps
$SG129376 DB	's2clientprotocol/data.proto', 00H
	ORG $+4
$SG129619 DB	'SC2APIProtocol.AbilityData.link_name', 00H
	ORG $+3
$SG129632 DB	'SC2APIProtocol.AbilityData.button_name', 00H
	ORG $+1
$SG129639 DB	'SC2APIProtocol.AbilityData.friendly_name', 00H
	ORG $+7
$SG129646 DB	'SC2APIProtocol.AbilityData.hotkey', 00H
	ORG $+6
$SG129722 DB	'SC2APIProtocol.AbilityData.link_name', 00H
	ORG $+3
$SG129725 DB	'SC2APIProtocol.AbilityData.button_name', 00H
	ORG $+1
$SG129727 DB	'SC2APIProtocol.AbilityData.friendly_name', 00H
	ORG $+7
$SG129729 DB	'SC2APIProtocol.AbilityData.hotkey', 00H
	ORG $+6
$SG129779 DB	'vendor\s2clientprotocol\include\s2clientprotocol\data.pb'
	DB	'.cc', 00H
	ORG $+4
$SG129780 DB	'CHECK failed: (&from) != (_this): ', 00H
	ORG $+5
$SG138049 DB	'W:\cpp\void\alistar\tests\vendor\protobuf\src\google/pro'
	DB	'tobuf/wire_format_lite.h', 00H
	ORG $+7
$SG130008 DB	'vendor\s2clientprotocol\include\s2clientprotocol\data.pb'
	DB	'.cc', 00H
	ORG $+4
$SG130009 DB	'CHECK failed: (&from) != (_this): ', 00H
	ORG $+5
$SG138050 DB	'CHECK failed: (UInt32Size(tag)) == (static_cast<size_t>('
	DB	'tag_size)): ', 00H
	ORG $+3
$SG130375 DB	'CHECK failed: (&from) != (_this): ', 00H
	ORG $+5
$SG138073 DB	'W:\cpp\void\alistar\tests\vendor\protobuf\src\google/pro'
	DB	'tobuf/wire_format_lite.h', 00H
	ORG $+7
$SG138359 DB	'CHECK failed: (n) > (0): ', 00H
	ORG $+6
$SG130374 DB	'vendor\s2clientprotocol\include\s2clientprotocol\data.pb'
	DB	'.cc', 00H
	ORG $+4
$SG130659 DB	'SC2APIProtocol.UnitTypeData.name', 00H
	ORG $+7
$SG138074 DB	'CHECK failed: (UInt32Size(tag)) == (static_cast<size_t>('
	DB	'tag_size)): ', 00H
	ORG $+3
$SG130826 DB	'SC2APIProtocol.UnitTypeData.name', 00H
	ORG $+7
$SG138097 DB	'W:\cpp\void\alistar\tests\vendor\protobuf\src\google/pro'
	DB	'tobuf/wire_format_lite.h', 00H
	ORG $+7
$SG138371 DB	'CHECK failed: (n) > (0): ', 00H
	ORG $+6
$SG131011 DB	'vendor\s2clientprotocol\include\s2clientprotocol\data.pb'
	DB	'.cc', 00H
	ORG $+4
$SG131012 DB	'CHECK failed: (&from) != (_this): ', 00H
	ORG $+5
$SG138098 DB	'CHECK failed: (UInt32Size(tag)) == (static_cast<size_t>('
	DB	'tag_size)): ', 00H
	ORG $+11
$SG138121 DB	'W:\cpp\void\alistar\tests\vendor\protobuf\src\google/pro'
	DB	'tobuf/wire_format_lite.h', 00H
	ORG $+15
$SG138122 DB	'CHECK failed: (UInt32Size(tag)) == (static_cast<size_t>('
	DB	'tag_size)): ', 00H
	ORG $+11
$SG138145 DB	'W:\cpp\void\alistar\tests\vendor\protobuf\src\google/pro'
	DB	'tobuf/wire_format_lite.h', 00H
	ORG $+15
$SG138146 DB	'CHECK failed: (UInt32Size(tag)) == (static_cast<size_t>('
	DB	'tag_size)): ', 00H
	ORG $+11
$SG138169 DB	'W:\cpp\void\alistar\tests\vendor\protobuf\src\google/pro'
	DB	'tobuf/wire_format_lite.h', 00H
	ORG $+15
$SG138170 DB	'CHECK failed: (UInt32Size(tag)) == (static_cast<size_t>('
	DB	'tag_size)): ', 00H
	ORG $+11
$SG138358 DB	'W:\cpp\void\alistar\tests\vendor\protobuf\src\google/pro'
	DB	'tobuf/wire_format_lite.h', 00H
	ORG $+15
$SG138370 DB	'W:\cpp\void\alistar\tests\vendor\protobuf\src\google/pro'
	DB	'tobuf/wire_format_lite.h', 00H
	ORG $+15
$SG138382 DB	'W:\cpp\void\alistar\tests\vendor\protobuf\src\google/pro'
	DB	'tobuf/wire_format_lite.h', 00H
	ORG $+7
$SG138383 DB	'CHECK failed: (n) > (0): ', 00H
	ORG $+14
$SG138394 DB	'W:\cpp\void\alistar\tests\vendor\protobuf\src\google/pro'
	DB	'tobuf/wire_format_lite.h', 00H
	ORG $+7
$SG138395 DB	'CHECK failed: (n) > (0): ', 00H
	ORG $+14
$SG138406 DB	'W:\cpp\void\alistar\tests\vendor\protobuf\src\google/pro'
	DB	'tobuf/wire_format_lite.h', 00H
	ORG $+7
$SG138407 DB	'CHECK failed: (n) > (0): ', 00H
	ORG $+14
$SG138418 DB	'W:\cpp\void\alistar\tests\vendor\protobuf\src\google/pro'
	DB	'tobuf/wire_format_lite.h', 00H
	ORG $+7
$SG138419 DB	'CHECK failed: (n) > (0): ', 00H
	ORG $+14
$SG138430 DB	'W:\cpp\void\alistar\tests\vendor\protobuf\src\google/pro'
	DB	'tobuf/wire_format_lite.h', 00H
	ORG $+7
$SG138431 DB	'CHECK failed: (n) > (0): ', 00H
	ORG $+14
$SG138442 DB	'W:\cpp\void\alistar\tests\vendor\protobuf\src\google/pro'
	DB	'tobuf/wire_format_lite.h', 00H
	ORG $+7
$SG138443 DB	'CHECK failed: (n) > (0): ', 00H
	ORG $+14
$SG138454 DB	'W:\cpp\void\alistar\tests\vendor\protobuf\src\google/pro'
	DB	'tobuf/wire_format_lite.h', 00H
	ORG $+7
$SG138455 DB	'CHECK failed: (n) > (0): ', 00H
	ORG $+14
$SG138466 DB	'W:\cpp\void\alistar\tests\vendor\protobuf\src\google/pro'
	DB	'tobuf/wire_format_lite.h', 00H
	ORG $+7
$SG138467 DB	'CHECK failed: (n) > (0): ', 00H
	ORG $+14
$SG138478 DB	'W:\cpp\void\alistar\tests\vendor\protobuf\src\google/pro'
	DB	'tobuf/wire_format_lite.h', 00H
	ORG $+7
$SG138479 DB	'CHECK failed: (n) > (0): ', 00H
CONST	ENDS
PUBLIC	?__empty_global_delete@@YAXPEAX@Z		; __empty_global_delete
PUBLIC	?__empty_global_delete@@YAXPEAX_K@Z		; __empty_global_delete
PUBLIC	?__empty_global_delete@@YAXPEAXW4align_val_t@std@@@Z ; __empty_global_delete
PUBLIC	?__empty_global_delete@@YAXPEAX_KW4align_val_t@std@@@Z ; __empty_global_delete
PUBLIC	?is_constant_evaluated@std@@YA_NXZ		; std::is_constant_evaluated
PUBLIC	??2@YAPEAX_KPEAX@Z				; operator new
PUBLIC	??0exception@std@@QEAA@QEBDH@Z			; std::exception::exception
PUBLIC	??0exception@std@@QEAA@AEBV01@@Z		; std::exception::exception
PUBLIC	??1exception@std@@UEAA@XZ			; std::exception::~exception
PUBLIC	?what@exception@std@@UEBAPEBDXZ			; std::exception::what
PUBLIC	??_Gexception@std@@UEAAPEAXI@Z			; std::exception::`scalar deleting destructor'
PUBLIC	??0bad_alloc@std@@AEAA@QEBD@Z			; std::bad_alloc::bad_alloc
PUBLIC	??1bad_alloc@std@@UEAA@XZ			; std::bad_alloc::~bad_alloc
PUBLIC	??0bad_alloc@std@@QEAA@AEBV01@@Z		; std::bad_alloc::bad_alloc
PUBLIC	??_Gbad_alloc@std@@UEAAPEAXI@Z			; std::bad_alloc::`scalar deleting destructor'
PUBLIC	??0bad_array_new_length@std@@QEAA@XZ		; std::bad_array_new_length::bad_array_new_length
PUBLIC	??1bad_array_new_length@std@@UEAA@XZ		; std::bad_array_new_length::~bad_array_new_length
PUBLIC	??0bad_array_new_length@std@@QEAA@AEBV01@@Z	; std::bad_array_new_length::bad_array_new_length
PUBLIC	??_Gbad_array_new_length@std@@UEAAPEAXI@Z	; std::bad_array_new_length::`scalar deleting destructor'
PUBLIC	?_Throw_bad_array_new_length@std@@YAXXZ		; std::_Throw_bad_array_new_length
PUBLIC	?_Allocate@_Default_allocate_traits@std@@SAPEAX_K@Z ; std::_Default_allocate_traits::_Allocate
PUBLIC	?_Adjust_manually_vector_aligned@std@@YAXAEAPEAXAEA_K@Z ; std::_Adjust_manually_vector_aligned
PUBLIC	??0_Container_proxy@std@@QEAA@PEAU_Container_base12@1@@Z ; std::_Container_proxy::_Container_proxy
PUBLIC	??0_Container_base12@std@@QEAA@XZ		; std::_Container_base12::_Container_base12
PUBLIC	?_Orphan_all@_Container_base12@std@@QEAAXXZ	; std::_Container_base12::_Orphan_all
PUBLIC	?_Orphan_all_unlocked_v3@_Container_base12@std@@AEAAXXZ ; std::_Container_base12::_Orphan_all_unlocked_v3
PUBLIC	?_Orphan_all_locked_v3@_Container_base12@std@@AEAAXXZ ; std::_Container_base12::_Orphan_all_locked_v3
PUBLIC	??$exchange@PEAU_Iterator_base12@std@@$$T@std@@YAPEAU_Iterator_base12@0@AEAPEAU10@$$QEA$$T@Z ; std::exchange<std::_Iterator_base12 *,std::nullptr_t>
PUBLIC	??$_Construct_in_place@U_Container_proxy@std@@PEAU_Container_base12@2@@std@@YAXAEAU_Container_proxy@0@$$QEAPEAU_Container_base12@0@@Z ; std::_Construct_in_place<std::_Container_proxy,std::_Container_base12 *>
PUBLIC	?assign@?$_Char_traits@DH@std@@SAXAEADAEBD@Z	; std::_Char_traits<char,int>::assign
PUBLIC	?assign@?$_Narrow_char_traits@DH@std@@SAXAEADAEBD@Z ; std::_Narrow_char_traits<char,int>::assign
PUBLIC	?_Myptr@?$_String_val@U?$_Simple_types@D@std@@@std@@QEAAPEADXZ ; std::_String_val<std::_Simple_types<char> >::_Myptr
PUBLIC	?_Myptr@?$_String_val@U?$_Simple_types@D@std@@@std@@QEBAPEBDXZ ; std::_String_val<std::_Simple_types<char> >::_Myptr
PUBLIC	?_Large_string_engaged@?$_String_val@U?$_Simple_types@D@std@@@std@@QEBA_NXZ ; std::_String_val<std::_Simple_types<char> >::_Large_string_engaged
PUBLIC	?clear@?$basic_string@DU?$char_traits@D@std@@V?$allocator@D@2@@std@@QEAAXXZ ; std::basic_string<char,std::char_traits<char>,std::allocator<char> >::clear
PUBLIC	?data@?$basic_string@DU?$char_traits@D@std@@V?$allocator@D@2@@std@@QEBAPEBDXZ ; std::basic_string<char,std::char_traits<char>,std::allocator<char> >::data
PUBLIC	?length@?$basic_string@DU?$char_traits@D@std@@V?$allocator@D@2@@std@@QEBA_KXZ ; std::basic_string<char,std::char_traits<char>,std::allocator<char> >::length
PUBLIC	?size@?$basic_string@DU?$char_traits@D@std@@V?$allocator@D@2@@std@@QEBA_KXZ ; std::basic_string<char,std::char_traits<char>,std::allocator<char> >::size
PUBLIC	?_Eos@?$basic_string@DU?$char_traits@D@std@@V?$allocator@D@2@@std@@AEAAX_K@Z ; std::basic_string<char,std::char_traits<char>,std::allocator<char> >::_Eos
PUBLIC	??$swap@H$0A@@std@@YAXAEAH0@Z			; std::swap<int,0>
PUBLIC	??$swap@_J$0A@@std@@YAXAEA_J0@Z			; std::swap<__int64,0>
PUBLIC	?Log2FloorNonZero@Bits@protobuf@google@@SAII@Z	; google::protobuf::Bits::Log2FloorNonZero
PUBLIC	?Log2FloorNonZero64@Bits@protobuf@google@@SAI_K@Z ; google::protobuf::Bits::Log2FloorNonZero64
PUBLIC	?CheckSize@StringPiece@stringpiece_internal@protobuf@google@@CA_K_K@Z ; google::protobuf::stringpiece_internal::StringPiece::CheckSize
PUBLIC	??$?0V?$allocator@D@std@@@StringPiece@stringpiece_internal@protobuf@google@@QEAA@AEBV?$basic_string@DU?$char_traits@D@std@@V?$allocator@D@2@@std@@@Z ; google::protobuf::stringpiece_internal::StringPiece::StringPiece<std::allocator<char> >
PUBLIC	?EnsureSpace@EpsCopyOutputStream@io@protobuf@google@@QEAAPEAEPEAE@Z ; google::protobuf::io::EpsCopyOutputStream::EnsureSpace
PUBLIC	?WriteStringMaybeAliased@EpsCopyOutputStream@io@protobuf@google@@QEAAPEAEIAEBV?$basic_string@DU?$char_traits@D@std@@V?$allocator@D@2@@std@@PEAE@Z ; google::protobuf::io::EpsCopyOutputStream::WriteStringMaybeAliased
PUBLIC	?TagSize@EpsCopyOutputStream@io@protobuf@google@@CAHI@Z ; google::protobuf::io::EpsCopyOutputStream::TagSize
PUBLIC	??$UnsafeVarint@I@EpsCopyOutputStream@io@protobuf@google@@CAPEAEIPEAE@Z ; google::protobuf::io::EpsCopyOutputStream::UnsafeVarint<unsigned int>
PUBLIC	?WriteLittleEndian32ToArray@CodedOutputStream@io@protobuf@google@@SAPEAEIPEAE@Z ; google::protobuf::io::CodedOutputStream::WriteLittleEndian32ToArray
PUBLIC	?WriteVarint32ToArray@CodedOutputStream@io@protobuf@google@@SAPEAEIPEAE@Z ; google::protobuf::io::CodedOutputStream::WriteVarint32ToArray
PUBLIC	?WriteVarint64ToArray@CodedOutputStream@io@protobuf@google@@SAPEAE_KPEAE@Z ; google::protobuf::io::CodedOutputStream::WriteVarint64ToArray
PUBLIC	?WriteVarint32SignExtendedToArray@CodedOutputStream@io@protobuf@google@@SAPEAEHPEAE@Z ; google::protobuf::io::CodedOutputStream::WriteVarint32SignExtendedToArray
PUBLIC	?WriteTagToArray@CodedOutputStream@io@protobuf@google@@SAPEAEIPEAE@Z ; google::protobuf::io::CodedOutputStream::WriteTagToArray
PUBLIC	?VarintSize32@CodedOutputStream@io@protobuf@google@@SA_KI@Z ; google::protobuf::io::CodedOutputStream::VarintSize32
PUBLIC	?VarintSize64@CodedOutputStream@io@protobuf@google@@SA_K_K@Z ; google::protobuf::io::CodedOutputStream::VarintSize64
PUBLIC	?VarintSize32SignExtended@CodedOutputStream@io@protobuf@google@@SA_KH@Z ; google::protobuf::io::CodedOutputStream::VarintSize32SignExtended
PUBLIC	?VarintSize32PlusOne@CodedOutputStream@io@protobuf@google@@SA_KI@Z ; google::protobuf::io::CodedOutputStream::VarintSize32PlusOne
PUBLIC	??$UnsafeVarint@_K@EpsCopyOutputStream@io@protobuf@google@@CAPEAE_KPEAE@Z ; google::protobuf::io::EpsCopyOutputStream::UnsafeVarint<unsigned __int64>
PUBLIC	?AlignUpTo8@internal@protobuf@google@@YA_K_K@Z	; google::protobuf::internal::AlignUpTo8
PUBLIC	?AlignTo@internal@protobuf@google@@YAPEAXPEAX_K@Z ; google::protobuf::internal::AlignTo
PUBLIC	??1Arena@protobuf@google@@QEAA@XZ		; google::protobuf::Arena::~Arena
PUBLIC	?SpaceAllocated@Arena@protobuf@google@@QEBA_KXZ	; google::protobuf::Arena::SpaceAllocated
PUBLIC	?AllocateInternal@Arena@protobuf@google@@AEAAPEAX_K0P6AXPEAX@ZPEBVtype_info@@@Z ; google::protobuf::Arena::AllocateInternal
PUBLIC	?AllocateAlignedWithHook@Arena@protobuf@google@@AEAAPEAX_K0PEBVtype_info@@@Z ; google::protobuf::Arena::AllocateAlignedWithHook
PUBLIC	??_GArena@protobuf@google@@QEAAPEAXI@Z		; google::protobuf::Arena::`scalar deleting destructor'
PUBLIC	??0TaggedStringPtr@internal@protobuf@google@@QEAA@PEAV?$ExplicitlyConstructed@V?$basic_string@DU?$char_traits@D@std@@V?$allocator@D@2@@std@@$07@123@@Z ; google::protobuf::internal::TaggedStringPtr::TaggedStringPtr
PUBLIC	?Get@TaggedStringPtr@internal@protobuf@google@@QEBAPEAV?$basic_string@DU?$char_traits@D@std@@V?$allocator@D@2@@std@@XZ ; google::protobuf::internal::TaggedStringPtr::Get
PUBLIC	?as_int@TaggedStringPtr@internal@protobuf@google@@AEBA_KXZ ; google::protobuf::internal::TaggedStringPtr::as_int
PUBLIC	??0ArenaStringPtr@internal@protobuf@google@@QEAA@PEAV?$ExplicitlyConstructed@V?$basic_string@DU?$char_traits@D@std@@V?$allocator@D@2@@std@@$07@123@UConstantInitialized@123@@Z ; google::protobuf::internal::ArenaStringPtr::ArenaStringPtr
PUBLIC	?InitDefault@ArenaStringPtr@internal@protobuf@google@@QEAAXXZ ; google::protobuf::internal::ArenaStringPtr::InitDefault
PUBLIC	?Get@ArenaStringPtr@internal@protobuf@google@@QEBAAEBV?$basic_string@DU?$char_traits@D@std@@V?$allocator@D@2@@std@@XZ ; google::protobuf::internal::ArenaStringPtr::Get
PUBLIC	?ClearNonDefaultToEmpty@ArenaStringPtr@internal@protobuf@google@@QEAAXXZ ; google::protobuf::internal::ArenaStringPtr::ClearNonDefaultToEmpty
PUBLIC	?InternalSwap@ArenaStringPtr@internal@protobuf@google@@SAXPEAU1234@PEAVArena@34@01@Z ; google::protobuf::internal::ArenaStringPtr::InternalSwap
PUBLIC	??$swap@VTaggedStringPtr@internal@protobuf@google@@$0A@@std@@YAXAEAVTaggedStringPtr@internal@protobuf@google@@0@Z ; std::swap<google::protobuf::internal::TaggedStringPtr,0>
PUBLIC	??0InternalMetadata@internal@protobuf@google@@QEAA@XZ ; google::protobuf::internal::InternalMetadata::InternalMetadata
PUBLIC	??0InternalMetadata@internal@protobuf@google@@QEAA@PEAVArena@23@_N@Z ; google::protobuf::internal::InternalMetadata::InternalMetadata
PUBLIC	?SetArena@InternalMetadata@internal@protobuf@google@@QEAAXPEAVArena@34@_N@Z ; google::protobuf::internal::InternalMetadata::SetArena
PUBLIC	??1InternalMetadata@internal@protobuf@google@@QEAA@XZ ; google::protobuf::internal::InternalMetadata::~InternalMetadata
PUBLIC	?arena@InternalMetadata@internal@protobuf@google@@QEBAPEAVArena@34@XZ ; google::protobuf::internal::InternalMetadata::arena
PUBLIC	?have_unknown_fields@InternalMetadata@internal@protobuf@google@@QEBA_NXZ ; google::protobuf::internal::InternalMetadata::have_unknown_fields
PUBLIC	?InternalSwap@InternalMetadata@internal@protobuf@google@@QEAAXPEAV1234@@Z ; google::protobuf::internal::InternalMetadata::InternalSwap
PUBLIC	?HasUnknownFieldsTag@InternalMetadata@internal@protobuf@google@@AEBA_NXZ ; google::protobuf::internal::InternalMetadata::HasUnknownFieldsTag
PUBLIC	?HasMessageOwnedArenaTag@InternalMetadata@internal@protobuf@google@@AEBA_NXZ ; google::protobuf::internal::InternalMetadata::HasMessageOwnedArenaTag
PUBLIC	??$PtrValue@UContainerBase@InternalMetadata@internal@protobuf@google@@@InternalMetadata@internal@protobuf@google@@AEBAPEAUContainerBase@0123@XZ ; google::protobuf::internal::InternalMetadata::PtrValue<google::protobuf::internal::InternalMetadata::ContainerBase>
PUBLIC	??$PtrValue@VArena@protobuf@google@@@InternalMetadata@internal@protobuf@google@@AEBAPEAVArena@23@XZ ; google::protobuf::internal::InternalMetadata::PtrValue<google::protobuf::Arena>
PUBLIC	?FromIntSize@internal@protobuf@google@@YA_KH@Z	; google::protobuf::internal::FromIntSize
PUBLIC	??0MessageLite@protobuf@google@@QEAA@XZ		; google::protobuf::MessageLite::MessageLite
PUBLIC	??1MessageLite@protobuf@google@@UEAA@XZ		; google::protobuf::MessageLite::~MessageLite
PUBLIC	?_InternalParse@MessageLite@protobuf@google@@UEAAPEBDPEBDPEAVParseContext@internal@23@@Z ; google::protobuf::MessageLite::_InternalParse
PUBLIC	??0MessageLite@protobuf@google@@IEAA@PEAVArena@12@_N@Z ; google::protobuf::MessageLite::MessageLite
PUBLIC	?GetArenaForAllocation@MessageLite@protobuf@google@@IEBAPEAVArena@23@XZ ; google::protobuf::MessageLite::GetArenaForAllocation
PUBLIC	??_GMessageLite@protobuf@google@@UEAAPEAXI@Z	; google::protobuf::MessageLite::`scalar deleting destructor'
PUBLIC	??0?$HasBits@$00@internal@protobuf@google@@QEAA@XZ ; google::protobuf::internal::HasBits<1>::HasBits<1>
PUBLIC	?Clear@?$HasBits@$00@internal@protobuf@google@@QEAAXXZ ; google::protobuf::internal::HasBits<1>::Clear
PUBLIC	??A?$HasBits@$00@internal@protobuf@google@@QEAAAEAIH@Z ; google::protobuf::internal::HasBits<1>::operator[]
PUBLIC	??A?$HasBits@$00@internal@protobuf@google@@QEBAAEBIH@Z ; google::protobuf::internal::HasBits<1>::operator[]
PUBLIC	?Or@?$HasBits@$00@internal@protobuf@google@@QEAAXAEBV1234@@Z ; google::protobuf::internal::HasBits<1>::Or
PUBLIC	??0RepeatedPtrFieldBase@internal@protobuf@google@@IEAA@XZ ; google::protobuf::internal::RepeatedPtrFieldBase::RepeatedPtrFieldBase
PUBLIC	??0RepeatedPtrFieldBase@internal@protobuf@google@@IEAA@PEAVArena@23@@Z ; google::protobuf::internal::RepeatedPtrFieldBase::RepeatedPtrFieldBase
PUBLIC	??1RepeatedPtrFieldBase@internal@protobuf@google@@IEAA@XZ ; google::protobuf::internal::RepeatedPtrFieldBase::~RepeatedPtrFieldBase
PUBLIC	?size@RepeatedPtrFieldBase@internal@protobuf@google@@IEBAHXZ ; google::protobuf::internal::RepeatedPtrFieldBase::size
PUBLIC	?NeedsDestroy@RepeatedPtrFieldBase@internal@protobuf@google@@IEBA_NXZ ; google::protobuf::internal::RepeatedPtrFieldBase::NeedsDestroy
PUBLIC	?InternalSwap@RepeatedPtrFieldBase@internal@protobuf@google@@QEAAXPEAV1234@@Z ; google::protobuf::internal::RepeatedPtrFieldBase::InternalSwap
PUBLIC	?raw_data@RepeatedPtrFieldBase@internal@protobuf@google@@IEBAPEBQEAXXZ ; google::protobuf::internal::RepeatedPtrFieldBase::raw_data
PUBLIC	?GetOwningArena@RepeatedPtrFieldBase@internal@protobuf@google@@IEBAPEAVArena@34@XZ ; google::protobuf::internal::RepeatedPtrFieldBase::GetOwningArena
PUBLIC	?MergeFromInternal@RepeatedPtrFieldBase@internal@protobuf@google@@AEAAXAEBV1234@P81234@EAAXPEAPEAX1HH@Z@Z ; google::protobuf::internal::RepeatedPtrFieldBase::MergeFromInternal
PUBLIC	??$make_tuple@AEAPEAVArena@protobuf@google@@AEAHAEAHAEAPEAURep@RepeatedPtrFieldBase@internal@23@@std@@YA?AV?$tuple@PEAVArena@protobuf@google@@HHPEAURep@RepeatedPtrFieldBase@internal@23@@0@AEAPEAVArena@protobuf@google@@AEAH1AEAPEAURep@RepeatedPtrFieldBase@internal@34@@Z ; std::make_tuple<google::protobuf::Arena * &,int &,int &,google::protobuf::internal::RepeatedPtrFieldBase::Rep * &>
PUBLIC	?_Get_rest@?$tuple@PEAURep@RepeatedPtrFieldBase@internal@protobuf@google@@@std@@QEAAAEAV?$tuple@$$V@2@XZ ; std::tuple<google::protobuf::internal::RepeatedPtrFieldBase::Rep *>::_Get_rest
PUBLIC	?_Get_rest@?$tuple@PEAURep@RepeatedPtrFieldBase@internal@protobuf@google@@@std@@QEBAAEBV?$tuple@$$V@2@XZ ; std::tuple<google::protobuf::internal::RepeatedPtrFieldBase::Rep *>::_Get_rest
PUBLIC	?_Get_rest@?$tuple@HPEAURep@RepeatedPtrFieldBase@internal@protobuf@google@@@std@@QEAAAEAV?$tuple@PEAURep@RepeatedPtrFieldBase@internal@protobuf@google@@@2@XZ ; std::tuple<int,google::protobuf::internal::RepeatedPtrFieldBase::Rep *>::_Get_rest
PUBLIC	?_Get_rest@?$tuple@HPEAURep@RepeatedPtrFieldBase@internal@protobuf@google@@@std@@QEBAAEBV?$tuple@PEAURep@RepeatedPtrFieldBase@internal@protobuf@google@@@2@XZ ; std::tuple<int,google::protobuf::internal::RepeatedPtrFieldBase::Rep *>::_Get_rest
PUBLIC	?_Get_rest@?$tuple@HHPEAURep@RepeatedPtrFieldBase@internal@protobuf@google@@@std@@QEAAAEAV?$tuple@HPEAURep@RepeatedPtrFieldBase@internal@protobuf@google@@@2@XZ ; std::tuple<int,int,google::protobuf::internal::RepeatedPtrFieldBase::Rep *>::_Get_rest
PUBLIC	?_Get_rest@?$tuple@HHPEAURep@RepeatedPtrFieldBase@internal@protobuf@google@@@std@@QEBAAEBV?$tuple@HPEAURep@RepeatedPtrFieldBase@internal@protobuf@google@@@2@XZ ; std::tuple<int,int,google::protobuf::internal::RepeatedPtrFieldBase::Rep *>::_Get_rest
PUBLIC	?_Get_rest@?$tuple@PEAVArena@protobuf@google@@HHPEAURep@RepeatedPtrFieldBase@internal@23@@std@@QEAAAEAV?$tuple@HHPEAURep@RepeatedPtrFieldBase@internal@protobuf@google@@@2@XZ ; std::tuple<google::protobuf::Arena *,int,int,google::protobuf::internal::RepeatedPtrFieldBase::Rep *>::_Get_rest
PUBLIC	?_Get_rest@?$tuple@PEAVArena@protobuf@google@@HHPEAURep@RepeatedPtrFieldBase@internal@23@@std@@QEBAAEBV?$tuple@HHPEAURep@RepeatedPtrFieldBase@internal@protobuf@google@@@2@XZ ; std::tuple<google::protobuf::Arena *,int,int,google::protobuf::internal::RepeatedPtrFieldBase::Rep *>::_Get_rest
PUBLIC	??$tie@PEAVArena@protobuf@google@@HHPEAURep@RepeatedPtrFieldBase@internal@23@@std@@YA?AV?$tuple@AEAPEAVArena@protobuf@google@@AEAHAEAHAEAPEAURep@RepeatedPtrFieldBase@internal@23@@0@AEAPEAVArena@protobuf@google@@AEAH1AEAPEAURep@RepeatedPtrFieldBase@internal@34@@Z ; std::tie<google::protobuf::Arena *,int,int,google::protobuf::internal::RepeatedPtrFieldBase::Rep *>
PUBLIC	?_Get_rest@?$tuple@AEAPEAURep@RepeatedPtrFieldBase@internal@protobuf@google@@@std@@QEAAAEAV?$tuple@$$V@2@XZ ; std::tuple<google::protobuf::internal::RepeatedPtrFieldBase::Rep * &>::_Get_rest
PUBLIC	?_Get_rest@?$tuple@AEAHAEAPEAURep@RepeatedPtrFieldBase@internal@protobuf@google@@@std@@QEAAAEAV?$tuple@AEAPEAURep@RepeatedPtrFieldBase@internal@protobuf@google@@@2@XZ ; std::tuple<int &,google::protobuf::internal::RepeatedPtrFieldBase::Rep * &>::_Get_rest
PUBLIC	?_Get_rest@?$tuple@AEAHAEAHAEAPEAURep@RepeatedPtrFieldBase@internal@protobuf@google@@@std@@QEAAAEAV?$tuple@AEAHAEAPEAURep@RepeatedPtrFieldBase@internal@protobuf@google@@@2@XZ ; std::tuple<int &,int &,google::protobuf::internal::RepeatedPtrFieldBase::Rep * &>::_Get_rest
PUBLIC	?_Get_rest@?$tuple@AEAPEAVArena@protobuf@google@@AEAHAEAHAEAPEAURep@RepeatedPtrFieldBase@internal@23@@std@@QEAAAEAV?$tuple@AEAHAEAHAEAPEAURep@RepeatedPtrFieldBase@internal@protobuf@google@@@2@XZ ; std::tuple<google::protobuf::Arena * &,int &,int &,google::protobuf::internal::RepeatedPtrFieldBase::Rep * &>::_Get_rest
PUBLIC	??$?4PEAVArena@protobuf@google@@HHPEAURep@RepeatedPtrFieldBase@internal@12@$0A@@?$tuple@AEAPEAVArena@protobuf@google@@AEAHAEAHAEAPEAURep@RepeatedPtrFieldBase@internal@23@@std@@QEAAAEAV01@$$QEAV?$tuple@PEAVArena@protobuf@google@@HHPEAURep@RepeatedPtrFieldBase@internal@23@@1@@Z ; std::tuple<google::protobuf::Arena * &,int &,int &,google::protobuf::internal::RepeatedPtrFieldBase::Rep * &>::operator=<google::protobuf::Arena *,int,int,google::protobuf::internal::RepeatedPtrFieldBase::Rep *,0>
PUBLIC	??$?4PEAVArena@protobuf@google@@HHPEAURep@RepeatedPtrFieldBase@internal@12@$0A@@?$tuple@AEAPEAVArena@protobuf@google@@AEAHAEAHAEAPEAURep@RepeatedPtrFieldBase@internal@23@@std@@QEAAAEAV01@AEBV?$tuple@PEAVArena@protobuf@google@@HHPEAURep@RepeatedPtrFieldBase@internal@23@@1@@Z ; std::tuple<google::protobuf::Arena * &,int &,int &,google::protobuf::internal::RepeatedPtrFieldBase::Rep * &>::operator=<google::protobuf::Arena *,int,int,google::protobuf::internal::RepeatedPtrFieldBase::Rep *,0>
PUBLIC	??0?$RepeatedField@H@protobuf@google@@QEAA@XZ	; google::protobuf::RepeatedField<int>::RepeatedField<int>
PUBLIC	??_G?$RepeatedField@H@protobuf@google@@QEAAPEAXI@Z ; google::protobuf::RepeatedField<int>::`scalar deleting destructor'
PUBLIC	??0?$RepeatedField@I@protobuf@google@@QEAA@XZ	; google::protobuf::RepeatedField<unsigned int>::RepeatedField<unsigned int>
PUBLIC	??_G?$RepeatedField@I@protobuf@google@@QEAAPEAXI@Z ; google::protobuf::RepeatedField<unsigned int>::`scalar deleting destructor'
PUBLIC	?MakeTag@WireFormatLite@internal@protobuf@google@@SAIHW4WireType@1234@@Z ; google::protobuf::internal::WireFormatLite::MakeTag
PUBLIC	?EncodeFloat@WireFormatLite@internal@protobuf@google@@SAIM@Z ; google::protobuf::internal::WireFormatLite::EncodeFloat
PUBLIC	?WriteTagToArray@WireFormatLite@internal@protobuf@google@@SAPEAEHW4WireType@1234@PEAE@Z ; google::protobuf::internal::WireFormatLite::WriteTagToArray
PUBLIC	?WriteUInt32NoTagToArray@WireFormatLite@internal@protobuf@google@@SAPEAEIPEAE@Z ; google::protobuf::internal::WireFormatLite::WriteUInt32NoTagToArray
PUBLIC	?WriteFloatNoTagToArray@WireFormatLite@internal@protobuf@google@@SAPEAEMPEAE@Z ; google::protobuf::internal::WireFormatLite::WriteFloatNoTagToArray
PUBLIC	?WriteBoolNoTagToArray@WireFormatLite@internal@protobuf@google@@SAPEAE_NPEAE@Z ; google::protobuf::internal::WireFormatLite::WriteBoolNoTagToArray
PUBLIC	?WriteEnumNoTagToArray@WireFormatLite@internal@protobuf@google@@SAPEAEHPEAE@Z ; google::protobuf::internal::WireFormatLite::WriteEnumNoTagToArray
PUBLIC	?WriteUInt32ToArray@WireFormatLite@internal@protobuf@google@@SAPEAEHIPEAE@Z ; google::protobuf::internal::WireFormatLite::WriteUInt32ToArray
PUBLIC	?WriteFloatToArray@WireFormatLite@internal@protobuf@google@@SAPEAEHMPEAE@Z ; google::protobuf::internal::WireFormatLite::WriteFloatToArray
PUBLIC	?WriteBoolToArray@WireFormatLite@internal@protobuf@google@@SAPEAEH_NPEAE@Z ; google::protobuf::internal::WireFormatLite::WriteBoolToArray
PUBLIC	?WriteEnumToArray@WireFormatLite@internal@protobuf@google@@SAPEAEHHPEAE@Z ; google::protobuf::internal::WireFormatLite::WriteEnumToArray
PUBLIC	?UInt32Size@WireFormatLite@internal@protobuf@google@@SA_KI@Z ; google::protobuf::internal::WireFormatLite::UInt32Size
PUBLIC	?EnumSize@WireFormatLite@internal@protobuf@google@@SA_KH@Z ; google::protobuf::internal::WireFormatLite::EnumSize
PUBLIC	?UInt32SizePlusOne@WireFormatLite@internal@protobuf@google@@SA_KI@Z ; google::protobuf::internal::WireFormatLite::UInt32SizePlusOne
PUBLIC	?StringSize@WireFormatLite@internal@protobuf@google@@SA_KAEBV?$basic_string@DU?$char_traits@D@std@@V?$allocator@D@2@@std@@@Z ; google::protobuf::internal::WireFormatLite::StringSize
PUBLIC	?LengthDelimitedSize@WireFormatLite@internal@protobuf@google@@SA_K_K@Z ; google::protobuf::internal::WireFormatLite::LengthDelimitedSize
PUBLIC	??$bit_cast@IM@internal@protobuf@google@@YAIAEBM@Z ; google::protobuf::internal::bit_cast<unsigned int,float>
PUBLIC	?Get@CachedSize@internal@protobuf@google@@QEBAHXZ ; google::protobuf::internal::CachedSize::Get
PUBLIC	?Set@CachedSize@internal@protobuf@google@@QEAAXH@Z ; google::protobuf::internal::CachedSize::Set
PUBLIC	??0?$_Atomic_storage@H$03@std@@QEAA@H@Z		; std::_Atomic_storage<int,4>::_Atomic_storage<int,4>
PUBLIC	?store@?$_Atomic_storage@H$03@std@@QEAAXH@Z	; std::_Atomic_storage<int,4>::store
PUBLIC	?store@?$_Atomic_storage@H$03@std@@QEAAXHW4memory_order@2@@Z ; std::_Atomic_storage<int,4>::store
PUBLIC	?load@?$_Atomic_storage@H$03@std@@QEBAHW4memory_order@2@@Z ; std::_Atomic_storage<int,4>::load
PUBLIC	??0?$_Atomic_integral@H$03@std@@QEAA@H@Z	; std::_Atomic_integral<int,4>::_Atomic_integral<int,4>
PUBLIC	??0?$_Atomic_integral_facade@H@std@@QEAA@H@Z	; std::_Atomic_integral_facade<int>::_Atomic_integral_facade<int>
PUBLIC	??0?$atomic@H@std@@QEAA@H@Z			; std::atomic<int>::atomic<int>
PUBLIC	??0CachedSize@internal@protobuf@google@@QEAA@XZ	; google::protobuf::internal::CachedSize::CachedSize
PUBLIC	?ToHost@little_endian@internal@protobuf@google@@YAII@Z ; google::protobuf::internal::little_endian::ToHost
PUBLIC	?WriteVarint@internal@protobuf@google@@YAXI_KPEAVUnknownFieldSet@23@@Z ; google::protobuf::internal::WriteVarint
PUBLIC	?SetLastTag@EpsCopyInputStream@internal@protobuf@google@@QEAAXI@Z ; google::protobuf::internal::EpsCopyInputStream::SetLastTag
PUBLIC	?DataAvailable@EpsCopyInputStream@internal@protobuf@google@@QEAA_NPEBD@Z ; google::protobuf::internal::EpsCopyInputStream::DataAvailable
PUBLIC	?DoneWithCheck@EpsCopyInputStream@internal@protobuf@google@@IEAA_NPEAPEBDH@Z ; google::protobuf::internal::EpsCopyInputStream::DoneWithCheck
PUBLIC	?Done@ParseContext@internal@protobuf@google@@QEAA_NPEAPEBD@Z ; google::protobuf::internal::ParseContext::Done
PUBLIC	?Load@?$EndianHelper@$03@internal@protobuf@google@@SAIPEBX@Z ; google::protobuf::internal::EndianHelper<4>::Load
PUBLIC	?VarintParseSlow@internal@protobuf@google@@YAPEBDPEBDIPEAI@Z ; google::protobuf::internal::VarintParseSlow
PUBLIC	?VarintParseSlow@internal@protobuf@google@@YAPEBDPEBDIPEA_K@Z ; google::protobuf::internal::VarintParseSlow
PUBLIC	?ReadTag@internal@protobuf@google@@YAPEBDPEBDPEAII@Z ; google::protobuf::internal::ReadTag
PUBLIC	?ReadSize@internal@protobuf@google@@YAIPEAPEBD@Z ; google::protobuf::internal::ReadSize
PUBLIC	?ReadVarint64@internal@protobuf@google@@YA_KPEAPEBD@Z ; google::protobuf::internal::ReadVarint64
PUBLIC	??$VarintParse@_K@internal@protobuf@google@@YAPEBDPEBDPEA_K@Z ; google::protobuf::internal::VarintParse<unsigned __int64>
PUBLIC	?ReadVarint32@internal@protobuf@google@@YAIPEAPEBD@Z ; google::protobuf::internal::ReadVarint32
PUBLIC	??$VarintParse@I@internal@protobuf@google@@YAPEBDPEBDPEAI@Z ; google::protobuf::internal::VarintParse<unsigned int>
PUBLIC	?VerifyUTF8@internal@protobuf@google@@YA_NPEBV?$basic_string@DU?$char_traits@D@std@@V?$allocator@D@2@@std@@PEBD@Z ; google::protobuf::internal::VerifyUTF8
PUBLIC	??0UnknownFieldSet@protobuf@google@@QEAA@XZ	; google::protobuf::UnknownFieldSet::UnknownFieldSet
PUBLIC	??1UnknownFieldSet@protobuf@google@@QEAA@XZ	; google::protobuf::UnknownFieldSet::~UnknownFieldSet
PUBLIC	?Clear@UnknownFieldSet@protobuf@google@@QEAAXXZ	; google::protobuf::UnknownFieldSet::Clear
PUBLIC	??0?$allocator@VUnknownField@protobuf@google@@@std@@QEAA@XZ ; std::allocator<google::protobuf::UnknownField>::allocator<google::protobuf::UnknownField>
PUBLIC	?deallocate@?$allocator@VUnknownField@protobuf@google@@@std@@QEAAXQEAVUnknownField@protobuf@google@@_K@Z ; std::allocator<google::protobuf::UnknownField>::deallocate
PUBLIC	??0?$vector@VUnknownField@protobuf@google@@V?$allocator@VUnknownField@protobuf@google@@@std@@@std@@QEAA@XZ ; std::vector<google::protobuf::UnknownField,std::allocator<google::protobuf::UnknownField> >::vector<google::protobuf::UnknownField,std::allocator<google::protobuf::UnknownField> >
PUBLIC	??1?$vector@VUnknownField@protobuf@google@@V?$allocator@VUnknownField@protobuf@google@@@std@@@std@@QEAA@XZ ; std::vector<google::protobuf::UnknownField,std::allocator<google::protobuf::UnknownField> >::~vector<google::protobuf::UnknownField,std::allocator<google::protobuf::UnknownField> >
PUBLIC	?empty@?$vector@VUnknownField@protobuf@google@@V?$allocator@VUnknownField@protobuf@google@@@std@@@std@@QEBA_NXZ ; std::vector<google::protobuf::UnknownField,std::allocator<google::protobuf::UnknownField> >::empty
PUBLIC	?_Tidy@?$vector@VUnknownField@protobuf@google@@V?$allocator@VUnknownField@protobuf@google@@@std@@@std@@AEAAXXZ ; std::vector<google::protobuf::UnknownField,std::allocator<google::protobuf::UnknownField> >::_Tidy
PUBLIC	?_Getal@?$vector@VUnknownField@protobuf@google@@V?$allocator@VUnknownField@protobuf@google@@@std@@@std@@AEAAAEAV?$allocator@VUnknownField@protobuf@google@@@2@XZ ; std::vector<google::protobuf::UnknownField,std::allocator<google::protobuf::UnknownField> >::_Getal
PUBLIC	??0?$_Vector_val@U?$_Simple_types@VUnknownField@protobuf@google@@@std@@@std@@QEAA@XZ ; std::_Vector_val<std::_Simple_types<google::protobuf::UnknownField> >::_Vector_val<std::_Simple_types<google::protobuf::UnknownField> >
PUBLIC	?_Get_first@?$_Compressed_pair@V?$allocator@VUnknownField@protobuf@google@@@std@@V?$_Vector_val@U?$_Simple_types@VUnknownField@protobuf@google@@@std@@@2@$00@std@@QEAAAEAV?$allocator@VUnknownField@protobuf@google@@@2@XZ ; std::_Compressed_pair<std::allocator<google::protobuf::UnknownField>,std::_Vector_val<std::_Simple_types<google::protobuf::UnknownField> >,1>::_Get_first
PUBLIC	??0Message@protobuf@google@@QEAA@XZ		; google::protobuf::Message::Message
PUBLIC	?GetClassData@Message@protobuf@google@@MEBAPEBUClassData@123@XZ ; google::protobuf::Message::GetClassData
PUBLIC	??0Message@protobuf@google@@IEAA@PEAVArena@12@_N@Z ; google::protobuf::Message::Message
PUBLIC	??1Message@protobuf@google@@UEAA@XZ		; google::protobuf::Message::~Message
PUBLIC	??_GMessage@protobuf@google@@UEAAPEAXI@Z	; google::protobuf::Message::`scalar deleting destructor'
PUBLIC	??$unknown_fields@VUnknownFieldSet@protobuf@google@@@InternalMetadata@internal@protobuf@google@@QEBAAEBVUnknownFieldSet@23@P6AAEBV423@XZ@Z ; google::protobuf::internal::InternalMetadata::unknown_fields<google::protobuf::UnknownFieldSet>
PUBLIC	??$mutable_unknown_fields@VUnknownFieldSet@protobuf@google@@@InternalMetadata@internal@protobuf@google@@QEAAPEAVUnknownFieldSet@23@XZ ; google::protobuf::internal::InternalMetadata::mutable_unknown_fields<google::protobuf::UnknownFieldSet>
PUBLIC	??$CreateMaybeMessage@VAbilityData@SC2APIProtocol@@$$V@Arena@protobuf@google@@CAPEAVAbilityData@SC2APIProtocol@@PEAV012@@Z ; google::protobuf::Arena::CreateMaybeMessage<SC2APIProtocol::AbilityData>
PUBLIC	??$CreateMaybeMessage@VBuffData@SC2APIProtocol@@$$V@Arena@protobuf@google@@CAPEAVBuffData@SC2APIProtocol@@PEAV012@@Z ; google::protobuf::Arena::CreateMaybeMessage<SC2APIProtocol::BuffData>
PUBLIC	??$CreateMaybeMessage@VDamageBonus@SC2APIProtocol@@$$V@Arena@protobuf@google@@CAPEAVDamageBonus@SC2APIProtocol@@PEAV012@@Z ; google::protobuf::Arena::CreateMaybeMessage<SC2APIProtocol::DamageBonus>
PUBLIC	??$CreateMaybeMessage@VEffectData@SC2APIProtocol@@$$V@Arena@protobuf@google@@CAPEAVEffectData@SC2APIProtocol@@PEAV012@@Z ; google::protobuf::Arena::CreateMaybeMessage<SC2APIProtocol::EffectData>
PUBLIC	??$CreateMaybeMessage@VUnitTypeData@SC2APIProtocol@@$$V@Arena@protobuf@google@@CAPEAVUnitTypeData@SC2APIProtocol@@PEAV012@@Z ; google::protobuf::Arena::CreateMaybeMessage<SC2APIProtocol::UnitTypeData>
PUBLIC	??$CreateMaybeMessage@VUpgradeData@SC2APIProtocol@@$$V@Arena@protobuf@google@@CAPEAVUpgradeData@SC2APIProtocol@@PEAV012@@Z ; google::protobuf::Arena::CreateMaybeMessage<SC2APIProtocol::UpgradeData>
PUBLIC	??$CreateMaybeMessage@VWeapon@SC2APIProtocol@@$$V@Arena@protobuf@google@@CAPEAVWeapon@SC2APIProtocol@@PEAV012@@Z ; google::protobuf::Arena::CreateMaybeMessage<SC2APIProtocol::Weapon>
PUBLIC	?AbilityData_Target_IsValid@SC2APIProtocol@@YA_NH@Z ; SC2APIProtocol::AbilityData_Target_IsValid
PUBLIC	?AbilityData_Target_descriptor@SC2APIProtocol@@YAPEBVEnumDescriptor@protobuf@google@@XZ ; SC2APIProtocol::AbilityData_Target_descriptor
PUBLIC	?Weapon_TargetType_IsValid@SC2APIProtocol@@YA_NH@Z ; SC2APIProtocol::Weapon_TargetType_IsValid
PUBLIC	?Weapon_TargetType_descriptor@SC2APIProtocol@@YAPEBVEnumDescriptor@protobuf@google@@XZ ; SC2APIProtocol::Weapon_TargetType_descriptor
PUBLIC	?Attribute_IsValid@SC2APIProtocol@@YA_NH@Z	; SC2APIProtocol::Attribute_IsValid
PUBLIC	?Attribute_descriptor@SC2APIProtocol@@YAPEBVEnumDescriptor@protobuf@google@@XZ ; SC2APIProtocol::Attribute_descriptor
PUBLIC	??1AbilityData@SC2APIProtocol@@UEAA@XZ		; SC2APIProtocol::AbilityData::~AbilityData
PUBLIC	??0AbilityData@SC2APIProtocol@@QEAA@AEBV01@@Z	; SC2APIProtocol::AbilityData::AbilityData
PUBLIC	?mutable_unknown_fields@AbilityData@SC2APIProtocol@@QEAAPEAVUnknownFieldSet@protobuf@google@@XZ ; SC2APIProtocol::AbilityData::mutable_unknown_fields
PUBLIC	?CopyFrom@AbilityData@SC2APIProtocol@@QEAAXAEBV12@@Z ; SC2APIProtocol::AbilityData::CopyFrom
PUBLIC	?MergeFrom@AbilityData@SC2APIProtocol@@QEAAXAEBV12@@Z ; SC2APIProtocol::AbilityData::MergeFrom
PUBLIC	?SharedCtor@AbilityData@SC2APIProtocol@@AEAAXPEAVArena@protobuf@google@@_N@Z ; SC2APIProtocol::AbilityData::SharedCtor
PUBLIC	?SharedDtor@AbilityData@SC2APIProtocol@@AEAAXXZ	; SC2APIProtocol::AbilityData::SharedDtor
PUBLIC	?InternalSwap@AbilityData@SC2APIProtocol@@AEAAXPEAV12@@Z ; SC2APIProtocol::AbilityData::InternalSwap
PUBLIC	??0AbilityData@SC2APIProtocol@@IEAA@PEAVArena@protobuf@google@@_N@Z ; SC2APIProtocol::AbilityData::AbilityData
PUBLIC	?_internal_has_link_name@AbilityData@SC2APIProtocol@@AEBA_NXZ ; SC2APIProtocol::AbilityData::_internal_has_link_name
PUBLIC	?_internal_link_name@AbilityData@SC2APIProtocol@@AEBAAEBV?$basic_string@DU?$char_traits@D@std@@V?$allocator@D@2@@std@@XZ ; SC2APIProtocol::AbilityData::_internal_link_name
PUBLIC	?_internal_set_link_name@AbilityData@SC2APIProtocol@@AEAAXAEBV?$basic_string@DU?$char_traits@D@std@@V?$allocator@D@2@@std@@@Z ; SC2APIProtocol::AbilityData::_internal_set_link_name
PUBLIC	?_internal_mutable_link_name@AbilityData@SC2APIProtocol@@AEAAPEAV?$basic_string@DU?$char_traits@D@std@@V?$allocator@D@2@@std@@XZ ; SC2APIProtocol::AbilityData::_internal_mutable_link_name
PUBLIC	?_internal_has_button_name@AbilityData@SC2APIProtocol@@AEBA_NXZ ; SC2APIProtocol::AbilityData::_internal_has_button_name
PUBLIC	?_internal_button_name@AbilityData@SC2APIProtocol@@AEBAAEBV?$basic_string@DU?$char_traits@D@std@@V?$allocator@D@2@@std@@XZ ; SC2APIProtocol::AbilityData::_internal_button_name
PUBLIC	?_internal_set_button_name@AbilityData@SC2APIProtocol@@AEAAXAEBV?$basic_string@DU?$char_traits@D@std@@V?$allocator@D@2@@std@@@Z ; SC2APIProtocol::AbilityData::_internal_set_button_name
PUBLIC	?_internal_mutable_button_name@AbilityData@SC2APIProtocol@@AEAAPEAV?$basic_string@DU?$char_traits@D@std@@V?$allocator@D@2@@std@@XZ ; SC2APIProtocol::AbilityData::_internal_mutable_button_name
PUBLIC	?_internal_has_friendly_name@AbilityData@SC2APIProtocol@@AEBA_NXZ ; SC2APIProtocol::AbilityData::_internal_has_friendly_name
PUBLIC	?_internal_friendly_name@AbilityData@SC2APIProtocol@@AEBAAEBV?$basic_string@DU?$char_traits@D@std@@V?$allocator@D@2@@std@@XZ ; SC2APIProtocol::AbilityData::_internal_friendly_name
PUBLIC	?_internal_set_friendly_name@AbilityData@SC2APIProtocol@@AEAAXAEBV?$basic_string@DU?$char_traits@D@std@@V?$allocator@D@2@@std@@@Z ; SC2APIProtocol::AbilityData::_internal_set_friendly_name
PUBLIC	?_internal_mutable_friendly_name@AbilityData@SC2APIProtocol@@AEAAPEAV?$basic_string@DU?$char_traits@D@std@@V?$allocator@D@2@@std@@XZ ; SC2APIProtocol::AbilityData::_internal_mutable_friendly_name
PUBLIC	?_internal_has_hotkey@AbilityData@SC2APIProtocol@@AEBA_NXZ ; SC2APIProtocol::AbilityData::_internal_has_hotkey
PUBLIC	?_internal_hotkey@AbilityData@SC2APIProtocol@@AEBAAEBV?$basic_string@DU?$char_traits@D@std@@V?$allocator@D@2@@std@@XZ ; SC2APIProtocol::AbilityData::_internal_hotkey
PUBLIC	?_internal_set_hotkey@AbilityData@SC2APIProtocol@@AEAAXAEBV?$basic_string@DU?$char_traits@D@std@@V?$allocator@D@2@@std@@@Z ; SC2APIProtocol::AbilityData::_internal_set_hotkey
PUBLIC	?_internal_mutable_hotkey@AbilityData@SC2APIProtocol@@AEAAPEAV?$basic_string@DU?$char_traits@D@std@@V?$allocator@D@2@@std@@XZ ; SC2APIProtocol::AbilityData::_internal_mutable_hotkey
PUBLIC	?_internal_ability_id@AbilityData@SC2APIProtocol@@AEBAIXZ ; SC2APIProtocol::AbilityData::_internal_ability_id
PUBLIC	?_internal_link_index@AbilityData@SC2APIProtocol@@AEBAIXZ ; SC2APIProtocol::AbilityData::_internal_link_index
PUBLIC	?_internal_remaps_to_ability_id@AbilityData@SC2APIProtocol@@AEBAIXZ ; SC2APIProtocol::AbilityData::_internal_remaps_to_ability_id
PUBLIC	?_internal_available@AbilityData@SC2APIProtocol@@AEBA_NXZ ; SC2APIProtocol::AbilityData::_internal_available
PUBLIC	?_internal_allow_minimap@AbilityData@SC2APIProtocol@@AEBA_NXZ ; SC2APIProtocol::AbilityData::_internal_allow_minimap
PUBLIC	?_internal_allow_autocast@AbilityData@SC2APIProtocol@@AEBA_NXZ ; SC2APIProtocol::AbilityData::_internal_allow_autocast
PUBLIC	?_internal_is_building@AbilityData@SC2APIProtocol@@AEBA_NXZ ; SC2APIProtocol::AbilityData::_internal_is_building
PUBLIC	?_internal_footprint_radius@AbilityData@SC2APIProtocol@@AEBAMXZ ; SC2APIProtocol::AbilityData::_internal_footprint_radius
PUBLIC	?_internal_is_instant_placement@AbilityData@SC2APIProtocol@@AEBA_NXZ ; SC2APIProtocol::AbilityData::_internal_is_instant_placement
PUBLIC	?_internal_cast_range@AbilityData@SC2APIProtocol@@AEBAMXZ ; SC2APIProtocol::AbilityData::_internal_cast_range
PUBLIC	?_internal_target@AbilityData@SC2APIProtocol@@AEBA?AW4AbilityData_Target@2@XZ ; SC2APIProtocol::AbilityData::_internal_target
PUBLIC	?_internal_set_target@AbilityData@SC2APIProtocol@@AEAAXW4AbilityData_Target@2@@Z ; SC2APIProtocol::AbilityData::_internal_set_target
PUBLIC	??$CreateMaybeMessage@VAbilityData@SC2APIProtocol@@@MessageLite@protobuf@google@@KAPEAVAbilityData@SC2APIProtocol@@PEAVArena@12@@Z ; google::protobuf::MessageLite::CreateMaybeMessage<SC2APIProtocol::AbilityData>
PUBLIC	??1DamageBonus@SC2APIProtocol@@UEAA@XZ		; SC2APIProtocol::DamageBonus::~DamageBonus
PUBLIC	??0DamageBonus@SC2APIProtocol@@QEAA@AEBV01@@Z	; SC2APIProtocol::DamageBonus::DamageBonus
PUBLIC	?mutable_unknown_fields@DamageBonus@SC2APIProtocol@@QEAAPEAVUnknownFieldSet@protobuf@google@@XZ ; SC2APIProtocol::DamageBonus::mutable_unknown_fields
PUBLIC	?CopyFrom@DamageBonus@SC2APIProtocol@@QEAAXAEBV12@@Z ; SC2APIProtocol::DamageBonus::CopyFrom
PUBLIC	?MergeFrom@DamageBonus@SC2APIProtocol@@QEAAXAEBV12@@Z ; SC2APIProtocol::DamageBonus::MergeFrom
PUBLIC	?SharedCtor@DamageBonus@SC2APIProtocol@@AEAAXPEAVArena@protobuf@google@@_N@Z ; SC2APIProtocol::DamageBonus::SharedCtor
PUBLIC	?SharedDtor@DamageBonus@SC2APIProtocol@@AEAAXXZ	; SC2APIProtocol::DamageBonus::SharedDtor
PUBLIC	?InternalSwap@DamageBonus@SC2APIProtocol@@AEAAXPEAV12@@Z ; SC2APIProtocol::DamageBonus::InternalSwap
PUBLIC	??0DamageBonus@SC2APIProtocol@@IEAA@PEAVArena@protobuf@google@@_N@Z ; SC2APIProtocol::DamageBonus::DamageBonus
PUBLIC	?_internal_bonus@DamageBonus@SC2APIProtocol@@AEBAMXZ ; SC2APIProtocol::DamageBonus::_internal_bonus
PUBLIC	?_internal_attribute@DamageBonus@SC2APIProtocol@@AEBA?AW4Attribute@2@XZ ; SC2APIProtocol::DamageBonus::_internal_attribute
PUBLIC	?_internal_set_attribute@DamageBonus@SC2APIProtocol@@AEAAXW4Attribute@2@@Z ; SC2APIProtocol::DamageBonus::_internal_set_attribute
PUBLIC	??$CreateMaybeMessage@VDamageBonus@SC2APIProtocol@@@MessageLite@protobuf@google@@KAPEAVDamageBonus@SC2APIProtocol@@PEAVArena@12@@Z ; google::protobuf::MessageLite::CreateMaybeMessage<SC2APIProtocol::DamageBonus>
PUBLIC	??1Weapon@SC2APIProtocol@@UEAA@XZ		; SC2APIProtocol::Weapon::~Weapon
PUBLIC	??0Weapon@SC2APIProtocol@@QEAA@UConstantInitialized@internal@protobuf@google@@@Z ; SC2APIProtocol::Weapon::Weapon
PUBLIC	??0Weapon@SC2APIProtocol@@QEAA@AEBV01@@Z	; SC2APIProtocol::Weapon::Weapon
PUBLIC	?mutable_unknown_fields@Weapon@SC2APIProtocol@@QEAAPEAVUnknownFieldSet@protobuf@google@@XZ ; SC2APIProtocol::Weapon::mutable_unknown_fields
PUBLIC	?New@Weapon@SC2APIProtocol@@UEBAPEAV12@PEAVArena@protobuf@google@@@Z ; SC2APIProtocol::Weapon::New
PUBLIC	?CopyFrom@Weapon@SC2APIProtocol@@QEAAXAEBV12@@Z	; SC2APIProtocol::Weapon::CopyFrom
PUBLIC	?MergeFrom@Weapon@SC2APIProtocol@@QEAAXAEBV12@@Z ; SC2APIProtocol::Weapon::MergeFrom
PUBLIC	?Clear@Weapon@SC2APIProtocol@@UEAAXXZ		; SC2APIProtocol::Weapon::Clear
PUBLIC	?IsInitialized@Weapon@SC2APIProtocol@@UEBA_NXZ	; SC2APIProtocol::Weapon::IsInitialized
PUBLIC	?ByteSizeLong@Weapon@SC2APIProtocol@@UEBA_KXZ	; SC2APIProtocol::Weapon::ByteSizeLong
PUBLIC	?_InternalParse@Weapon@SC2APIProtocol@@UEAAPEBDPEBDPEAVParseContext@internal@protobuf@google@@@Z ; SC2APIProtocol::Weapon::_InternalParse
PUBLIC	?_InternalSerialize@Weapon@SC2APIProtocol@@UEBAPEAEPEAEPEAVEpsCopyOutputStream@io@protobuf@google@@@Z ; SC2APIProtocol::Weapon::_InternalSerialize
PUBLIC	?GetCachedSize@Weapon@SC2APIProtocol@@UEBAHXZ	; SC2APIProtocol::Weapon::GetCachedSize
PUBLIC	?SharedCtor@Weapon@SC2APIProtocol@@AEAAXPEAVArena@protobuf@google@@_N@Z ; SC2APIProtocol::Weapon::SharedCtor
PUBLIC	?SharedDtor@Weapon@SC2APIProtocol@@AEAAXXZ	; SC2APIProtocol::Weapon::SharedDtor
PUBLIC	?SetCachedSize@Weapon@SC2APIProtocol@@EEBAXH@Z	; SC2APIProtocol::Weapon::SetCachedSize
PUBLIC	?InternalSwap@Weapon@SC2APIProtocol@@AEAAXPEAV12@@Z ; SC2APIProtocol::Weapon::InternalSwap
PUBLIC	??0Weapon@SC2APIProtocol@@IEAA@PEAVArena@protobuf@google@@_N@Z ; SC2APIProtocol::Weapon::Weapon
PUBLIC	?GetClassData@Weapon@SC2APIProtocol@@UEBAPEBUClassData@Message@protobuf@google@@XZ ; SC2APIProtocol::Weapon::GetClassData
PUBLIC	?GetMetadata@Weapon@SC2APIProtocol@@UEBA?AUMetadata@protobuf@google@@XZ ; SC2APIProtocol::Weapon::GetMetadata
PUBLIC	?_internal_damage_bonus_size@Weapon@SC2APIProtocol@@AEBAHXZ ; SC2APIProtocol::Weapon::_internal_damage_bonus_size
PUBLIC	?_internal_damage_bonus@Weapon@SC2APIProtocol@@AEBAAEBVDamageBonus@2@H@Z ; SC2APIProtocol::Weapon::_internal_damage_bonus
PUBLIC	?_internal_add_damage_bonus@Weapon@SC2APIProtocol@@AEAAPEAVDamageBonus@2@XZ ; SC2APIProtocol::Weapon::_internal_add_damage_bonus
PUBLIC	?_internal_damage@Weapon@SC2APIProtocol@@AEBAMXZ ; SC2APIProtocol::Weapon::_internal_damage
PUBLIC	?_internal_attacks@Weapon@SC2APIProtocol@@AEBAIXZ ; SC2APIProtocol::Weapon::_internal_attacks
PUBLIC	?_internal_range@Weapon@SC2APIProtocol@@AEBAMXZ	; SC2APIProtocol::Weapon::_internal_range
PUBLIC	?_internal_speed@Weapon@SC2APIProtocol@@AEBAMXZ	; SC2APIProtocol::Weapon::_internal_speed
PUBLIC	?_internal_type@Weapon@SC2APIProtocol@@AEBA?AW4Weapon_TargetType@2@XZ ; SC2APIProtocol::Weapon::_internal_type
PUBLIC	?_internal_set_type@Weapon@SC2APIProtocol@@AEAAXW4Weapon_TargetType@2@@Z ; SC2APIProtocol::Weapon::_internal_set_type
PUBLIC	??0?$RepeatedPtrField@VDamageBonus@SC2APIProtocol@@@protobuf@google@@QEAA@XZ ; google::protobuf::RepeatedPtrField<SC2APIProtocol::DamageBonus>::RepeatedPtrField<SC2APIProtocol::DamageBonus>
PUBLIC	??0?$RepeatedPtrField@VDamageBonus@SC2APIProtocol@@@protobuf@google@@QEAA@PEAVArena@12@@Z ; google::protobuf::RepeatedPtrField<SC2APIProtocol::DamageBonus>::RepeatedPtrField<SC2APIProtocol::DamageBonus>
PUBLIC	??0?$RepeatedPtrField@VDamageBonus@SC2APIProtocol@@@protobuf@google@@QEAA@AEBV012@@Z ; google::protobuf::RepeatedPtrField<SC2APIProtocol::DamageBonus>::RepeatedPtrField<SC2APIProtocol::DamageBonus>
PUBLIC	??1?$RepeatedPtrField@VDamageBonus@SC2APIProtocol@@@protobuf@google@@QEAA@XZ ; google::protobuf::RepeatedPtrField<SC2APIProtocol::DamageBonus>::~RepeatedPtrField<SC2APIProtocol::DamageBonus>
PUBLIC	?size@?$RepeatedPtrField@VDamageBonus@SC2APIProtocol@@@protobuf@google@@QEBAHXZ ; google::protobuf::RepeatedPtrField<SC2APIProtocol::DamageBonus>::size
PUBLIC	?Get@?$RepeatedPtrField@VDamageBonus@SC2APIProtocol@@@protobuf@google@@QEBAAEBVDamageBonus@SC2APIProtocol@@H@Z ; google::protobuf::RepeatedPtrField<SC2APIProtocol::DamageBonus>::Get
PUBLIC	?Add@?$RepeatedPtrField@VDamageBonus@SC2APIProtocol@@@protobuf@google@@QEAAPEAVDamageBonus@SC2APIProtocol@@XZ ; google::protobuf::RepeatedPtrField<SC2APIProtocol::DamageBonus>::Add
PUBLIC	?Clear@?$RepeatedPtrField@VDamageBonus@SC2APIProtocol@@@protobuf@google@@QEAAXXZ ; google::protobuf::RepeatedPtrField<SC2APIProtocol::DamageBonus>::Clear
PUBLIC	?MergeFrom@?$RepeatedPtrField@VDamageBonus@SC2APIProtocol@@@protobuf@google@@QEAAXAEBV123@@Z ; google::protobuf::RepeatedPtrField<SC2APIProtocol::DamageBonus>::MergeFrom
PUBLIC	?begin@?$RepeatedPtrField@VDamageBonus@SC2APIProtocol@@@protobuf@google@@QEBA?AV?$RepeatedPtrIterator@$$CBVDamageBonus@SC2APIProtocol@@@internal@23@XZ ; google::protobuf::RepeatedPtrField<SC2APIProtocol::DamageBonus>::begin
PUBLIC	?end@?$RepeatedPtrField@VDamageBonus@SC2APIProtocol@@@protobuf@google@@QEBA?AV?$RepeatedPtrIterator@$$CBVDamageBonus@SC2APIProtocol@@@internal@23@XZ ; google::protobuf::RepeatedPtrField<SC2APIProtocol::DamageBonus>::end
PUBLIC	?InternalSwap@?$RepeatedPtrField@VDamageBonus@SC2APIProtocol@@@protobuf@google@@QEAAXPEAV123@@Z ; google::protobuf::RepeatedPtrField<SC2APIProtocol::DamageBonus>::InternalSwap
PUBLIC	??_G?$RepeatedPtrField@VDamageBonus@SC2APIProtocol@@@protobuf@google@@QEAAPEAXI@Z ; google::protobuf::RepeatedPtrField<SC2APIProtocol::DamageBonus>::`scalar deleting destructor'
PUBLIC	??_GWeapon@SC2APIProtocol@@UEAAPEAXI@Z		; SC2APIProtocol::Weapon::`scalar deleting destructor'
PUBLIC	??$CreateMaybeMessage@VWeapon@SC2APIProtocol@@@MessageLite@protobuf@google@@KAPEAVWeapon@SC2APIProtocol@@PEAVArena@12@@Z ; google::protobuf::MessageLite::CreateMaybeMessage<SC2APIProtocol::Weapon>
PUBLIC	??1UnitTypeData@SC2APIProtocol@@UEAA@XZ		; SC2APIProtocol::UnitTypeData::~UnitTypeData
PUBLIC	??0UnitTypeData@SC2APIProtocol@@QEAA@UConstantInitialized@internal@protobuf@google@@@Z ; SC2APIProtocol::UnitTypeData::UnitTypeData
PUBLIC	??0UnitTypeData@SC2APIProtocol@@QEAA@AEBV01@@Z	; SC2APIProtocol::UnitTypeData::UnitTypeData
PUBLIC	?mutable_unknown_fields@UnitTypeData@SC2APIProtocol@@QEAAPEAVUnknownFieldSet@protobuf@google@@XZ ; SC2APIProtocol::UnitTypeData::mutable_unknown_fields
PUBLIC	?New@UnitTypeData@SC2APIProtocol@@UEBAPEAV12@PEAVArena@protobuf@google@@@Z ; SC2APIProtocol::UnitTypeData::New
PUBLIC	?CopyFrom@UnitTypeData@SC2APIProtocol@@QEAAXAEBV12@@Z ; SC2APIProtocol::UnitTypeData::CopyFrom
PUBLIC	?MergeFrom@UnitTypeData@SC2APIProtocol@@QEAAXAEBV12@@Z ; SC2APIProtocol::UnitTypeData::MergeFrom
PUBLIC	?Clear@UnitTypeData@SC2APIProtocol@@UEAAXXZ	; SC2APIProtocol::UnitTypeData::Clear
PUBLIC	?IsInitialized@UnitTypeData@SC2APIProtocol@@UEBA_NXZ ; SC2APIProtocol::UnitTypeData::IsInitialized
PUBLIC	?ByteSizeLong@UnitTypeData@SC2APIProtocol@@UEBA_KXZ ; SC2APIProtocol::UnitTypeData::ByteSizeLong
PUBLIC	?_InternalParse@UnitTypeData@SC2APIProtocol@@UEAAPEBDPEBDPEAVParseContext@internal@protobuf@google@@@Z ; SC2APIProtocol::UnitTypeData::_InternalParse
PUBLIC	?_InternalSerialize@UnitTypeData@SC2APIProtocol@@UEBAPEAEPEAEPEAVEpsCopyOutputStream@io@protobuf@google@@@Z ; SC2APIProtocol::UnitTypeData::_InternalSerialize
PUBLIC	?GetCachedSize@UnitTypeData@SC2APIProtocol@@UEBAHXZ ; SC2APIProtocol::UnitTypeData::GetCachedSize
PUBLIC	?SharedCtor@UnitTypeData@SC2APIProtocol@@AEAAXPEAVArena@protobuf@google@@_N@Z ; SC2APIProtocol::UnitTypeData::SharedCtor
PUBLIC	?SharedDtor@UnitTypeData@SC2APIProtocol@@AEAAXXZ ; SC2APIProtocol::UnitTypeData::SharedDtor
PUBLIC	?SetCachedSize@UnitTypeData@SC2APIProtocol@@EEBAXH@Z ; SC2APIProtocol::UnitTypeData::SetCachedSize
PUBLIC	?InternalSwap@UnitTypeData@SC2APIProtocol@@AEAAXPEAV12@@Z ; SC2APIProtocol::UnitTypeData::InternalSwap
PUBLIC	??0UnitTypeData@SC2APIProtocol@@IEAA@PEAVArena@protobuf@google@@_N@Z ; SC2APIProtocol::UnitTypeData::UnitTypeData
PUBLIC	?GetClassData@UnitTypeData@SC2APIProtocol@@UEBAPEBUClassData@Message@protobuf@google@@XZ ; SC2APIProtocol::UnitTypeData::GetClassData
PUBLIC	?GetMetadata@UnitTypeData@SC2APIProtocol@@UEBA?AUMetadata@protobuf@google@@XZ ; SC2APIProtocol::UnitTypeData::GetMetadata
PUBLIC	?_internal_attributes_size@UnitTypeData@SC2APIProtocol@@AEBAHXZ ; SC2APIProtocol::UnitTypeData::_internal_attributes_size
PUBLIC	?_internal_attributes@UnitTypeData@SC2APIProtocol@@AEBA?AW4Attribute@2@H@Z ; SC2APIProtocol::UnitTypeData::_internal_attributes
PUBLIC	?_internal_add_attributes@UnitTypeData@SC2APIProtocol@@AEAAXW4Attribute@2@@Z ; SC2APIProtocol::UnitTypeData::_internal_add_attributes
PUBLIC	?_internal_mutable_attributes@UnitTypeData@SC2APIProtocol@@AEAAPEAV?$RepeatedField@H@protobuf@google@@XZ ; SC2APIProtocol::UnitTypeData::_internal_mutable_attributes
PUBLIC	?_internal_weapons_size@UnitTypeData@SC2APIProtocol@@AEBAHXZ ; SC2APIProtocol::UnitTypeData::_internal_weapons_size
PUBLIC	?_internal_weapons@UnitTypeData@SC2APIProtocol@@AEBAAEBVWeapon@2@H@Z ; SC2APIProtocol::UnitTypeData::_internal_weapons
PUBLIC	?_internal_add_weapons@UnitTypeData@SC2APIProtocol@@AEAAPEAVWeapon@2@XZ ; SC2APIProtocol::UnitTypeData::_internal_add_weapons
PUBLIC	?_internal_tech_alias_size@UnitTypeData@SC2APIProtocol@@AEBAHXZ ; SC2APIProtocol::UnitTypeData::_internal_tech_alias_size
PUBLIC	?_internal_tech_alias@UnitTypeData@SC2APIProtocol@@AEBAIH@Z ; SC2APIProtocol::UnitTypeData::_internal_tech_alias
PUBLIC	?_internal_add_tech_alias@UnitTypeData@SC2APIProtocol@@AEAAXI@Z ; SC2APIProtocol::UnitTypeData::_internal_add_tech_alias
PUBLIC	?_internal_mutable_tech_alias@UnitTypeData@SC2APIProtocol@@AEAAPEAV?$RepeatedField@I@protobuf@google@@XZ ; SC2APIProtocol::UnitTypeData::_internal_mutable_tech_alias
PUBLIC	?_internal_has_name@UnitTypeData@SC2APIProtocol@@AEBA_NXZ ; SC2APIProtocol::UnitTypeData::_internal_has_name
PUBLIC	?_internal_name@UnitTypeData@SC2APIProtocol@@AEBAAEBV?$basic_string@DU?$char_traits@D@std@@V?$allocator@D@2@@std@@XZ ; SC2APIProtocol::UnitTypeData::_internal_name
PUBLIC	?_internal_set_name@UnitTypeData@SC2APIProtocol@@AEAAXAEBV?$basic_string@DU?$char_traits@D@std@@V?$allocator@D@2@@std@@@Z ; SC2APIProtocol::UnitTypeData::_internal_set_name
PUBLIC	?_internal_mutable_name@UnitTypeData@SC2APIProtocol@@AEAAPEAV?$basic_string@DU?$char_traits@D@std@@V?$allocator@D@2@@std@@XZ ; SC2APIProtocol::UnitTypeData::_internal_mutable_name
PUBLIC	?_internal_unit_id@UnitTypeData@SC2APIProtocol@@AEBAIXZ ; SC2APIProtocol::UnitTypeData::_internal_unit_id
PUBLIC	?_internal_cargo_size@UnitTypeData@SC2APIProtocol@@AEBAIXZ ; SC2APIProtocol::UnitTypeData::_internal_cargo_size
PUBLIC	?_internal_movement_speed@UnitTypeData@SC2APIProtocol@@AEBAMXZ ; SC2APIProtocol::UnitTypeData::_internal_movement_speed
PUBLIC	?_internal_armor@UnitTypeData@SC2APIProtocol@@AEBAMXZ ; SC2APIProtocol::UnitTypeData::_internal_armor
PUBLIC	?_internal_mineral_cost@UnitTypeData@SC2APIProtocol@@AEBAIXZ ; SC2APIProtocol::UnitTypeData::_internal_mineral_cost
PUBLIC	?_internal_vespene_cost@UnitTypeData@SC2APIProtocol@@AEBAIXZ ; SC2APIProtocol::UnitTypeData::_internal_vespene_cost
PUBLIC	?_internal_food_required@UnitTypeData@SC2APIProtocol@@AEBAMXZ ; SC2APIProtocol::UnitTypeData::_internal_food_required
PUBLIC	?_internal_ability_id@UnitTypeData@SC2APIProtocol@@AEBAIXZ ; SC2APIProtocol::UnitTypeData::_internal_ability_id
PUBLIC	?_internal_race@UnitTypeData@SC2APIProtocol@@AEBA?AW4Race@2@XZ ; SC2APIProtocol::UnitTypeData::_internal_race
PUBLIC	?_internal_set_race@UnitTypeData@SC2APIProtocol@@AEAAXW4Race@2@@Z ; SC2APIProtocol::UnitTypeData::_internal_set_race
PUBLIC	?_internal_available@UnitTypeData@SC2APIProtocol@@AEBA_NXZ ; SC2APIProtocol::UnitTypeData::_internal_available
PUBLIC	?_internal_has_vespene@UnitTypeData@SC2APIProtocol@@AEBA_NXZ ; SC2APIProtocol::UnitTypeData::_internal_has_vespene
PUBLIC	?_internal_has_minerals@UnitTypeData@SC2APIProtocol@@AEBA_NXZ ; SC2APIProtocol::UnitTypeData::_internal_has_minerals
PUBLIC	?_internal_require_attached@UnitTypeData@SC2APIProtocol@@AEBA_NXZ ; SC2APIProtocol::UnitTypeData::_internal_require_attached
PUBLIC	?_internal_build_time@UnitTypeData@SC2APIProtocol@@AEBAMXZ ; SC2APIProtocol::UnitTypeData::_internal_build_time
PUBLIC	?_internal_food_provided@UnitTypeData@SC2APIProtocol@@AEBAMXZ ; SC2APIProtocol::UnitTypeData::_internal_food_provided
PUBLIC	?_internal_unit_alias@UnitTypeData@SC2APIProtocol@@AEBAIXZ ; SC2APIProtocol::UnitTypeData::_internal_unit_alias
PUBLIC	?_internal_tech_requirement@UnitTypeData@SC2APIProtocol@@AEBAIXZ ; SC2APIProtocol::UnitTypeData::_internal_tech_requirement
PUBLIC	?_internal_sight_range@UnitTypeData@SC2APIProtocol@@AEBAMXZ ; SC2APIProtocol::UnitTypeData::_internal_sight_range
PUBLIC	??0?$RepeatedPtrField@VWeapon@SC2APIProtocol@@@protobuf@google@@QEAA@XZ ; google::protobuf::RepeatedPtrField<SC2APIProtocol::Weapon>::RepeatedPtrField<SC2APIProtocol::Weapon>
PUBLIC	??0?$RepeatedPtrField@VWeapon@SC2APIProtocol@@@protobuf@google@@QEAA@PEAVArena@12@@Z ; google::protobuf::RepeatedPtrField<SC2APIProtocol::Weapon>::RepeatedPtrField<SC2APIProtocol::Weapon>
PUBLIC	??0?$RepeatedPtrField@VWeapon@SC2APIProtocol@@@protobuf@google@@QEAA@AEBV012@@Z ; google::protobuf::RepeatedPtrField<SC2APIProtocol::Weapon>::RepeatedPtrField<SC2APIProtocol::Weapon>
PUBLIC	??1?$RepeatedPtrField@VWeapon@SC2APIProtocol@@@protobuf@google@@QEAA@XZ ; google::protobuf::RepeatedPtrField<SC2APIProtocol::Weapon>::~RepeatedPtrField<SC2APIProtocol::Weapon>
PUBLIC	?size@?$RepeatedPtrField@VWeapon@SC2APIProtocol@@@protobuf@google@@QEBAHXZ ; google::protobuf::RepeatedPtrField<SC2APIProtocol::Weapon>::size
PUBLIC	?Get@?$RepeatedPtrField@VWeapon@SC2APIProtocol@@@protobuf@google@@QEBAAEBVWeapon@SC2APIProtocol@@H@Z ; google::protobuf::RepeatedPtrField<SC2APIProtocol::Weapon>::Get
PUBLIC	?Add@?$RepeatedPtrField@VWeapon@SC2APIProtocol@@@protobuf@google@@QEAAPEAVWeapon@SC2APIProtocol@@XZ ; google::protobuf::RepeatedPtrField<SC2APIProtocol::Weapon>::Add
PUBLIC	?Clear@?$RepeatedPtrField@VWeapon@SC2APIProtocol@@@protobuf@google@@QEAAXXZ ; google::protobuf::RepeatedPtrField<SC2APIProtocol::Weapon>::Clear
PUBLIC	?MergeFrom@?$RepeatedPtrField@VWeapon@SC2APIProtocol@@@protobuf@google@@QEAAXAEBV123@@Z ; google::protobuf::RepeatedPtrField<SC2APIProtocol::Weapon>::MergeFrom
PUBLIC	?begin@?$RepeatedPtrField@VWeapon@SC2APIProtocol@@@protobuf@google@@QEBA?AV?$RepeatedPtrIterator@$$CBVWeapon@SC2APIProtocol@@@internal@23@XZ ; google::protobuf::RepeatedPtrField<SC2APIProtocol::Weapon>::begin
PUBLIC	?end@?$RepeatedPtrField@VWeapon@SC2APIProtocol@@@protobuf@google@@QEBA?AV?$RepeatedPtrIterator@$$CBVWeapon@SC2APIProtocol@@@internal@23@XZ ; google::protobuf::RepeatedPtrField<SC2APIProtocol::Weapon>::end
PUBLIC	?InternalSwap@?$RepeatedPtrField@VWeapon@SC2APIProtocol@@@protobuf@google@@QEAAXPEAV123@@Z ; google::protobuf::RepeatedPtrField<SC2APIProtocol::Weapon>::InternalSwap
PUBLIC	??_G?$RepeatedPtrField@VWeapon@SC2APIProtocol@@@protobuf@google@@QEAAPEAXI@Z ; google::protobuf::RepeatedPtrField<SC2APIProtocol::Weapon>::`scalar deleting destructor'
PUBLIC	??_GUnitTypeData@SC2APIProtocol@@UEAAPEAXI@Z	; SC2APIProtocol::UnitTypeData::`scalar deleting destructor'
PUBLIC	??$CreateMaybeMessage@VUnitTypeData@SC2APIProtocol@@@MessageLite@protobuf@google@@KAPEAVUnitTypeData@SC2APIProtocol@@PEAVArena@12@@Z ; google::protobuf::MessageLite::CreateMaybeMessage<SC2APIProtocol::UnitTypeData>
PUBLIC	??1UpgradeData@SC2APIProtocol@@UEAA@XZ		; SC2APIProtocol::UpgradeData::~UpgradeData
PUBLIC	??0UpgradeData@SC2APIProtocol@@QEAA@AEBV01@@Z	; SC2APIProtocol::UpgradeData::UpgradeData
PUBLIC	?CopyFrom@UpgradeData@SC2APIProtocol@@QEAAXAEBV12@@Z ; SC2APIProtocol::UpgradeData::CopyFrom
PUBLIC	?MergeFrom@UpgradeData@SC2APIProtocol@@QEAAXAEBV12@@Z ; SC2APIProtocol::UpgradeData::MergeFrom
PUBLIC	?SharedCtor@UpgradeData@SC2APIProtocol@@AEAAXPEAVArena@protobuf@google@@_N@Z ; SC2APIProtocol::UpgradeData::SharedCtor
PUBLIC	?SharedDtor@UpgradeData@SC2APIProtocol@@AEAAXXZ	; SC2APIProtocol::UpgradeData::SharedDtor
PUBLIC	?InternalSwap@UpgradeData@SC2APIProtocol@@AEAAXPEAV12@@Z ; SC2APIProtocol::UpgradeData::InternalSwap
PUBLIC	??0UpgradeData@SC2APIProtocol@@IEAA@PEAVArena@protobuf@google@@_N@Z ; SC2APIProtocol::UpgradeData::UpgradeData
PUBLIC	?_internal_has_name@UpgradeData@SC2APIProtocol@@AEBA_NXZ ; SC2APIProtocol::UpgradeData::_internal_has_name
PUBLIC	?_internal_name@UpgradeData@SC2APIProtocol@@AEBAAEBV?$basic_string@DU?$char_traits@D@std@@V?$allocator@D@2@@std@@XZ ; SC2APIProtocol::UpgradeData::_internal_name
PUBLIC	?_internal_set_name@UpgradeData@SC2APIProtocol@@AEAAXAEBV?$basic_string@DU?$char_traits@D@std@@V?$allocator@D@2@@std@@@Z ; SC2APIProtocol::UpgradeData::_internal_set_name
PUBLIC	?_internal_mutable_name@UpgradeData@SC2APIProtocol@@AEAAPEAV?$basic_string@DU?$char_traits@D@std@@V?$allocator@D@2@@std@@XZ ; SC2APIProtocol::UpgradeData::_internal_mutable_name
PUBLIC	?_internal_upgrade_id@UpgradeData@SC2APIProtocol@@AEBAIXZ ; SC2APIProtocol::UpgradeData::_internal_upgrade_id
PUBLIC	?_internal_mineral_cost@UpgradeData@SC2APIProtocol@@AEBAIXZ ; SC2APIProtocol::UpgradeData::_internal_mineral_cost
PUBLIC	?_internal_vespene_cost@UpgradeData@SC2APIProtocol@@AEBAIXZ ; SC2APIProtocol::UpgradeData::_internal_vespene_cost
PUBLIC	?_internal_research_time@UpgradeData@SC2APIProtocol@@AEBAMXZ ; SC2APIProtocol::UpgradeData::_internal_research_time
PUBLIC	?_internal_ability_id@UpgradeData@SC2APIProtocol@@AEBAIXZ ; SC2APIProtocol::UpgradeData::_internal_ability_id
PUBLIC	??$CreateMaybeMessage@VUpgradeData@SC2APIProtocol@@@MessageLite@protobuf@google@@KAPEAVUpgradeData@SC2APIProtocol@@PEAVArena@12@@Z ; google::protobuf::MessageLite::CreateMaybeMessage<SC2APIProtocol::UpgradeData>
PUBLIC	??1BuffData@SC2APIProtocol@@UEAA@XZ		; SC2APIProtocol::BuffData::~BuffData
PUBLIC	??0BuffData@SC2APIProtocol@@QEAA@AEBV01@@Z	; SC2APIProtocol::BuffData::BuffData
PUBLIC	?CopyFrom@BuffData@SC2APIProtocol@@QEAAXAEBV12@@Z ; SC2APIProtocol::BuffData::CopyFrom
PUBLIC	?MergeFrom@BuffData@SC2APIProtocol@@QEAAXAEBV12@@Z ; SC2APIProtocol::BuffData::MergeFrom
PUBLIC	?SharedCtor@BuffData@SC2APIProtocol@@AEAAXPEAVArena@protobuf@google@@_N@Z ; SC2APIProtocol::BuffData::SharedCtor
PUBLIC	?SharedDtor@BuffData@SC2APIProtocol@@AEAAXXZ	; SC2APIProtocol::BuffData::SharedDtor
PUBLIC	?InternalSwap@BuffData@SC2APIProtocol@@AEAAXPEAV12@@Z ; SC2APIProtocol::BuffData::InternalSwap
PUBLIC	??0BuffData@SC2APIProtocol@@IEAA@PEAVArena@protobuf@google@@_N@Z ; SC2APIProtocol::BuffData::BuffData
PUBLIC	?_internal_has_name@BuffData@SC2APIProtocol@@AEBA_NXZ ; SC2APIProtocol::BuffData::_internal_has_name
PUBLIC	?_internal_name@BuffData@SC2APIProtocol@@AEBAAEBV?$basic_string@DU?$char_traits@D@std@@V?$allocator@D@2@@std@@XZ ; SC2APIProtocol::BuffData::_internal_name
PUBLIC	?_internal_set_name@BuffData@SC2APIProtocol@@AEAAXAEBV?$basic_string@DU?$char_traits@D@std@@V?$allocator@D@2@@std@@@Z ; SC2APIProtocol::BuffData::_internal_set_name
PUBLIC	?_internal_mutable_name@BuffData@SC2APIProtocol@@AEAAPEAV?$basic_string@DU?$char_traits@D@std@@V?$allocator@D@2@@std@@XZ ; SC2APIProtocol::BuffData::_internal_mutable_name
PUBLIC	?_internal_buff_id@BuffData@SC2APIProtocol@@AEBAIXZ ; SC2APIProtocol::BuffData::_internal_buff_id
PUBLIC	??$CreateMaybeMessage@VBuffData@SC2APIProtocol@@@MessageLite@protobuf@google@@KAPEAVBuffData@SC2APIProtocol@@PEAVArena@12@@Z ; google::protobuf::MessageLite::CreateMaybeMessage<SC2APIProtocol::BuffData>
PUBLIC	??1EffectData@SC2APIProtocol@@UEAA@XZ		; SC2APIProtocol::EffectData::~EffectData
PUBLIC	??0EffectData@SC2APIProtocol@@QEAA@AEBV01@@Z	; SC2APIProtocol::EffectData::EffectData
PUBLIC	?CopyFrom@EffectData@SC2APIProtocol@@QEAAXAEBV12@@Z ; SC2APIProtocol::EffectData::CopyFrom
PUBLIC	?MergeFrom@EffectData@SC2APIProtocol@@QEAAXAEBV12@@Z ; SC2APIProtocol::EffectData::MergeFrom
PUBLIC	?SharedCtor@EffectData@SC2APIProtocol@@AEAAXPEAVArena@protobuf@google@@_N@Z ; SC2APIProtocol::EffectData::SharedCtor
PUBLIC	?SharedDtor@EffectData@SC2APIProtocol@@AEAAXXZ	; SC2APIProtocol::EffectData::SharedDtor
PUBLIC	?InternalSwap@EffectData@SC2APIProtocol@@AEAAXPEAV12@@Z ; SC2APIProtocol::EffectData::InternalSwap
PUBLIC	??0EffectData@SC2APIProtocol@@IEAA@PEAVArena@protobuf@google@@_N@Z ; SC2APIProtocol::EffectData::EffectData
PUBLIC	?_internal_has_name@EffectData@SC2APIProtocol@@AEBA_NXZ ; SC2APIProtocol::EffectData::_internal_has_name
PUBLIC	?_internal_name@EffectData@SC2APIProtocol@@AEBAAEBV?$basic_string@DU?$char_traits@D@std@@V?$allocator@D@2@@std@@XZ ; SC2APIProtocol::EffectData::_internal_name
PUBLIC	?_internal_set_name@EffectData@SC2APIProtocol@@AEAAXAEBV?$basic_string@DU?$char_traits@D@std@@V?$allocator@D@2@@std@@@Z ; SC2APIProtocol::EffectData::_internal_set_name
PUBLIC	?_internal_mutable_name@EffectData@SC2APIProtocol@@AEAAPEAV?$basic_string@DU?$char_traits@D@std@@V?$allocator@D@2@@std@@XZ ; SC2APIProtocol::EffectData::_internal_mutable_name
PUBLIC	?_internal_has_friendly_name@EffectData@SC2APIProtocol@@AEBA_NXZ ; SC2APIProtocol::EffectData::_internal_has_friendly_name
PUBLIC	?_internal_friendly_name@EffectData@SC2APIProtocol@@AEBAAEBV?$basic_string@DU?$char_traits@D@std@@V?$allocator@D@2@@std@@XZ ; SC2APIProtocol::EffectData::_internal_friendly_name
PUBLIC	?_internal_set_friendly_name@EffectData@SC2APIProtocol@@AEAAXAEBV?$basic_string@DU?$char_traits@D@std@@V?$allocator@D@2@@std@@@Z ; SC2APIProtocol::EffectData::_internal_set_friendly_name
PUBLIC	?_internal_mutable_friendly_name@EffectData@SC2APIProtocol@@AEAAPEAV?$basic_string@DU?$char_traits@D@std@@V?$allocator@D@2@@std@@XZ ; SC2APIProtocol::EffectData::_internal_mutable_friendly_name
PUBLIC	?_internal_effect_id@EffectData@SC2APIProtocol@@AEBAIXZ ; SC2APIProtocol::EffectData::_internal_effect_id
PUBLIC	?_internal_radius@EffectData@SC2APIProtocol@@AEBAMXZ ; SC2APIProtocol::EffectData::_internal_radius
PUBLIC	??$CreateMaybeMessage@VEffectData@SC2APIProtocol@@@MessageLite@protobuf@google@@KAPEAVEffectData@SC2APIProtocol@@PEAVArena@12@@Z ; google::protobuf::MessageLite::CreateMaybeMessage<SC2APIProtocol::EffectData>
PUBLIC	?VerifyUTF8StringNamedField@WireFormat@internal@protobuf@google@@SAXPEBDHW4Operation@1234@0@Z ; google::protobuf::internal::WireFormat::VerifyUTF8StringNamedField
PUBLIC	??1AbilityDataDefaultTypeInternal@SC2APIProtocol@@QEAA@XZ ; SC2APIProtocol::AbilityDataDefaultTypeInternal::~AbilityDataDefaultTypeInternal
PUBLIC	??1DamageBonusDefaultTypeInternal@SC2APIProtocol@@QEAA@XZ ; SC2APIProtocol::DamageBonusDefaultTypeInternal::~DamageBonusDefaultTypeInternal
PUBLIC	??0WeaponDefaultTypeInternal@SC2APIProtocol@@QEAA@XZ ; SC2APIProtocol::WeaponDefaultTypeInternal::WeaponDefaultTypeInternal
PUBLIC	??1WeaponDefaultTypeInternal@SC2APIProtocol@@QEAA@XZ ; SC2APIProtocol::WeaponDefaultTypeInternal::~WeaponDefaultTypeInternal
PUBLIC	??0UnitTypeDataDefaultTypeInternal@SC2APIProtocol@@QEAA@XZ ; SC2APIProtocol::UnitTypeDataDefaultTypeInternal::UnitTypeDataDefaultTypeInternal
PUBLIC	??1UnitTypeDataDefaultTypeInternal@SC2APIProtocol@@QEAA@XZ ; SC2APIProtocol::UnitTypeDataDefaultTypeInternal::~UnitTypeDataDefaultTypeInternal
PUBLIC	??1UpgradeDataDefaultTypeInternal@SC2APIProtocol@@QEAA@XZ ; SC2APIProtocol::UpgradeDataDefaultTypeInternal::~UpgradeDataDefaultTypeInternal
PUBLIC	??1BuffDataDefaultTypeInternal@SC2APIProtocol@@QEAA@XZ ; SC2APIProtocol::BuffDataDefaultTypeInternal::~BuffDataDefaultTypeInternal
PUBLIC	??1EffectDataDefaultTypeInternal@SC2APIProtocol@@QEAA@XZ ; SC2APIProtocol::EffectDataDefaultTypeInternal::~EffectDataDefaultTypeInternal
PUBLIC	?descriptor_table_s2clientprotocol_2fdata_2eproto_getter@@YAPEBUDescriptorTable@internal@protobuf@google@@XZ ; descriptor_table_s2clientprotocol_2fdata_2eproto_getter
PUBLIC	?set_has_ability_id@_Internal@AbilityData@SC2APIProtocol@@SAXPEAV?$HasBits@$00@internal@protobuf@google@@@Z ; SC2APIProtocol::AbilityData::_Internal::set_has_ability_id
PUBLIC	?set_has_link_index@_Internal@AbilityData@SC2APIProtocol@@SAXPEAV?$HasBits@$00@internal@protobuf@google@@@Z ; SC2APIProtocol::AbilityData::_Internal::set_has_link_index
PUBLIC	?set_has_remaps_to_ability_id@_Internal@AbilityData@SC2APIProtocol@@SAXPEAV?$HasBits@$00@internal@protobuf@google@@@Z ; SC2APIProtocol::AbilityData::_Internal::set_has_remaps_to_ability_id
PUBLIC	?set_has_available@_Internal@AbilityData@SC2APIProtocol@@SAXPEAV?$HasBits@$00@internal@protobuf@google@@@Z ; SC2APIProtocol::AbilityData::_Internal::set_has_available
PUBLIC	?set_has_allow_minimap@_Internal@AbilityData@SC2APIProtocol@@SAXPEAV?$HasBits@$00@internal@protobuf@google@@@Z ; SC2APIProtocol::AbilityData::_Internal::set_has_allow_minimap
PUBLIC	?set_has_allow_autocast@_Internal@AbilityData@SC2APIProtocol@@SAXPEAV?$HasBits@$00@internal@protobuf@google@@@Z ; SC2APIProtocol::AbilityData::_Internal::set_has_allow_autocast
PUBLIC	?set_has_is_building@_Internal@AbilityData@SC2APIProtocol@@SAXPEAV?$HasBits@$00@internal@protobuf@google@@@Z ; SC2APIProtocol::AbilityData::_Internal::set_has_is_building
PUBLIC	?set_has_footprint_radius@_Internal@AbilityData@SC2APIProtocol@@SAXPEAV?$HasBits@$00@internal@protobuf@google@@@Z ; SC2APIProtocol::AbilityData::_Internal::set_has_footprint_radius
PUBLIC	?set_has_is_instant_placement@_Internal@AbilityData@SC2APIProtocol@@SAXPEAV?$HasBits@$00@internal@protobuf@google@@@Z ; SC2APIProtocol::AbilityData::_Internal::set_has_is_instant_placement
PUBLIC	?set_has_cast_range@_Internal@AbilityData@SC2APIProtocol@@SAXPEAV?$HasBits@$00@internal@protobuf@google@@@Z ; SC2APIProtocol::AbilityData::_Internal::set_has_cast_range
PUBLIC	??$MergeFrom@VUnknownFieldSet@protobuf@google@@@InternalMetadata@internal@protobuf@google@@QEAAXAEBV0123@@Z ; google::protobuf::internal::InternalMetadata::MergeFrom<google::protobuf::UnknownFieldSet>
PUBLIC	??$DeleteReturnArena@VUnknownFieldSet@protobuf@google@@@InternalMetadata@internal@protobuf@google@@QEAAPEAVArena@23@XZ ; google::protobuf::internal::InternalMetadata::DeleteReturnArena<google::protobuf::UnknownFieldSet>
PUBLIC	??$Clear@VUnknownFieldSet@protobuf@google@@@InternalMetadata@internal@protobuf@google@@QEAAXXZ ; google::protobuf::internal::InternalMetadata::Clear<google::protobuf::UnknownFieldSet>
PUBLIC	??$UnalignedLoad@M@internal@protobuf@google@@YAMPEBD@Z ; google::protobuf::internal::UnalignedLoad<float>
PUBLIC	??$swap@I$0A@@std@@YAXAEAI0@Z			; std::swap<unsigned int,0>
PUBLIC	??$memswap@$0BM@@internal@protobuf@google@@YAXPEAD0@Z ; google::protobuf::internal::memswap<28>
PUBLIC	?set_has_bonus@_Internal@DamageBonus@SC2APIProtocol@@SAXPEAV?$HasBits@$00@internal@protobuf@google@@@Z ; SC2APIProtocol::DamageBonus::_Internal::set_has_bonus
PUBLIC	??$swap@M$0A@@std@@YAXAEAM0@Z			; std::swap<float,0>
PUBLIC	?set_has_damage@_Internal@Weapon@SC2APIProtocol@@SAXPEAV?$HasBits@$00@internal@protobuf@google@@@Z ; SC2APIProtocol::Weapon::_Internal::set_has_damage
PUBLIC	?set_has_attacks@_Internal@Weapon@SC2APIProtocol@@SAXPEAV?$HasBits@$00@internal@protobuf@google@@@Z ; SC2APIProtocol::Weapon::_Internal::set_has_attacks
PUBLIC	?set_has_range@_Internal@Weapon@SC2APIProtocol@@SAXPEAV?$HasBits@$00@internal@protobuf@google@@@Z ; SC2APIProtocol::Weapon::_Internal::set_has_range
PUBLIC	?set_has_speed@_Internal@Weapon@SC2APIProtocol@@SAXPEAV?$HasBits@$00@internal@protobuf@google@@@Z ; SC2APIProtocol::Weapon::_Internal::set_has_speed
PUBLIC	??$ExpectTag@$0BK@@internal@protobuf@google@@YA_NPEBD@Z ; google::protobuf::internal::ExpectTag<26>
PUBLIC	??D?$RepeatedPtrIterator@$$CBVDamageBonus@SC2APIProtocol@@@internal@protobuf@google@@QEBAAEBVDamageBonus@SC2APIProtocol@@XZ ; google::protobuf::internal::RepeatedPtrIterator<SC2APIProtocol::DamageBonus const >::operator*
PUBLIC	??E?$RepeatedPtrIterator@$$CBVDamageBonus@SC2APIProtocol@@@internal@protobuf@google@@QEAAAEAV0123@XZ ; google::protobuf::internal::RepeatedPtrIterator<SC2APIProtocol::DamageBonus const >::operator++
PUBLIC	??9internal@protobuf@google@@YA_NAEBV?$RepeatedPtrIterator@$$CBVDamageBonus@SC2APIProtocol@@@012@0@Z ; google::protobuf::internal::operator!=
PUBLIC	??$MessageSize@VDamageBonus@SC2APIProtocol@@@WireFormatLite@internal@protobuf@google@@SA_KAEBVDamageBonus@SC2APIProtocol@@@Z ; google::protobuf::internal::WireFormatLite::MessageSize<SC2APIProtocol::DamageBonus>
PUBLIC	??$memswap@$0BA@@internal@protobuf@google@@YAXPEAD0@Z ; google::protobuf::internal::memswap<16>
PUBLIC	?set_has_unit_id@_Internal@UnitTypeData@SC2APIProtocol@@SAXPEAV?$HasBits@$00@internal@protobuf@google@@@Z ; SC2APIProtocol::UnitTypeData::_Internal::set_has_unit_id
PUBLIC	?set_has_available@_Internal@UnitTypeData@SC2APIProtocol@@SAXPEAV?$HasBits@$00@internal@protobuf@google@@@Z ; SC2APIProtocol::UnitTypeData::_Internal::set_has_available
PUBLIC	?set_has_cargo_size@_Internal@UnitTypeData@SC2APIProtocol@@SAXPEAV?$HasBits@$00@internal@protobuf@google@@@Z ; SC2APIProtocol::UnitTypeData::_Internal::set_has_cargo_size
PUBLIC	?set_has_mineral_cost@_Internal@UnitTypeData@SC2APIProtocol@@SAXPEAV?$HasBits@$00@internal@protobuf@google@@@Z ; SC2APIProtocol::UnitTypeData::_Internal::set_has_mineral_cost
PUBLIC	?set_has_vespene_cost@_Internal@UnitTypeData@SC2APIProtocol@@SAXPEAV?$HasBits@$00@internal@protobuf@google@@@Z ; SC2APIProtocol::UnitTypeData::_Internal::set_has_vespene_cost
PUBLIC	?set_has_food_required@_Internal@UnitTypeData@SC2APIProtocol@@SAXPEAV?$HasBits@$00@internal@protobuf@google@@@Z ; SC2APIProtocol::UnitTypeData::_Internal::set_has_food_required
PUBLIC	?set_has_food_provided@_Internal@UnitTypeData@SC2APIProtocol@@SAXPEAV?$HasBits@$00@internal@protobuf@google@@@Z ; SC2APIProtocol::UnitTypeData::_Internal::set_has_food_provided
PUBLIC	?set_has_ability_id@_Internal@UnitTypeData@SC2APIProtocol@@SAXPEAV?$HasBits@$00@internal@protobuf@google@@@Z ; SC2APIProtocol::UnitTypeData::_Internal::set_has_ability_id
PUBLIC	?set_has_build_time@_Internal@UnitTypeData@SC2APIProtocol@@SAXPEAV?$HasBits@$00@internal@protobuf@google@@@Z ; SC2APIProtocol::UnitTypeData::_Internal::set_has_build_time
PUBLIC	?set_has_has_vespene@_Internal@UnitTypeData@SC2APIProtocol@@SAXPEAV?$HasBits@$00@internal@protobuf@google@@@Z ; SC2APIProtocol::UnitTypeData::_Internal::set_has_has_vespene
PUBLIC	?set_has_has_minerals@_Internal@UnitTypeData@SC2APIProtocol@@SAXPEAV?$HasBits@$00@internal@protobuf@google@@@Z ; SC2APIProtocol::UnitTypeData::_Internal::set_has_has_minerals
PUBLIC	?set_has_sight_range@_Internal@UnitTypeData@SC2APIProtocol@@SAXPEAV?$HasBits@$00@internal@protobuf@google@@@Z ; SC2APIProtocol::UnitTypeData::_Internal::set_has_sight_range
PUBLIC	?set_has_unit_alias@_Internal@UnitTypeData@SC2APIProtocol@@SAXPEAV?$HasBits@$00@internal@protobuf@google@@@Z ; SC2APIProtocol::UnitTypeData::_Internal::set_has_unit_alias
PUBLIC	?set_has_tech_requirement@_Internal@UnitTypeData@SC2APIProtocol@@SAXPEAV?$HasBits@$00@internal@protobuf@google@@@Z ; SC2APIProtocol::UnitTypeData::_Internal::set_has_tech_requirement
PUBLIC	?set_has_require_attached@_Internal@UnitTypeData@SC2APIProtocol@@SAXPEAV?$HasBits@$00@internal@protobuf@google@@@Z ; SC2APIProtocol::UnitTypeData::_Internal::set_has_require_attached
PUBLIC	?set_has_movement_speed@_Internal@UnitTypeData@SC2APIProtocol@@SAXPEAV?$HasBits@$00@internal@protobuf@google@@@Z ; SC2APIProtocol::UnitTypeData::_Internal::set_has_movement_speed
PUBLIC	?set_has_armor@_Internal@UnitTypeData@SC2APIProtocol@@SAXPEAV?$HasBits@$00@internal@protobuf@google@@@Z ; SC2APIProtocol::UnitTypeData::_Internal::set_has_armor
PUBLIC	??$ExpectTag@$0EA@@internal@protobuf@google@@YA_NPEBD@Z ; google::protobuf::internal::ExpectTag<64>
PUBLIC	??$PackedEnumParser@VUnknownFieldSet@protobuf@google@@@internal@protobuf@google@@YAPEBDPEAXPEBDPEAVParseContext@012@P6A_NH@ZPEAVInternalMetadata@012@H@Z ; google::protobuf::internal::PackedEnumParser<google::protobuf::UnknownFieldSet>
PUBLIC	??$ExpectTag@$0FK@@internal@protobuf@google@@YA_NPEBD@Z ; google::protobuf::internal::ExpectTag<90>
PUBLIC	??$ExpectTag@$0KI@@internal@protobuf@google@@YA_NPEBD@Z ; google::protobuf::internal::ExpectTag<168>
PUBLIC	??D?$RepeatedPtrIterator@$$CBVWeapon@SC2APIProtocol@@@internal@protobuf@google@@QEBAAEBVWeapon@SC2APIProtocol@@XZ ; google::protobuf::internal::RepeatedPtrIterator<SC2APIProtocol::Weapon const >::operator*
PUBLIC	??E?$RepeatedPtrIterator@$$CBVWeapon@SC2APIProtocol@@@internal@protobuf@google@@QEAAAEAV0123@XZ ; google::protobuf::internal::RepeatedPtrIterator<SC2APIProtocol::Weapon const >::operator++
PUBLIC	??9internal@protobuf@google@@YA_NAEBV?$RepeatedPtrIterator@$$CBVWeapon@SC2APIProtocol@@@012@0@Z ; google::protobuf::internal::operator!=
PUBLIC	??$MessageSize@VWeapon@SC2APIProtocol@@@WireFormatLite@internal@protobuf@google@@SA_KAEBVWeapon@SC2APIProtocol@@@Z ; google::protobuf::internal::WireFormatLite::MessageSize<SC2APIProtocol::Weapon>
PUBLIC	??$memswap@$0DM@@internal@protobuf@google@@YAXPEAD0@Z ; google::protobuf::internal::memswap<60>
PUBLIC	?set_has_upgrade_id@_Internal@UpgradeData@SC2APIProtocol@@SAXPEAV?$HasBits@$00@internal@protobuf@google@@@Z ; SC2APIProtocol::UpgradeData::_Internal::set_has_upgrade_id
PUBLIC	?set_has_mineral_cost@_Internal@UpgradeData@SC2APIProtocol@@SAXPEAV?$HasBits@$00@internal@protobuf@google@@@Z ; SC2APIProtocol::UpgradeData::_Internal::set_has_mineral_cost
PUBLIC	?set_has_vespene_cost@_Internal@UpgradeData@SC2APIProtocol@@SAXPEAV?$HasBits@$00@internal@protobuf@google@@@Z ; SC2APIProtocol::UpgradeData::_Internal::set_has_vespene_cost
PUBLIC	?set_has_research_time@_Internal@UpgradeData@SC2APIProtocol@@SAXPEAV?$HasBits@$00@internal@protobuf@google@@@Z ; SC2APIProtocol::UpgradeData::_Internal::set_has_research_time
PUBLIC	?set_has_ability_id@_Internal@UpgradeData@SC2APIProtocol@@SAXPEAV?$HasBits@$00@internal@protobuf@google@@@Z ; SC2APIProtocol::UpgradeData::_Internal::set_has_ability_id
PUBLIC	??$memswap@$0BE@@internal@protobuf@google@@YAXPEAD0@Z ; google::protobuf::internal::memswap<20>
PUBLIC	?set_has_buff_id@_Internal@BuffData@SC2APIProtocol@@SAXPEAV?$HasBits@$00@internal@protobuf@google@@@Z ; SC2APIProtocol::BuffData::_Internal::set_has_buff_id
PUBLIC	?set_has_effect_id@_Internal@EffectData@SC2APIProtocol@@SAXPEAV?$HasBits@$00@internal@protobuf@google@@@Z ; SC2APIProtocol::EffectData::_Internal::set_has_effect_id
PUBLIC	?set_has_radius@_Internal@EffectData@SC2APIProtocol@@SAXPEAV?$HasBits@$00@internal@protobuf@google@@@Z ; SC2APIProtocol::EffectData::_Internal::set_has_radius
PUBLIC	??$memswap@$07@internal@protobuf@google@@YAXPEAD0@Z ; google::protobuf::internal::memswap<8>
PUBLIC	??$CreateMessageInternal@VAbilityData@SC2APIProtocol@@@Arena@protobuf@google@@CAPEAVAbilityData@SC2APIProtocol@@PEAV012@@Z ; google::protobuf::Arena::CreateMessageInternal<SC2APIProtocol::AbilityData>
PUBLIC	??$CreateMessageInternal@VDamageBonus@SC2APIProtocol@@@Arena@protobuf@google@@CAPEAVDamageBonus@SC2APIProtocol@@PEAV012@@Z ; google::protobuf::Arena::CreateMessageInternal<SC2APIProtocol::DamageBonus>
PUBLIC	??$CreateMessageInternal@VWeapon@SC2APIProtocol@@@Arena@protobuf@google@@CAPEAVWeapon@SC2APIProtocol@@PEAV012@@Z ; google::protobuf::Arena::CreateMessageInternal<SC2APIProtocol::Weapon>
PUBLIC	??$CreateMessageInternal@VUnitTypeData@SC2APIProtocol@@@Arena@protobuf@google@@CAPEAVUnitTypeData@SC2APIProtocol@@PEAV012@@Z ; google::protobuf::Arena::CreateMessageInternal<SC2APIProtocol::UnitTypeData>
PUBLIC	??$CreateMessageInternal@VUpgradeData@SC2APIProtocol@@@Arena@protobuf@google@@CAPEAVUpgradeData@SC2APIProtocol@@PEAV012@@Z ; google::protobuf::Arena::CreateMessageInternal<SC2APIProtocol::UpgradeData>
PUBLIC	??$CreateMessageInternal@VBuffData@SC2APIProtocol@@@Arena@protobuf@google@@CAPEAVBuffData@SC2APIProtocol@@PEAV012@@Z ; google::protobuf::Arena::CreateMessageInternal<SC2APIProtocol::BuffData>
PUBLIC	??$CreateMessageInternal@VEffectData@SC2APIProtocol@@@Arena@protobuf@google@@CAPEAVEffectData@SC2APIProtocol@@PEAV012@@Z ; google::protobuf::Arena::CreateMessageInternal<SC2APIProtocol::EffectData>
PUBLIC	?deallocate@?$allocator@U_Container_proxy@std@@@std@@QEAAXQEAU_Container_proxy@2@_K@Z ; std::allocator<std::_Container_proxy>::deallocate
PUBLIC	?allocate@?$allocator@U_Container_proxy@std@@@std@@QEAAPEAU_Container_proxy@2@_K@Z ; std::allocator<std::_Container_proxy>::allocate
PUBLIC	??$?0VUnknownField@protobuf@google@@@?$allocator@U_Container_proxy@std@@@std@@QEAA@AEBV?$allocator@VUnknownField@protobuf@google@@@1@@Z ; std::allocator<std::_Container_proxy>::allocator<std::_Container_proxy><google::protobuf::UnknownField>
PUBLIC	??$exchange@PEAU_Container_proxy@std@@$$T@std@@YAPEAU_Container_proxy@0@AEAPEAU10@$$QEA$$T@Z ; std::exchange<std::_Container_proxy *,std::nullptr_t>
PUBLIC	??$_Delete_plain_internal@V?$allocator@U_Container_proxy@std@@@std@@@std@@YAXAEAV?$allocator@U_Container_proxy@std@@@0@QEAU_Container_proxy@0@@Z ; std::_Delete_plain_internal<std::allocator<std::_Container_proxy> >
PUBLIC	??$?0$$V@?$_Compressed_pair@V?$allocator@VUnknownField@protobuf@google@@@std@@V?$_Vector_val@U?$_Simple_types@VUnknownField@protobuf@google@@@std@@@2@$00@std@@QEAA@U_Zero_then_variadic_args_t@1@@Z ; std::_Compressed_pair<std::allocator<google::protobuf::UnknownField>,std::_Vector_val<std::_Simple_types<google::protobuf::UnknownField> >,1>::_Compressed_pair<std::allocator<google::protobuf::UnknownField>,std::_Vector_val<std::_Simple_types<google::protobuf::UnknownField> >,1><>
PUBLIC	??$_Alloc_proxy@V?$allocator@U_Container_proxy@std@@@std@@@_Container_base12@std@@QEAAX$$QEAV?$allocator@U_Container_proxy@std@@@1@@Z ; std::_Container_base12::_Alloc_proxy<std::allocator<std::_Container_proxy> >
PUBLIC	??$_Atomic_address_as@HU?$_Atomic_padded@H@std@@@std@@YAPEDHAEBU?$_Atomic_padded@H@0@@Z ; std::_Atomic_address_as<int,std::_Atomic_padded<int> >
PUBLIC	??$_Atomic_address_as@HU?$_Atomic_padded@H@std@@@std@@YAPECHAEAU?$_Atomic_padded@H@0@@Z ; std::_Atomic_address_as<int,std::_Atomic_padded<int> >
PUBLIC	??$_Atomic_reinterpret_as@HH@std@@YAHAEBH@Z	; std::_Atomic_reinterpret_as<int,int>
PUBLIC	??$_Destroy_range@V?$allocator@VUnknownField@protobuf@google@@@std@@@std@@YAXPEAVUnknownField@protobuf@google@@QEAV123@AEAV?$allocator@VUnknownField@protobuf@google@@@0@@Z ; std::_Destroy_range<std::allocator<google::protobuf::UnknownField> >
PUBLIC	??$_Unfancy@D@std@@YAPEADPEAD@Z			; std::_Unfancy<char>
PUBLIC	??$_Deallocate@$0BA@$0A@@std@@YAXPEAX_K@Z	; std::_Deallocate<16,0>
PUBLIC	??$addressof@D@std@@YAPEADAEAD@Z		; std::addressof<char>
PUBLIC	??$construct_at@DAEBD$0A@@std@@YAPEADQEADAEBD@Z	; std::construct_at<char,char const &,0>
PUBLIC	??$_Voidify_iter@PEAD@std@@YAPEAXPEAD@Z		; std::_Voidify_iter<char *>
PUBLIC	??$forward@AEBD@std@@YAAEBDAEBD@Z		; std::forward<char const &>
PUBLIC	??$addressof@U_Container_proxy@std@@@std@@YAPEAU_Container_proxy@0@AEAU10@@Z ; std::addressof<std::_Container_proxy>
PUBLIC	??$_Voidify_iter@PEAU_Container_proxy@std@@@std@@YAPEAXPEAU_Container_proxy@0@@Z ; std::_Voidify_iter<std::_Container_proxy *>
PUBLIC	??$forward@PEAU_Container_base12@std@@@std@@YA$$QEAPEAU_Container_base12@0@AEAPEAU10@@Z ; std::forward<std::_Container_base12 *>
PUBLIC	??$construct_at@U_Container_proxy@std@@PEAU_Container_base12@2@$0A@@std@@YAPEAU_Container_proxy@0@QEAU10@$$QEAPEAU_Container_base12@0@@Z ; std::construct_at<std::_Container_proxy,std::_Container_base12 *,0>
PUBLIC	??$move@AEAH@std@@YA$$QEAHAEAH@Z		; std::move<int &>
PUBLIC	??$move@AEA_J@std@@YA$$QEA_JAEA_J@Z		; std::move<__int64 &>
PUBLIC	??$move@AEAVTaggedStringPtr@internal@protobuf@google@@@std@@YA$$QEAVTaggedStringPtr@internal@protobuf@google@@AEAV1234@@Z ; std::move<google::protobuf::internal::TaggedStringPtr &>
PUBLIC	??$forward@AEAPEAVArena@protobuf@google@@@std@@YAAEAPEAVArena@protobuf@google@@AEAPEAV123@@Z ; std::forward<google::protobuf::Arena * &>
PUBLIC	??$forward@AEAH@std@@YAAEAHAEAH@Z		; std::forward<int &>
PUBLIC	??$forward@AEAPEAURep@RepeatedPtrFieldBase@internal@protobuf@google@@@std@@YAAEAPEAURep@RepeatedPtrFieldBase@internal@protobuf@google@@AEAPEAU12345@@Z ; std::forward<google::protobuf::internal::RepeatedPtrFieldBase::Rep * &>
PUBLIC	??$?0AEAPEAVArena@protobuf@google@@AEAHAEAHAEAPEAURep@RepeatedPtrFieldBase@internal@12@$0A@@?$tuple@PEAVArena@protobuf@google@@HHPEAURep@RepeatedPtrFieldBase@internal@23@@std@@QEAA@AEAPEAVArena@protobuf@google@@AEAH1AEAPEAURep@RepeatedPtrFieldBase@internal@34@@Z ; std::tuple<google::protobuf::Arena *,int,int,google::protobuf::internal::RepeatedPtrFieldBase::Rep *>::tuple<google::protobuf::Arena *,int,int,google::protobuf::internal::RepeatedPtrFieldBase::Rep *><google::protobuf::Arena * &,int &,int &,google::protobuf::internal::RepeatedPtrFieldBase::Rep * &,0>
PUBLIC	??$?0AEAPEAVArena@protobuf@google@@$0A@@?$tuple@AEAPEAVArena@protobuf@google@@AEAHAEAHAEAPEAURep@RepeatedPtrFieldBase@internal@23@@std@@QEAA@AEAPEAVArena@protobuf@google@@AEAH1AEAPEAURep@RepeatedPtrFieldBase@internal@34@@Z ; std::tuple<google::protobuf::Arena * &,int &,int &,google::protobuf::internal::RepeatedPtrFieldBase::Rep * &>::tuple<google::protobuf::Arena * &,int &,int &,google::protobuf::internal::RepeatedPtrFieldBase::Rep * &><google::protobuf::Arena * &,0>
PUBLIC	??$forward@PEAVArena@protobuf@google@@@std@@YA$$QEAPEAVArena@protobuf@google@@AEAPEAV123@@Z ; std::forward<google::protobuf::Arena *>
PUBLIC	??$forward@V?$tuple@HHPEAURep@RepeatedPtrFieldBase@internal@protobuf@google@@@std@@@std@@YA$$QEAV?$tuple@HHPEAURep@RepeatedPtrFieldBase@internal@protobuf@google@@@0@AEAV10@@Z ; std::forward<std::tuple<int,int,google::protobuf::internal::RepeatedPtrFieldBase::Rep *> >
PUBLIC	??$?4HHPEAURep@RepeatedPtrFieldBase@internal@protobuf@google@@$0A@@?$tuple@AEAHAEAHAEAPEAURep@RepeatedPtrFieldBase@internal@protobuf@google@@@std@@QEAAAEAV01@$$QEAV?$tuple@HHPEAURep@RepeatedPtrFieldBase@internal@protobuf@google@@@1@@Z ; std::tuple<int &,int &,google::protobuf::internal::RepeatedPtrFieldBase::Rep * &>::operator=<int,int,google::protobuf::internal::RepeatedPtrFieldBase::Rep *,0>
PUBLIC	??$?4HHPEAURep@RepeatedPtrFieldBase@internal@protobuf@google@@$0A@@?$tuple@AEAHAEAHAEAPEAURep@RepeatedPtrFieldBase@internal@protobuf@google@@@std@@QEAAAEAV01@AEBV?$tuple@HHPEAURep@RepeatedPtrFieldBase@internal@protobuf@google@@@1@@Z ; std::tuple<int &,int &,google::protobuf::internal::RepeatedPtrFieldBase::Rep * &>::operator=<int,int,google::protobuf::internal::RepeatedPtrFieldBase::Rep *,0>
PUBLIC	??$PtrValue@U?$Container@VUnknownFieldSet@protobuf@google@@@InternalMetadata@internal@protobuf@google@@@InternalMetadata@internal@protobuf@google@@AEBAPEAU?$Container@VUnknownFieldSet@protobuf@google@@@0123@XZ ; google::protobuf::internal::InternalMetadata::PtrValue<google::protobuf::internal::InternalMetadata::Container<google::protobuf::UnknownFieldSet> >
PUBLIC	??0?$Container@VUnknownFieldSet@protobuf@google@@@InternalMetadata@internal@protobuf@google@@QEAA@XZ ; google::protobuf::internal::InternalMetadata::Container<google::protobuf::UnknownFieldSet>::Container<google::protobuf::UnknownFieldSet>
PUBLIC	??1?$Container@VUnknownFieldSet@protobuf@google@@@InternalMetadata@internal@protobuf@google@@QEAA@XZ ; google::protobuf::internal::InternalMetadata::Container<google::protobuf::UnknownFieldSet>::~Container<google::protobuf::UnknownFieldSet>
PUBLIC	??_G?$Container@VUnknownFieldSet@protobuf@google@@@InternalMetadata@internal@protobuf@google@@QEAAPEAXI@Z ; google::protobuf::internal::InternalMetadata::Container<google::protobuf::UnknownFieldSet>::`scalar deleting destructor'
PUBLIC	??$mutable_unknown_fields_slow@VUnknownFieldSet@protobuf@google@@@InternalMetadata@internal@protobuf@google@@AEAAPEAVUnknownFieldSet@23@XZ ; google::protobuf::internal::InternalMetadata::mutable_unknown_fields_slow<google::protobuf::UnknownFieldSet>
PUBLIC	?New@?$GenericTypeHandler@VDamageBonus@SC2APIProtocol@@@internal@protobuf@google@@SAPEAVDamageBonus@SC2APIProtocol@@PEAVArena@34@@Z ; google::protobuf::internal::GenericTypeHandler<SC2APIProtocol::DamageBonus>::New
PUBLIC	?NewFromPrototype@?$GenericTypeHandler@VDamageBonus@SC2APIProtocol@@@internal@protobuf@google@@SAPEAVDamageBonus@SC2APIProtocol@@PEBV56@PEAVArena@34@@Z ; google::protobuf::internal::GenericTypeHandler<SC2APIProtocol::DamageBonus>::NewFromPrototype
PUBLIC	?Clear@?$GenericTypeHandler@VDamageBonus@SC2APIProtocol@@@internal@protobuf@google@@SAXPEAVDamageBonus@SC2APIProtocol@@@Z ; google::protobuf::internal::GenericTypeHandler<SC2APIProtocol::DamageBonus>::Clear
PUBLIC	?Merge@?$GenericTypeHandler@VDamageBonus@SC2APIProtocol@@@internal@protobuf@google@@SAXAEBVDamageBonus@SC2APIProtocol@@PEAV56@@Z ; google::protobuf::internal::GenericTypeHandler<SC2APIProtocol::DamageBonus>::Merge
PUBLIC	??$Get@VTypeHandler@?$RepeatedPtrField@VDamageBonus@SC2APIProtocol@@@protobuf@google@@@RepeatedPtrFieldBase@internal@protobuf@google@@QEBAAEBVDamageBonus@SC2APIProtocol@@H@Z ; google::protobuf::internal::RepeatedPtrFieldBase::Get<google::protobuf::RepeatedPtrField<SC2APIProtocol::DamageBonus>::TypeHandler>
PUBLIC	??$Add@VTypeHandler@?$RepeatedPtrField@VDamageBonus@SC2APIProtocol@@@protobuf@google@@@RepeatedPtrFieldBase@internal@protobuf@google@@IEAAPEAVDamageBonus@SC2APIProtocol@@PEBV45@@Z ; google::protobuf::internal::RepeatedPtrFieldBase::Add<google::protobuf::RepeatedPtrField<SC2APIProtocol::DamageBonus>::TypeHandler>
PUBLIC	??$Clear@VTypeHandler@?$RepeatedPtrField@VDamageBonus@SC2APIProtocol@@@protobuf@google@@@RepeatedPtrFieldBase@internal@protobuf@google@@QEAAXXZ ; google::protobuf::internal::RepeatedPtrFieldBase::Clear<google::protobuf::RepeatedPtrField<SC2APIProtocol::DamageBonus>::TypeHandler>
PUBLIC	??$MergeFrom@VTypeHandler@?$RepeatedPtrField@VDamageBonus@SC2APIProtocol@@@protobuf@google@@@RepeatedPtrFieldBase@internal@protobuf@google@@QEAAXAEBV0123@@Z ; google::protobuf::internal::RepeatedPtrFieldBase::MergeFrom<google::protobuf::RepeatedPtrField<SC2APIProtocol::DamageBonus>::TypeHandler>
PUBLIC	??0?$RepeatedPtrIterator@VDamageBonus@SC2APIProtocol@@@internal@protobuf@google@@QEAA@PEBQEAX@Z ; google::protobuf::internal::RepeatedPtrIterator<SC2APIProtocol::DamageBonus>::RepeatedPtrIterator<SC2APIProtocol::DamageBonus>
PUBLIC	??$?0VDamageBonus@SC2APIProtocol@@$0A@@?$RepeatedPtrIterator@$$CBVDamageBonus@SC2APIProtocol@@@internal@protobuf@google@@QEAA@AEBV?$RepeatedPtrIterator@VDamageBonus@SC2APIProtocol@@@123@@Z ; google::protobuf::internal::RepeatedPtrIterator<SC2APIProtocol::DamageBonus const >::RepeatedPtrIterator<SC2APIProtocol::DamageBonus const ><SC2APIProtocol::DamageBonus,0>
PUBLIC	?New@?$GenericTypeHandler@VWeapon@SC2APIProtocol@@@internal@protobuf@google@@SAPEAVWeapon@SC2APIProtocol@@PEAVArena@34@@Z ; google::protobuf::internal::GenericTypeHandler<SC2APIProtocol::Weapon>::New
PUBLIC	?NewFromPrototype@?$GenericTypeHandler@VWeapon@SC2APIProtocol@@@internal@protobuf@google@@SAPEAVWeapon@SC2APIProtocol@@PEBV56@PEAVArena@34@@Z ; google::protobuf::internal::GenericTypeHandler<SC2APIProtocol::Weapon>::NewFromPrototype
PUBLIC	?Clear@?$GenericTypeHandler@VWeapon@SC2APIProtocol@@@internal@protobuf@google@@SAXPEAVWeapon@SC2APIProtocol@@@Z ; google::protobuf::internal::GenericTypeHandler<SC2APIProtocol::Weapon>::Clear
PUBLIC	?Merge@?$GenericTypeHandler@VWeapon@SC2APIProtocol@@@internal@protobuf@google@@SAXAEBVWeapon@SC2APIProtocol@@PEAV56@@Z ; google::protobuf::internal::GenericTypeHandler<SC2APIProtocol::Weapon>::Merge
PUBLIC	??$Get@VTypeHandler@?$RepeatedPtrField@VWeapon@SC2APIProtocol@@@protobuf@google@@@RepeatedPtrFieldBase@internal@protobuf@google@@QEBAAEBVWeapon@SC2APIProtocol@@H@Z ; google::protobuf::internal::RepeatedPtrFieldBase::Get<google::protobuf::RepeatedPtrField<SC2APIProtocol::Weapon>::TypeHandler>
PUBLIC	??$Add@VTypeHandler@?$RepeatedPtrField@VWeapon@SC2APIProtocol@@@protobuf@google@@@RepeatedPtrFieldBase@internal@protobuf@google@@IEAAPEAVWeapon@SC2APIProtocol@@PEBV45@@Z ; google::protobuf::internal::RepeatedPtrFieldBase::Add<google::protobuf::RepeatedPtrField<SC2APIProtocol::Weapon>::TypeHandler>
PUBLIC	??$Clear@VTypeHandler@?$RepeatedPtrField@VWeapon@SC2APIProtocol@@@protobuf@google@@@RepeatedPtrFieldBase@internal@protobuf@google@@QEAAXXZ ; google::protobuf::internal::RepeatedPtrFieldBase::Clear<google::protobuf::RepeatedPtrField<SC2APIProtocol::Weapon>::TypeHandler>
PUBLIC	??$MergeFrom@VTypeHandler@?$RepeatedPtrField@VWeapon@SC2APIProtocol@@@protobuf@google@@@RepeatedPtrFieldBase@internal@protobuf@google@@QEAAXAEBV0123@@Z ; google::protobuf::internal::RepeatedPtrFieldBase::MergeFrom<google::protobuf::RepeatedPtrField<SC2APIProtocol::Weapon>::TypeHandler>
PUBLIC	??0?$RepeatedPtrIterator@VWeapon@SC2APIProtocol@@@internal@protobuf@google@@QEAA@PEBQEAX@Z ; google::protobuf::internal::RepeatedPtrIterator<SC2APIProtocol::Weapon>::RepeatedPtrIterator<SC2APIProtocol::Weapon>
PUBLIC	??$?0VWeapon@SC2APIProtocol@@$0A@@?$RepeatedPtrIterator@$$CBVWeapon@SC2APIProtocol@@@internal@protobuf@google@@QEAA@AEBV?$RepeatedPtrIterator@VWeapon@SC2APIProtocol@@@123@@Z ; google::protobuf::internal::RepeatedPtrIterator<SC2APIProtocol::Weapon const >::RepeatedPtrIterator<SC2APIProtocol::Weapon const ><SC2APIProtocol::Weapon,0>
PUBLIC	??$DoMergeFrom@VUnknownFieldSet@protobuf@google@@@InternalMetadata@internal@protobuf@google@@AEAAXAEBVUnknownFieldSet@23@@Z ; google::protobuf::internal::InternalMetadata::DoMergeFrom<google::protobuf::UnknownFieldSet>
PUBLIC	??$DeleteOutOfLineHelper@VUnknownFieldSet@protobuf@google@@@InternalMetadata@internal@protobuf@google@@AEAAPEAVArena@23@XZ ; google::protobuf::internal::InternalMetadata::DeleteOutOfLineHelper<google::protobuf::UnknownFieldSet>
PUBLIC	??$DoClear@VUnknownFieldSet@protobuf@google@@@InternalMetadata@internal@protobuf@google@@AEAAXXZ ; google::protobuf::internal::InternalMetadata::DoClear<google::protobuf::UnknownFieldSet>
PUBLIC	??$move@AEAI@std@@YA$$QEAIAEAI@Z		; std::move<unsigned int &>
PUBLIC	??$SwapBlock@_K@internal@protobuf@google@@YAXPEAD0@Z ; google::protobuf::internal::SwapBlock<unsigned __int64>
PUBLIC	??$move@AEAM@std@@YA$$QEAMAEAM@Z		; std::move<float &>
PUBLIC	??R<lambda_1>@?1???$PackedEnumParser@VUnknownFieldSet@protobuf@google@@@internal@protobuf@google@@YAPEBDPEAXPEBDPEAVParseContext@123@P6A_NH@ZPEAVInternalMetadata@123@H@Z@QEBA@_K@Z ; `google::protobuf::internal::PackedEnumParser<google::protobuf::UnknownFieldSet>'::`2'::<lambda_1>::operator()
PUBLIC	??0<lambda_1>@?1???$PackedEnumParser@VUnknownFieldSet@protobuf@google@@@internal@protobuf@google@@YAPEBDPEAXPEBDPEAVParseContext@123@P6A_NH@ZPEAVInternalMetadata@123@H@Z@QEAA@AEBQEAXAEBQ6A_NH@ZAEBQEAV5123@AEBH@Z ; `google::protobuf::internal::PackedEnumParser<google::protobuf::UnknownFieldSet>'::`2'::<lambda_1>::<lambda_1>
PUBLIC	??$ReadPackedVarint@V<lambda_1>@?1???$PackedEnumParser@VUnknownFieldSet@protobuf@google@@@internal@protobuf@google@@YAPEBDPEAXPEBDPEAVParseContext@234@P6A_NH@ZPEAVInternalMetadata@234@H@Z@@EpsCopyInputStream@internal@protobuf@google@@QEAAPEBDPEBDV<lambda_1>@?1???$PackedEnumParser@VUnknownFieldSet@protobuf@google@@@123@YAPEBDPEAX0PEAVParseContext@123@P6A_NH@ZPEAVInternalMetadata@123@H@Z@@Z ; google::protobuf::internal::EpsCopyInputStream::ReadPackedVarint<`google::protobuf::internal::PackedEnumParser<google::protobuf::UnknownFieldSet>'::`2'::<lambda_1> >
PUBLIC	??$memswap@$0DE@@internal@protobuf@google@@YAXPEAD0@Z ; google::protobuf::internal::memswap<52>
PUBLIC	??$memswap@$0M@@internal@protobuf@google@@YAXPEAD0@Z ; google::protobuf::internal::memswap<12>
PUBLIC	??$memswap@$0A@@internal@protobuf@google@@YAXPEAD0@Z ; google::protobuf::internal::memswap<0>
PUBLIC	?New@?$InternalHelper@VAbilityData@SC2APIProtocol@@@Arena@protobuf@google@@CAPEAVAbilityData@SC2APIProtocol@@XZ ; google::protobuf::Arena::InternalHelper<SC2APIProtocol::AbilityData>::New
PUBLIC	??$DoCreateMessage@VAbilityData@SC2APIProtocol@@$$V@Arena@protobuf@google@@AEAAPEAVAbilityData@SC2APIProtocol@@XZ ; google::protobuf::Arena::DoCreateMessage<SC2APIProtocol::AbilityData>
PUBLIC	?New@?$InternalHelper@VDamageBonus@SC2APIProtocol@@@Arena@protobuf@google@@CAPEAVDamageBonus@SC2APIProtocol@@XZ ; google::protobuf::Arena::InternalHelper<SC2APIProtocol::DamageBonus>::New
PUBLIC	??$DoCreateMessage@VDamageBonus@SC2APIProtocol@@$$V@Arena@protobuf@google@@AEAAPEAVDamageBonus@SC2APIProtocol@@XZ ; google::protobuf::Arena::DoCreateMessage<SC2APIProtocol::DamageBonus>
PUBLIC	?New@?$InternalHelper@VWeapon@SC2APIProtocol@@@Arena@protobuf@google@@CAPEAVWeapon@SC2APIProtocol@@XZ ; google::protobuf::Arena::InternalHelper<SC2APIProtocol::Weapon>::New
PUBLIC	??$DoCreateMessage@VWeapon@SC2APIProtocol@@$$V@Arena@protobuf@google@@AEAAPEAVWeapon@SC2APIProtocol@@XZ ; google::protobuf::Arena::DoCreateMessage<SC2APIProtocol::Weapon>
PUBLIC	?New@?$InternalHelper@VUnitTypeData@SC2APIProtocol@@@Arena@protobuf@google@@CAPEAVUnitTypeData@SC2APIProtocol@@XZ ; google::protobuf::Arena::InternalHelper<SC2APIProtocol::UnitTypeData>::New
PUBLIC	??$DoCreateMessage@VUnitTypeData@SC2APIProtocol@@$$V@Arena@protobuf@google@@AEAAPEAVUnitTypeData@SC2APIProtocol@@XZ ; google::protobuf::Arena::DoCreateMessage<SC2APIProtocol::UnitTypeData>
PUBLIC	?New@?$InternalHelper@VUpgradeData@SC2APIProtocol@@@Arena@protobuf@google@@CAPEAVUpgradeData@SC2APIProtocol@@XZ ; google::protobuf::Arena::InternalHelper<SC2APIProtocol::UpgradeData>::New
PUBLIC	??$DoCreateMessage@VUpgradeData@SC2APIProtocol@@$$V@Arena@protobuf@google@@AEAAPEAVUpgradeData@SC2APIProtocol@@XZ ; google::protobuf::Arena::DoCreateMessage<SC2APIProtocol::UpgradeData>
PUBLIC	?New@?$InternalHelper@VBuffData@SC2APIProtocol@@@Arena@protobuf@google@@CAPEAVBuffData@SC2APIProtocol@@XZ ; google::protobuf::Arena::InternalHelper<SC2APIProtocol::BuffData>::New
PUBLIC	??$DoCreateMessage@VBuffData@SC2APIProtocol@@$$V@Arena@protobuf@google@@AEAAPEAVBuffData@SC2APIProtocol@@XZ ; google::protobuf::Arena::DoCreateMessage<SC2APIProtocol::BuffData>
PUBLIC	?New@?$InternalHelper@VEffectData@SC2APIProtocol@@@Arena@protobuf@google@@CAPEAVEffectData@SC2APIProtocol@@XZ ; google::protobuf::Arena::InternalHelper<SC2APIProtocol::EffectData>::New
PUBLIC	??$DoCreateMessage@VEffectData@SC2APIProtocol@@$$V@Arena@protobuf@google@@AEAAPEAVEffectData@SC2APIProtocol@@XZ ; google::protobuf::Arena::DoCreateMessage<SC2APIProtocol::EffectData>
PUBLIC	??$_Deallocate_plain@V?$allocator@U_Container_proxy@std@@@std@@@std@@YAXAEAV?$allocator@U_Container_proxy@std@@@0@QEAU_Container_proxy@0@@Z ; std::_Deallocate_plain<std::allocator<std::_Container_proxy> >
PUBLIC	??$_Unfancy@U_Container_proxy@std@@@std@@YAPEAU_Container_proxy@0@PEAU10@@Z ; std::_Unfancy<std::_Container_proxy>
PUBLIC	??$_Get_size_of_n@$0BA@@std@@YA_K_K@Z		; std::_Get_size_of_n<16>
PUBLIC	??$_Allocate@$0BA@U_Default_allocate_traits@std@@$0A@@std@@YAPEAX_K@Z ; std::_Allocate<16,std::_Default_allocate_traits,0>
PUBLIC	??$?0U_Exact_args_t@std@@AEAPEAVArena@protobuf@google@@AEAHAEAHAEAPEAURep@RepeatedPtrFieldBase@internal@34@$0A@@?$tuple@PEAVArena@protobuf@google@@HHPEAURep@RepeatedPtrFieldBase@internal@23@@std@@QEAA@U_Exact_args_t@1@AEAPEAVArena@protobuf@google@@AEAH2AEAPEAURep@RepeatedPtrFieldBase@internal@45@@Z ; std::tuple<google::protobuf::Arena *,int,int,google::protobuf::internal::RepeatedPtrFieldBase::Rep *>::tuple<google::protobuf::Arena *,int,int,google::protobuf::internal::RepeatedPtrFieldBase::Rep *><std::_Exact_args_t,google::protobuf::Arena * &,int &,int &,google::protobuf::internal::RepeatedPtrFieldBase::Rep * &,0>
PUBLIC	??$?0U_Exact_args_t@std@@AEAPEAVArena@protobuf@google@@AEAHAEAHAEAPEAURep@RepeatedPtrFieldBase@internal@34@$0A@@?$tuple@AEAPEAVArena@protobuf@google@@AEAHAEAHAEAPEAURep@RepeatedPtrFieldBase@internal@23@@std@@QEAA@U_Exact_args_t@1@AEAPEAVArena@protobuf@google@@AEAH2AEAPEAURep@RepeatedPtrFieldBase@internal@45@@Z ; std::tuple<google::protobuf::Arena * &,int &,int &,google::protobuf::internal::RepeatedPtrFieldBase::Rep * &>::tuple<google::protobuf::Arena * &,int &,int &,google::protobuf::internal::RepeatedPtrFieldBase::Rep * &><std::_Exact_args_t,google::protobuf::Arena * &,int &,int &,google::protobuf::internal::RepeatedPtrFieldBase::Rep * &,0>
PUBLIC	??$forward@H@std@@YA$$QEAHAEAH@Z		; std::forward<int>
PUBLIC	??$forward@V?$tuple@HPEAURep@RepeatedPtrFieldBase@internal@protobuf@google@@@std@@@std@@YA$$QEAV?$tuple@HPEAURep@RepeatedPtrFieldBase@internal@protobuf@google@@@0@AEAV10@@Z ; std::forward<std::tuple<int,google::protobuf::internal::RepeatedPtrFieldBase::Rep *> >
PUBLIC	??$?4HPEAURep@RepeatedPtrFieldBase@internal@protobuf@google@@$0A@@?$tuple@AEAHAEAPEAURep@RepeatedPtrFieldBase@internal@protobuf@google@@@std@@QEAAAEAV01@$$QEAV?$tuple@HPEAURep@RepeatedPtrFieldBase@internal@protobuf@google@@@1@@Z ; std::tuple<int &,google::protobuf::internal::RepeatedPtrFieldBase::Rep * &>::operator=<int,google::protobuf::internal::RepeatedPtrFieldBase::Rep *,0>
PUBLIC	??$?4HPEAURep@RepeatedPtrFieldBase@internal@protobuf@google@@$0A@@?$tuple@AEAHAEAPEAURep@RepeatedPtrFieldBase@internal@protobuf@google@@@std@@QEAAAEAV01@AEBV?$tuple@HPEAURep@RepeatedPtrFieldBase@internal@protobuf@google@@@1@@Z ; std::tuple<int &,google::protobuf::internal::RepeatedPtrFieldBase::Rep * &>::operator=<int,google::protobuf::internal::RepeatedPtrFieldBase::Rep *,0>
PUBLIC	??$Create@U?$Container@VUnknownFieldSet@protobuf@google@@@InternalMetadata@internal@protobuf@google@@$$V@Arena@protobuf@google@@SAPEAU?$Container@VUnknownFieldSet@protobuf@google@@@InternalMetadata@internal@12@PEAV012@@Z ; google::protobuf::Arena::Create<google::protobuf::internal::InternalMetadata::Container<google::protobuf::UnknownFieldSet> >
PUBLIC	??$cast@VTypeHandler@?$RepeatedPtrField@VDamageBonus@SC2APIProtocol@@@protobuf@google@@@RepeatedPtrFieldBase@internal@protobuf@google@@CAPEAVDamageBonus@SC2APIProtocol@@PEAX@Z ; google::protobuf::internal::RepeatedPtrFieldBase::cast<google::protobuf::RepeatedPtrField<SC2APIProtocol::DamageBonus>::TypeHandler>
PUBLIC	??$MergeFromInnerLoop@VTypeHandler@?$RepeatedPtrField@VDamageBonus@SC2APIProtocol@@@protobuf@google@@@RepeatedPtrFieldBase@internal@protobuf@google@@AEAAXPEAPEAX0HH@Z ; google::protobuf::internal::RepeatedPtrFieldBase::MergeFromInnerLoop<google::protobuf::RepeatedPtrField<SC2APIProtocol::DamageBonus>::TypeHandler>
PUBLIC	??$cast@VTypeHandler@?$RepeatedPtrField@VWeapon@SC2APIProtocol@@@protobuf@google@@@RepeatedPtrFieldBase@internal@protobuf@google@@CAPEAVWeapon@SC2APIProtocol@@PEAX@Z ; google::protobuf::internal::RepeatedPtrFieldBase::cast<google::protobuf::RepeatedPtrField<SC2APIProtocol::Weapon>::TypeHandler>
PUBLIC	??$MergeFromInnerLoop@VTypeHandler@?$RepeatedPtrField@VWeapon@SC2APIProtocol@@@protobuf@google@@@RepeatedPtrFieldBase@internal@protobuf@google@@AEAAXPEAPEAX0HH@Z ; google::protobuf::internal::RepeatedPtrFieldBase::MergeFromInnerLoop<google::protobuf::RepeatedPtrField<SC2APIProtocol::Weapon>::TypeHandler>
PUBLIC	??$ReadPackedVarintArray@V<lambda_1>@?1???$PackedEnumParser@VUnknownFieldSet@protobuf@google@@@internal@protobuf@google@@YAPEBDPEAXPEBDPEAVParseContext@234@P6A_NH@ZPEAVInternalMetadata@234@H@Z@@internal@protobuf@google@@YAPEBDPEBD0V<lambda_1>@?1???$PackedEnumParser@VUnknownFieldSet@protobuf@google@@@012@YAPEBDPEAX0PEAVParseContext@012@P6A_NH@ZPEAVInternalMetadata@012@H@Z@@Z ; google::protobuf::internal::ReadPackedVarintArray<`google::protobuf::internal::PackedEnumParser<google::protobuf::UnknownFieldSet>'::`2'::<lambda_1> >
PUBLIC	??$memswap@$0CM@@internal@protobuf@google@@YAXPEAD0@Z ; google::protobuf::internal::memswap<44>
PUBLIC	??$memswap@$03@internal@protobuf@google@@YAXPEAD0@Z ; google::protobuf::internal::memswap<4>
PUBLIC	??$Construct@PEAVArena@protobuf@google@@@?$InternalHelper@VAbilityData@SC2APIProtocol@@@Arena@protobuf@google@@CAPEAVAbilityData@SC2APIProtocol@@PEAX$$QEAPEAV123@@Z ; google::protobuf::Arena::InternalHelper<SC2APIProtocol::AbilityData>::Construct<google::protobuf::Arena *>
PUBLIC	??$Construct@PEAVArena@protobuf@google@@@?$InternalHelper@VDamageBonus@SC2APIProtocol@@@Arena@protobuf@google@@CAPEAVDamageBonus@SC2APIProtocol@@PEAX$$QEAPEAV123@@Z ; google::protobuf::Arena::InternalHelper<SC2APIProtocol::DamageBonus>::Construct<google::protobuf::Arena *>
PUBLIC	??$Construct@PEAVArena@protobuf@google@@@?$InternalHelper@VWeapon@SC2APIProtocol@@@Arena@protobuf@google@@CAPEAVWeapon@SC2APIProtocol@@PEAX$$QEAPEAV123@@Z ; google::protobuf::Arena::InternalHelper<SC2APIProtocol::Weapon>::Construct<google::protobuf::Arena *>
PUBLIC	??$Construct@PEAVArena@protobuf@google@@@?$InternalHelper@VUnitTypeData@SC2APIProtocol@@@Arena@protobuf@google@@CAPEAVUnitTypeData@SC2APIProtocol@@PEAX$$QEAPEAV123@@Z ; google::protobuf::Arena::InternalHelper<SC2APIProtocol::UnitTypeData>::Construct<google::protobuf::Arena *>
PUBLIC	??$Construct@PEAVArena@protobuf@google@@@?$InternalHelper@VUpgradeData@SC2APIProtocol@@@Arena@protobuf@google@@CAPEAVUpgradeData@SC2APIProtocol@@PEAX$$QEAPEAV123@@Z ; google::protobuf::Arena::InternalHelper<SC2APIProtocol::UpgradeData>::Construct<google::protobuf::Arena *>
PUBLIC	??$Construct@PEAVArena@protobuf@google@@@?$InternalHelper@VBuffData@SC2APIProtocol@@@Arena@protobuf@google@@CAPEAVBuffData@SC2APIProtocol@@PEAX$$QEAPEAV123@@Z ; google::protobuf::Arena::InternalHelper<SC2APIProtocol::BuffData>::Construct<google::protobuf::Arena *>
PUBLIC	??$Construct@PEAVArena@protobuf@google@@@?$InternalHelper@VEffectData@SC2APIProtocol@@@Arena@protobuf@google@@CAPEAVEffectData@SC2APIProtocol@@PEAX$$QEAPEAV123@@Z ; google::protobuf::Arena::InternalHelper<SC2APIProtocol::EffectData>::Construct<google::protobuf::Arena *>
PUBLIC	?deallocate@?$_Default_allocator_traits@V?$allocator@U_Container_proxy@std@@@std@@@std@@SAXAEAV?$allocator@U_Container_proxy@std@@@2@QEAU_Container_proxy@2@_K@Z ; std::_Default_allocator_traits<std::allocator<std::_Container_proxy> >::deallocate
PUBLIC	??$_Allocate_manually_vector_aligned@U_Default_allocate_traits@std@@@std@@YAPEAX_K@Z ; std::_Allocate_manually_vector_aligned<std::_Default_allocate_traits>
PUBLIC	??$?0U_Exact_args_t@std@@AEAHAEAHAEAPEAURep@RepeatedPtrFieldBase@internal@protobuf@google@@$0A@@?$tuple@HHPEAURep@RepeatedPtrFieldBase@internal@protobuf@google@@@std@@QEAA@U_Exact_args_t@1@AEAH1AEAPEAURep@RepeatedPtrFieldBase@internal@protobuf@google@@@Z ; std::tuple<int,int,google::protobuf::internal::RepeatedPtrFieldBase::Rep *>::tuple<int,int,google::protobuf::internal::RepeatedPtrFieldBase::Rep *><std::_Exact_args_t,int &,int &,google::protobuf::internal::RepeatedPtrFieldBase::Rep * &,0>
PUBLIC	??$?0AEAPEAVArena@protobuf@google@@@?$_Tuple_val@PEAVArena@protobuf@google@@@std@@QEAA@AEAPEAVArena@protobuf@google@@@Z ; std::_Tuple_val<google::protobuf::Arena *>::_Tuple_val<google::protobuf::Arena *><google::protobuf::Arena * &>
PUBLIC	??$?0U_Exact_args_t@std@@AEAHAEAHAEAPEAURep@RepeatedPtrFieldBase@internal@protobuf@google@@$0A@@?$tuple@AEAHAEAHAEAPEAURep@RepeatedPtrFieldBase@internal@protobuf@google@@@std@@QEAA@U_Exact_args_t@1@AEAH1AEAPEAURep@RepeatedPtrFieldBase@internal@protobuf@google@@@Z ; std::tuple<int &,int &,google::protobuf::internal::RepeatedPtrFieldBase::Rep * &>::tuple<int &,int &,google::protobuf::internal::RepeatedPtrFieldBase::Rep * &><std::_Exact_args_t,int &,int &,google::protobuf::internal::RepeatedPtrFieldBase::Rep * &,0>
PUBLIC	??$?0AEAPEAVArena@protobuf@google@@@?$_Tuple_val@AEAPEAVArena@protobuf@google@@@std@@QEAA@AEAPEAVArena@protobuf@google@@@Z ; std::_Tuple_val<google::protobuf::Arena * &>::_Tuple_val<google::protobuf::Arena * &><google::protobuf::Arena * &>
PUBLIC	??$forward@V?$tuple@PEAURep@RepeatedPtrFieldBase@internal@protobuf@google@@@std@@@std@@YA$$QEAV?$tuple@PEAURep@RepeatedPtrFieldBase@internal@protobuf@google@@@0@AEAV10@@Z ; std::forward<std::tuple<google::protobuf::internal::RepeatedPtrFieldBase::Rep *> >
PUBLIC	??$?4PEAURep@RepeatedPtrFieldBase@internal@protobuf@google@@$0A@@?$tuple@AEAPEAURep@RepeatedPtrFieldBase@internal@protobuf@google@@@std@@QEAAAEAV01@$$QEAV?$tuple@PEAURep@RepeatedPtrFieldBase@internal@protobuf@google@@@1@@Z ; std::tuple<google::protobuf::internal::RepeatedPtrFieldBase::Rep * &>::operator=<google::protobuf::internal::RepeatedPtrFieldBase::Rep *,0>
PUBLIC	??$?4PEAURep@RepeatedPtrFieldBase@internal@protobuf@google@@$0A@@?$tuple@AEAPEAURep@RepeatedPtrFieldBase@internal@protobuf@google@@@std@@QEAAAEAV01@AEBV?$tuple@PEAURep@RepeatedPtrFieldBase@internal@protobuf@google@@@1@@Z ; std::tuple<google::protobuf::internal::RepeatedPtrFieldBase::Rep * &>::operator=<google::protobuf::internal::RepeatedPtrFieldBase::Rep *,0>
PUBLIC	??$CreateInternal@U?$Container@VUnknownFieldSet@protobuf@google@@@InternalMetadata@internal@protobuf@google@@$$V@Arena@protobuf@google@@CAPEAU?$Container@VUnknownFieldSet@protobuf@google@@@InternalMetadata@internal@12@PEAV012@U?$integral_constant@_N$0A@@std@@@Z ; google::protobuf::Arena::CreateInternal<google::protobuf::internal::InternalMetadata::Container<google::protobuf::UnknownFieldSet> >
PUBLIC	??$memswap@$0CE@@internal@protobuf@google@@YAXPEAD0@Z ; google::protobuf::internal::memswap<36>
PUBLIC	??$SwapBlock@I@internal@protobuf@google@@YAXPEAD0@Z ; google::protobuf::internal::SwapBlock<unsigned int>
PUBLIC	??$?0U_Exact_args_t@std@@AEAHAEAPEAURep@RepeatedPtrFieldBase@internal@protobuf@google@@$0A@@?$tuple@HPEAURep@RepeatedPtrFieldBase@internal@protobuf@google@@@std@@QEAA@U_Exact_args_t@1@AEAHAEAPEAURep@RepeatedPtrFieldBase@internal@protobuf@google@@@Z ; std::tuple<int,google::protobuf::internal::RepeatedPtrFieldBase::Rep *>::tuple<int,google::protobuf::internal::RepeatedPtrFieldBase::Rep *><std::_Exact_args_t,int &,google::protobuf::internal::RepeatedPtrFieldBase::Rep * &,0>
PUBLIC	??$?0AEAH@?$_Tuple_val@H@std@@QEAA@AEAH@Z	; std::_Tuple_val<int>::_Tuple_val<int><int &>
PUBLIC	??$?0U_Exact_args_t@std@@AEAHAEAPEAURep@RepeatedPtrFieldBase@internal@protobuf@google@@$0A@@?$tuple@AEAHAEAPEAURep@RepeatedPtrFieldBase@internal@protobuf@google@@@std@@QEAA@U_Exact_args_t@1@AEAHAEAPEAURep@RepeatedPtrFieldBase@internal@protobuf@google@@@Z ; std::tuple<int &,google::protobuf::internal::RepeatedPtrFieldBase::Rep * &>::tuple<int &,google::protobuf::internal::RepeatedPtrFieldBase::Rep * &><std::_Exact_args_t,int &,google::protobuf::internal::RepeatedPtrFieldBase::Rep * &,0>
PUBLIC	??$?0AEAH@?$_Tuple_val@AEAH@std@@QEAA@AEAH@Z	; std::_Tuple_val<int &>::_Tuple_val<int &><int &>
PUBLIC	??$forward@PEAURep@RepeatedPtrFieldBase@internal@protobuf@google@@@std@@YA$$QEAPEAURep@RepeatedPtrFieldBase@internal@protobuf@google@@AEAPEAU12345@@Z ; std::forward<google::protobuf::internal::RepeatedPtrFieldBase::Rep *>
PUBLIC	??$forward@V?$tuple@$$V@std@@@std@@YA$$QEAV?$tuple@$$V@0@AEAV10@@Z ; std::forward<std::tuple<> >
PUBLIC	??$arena_destruct_object@U?$Container@VUnknownFieldSet@protobuf@google@@@InternalMetadata@internal@protobuf@google@@@internal@protobuf@google@@YAXPEAX@Z ; google::protobuf::internal::arena_destruct_object<google::protobuf::internal::InternalMetadata::Container<google::protobuf::UnknownFieldSet> >
PUBLIC	??$?0U_Exact_args_t@std@@AEAPEAURep@RepeatedPtrFieldBase@internal@protobuf@google@@$$V$0A@@?$tuple@PEAURep@RepeatedPtrFieldBase@internal@protobuf@google@@@std@@QEAA@U_Exact_args_t@1@AEAPEAURep@RepeatedPtrFieldBase@internal@protobuf@google@@@Z ; std::tuple<google::protobuf::internal::RepeatedPtrFieldBase::Rep *>::tuple<google::protobuf::internal::RepeatedPtrFieldBase::Rep *><std::_Exact_args_t,google::protobuf::internal::RepeatedPtrFieldBase::Rep * &,0>
PUBLIC	??$?0U_Exact_args_t@std@@AEAPEAURep@RepeatedPtrFieldBase@internal@protobuf@google@@$$V$0A@@?$tuple@AEAPEAURep@RepeatedPtrFieldBase@internal@protobuf@google@@@std@@QEAA@U_Exact_args_t@1@AEAPEAURep@RepeatedPtrFieldBase@internal@protobuf@google@@@Z ; std::tuple<google::protobuf::internal::RepeatedPtrFieldBase::Rep * &>::tuple<google::protobuf::internal::RepeatedPtrFieldBase::Rep * &><std::_Exact_args_t,google::protobuf::internal::RepeatedPtrFieldBase::Rep * &,0>
PUBLIC	??$?0U_Exact_args_t@std@@$0A@@?$tuple@$$V@std@@QEAA@U_Exact_args_t@1@@Z ; std::tuple<>::tuple<><std::_Exact_args_t,0>
PUBLIC	??$?0AEAPEAURep@RepeatedPtrFieldBase@internal@protobuf@google@@@?$_Tuple_val@PEAURep@RepeatedPtrFieldBase@internal@protobuf@google@@@std@@QEAA@AEAPEAURep@RepeatedPtrFieldBase@internal@protobuf@google@@@Z ; std::_Tuple_val<google::protobuf::internal::RepeatedPtrFieldBase::Rep *>::_Tuple_val<google::protobuf::internal::RepeatedPtrFieldBase::Rep *><google::protobuf::internal::RepeatedPtrFieldBase::Rep * &>
PUBLIC	??$?0AEAPEAURep@RepeatedPtrFieldBase@internal@protobuf@google@@@?$_Tuple_val@AEAPEAURep@RepeatedPtrFieldBase@internal@protobuf@google@@@std@@QEAA@AEAPEAURep@RepeatedPtrFieldBase@internal@protobuf@google@@@Z ; std::_Tuple_val<google::protobuf::internal::RepeatedPtrFieldBase::Rep * &>::_Tuple_val<google::protobuf::internal::RepeatedPtrFieldBase::Rep * &><google::protobuf::internal::RepeatedPtrFieldBase::Rep * &>
PUBLIC	??_7exception@std@@6B@				; std::exception::`vftable'
PUBLIC	??_C@_0BC@EOODALEL@Unknown?5exception@		; `string'
PUBLIC	??_7bad_alloc@std@@6B@				; std::bad_alloc::`vftable'
PUBLIC	??_7bad_array_new_length@std@@6B@		; std::bad_array_new_length::`vftable'
PUBLIC	??_C@_0BF@KINCDENJ@bad?5array?5new?5length@	; `string'
PUBLIC	_TI3?AVbad_array_new_length@std@@
PUBLIC	_CTA3?AVbad_array_new_length@std@@
PUBLIC	??_R0?AVbad_array_new_length@std@@@8		; std::bad_array_new_length `RTTI Type Descriptor'
PUBLIC	_CT??_R0?AVbad_array_new_length@std@@@8??0bad_array_new_length@std@@QEAA@AEBV01@@Z24
PUBLIC	??_R0?AVbad_alloc@std@@@8			; std::bad_alloc `RTTI Type Descriptor'
PUBLIC	_CT??_R0?AVbad_alloc@std@@@8??0bad_alloc@std@@QEAA@AEBV01@@Z24
PUBLIC	??_R0?AVexception@std@@@8			; std::exception `RTTI Type Descriptor'
PUBLIC	_CT??_R0?AVexception@std@@@8??0exception@std@@QEAA@AEBV01@@Z24
PUBLIC	??_C@_0BB@FCMFBGOM@invalid?5argument@		; `string'
PUBLIC	??_C@_02DKCKIIND@?$CFs@				; `string'
PUBLIC	??_C@_0GC@CCEOIIJI@D?3?2Program?5Files?2Microsoft?5Visu@ ; `string'
PUBLIC	??_C@_1ME@NKGGGHPH@?$AAD?$AA?3?$AA?2?$AAP?$AAr?$AAo?$AAg?$AAr?$AAa?$AAm?$AA?5?$AAF?$AAi?$AAl?$AAe@ ; `string'
PUBLIC	??_C@_11LOCGONAA@@				; `string'
PUBLIC	??_C@_1CG@JNLFBNGN@?$AA?$CC?$AAi?$AAn?$AAv?$AAa?$AAl?$AAi?$AAd?$AA?5?$AAa?$AAr?$AAg?$AAu?$AAm?$AAe@ ; `string'
PUBLIC	??_C@_0BF@FBDAHHJI@Invalid?5memory?5order@	; `string'
PUBLIC	??_C@_0GB@KODMCFGD@D?3?2Program?5Files?2Microsoft?5Visu@ ; `string'
PUBLIC	??_C@_1MC@OHOEOBJF@?$AAD?$AA?3?$AA?2?$AAP?$AAr?$AAo?$AAg?$AAr?$AAa?$AAm?$AA?5?$AAF?$AAi?$AAl?$AAe@ ; `string'
PUBLIC	??_C@_1CO@JOMFDNFG@?$AA?$CC?$AAI?$AAn?$AAv?$AAa?$AAl?$AAi?$AAd?$AA?5?$AAm?$AAe?$AAm?$AAo?$AAr?$AAy@ ; `string'
PUBLIC	??_C@_0BP@JNHFIMCO@string?5length?5exceeds?5max?5size@ ; `string'
PUBLIC	??_C@_0EO@CLKFGFPJ@W?3?2cpp?2void?2alistar?2tests?2vendo@ ; `string'
PUBLIC	??_C@_0DG@IMBCBPAN@CHECK?5failed?3?5?$CBis_message_owned@ ; `string'
PUBLIC	??_7MessageLite@protobuf@google@@6B@		; google::protobuf::MessageLite::`vftable'
PUBLIC	??_C@_0FD@LNPCBKPF@W?3?2cpp?2void?2alistar?2tests?2vendo@ ; `string'
PUBLIC	??_C@_0BM@BDNKEFOF@CHECK?5failed?3?5this?5?$CB?$DN?5rhs?3?5@ ; `string'
PUBLIC	??_C@_0EO@MJOFNFMG@W?3?2cpp?2void?2alistar?2tests?2vendo@ ; `string'
PUBLIC	??_C@_0BF@DKGAPMDF@CHECK?5failed?3?5?$CKptr?3?5@ ; `string'
PUBLIC	??_C@_0CK@IMDPJFDF@CHECK?5failed?3?5?$CIoverrun?$CJ?5?$DM?$DN?5?$CIkSl@ ; `string'
PUBLIC	??_7Message@protobuf@google@@6B@		; google::protobuf::Message::`vftable'
PUBLIC	?_AbilityData_default_instance_@SC2APIProtocol@@3UAbilityDataDefaultTypeInternal@1@A ; SC2APIProtocol::_AbilityData_default_instance_
PUBLIC	?_BuffData_default_instance_@SC2APIProtocol@@3UBuffDataDefaultTypeInternal@1@A ; SC2APIProtocol::_BuffData_default_instance_
PUBLIC	?_DamageBonus_default_instance_@SC2APIProtocol@@3UDamageBonusDefaultTypeInternal@1@A ; SC2APIProtocol::_DamageBonus_default_instance_
PUBLIC	?_EffectData_default_instance_@SC2APIProtocol@@3UEffectDataDefaultTypeInternal@1@A ; SC2APIProtocol::_EffectData_default_instance_
PUBLIC	?_UnitTypeData_default_instance_@SC2APIProtocol@@3UUnitTypeDataDefaultTypeInternal@1@A ; SC2APIProtocol::_UnitTypeData_default_instance_
PUBLIC	?_UpgradeData_default_instance_@SC2APIProtocol@@3UUpgradeDataDefaultTypeInternal@1@A ; SC2APIProtocol::_UpgradeData_default_instance_
PUBLIC	?_Weapon_default_instance_@SC2APIProtocol@@3UWeaponDefaultTypeInternal@1@A ; SC2APIProtocol::_Weapon_default_instance_
PUBLIC	??_7Weapon@SC2APIProtocol@@6B@			; SC2APIProtocol::Weapon::`vftable'
PUBLIC	??_7UnitTypeData@SC2APIProtocol@@6B@		; SC2APIProtocol::UnitTypeData::`vftable'
PUBLIC	??_C@_1KK@POLELJBP@?$AAW?$AA?3?$AA?2?$AAc?$AAp?$AAp?$AA?2?$AAv?$AAo?$AAi?$AAd?$AA?2?$AAa?$AAl?$AAi@ ; `string'
PUBLIC	??_C@_1GI@HOJPBPFN@?$AA?3?$AA?3?$AAS?$AAC?$AA2?$AAA?$AAP?$AAI?$AAP?$AAr?$AAo?$AAt?$AAo?$AAc?$AAo@ ; `string'
PUBLIC	??_C@_1FG@KOEAJPEN@?$AA?3?$AA?3?$AAS?$AAC?$AA2?$AAA?$AAP?$AAI?$AAP?$AAr?$AAo?$AAt?$AAo?$AAc?$AAo@ ; `string'
PUBLIC	??_C@_1GG@EOLNIKOO@?$AA?3?$AA?3?$AAS?$AAC?$AA2?$AAA?$AAP?$AAI?$AAP?$AAr?$AAo?$AAt?$AAo?$AAc?$AAo@ ; `string'
PUBLIC	??_C@_1EM@GKLNLPHM@?$AA?3?$AA?3?$AAS?$AAC?$AA2?$AAA?$AAP?$AAI?$AAP?$AAr?$AAo?$AAt?$AAo?$AAc?$AAo@ ; `string'
PUBLIC	??_C@_0DM@HALMHDHF@vendor?2s2clientprotocol?2include@ ; `string'
PUBLIC	??_C@_0DD@HMMAHKLJ@CHECK?5failed?3?5GetArenaForAlloca@ ; `string'
PUBLIC	??_C@_0DG@KGHKKGBC@null?5pointer?5cannot?5point?5to?5a?5@ ; `string'
PUBLIC	??_C@_1HA@FACCKGGH@?$AA?$CC?$AAn?$AAu?$AAl?$AAl?$AA?5?$AAp?$AAo?$AAi?$AAn?$AAt?$AAe?$AAr?$AA?5?$AAc@ ; `string'
PUBLIC	??_C@_0BP@MKIGJFJI@CHECK?5failed?3?5?$CIindex?$CJ?5?$DO?$DN?5?$CI0?$CJ?3?5@ ; `string'
PUBLIC	??_C@_0CK@HHGADLGG@CHECK?5failed?3?5?$CIindex?$CJ?5?$DM?5?$CIcurren@ ; `string'
PUBLIC	??_C@_0BL@BOGECGBP@CHECK?5failed?3?5?$CIn?$CJ?5?$DO?$DN?5?$CI0?$CJ?3?5@ ; `string'
PUBLIC	??_C@_0CD@INNKJBDJ@CHECK?5failed?3?5?$CI?$CGother?$CJ?5?$CB?$DN?5?$CIthis@ ; `string'
PUBLIC	??_R0?AVWeapon@SC2APIProtocol@@@8		; SC2APIProtocol::Weapon `RTTI Type Descriptor'
PUBLIC	??_R0?AVUnitTypeData@SC2APIProtocol@@@8		; SC2APIProtocol::UnitTypeData `RTTI Type Descriptor'
PUBLIC	?destructor@?$ObjectDestructor@$0A@U?$Container@VUnknownFieldSet@protobuf@google@@@InternalMetadata@internal@protobuf@google@@@internal@protobuf@google@@2Q6AXPEAX@ZEA ; google::protobuf::internal::ObjectDestructor<0,google::protobuf::internal::InternalMetadata::Container<google::protobuf::UnknownFieldSet> >::destructor
PUBLIC	??_R0?AU?$Container@VUnknownFieldSet@protobuf@google@@@InternalMetadata@internal@protobuf@google@@@8 ; google::protobuf::internal::InternalMetadata::Container<google::protobuf::UnknownFieldSet> `RTTI Type Descriptor'
PUBLIC	??_R4exception@std@@6B@				; std::exception::`RTTI Complete Object Locator'
PUBLIC	??_R3exception@std@@8				; std::exception::`RTTI Class Hierarchy Descriptor'
PUBLIC	??_R2exception@std@@8				; std::exception::`RTTI Base Class Array'
PUBLIC	??_R1A@?0A@EA@exception@std@@8			; std::exception::`RTTI Base Class Descriptor at (0,-1,0,64)'
PUBLIC	??_R4bad_alloc@std@@6B@				; std::bad_alloc::`RTTI Complete Object Locator'
PUBLIC	??_R3bad_alloc@std@@8				; std::bad_alloc::`RTTI Class Hierarchy Descriptor'
PUBLIC	??_R2bad_alloc@std@@8				; std::bad_alloc::`RTTI Base Class Array'
PUBLIC	??_R1A@?0A@EA@bad_alloc@std@@8			; std::bad_alloc::`RTTI Base Class Descriptor at (0,-1,0,64)'
PUBLIC	??_R4bad_array_new_length@std@@6B@		; std::bad_array_new_length::`RTTI Complete Object Locator'
PUBLIC	??_R3bad_array_new_length@std@@8		; std::bad_array_new_length::`RTTI Class Hierarchy Descriptor'
PUBLIC	??_R2bad_array_new_length@std@@8		; std::bad_array_new_length::`RTTI Base Class Array'
PUBLIC	??_R1A@?0A@EA@bad_array_new_length@std@@8	; std::bad_array_new_length::`RTTI Base Class Descriptor at (0,-1,0,64)'
PUBLIC	??_R4Message@protobuf@google@@6B@		; google::protobuf::Message::`RTTI Complete Object Locator'
PUBLIC	??_R4MessageLite@protobuf@google@@6B@		; google::protobuf::MessageLite::`RTTI Complete Object Locator'
PUBLIC	??_R4UnitTypeData@SC2APIProtocol@@6B@		; SC2APIProtocol::UnitTypeData::`RTTI Complete Object Locator'
PUBLIC	??_R3UnitTypeData@SC2APIProtocol@@8		; SC2APIProtocol::UnitTypeData::`RTTI Class Hierarchy Descriptor'
PUBLIC	??_R2UnitTypeData@SC2APIProtocol@@8		; SC2APIProtocol::UnitTypeData::`RTTI Base Class Array'
PUBLIC	??_R1A@?0A@EA@UnitTypeData@SC2APIProtocol@@8	; SC2APIProtocol::UnitTypeData::`RTTI Base Class Descriptor at (0,-1,0,64)'
PUBLIC	??_R4Weapon@SC2APIProtocol@@6B@			; SC2APIProtocol::Weapon::`RTTI Complete Object Locator'
PUBLIC	??_R3Weapon@SC2APIProtocol@@8			; SC2APIProtocol::Weapon::`RTTI Class Hierarchy Descriptor'
PUBLIC	??_R2Weapon@SC2APIProtocol@@8			; SC2APIProtocol::Weapon::`RTTI Base Class Array'
PUBLIC	??_R1A@?0A@EA@Weapon@SC2APIProtocol@@8		; SC2APIProtocol::Weapon::`RTTI Base Class Descriptor at (0,-1,0,64)'
EXTRN	_purecall:PROC
EXTRN	??2@YAPEAX_K@Z:PROC				; operator new
EXTRN	??3@YAXPEAX@Z:PROC				; operator delete
EXTRN	??3@YAXPEAX_K@Z:PROC				; operator delete
EXTRN	atexit:PROC
EXTRN	_invalid_parameter:PROC
EXTRN	memcmp:PROC
EXTRN	memcpy:PROC
EXTRN	memset:PROC
EXTRN	_CrtDbgReport:PROC
EXTRN	??0_Lockit@std@@QEAA@H@Z:PROC			; std::_Lockit::_Lockit
EXTRN	??1_Lockit@std@@QEAA@XZ:PROC			; std::_Lockit::~_Lockit
EXTRN	__std_exception_copy:PROC
EXTRN	__std_exception_destroy:PROC
EXTRN	??_Eexception@std@@UEAAPEAXI@Z:PROC		; std::exception::`vector deleting destructor'
EXTRN	??_Ebad_alloc@std@@UEAAPEAXI@Z:PROC		; std::bad_alloc::`vector deleting destructor'
EXTRN	??_Ebad_array_new_length@std@@UEAAPEAXI@Z:PROC	; std::bad_array_new_length::`vector deleting destructor'
EXTRN	_wassert:PROC
EXTRN	?LogFatalSizeTooBig@StringPiece@stringpiece_internal@protobuf@google@@CAX_KPEBD@Z:PROC ; google::protobuf::stringpiece_internal::StringPiece::LogFatalSizeTooBig
EXTRN	??0LogMessage@internal@protobuf@google@@QEAA@W4LogLevel@23@PEBDH@Z:PROC ; google::protobuf::internal::LogMessage::LogMessage
EXTRN	??1LogMessage@internal@protobuf@google@@QEAA@XZ:PROC ; google::protobuf::internal::LogMessage::~LogMessage
EXTRN	??6LogMessage@internal@protobuf@google@@QEAAAEAV0123@PEBD@Z:PROC ; google::protobuf::internal::LogMessage::operator<<
EXTRN	??4LogFinisher@internal@protobuf@google@@QEAAXAEAVLogMessage@123@@Z:PROC ; google::protobuf::internal::LogFinisher::operator=
EXTRN	?EnsureSpaceFallback@EpsCopyOutputStream@io@protobuf@google@@AEAAPEAEPEAE@Z:PROC ; google::protobuf::io::EpsCopyOutputStream::EnsureSpaceFallback
EXTRN	?WriteStringMaybeAliasedOutline@EpsCopyOutputStream@io@protobuf@google@@AEAAPEAEIAEBV?$basic_string@DU?$char_traits@D@std@@V?$allocator@D@2@@std@@PEAE@Z:PROC ; google::protobuf::io::EpsCopyOutputStream::WriteStringMaybeAliasedOutline
EXTRN	??1ThreadSafeArena@internal@protobuf@google@@QEAA@XZ:PROC ; google::protobuf::internal::ThreadSafeArena::~ThreadSafeArena
EXTRN	?SpaceAllocated@ThreadSafeArena@internal@protobuf@google@@QEBA_KXZ:PROC ; google::protobuf::internal::ThreadSafeArena::SpaceAllocated
EXTRN	?AllocateAlignedWithHook@Arena@protobuf@google@@AEAAPEAX_KPEBVtype_info@@@Z:PROC ; google::protobuf::Arena::AllocateAlignedWithHook
EXTRN	?AllocateAlignedWithCleanup@Arena@protobuf@google@@AEAA?AU?$pair@PEAXPEAUCleanupNode@SerialArena@internal@protobuf@google@@@std@@_KPEBVtype_info@@@Z:PROC ; google::protobuf::Arena::AllocateAlignedWithCleanup
EXTRN	?Set@ArenaStringPtr@internal@protobuf@google@@QEAAXAEBV?$basic_string@DU?$char_traits@D@std@@V?$allocator@D@2@@std@@PEAVArena@34@@Z:PROC ; google::protobuf::internal::ArenaStringPtr::Set
EXTRN	?Mutable@ArenaStringPtr@internal@protobuf@google@@QEAAPEAV?$basic_string@DU?$char_traits@D@std@@V?$allocator@D@2@@std@@PEAVArena@34@@Z:PROC ; google::protobuf::internal::ArenaStringPtr::Mutable
EXTRN	?Destroy@ArenaStringPtr@internal@protobuf@google@@QEAAXXZ:PROC ; google::protobuf::internal::ArenaStringPtr::Destroy
EXTRN	?InitializationErrorString@MessageLite@protobuf@google@@UEBA?AV?$basic_string@DU?$char_traits@D@std@@V?$allocator@D@2@@std@@XZ:PROC ; google::protobuf::MessageLite::InitializationErrorString
EXTRN	??_EMessageLite@protobuf@google@@UEAAPEAXI@Z:PROC ; google::protobuf::MessageLite::`vector deleting destructor'
EXTRN	?DestroyProtos@RepeatedPtrFieldBase@internal@protobuf@google@@IEAAXXZ:PROC ; google::protobuf::internal::RepeatedPtrFieldBase::DestroyProtos
EXTRN	?InternalExtend@RepeatedPtrFieldBase@internal@protobuf@google@@AEAAPEAPEAXH@Z:PROC ; google::protobuf::internal::RepeatedPtrFieldBase::InternalExtend
EXTRN	?AddOutOfLineHelper@RepeatedPtrFieldBase@internal@protobuf@google@@AEAAPEAXPEAX@Z:PROC ; google::protobuf::internal::RepeatedPtrFieldBase::AddOutOfLineHelper
EXTRN	??0?$RepeatedField@H@protobuf@google@@QEAA@PEAVArena@12@@Z:PROC ; google::protobuf::RepeatedField<int>::RepeatedField<int>
EXTRN	??0?$RepeatedField@H@protobuf@google@@QEAA@AEBV012@@Z:PROC ; google::protobuf::RepeatedField<int>::RepeatedField<int>
EXTRN	??1?$RepeatedField@H@protobuf@google@@QEAA@XZ:PROC ; google::protobuf::RepeatedField<int>::~RepeatedField<int>
EXTRN	?size@?$RepeatedField@H@protobuf@google@@QEBAHXZ:PROC ; google::protobuf::RepeatedField<int>::size
EXTRN	?Get@?$RepeatedField@H@protobuf@google@@QEBAAEBHH@Z:PROC ; google::protobuf::RepeatedField<int>::Get
EXTRN	?Add@?$RepeatedField@H@protobuf@google@@QEAAXAEBH@Z:PROC ; google::protobuf::RepeatedField<int>::Add
EXTRN	?Clear@?$RepeatedField@H@protobuf@google@@QEAAXXZ:PROC ; google::protobuf::RepeatedField<int>::Clear
EXTRN	?MergeFrom@?$RepeatedField@H@protobuf@google@@QEAAXAEBV123@@Z:PROC ; google::protobuf::RepeatedField<int>::MergeFrom
EXTRN	?InternalSwap@?$RepeatedField@H@protobuf@google@@QEAAXPEAV123@@Z:PROC ; google::protobuf::RepeatedField<int>::InternalSwap
EXTRN	??0?$RepeatedField@I@protobuf@google@@QEAA@PEAVArena@12@@Z:PROC ; google::protobuf::RepeatedField<unsigned int>::RepeatedField<unsigned int>
EXTRN	??0?$RepeatedField@I@protobuf@google@@QEAA@AEBV012@@Z:PROC ; google::protobuf::RepeatedField<unsigned int>::RepeatedField<unsigned int>
EXTRN	??1?$RepeatedField@I@protobuf@google@@QEAA@XZ:PROC ; google::protobuf::RepeatedField<unsigned int>::~RepeatedField<unsigned int>
EXTRN	?size@?$RepeatedField@I@protobuf@google@@QEBAHXZ:PROC ; google::protobuf::RepeatedField<unsigned int>::size
EXTRN	?Get@?$RepeatedField@I@protobuf@google@@QEBAAEBIH@Z:PROC ; google::protobuf::RepeatedField<unsigned int>::Get
EXTRN	?Add@?$RepeatedField@I@protobuf@google@@QEAAXAEBI@Z:PROC ; google::protobuf::RepeatedField<unsigned int>::Add
EXTRN	?Clear@?$RepeatedField@I@protobuf@google@@QEAAXXZ:PROC ; google::protobuf::RepeatedField<unsigned int>::Clear
EXTRN	?MergeFrom@?$RepeatedField@I@protobuf@google@@QEAAXAEBV123@@Z:PROC ; google::protobuf::RepeatedField<unsigned int>::MergeFrom
EXTRN	?InternalSwap@?$RepeatedField@I@protobuf@google@@QEAAXPEAV123@@Z:PROC ; google::protobuf::RepeatedField<unsigned int>::InternalSwap
EXTRN	?VerifyUtf8String@WireFormatLite@internal@protobuf@google@@SA_NPEBDHW4Operation@1234@0@Z:PROC ; google::protobuf::internal::WireFormatLite::VerifyUtf8String
EXTRN	?InternalWriteMessage@WireFormatLite@internal@protobuf@google@@SAPEAEHAEBVMessageLite@34@HPEAEPEAVEpsCopyOutputStream@io@34@@Z:PROC ; google::protobuf::internal::WireFormatLite::InternalWriteMessage
EXTRN	?UInt32Size@WireFormatLite@internal@protobuf@google@@SA_KAEBV?$RepeatedField@I@34@@Z:PROC ; google::protobuf::internal::WireFormatLite::UInt32Size
EXTRN	?DoneFallback@EpsCopyInputStream@internal@protobuf@google@@AEAA?AU?$pair@PEBD_N@std@@HH@Z:PROC ; google::protobuf::internal::EpsCopyInputStream::DoneFallback
EXTRN	?Next@EpsCopyInputStream@internal@protobuf@google@@AEAAPEBDXZ:PROC ; google::protobuf::internal::EpsCopyInputStream::Next
EXTRN	?ParseMessage@ParseContext@internal@protobuf@google@@QEAAPEBDPEAVMessageLite@34@PEBD@Z:PROC ; google::protobuf::internal::ParseContext::ParseMessage
EXTRN	?VarintParseSlow32@internal@protobuf@google@@YA?AU?$pair@PEBDI@std@@PEBDI@Z:PROC ; google::protobuf::internal::VarintParseSlow32
EXTRN	?VarintParseSlow64@internal@protobuf@google@@YA?AU?$pair@PEBD_K@std@@PEBDI@Z:PROC ; google::protobuf::internal::VarintParseSlow64
EXTRN	?ReadTagFallback@internal@protobuf@google@@YA?AU?$pair@PEBDI@std@@PEBDI@Z:PROC ; google::protobuf::internal::ReadTagFallback
EXTRN	?ReadSizeFallback@internal@protobuf@google@@YA?AU?$pair@PEBDH@std@@PEBDI@Z:PROC ; google::protobuf::internal::ReadSizeFallback
EXTRN	?VerifyUTF8@internal@protobuf@google@@YA_NVStringPiece@stringpiece_internal@23@PEBD@Z:PROC ; google::protobuf::internal::VerifyUTF8
EXTRN	?InlineGreedyStringParser@internal@protobuf@google@@YAPEBDPEAV?$basic_string@DU?$char_traits@D@std@@V?$allocator@D@2@@std@@PEBDPEAVParseContext@123@@Z:PROC ; google::protobuf::internal::InlineGreedyStringParser
EXTRN	?PackedUInt32Parser@internal@protobuf@google@@YAPEBDPEAXPEBDPEAVParseContext@123@@Z:PROC ; google::protobuf::internal::PackedUInt32Parser
EXTRN	?MergeFrom@UnknownFieldSet@protobuf@google@@QEAAXAEBV123@@Z:PROC ; google::protobuf::UnknownFieldSet::MergeFrom
EXTRN	?AddVarint@UnknownFieldSet@protobuf@google@@QEAAXH_K@Z:PROC ; google::protobuf::UnknownFieldSet::AddVarint
EXTRN	?default_instance@UnknownFieldSet@protobuf@google@@SAAEBV123@XZ:PROC ; google::protobuf::UnknownFieldSet::default_instance
EXTRN	?ClearFallback@UnknownFieldSet@protobuf@google@@AEAAXXZ:PROC ; google::protobuf::UnknownFieldSet::ClearFallback
EXTRN	?UnknownFieldParse@internal@protobuf@google@@YAPEBD_KPEAVUnknownFieldSet@23@PEBDPEAVParseContext@123@@Z:PROC ; google::protobuf::internal::UnknownFieldParse
EXTRN	?AssignDescriptors@internal@protobuf@google@@YAXPEBUDescriptorTable@123@_N@Z:PROC ; google::protobuf::internal::AssignDescriptors
EXTRN	?AssignDescriptors@internal@protobuf@google@@YA?AUMetadata@23@P6APEBUDescriptorTable@123@XZPEAUonce_flag@std@@AEBU423@@Z:PROC ; google::protobuf::internal::AssignDescriptors
EXTRN	??0AddDescriptorsRunner@internal@protobuf@google@@QEAA@PEBUDescriptorTable@123@@Z:PROC ; google::protobuf::internal::AddDescriptorsRunner::AddDescriptorsRunner
EXTRN	?Clear@Message@protobuf@google@@UEAAXXZ:PROC	; google::protobuf::Message::Clear
EXTRN	?IsInitialized@Message@protobuf@google@@UEBA_NXZ:PROC ; google::protobuf::Message::IsInitialized
EXTRN	?_InternalParse@Message@protobuf@google@@UEAAPEBDPEBDPEAVParseContext@internal@23@@Z:PROC ; google::protobuf::Message::_InternalParse
EXTRN	?ByteSizeLong@Message@protobuf@google@@UEBA_KXZ:PROC ; google::protobuf::Message::ByteSizeLong
EXTRN	?_InternalSerialize@Message@protobuf@google@@UEBAPEAEPEAEPEAVEpsCopyOutputStream@io@23@@Z:PROC ; google::protobuf::Message::_InternalSerialize
EXTRN	?SetCachedSize@Message@protobuf@google@@EEBAXH@Z:PROC ; google::protobuf::Message::SetCachedSize
EXTRN	?MaybeComputeUnknownFieldsSize@Message@protobuf@google@@IEBA_K_KPEAVCachedSize@internal@23@@Z:PROC ; google::protobuf::Message::MaybeComputeUnknownFieldsSize
EXTRN	??_EMessage@protobuf@google@@UEAAPEAXI@Z:PROC	; google::protobuf::Message::`vector deleting destructor'
EXTRN	?Race_IsValid@SC2APIProtocol@@YA_NH@Z:PROC	; SC2APIProtocol::Race_IsValid
EXTRN	??_EWeapon@SC2APIProtocol@@UEAAPEAXI@Z:PROC	; SC2APIProtocol::Weapon::`vector deleting destructor'
EXTRN	??_EUnitTypeData@SC2APIProtocol@@UEAAPEAXI@Z:PROC ; SC2APIProtocol::UnitTypeData::`vector deleting destructor'
EXTRN	?InternalSerializeUnknownFieldsToArray@WireFormat@internal@protobuf@google@@SAPEAEAEBVUnknownFieldSet@34@PEAEPEAVEpsCopyOutputStream@io@34@@Z:PROC ; google::protobuf::internal::WireFormat::InternalSerializeUnknownFieldsToArray
EXTRN	_CxxThrowException:PROC
EXTRN	__CxxFrameHandler4:PROC
EXTRN	__GSHandlerCheck_EH4:PROC
EXTRN	__security_check_cookie:PROC
EXTRN	__ImageBase:BYTE
EXTRN	__security_cookie:QWORD
EXTRN	_fltused:DWORD
_BSS	SEGMENT
?_UnitTypeData_default_instance_@SC2APIProtocol@@3UUnitTypeDataDefaultTypeInternal@1@A DB 098H DUP (?) ; SC2APIProtocol::_UnitTypeData_default_instance_
?_Weapon_default_instance_@SC2APIProtocol@@3UWeaponDefaultTypeInternal@1@A DB 048H DUP (?) ; SC2APIProtocol::_Weapon_default_instance_
?dynamic_init_dummy_s2clientprotocol_2fdata_2eproto@@3UAddDescriptorsRunner@internal@protobuf@google@@A DB 01H DUP (?) ; dynamic_init_dummy_s2clientprotocol_2fdata_2eproto
_BSS	ENDS
;	COMDAT pdata
pdata	SEGMENT
$pdata$??0exception@std@@QEAA@QEBDH@Z DD imagerel $LN3
	DD	imagerel $LN3+73
	DD	imagerel $unwind$??0exception@std@@QEAA@QEBDH@Z
pdata	ENDS
;	COMDAT pdata
pdata	SEGMENT
$pdata$??0exception@std@@QEAA@AEBV01@@Z DD imagerel $LN3
	DD	imagerel $LN3+88
	DD	imagerel $unwind$??0exception@std@@QEAA@AEBV01@@Z
pdata	ENDS
;	COMDAT pdata
pdata	SEGMENT
$pdata$??1exception@std@@UEAA@XZ DD imagerel $LN3
	DD	imagerel $LN3+46
	DD	imagerel $unwind$??1exception@std@@UEAA@XZ
pdata	ENDS
;	COMDAT pdata
pdata	SEGMENT
$pdata$?what@exception@std@@UEBAPEBDXZ DD imagerel $LN5
	DD	imagerel $LN5+56
	DD	imagerel $unwind$?what@exception@std@@UEBAPEBDXZ
pdata	ENDS
;	COMDAT pdata
pdata	SEGMENT
$pdata$??_Gexception@std@@UEAAPEAXI@Z DD imagerel $LN4
	DD	imagerel $LN4+59
	DD	imagerel $unwind$??_Gexception@std@@UEAAPEAXI@Z
pdata	ENDS
;	COMDAT pdata
pdata	SEGMENT
$pdata$??0bad_alloc@std@@AEAA@QEBD@Z DD imagerel $LN3
	DD	imagerel $LN3+60
	DD	imagerel $unwind$??0bad_alloc@std@@AEAA@QEBD@Z
pdata	ENDS
;	COMDAT pdata
pdata	SEGMENT
$pdata$??1bad_alloc@std@@UEAA@XZ DD imagerel $LN3
	DD	imagerel $LN3+24
	DD	imagerel $unwind$??1bad_alloc@std@@UEAA@XZ
pdata	ENDS
;	COMDAT pdata
pdata	SEGMENT
$pdata$??0bad_alloc@std@@QEAA@AEBV01@@Z DD imagerel $LN3
	DD	imagerel $LN3+54
	DD	imagerel $unwind$??0bad_alloc@std@@QEAA@AEBV01@@Z
pdata	ENDS
;	COMDAT pdata
pdata	SEGMENT
$pdata$??_Gbad_alloc@std@@UEAAPEAXI@Z DD imagerel $LN4
	DD	imagerel $LN4+59
	DD	imagerel $unwind$??_Gbad_alloc@std@@UEAAPEAXI@Z
pdata	ENDS
;	COMDAT pdata
pdata	SEGMENT
$pdata$??0bad_array_new_length@std@@QEAA@XZ DD imagerel $LN3
	DD	imagerel $LN3+51
	DD	imagerel $unwind$??0bad_array_new_length@std@@QEAA@XZ
pdata	ENDS
;	COMDAT pdata
pdata	SEGMENT
$pdata$??1bad_array_new_length@std@@UEAA@XZ DD imagerel $LN3
	DD	imagerel $LN3+24
	DD	imagerel $unwind$??1bad_array_new_length@std@@UEAA@XZ
pdata	ENDS
;	COMDAT pdata
pdata	SEGMENT
$pdata$??0bad_array_new_length@std@@QEAA@AEBV01@@Z DD imagerel $LN3
	DD	imagerel $LN3+54
	DD	imagerel $unwind$??0bad_array_new_length@std@@QEAA@AEBV01@@Z
pdata	ENDS
;	COMDAT pdata
pdata	SEGMENT
$pdata$??_Gbad_array_new_length@std@@UEAAPEAXI@Z DD imagerel $LN4
	DD	imagerel $LN4+59
	DD	imagerel $unwind$??_Gbad_array_new_length@std@@UEAAPEAXI@Z
pdata	ENDS
;	COMDAT pdata
pdata	SEGMENT
$pdata$?_Throw_bad_array_new_length@std@@YAXXZ DD imagerel $LN3
	DD	imagerel $LN3+36
	DD	imagerel $unwind$?_Throw_bad_array_new_length@std@@YAXXZ
pdata	ENDS
;	COMDAT pdata
pdata	SEGMENT
$pdata$?_Allocate@_Default_allocate_traits@std@@SAPEAX_K@Z DD imagerel $LN3
	DD	imagerel $LN3+24
	DD	imagerel $unwind$?_Allocate@_Default_allocate_traits@std@@SAPEAX_K@Z
pdata	ENDS
;	COMDAT pdata
pdata	SEGMENT
$pdata$?_Adjust_manually_vector_aligned@std@@YAXAEAPEAXAEA_K@Z DD imagerel $LN21
	DD	imagerel $LN21+398
	DD	imagerel $unwind$?_Adjust_manually_vector_aligned@std@@YAXAEAPEAXAEA_K@Z
pdata	ENDS
;	COMDAT pdata
pdata	SEGMENT
$pdata$?_Orphan_all@_Container_base12@std@@QEAAXXZ DD imagerel $LN5
	DD	imagerel $LN5+48
	DD	imagerel $unwind$?_Orphan_all@_Container_base12@std@@QEAAXXZ
pdata	ENDS
;	COMDAT pdata
pdata	SEGMENT
$pdata$?_Orphan_all_unlocked_v3@_Container_base12@std@@AEAAXXZ DD imagerel $LN7
	DD	imagerel $LN7+104
	DD	imagerel $unwind$?_Orphan_all_unlocked_v3@_Container_base12@std@@AEAAXXZ
pdata	ENDS
;	COMDAT pdata
pdata	SEGMENT
$pdata$?_Orphan_all_locked_v3@_Container_base12@std@@AEAAXXZ DD imagerel $LN3
	DD	imagerel $LN3+49
	DD	imagerel $unwind$?_Orphan_all_locked_v3@_Container_base12@std@@AEAAXXZ
pdata	ENDS
;	COMDAT pdata
pdata	SEGMENT
$pdata$??$exchange@PEAU_Iterator_base12@std@@$$T@std@@YAPEAU_Iterator_base12@0@AEAPEAU10@$$QEA$$T@Z DD imagerel $LN3
	DD	imagerel $LN3+51
	DD	imagerel $unwind$??$exchange@PEAU_Iterator_base12@std@@$$T@std@@YAPEAU_Iterator_base12@0@AEAPEAU10@$$QEA$$T@Z
pdata	ENDS
;	COMDAT pdata
pdata	SEGMENT
$pdata$??$_Construct_in_place@U_Container_proxy@std@@PEAU_Container_base12@2@@std@@YAXAEAU_Container_proxy@0@$$QEAPEAU_Container_base12@0@@Z DD imagerel $LN5
	DD	imagerel $LN5+147
	DD	imagerel $unwind$??$_Construct_in_place@U_Container_proxy@std@@PEAU_Container_base12@2@@std@@YAXAEAU_Container_proxy@0@$$QEAPEAU_Container_base12@0@@Z
pdata	ENDS
;	COMDAT pdata
pdata	SEGMENT
$pdata$?assign@?$_Char_traits@DH@std@@SAXAEADAEBD@Z DD imagerel $LN5
	DD	imagerel $LN5+71
	DD	imagerel $unwind$?assign@?$_Char_traits@DH@std@@SAXAEADAEBD@Z
pdata	ENDS
;	COMDAT pdata
pdata	SEGMENT
$pdata$?assign@?$_Narrow_char_traits@DH@std@@SAXAEADAEBD@Z DD imagerel $LN4
	DD	imagerel $LN4+63
	DD	imagerel $unwind$?assign@?$_Narrow_char_traits@DH@std@@SAXAEADAEBD@Z
pdata	ENDS
;	COMDAT pdata
pdata	SEGMENT
$pdata$?_Myptr@?$_String_val@U?$_Simple_types@D@std@@@std@@QEAAPEADXZ DD imagerel $LN4
	DD	imagerel $LN4+69
	DD	imagerel $unwind$?_Myptr@?$_String_val@U?$_Simple_types@D@std@@@std@@QEAAPEADXZ
pdata	ENDS
;	COMDAT pdata
pdata	SEGMENT
$pdata$?_Myptr@?$_String_val@U?$_Simple_types@D@std@@@std@@QEBAPEBDXZ DD imagerel $LN4
	DD	imagerel $LN4+69
	DD	imagerel $unwind$?_Myptr@?$_String_val@U?$_Simple_types@D@std@@@std@@QEBAPEBDXZ
pdata	ENDS
;	COMDAT pdata
pdata	SEGMENT
$pdata$?_Large_string_engaged@?$_String_val@U?$_Simple_types@D@std@@@std@@QEBA_NXZ DD imagerel $LN5
	DD	imagerel $LN5+46
	DD	imagerel $unwind$?_Large_string_engaged@?$_String_val@U?$_Simple_types@D@std@@@std@@QEBA_NXZ
pdata	ENDS
;	COMDAT pdata
pdata	SEGMENT
$pdata$?clear@?$basic_string@DU?$char_traits@D@std@@V?$allocator@D@2@@std@@QEAAXXZ DD imagerel $LN3
	DD	imagerel $LN3+27
	DD	imagerel $unwind$?clear@?$basic_string@DU?$char_traits@D@std@@V?$allocator@D@2@@std@@QEAAXXZ
pdata	ENDS
;	COMDAT pdata
pdata	SEGMENT
$pdata$?data@?$basic_string@DU?$char_traits@D@std@@V?$allocator@D@2@@std@@QEBAPEBDXZ DD imagerel $LN3
	DD	imagerel $LN3+27
	DD	imagerel $unwind$?data@?$basic_string@DU?$char_traits@D@std@@V?$allocator@D@2@@std@@QEBAPEBDXZ
pdata	ENDS
;	COMDAT pdata
pdata	SEGMENT
$pdata$?_Eos@?$basic_string@DU?$char_traits@D@std@@V?$allocator@D@2@@std@@AEAAX_K@Z DD imagerel $LN3
	DD	imagerel $LN3+95
	DD	imagerel $unwind$?_Eos@?$basic_string@DU?$char_traits@D@std@@V?$allocator@D@2@@std@@AEAAX_K@Z
pdata	ENDS
;	COMDAT pdata
pdata	SEGMENT
$pdata$??$swap@H$0A@@std@@YAXAEAH0@Z DD imagerel $LN3
	DD	imagerel $LN3+73
	DD	imagerel $unwind$??$swap@H$0A@@std@@YAXAEAH0@Z
pdata	ENDS
;	COMDAT pdata
pdata	SEGMENT
$pdata$??$swap@_J$0A@@std@@YAXAEA_J0@Z DD imagerel $LN3
	DD	imagerel $LN3+79
	DD	imagerel $unwind$??$swap@_J$0A@@std@@YAXAEA_J0@Z
pdata	ENDS
;	COMDAT pdata
pdata	SEGMENT
$pdata$?Log2FloorNonZero@Bits@protobuf@google@@SAII@Z DD imagerel $LN3
	DD	imagerel $LN3+26
	DD	imagerel $unwind$?Log2FloorNonZero@Bits@protobuf@google@@SAII@Z
pdata	ENDS
;	COMDAT pdata
pdata	SEGMENT
$pdata$?Log2FloorNonZero64@Bits@protobuf@google@@SAI_K@Z DD imagerel $LN3
	DD	imagerel $LN3+29
	DD	imagerel $unwind$?Log2FloorNonZero64@Bits@protobuf@google@@SAI_K@Z
pdata	ENDS
;	COMDAT pdata
pdata	SEGMENT
$pdata$?CheckSize@StringPiece@stringpiece_internal@protobuf@google@@CA_K_K@Z DD imagerel $LN4
	DD	imagerel $LN4+53
	DD	imagerel $unwind$?CheckSize@StringPiece@stringpiece_internal@protobuf@google@@CA_K_K@Z
pdata	ENDS
;	COMDAT pdata
pdata	SEGMENT
$pdata$??$?0V?$allocator@D@std@@@StringPiece@stringpiece_internal@protobuf@google@@QEAA@AEBV?$basic_string@DU?$char_traits@D@std@@V?$allocator@D@2@@std@@@Z DD imagerel $LN3
	DD	imagerel $LN3+82
	DD	imagerel $unwind$??$?0V?$allocator@D@std@@@StringPiece@stringpiece_internal@protobuf@google@@QEAA@AEBV?$basic_string@DU?$char_traits@D@std@@V?$allocator@D@2@@std@@@Z
pdata	ENDS
;	COMDAT pdata
pdata	SEGMENT
$pdata$?EnsureSpace@EpsCopyOutputStream@io@protobuf@google@@QEAAPEAEPEAE@Z DD imagerel $LN4
	DD	imagerel $LN4+56
	DD	imagerel $unwind$?EnsureSpace@EpsCopyOutputStream@io@protobuf@google@@QEAAPEAEPEAE@Z
pdata	ENDS
;	COMDAT pdata
pdata	SEGMENT
$pdata$?WriteStringMaybeAliased@EpsCopyOutputStream@io@protobuf@google@@QEAAPEAEIAEBV?$basic_string@DU?$char_traits@D@std@@V?$allocator@D@2@@std@@PEAE@Z DD imagerel $LN5
	DD	imagerel $LN5+236
	DD	imagerel $unwind$?WriteStringMaybeAliased@EpsCopyOutputStream@io@protobuf@google@@QEAAPEAEIAEBV?$basic_string@DU?$char_traits@D@std@@V?$allocator@D@2@@std@@PEAE@Z
pdata	ENDS
;	COMDAT pdata
pdata	SEGMENT
$pdata$?TagSize@EpsCopyOutputStream@io@protobuf@google@@CAHI@Z DD imagerel $LN11
	DD	imagerel $LN11+126
	DD	imagerel $unwind$?TagSize@EpsCopyOutputStream@io@protobuf@google@@CAHI@Z
pdata	ENDS
;	COMDAT pdata
pdata	SEGMENT
$pdata$?WriteLittleEndian32ToArray@CodedOutputStream@io@protobuf@google@@SAPEAEIPEAE@Z DD imagerel $LN3
	DD	imagerel $LN3+48
	DD	imagerel $unwind$?WriteLittleEndian32ToArray@CodedOutputStream@io@protobuf@google@@SAPEAEIPEAE@Z
pdata	ENDS
;	COMDAT pdata
pdata	SEGMENT
$pdata$?WriteVarint32ToArray@CodedOutputStream@io@protobuf@google@@SAPEAEIPEAE@Z DD imagerel $LN3
	DD	imagerel $LN3+32
	DD	imagerel $unwind$?WriteVarint32ToArray@CodedOutputStream@io@protobuf@google@@SAPEAEIPEAE@Z
pdata	ENDS
;	COMDAT pdata
pdata	SEGMENT
$pdata$?WriteVarint64ToArray@CodedOutputStream@io@protobuf@google@@SAPEAE_KPEAE@Z DD imagerel $LN3
	DD	imagerel $LN3+34
	DD	imagerel $unwind$?WriteVarint64ToArray@CodedOutputStream@io@protobuf@google@@SAPEAE_KPEAE@Z
pdata	ENDS
;	COMDAT pdata
pdata	SEGMENT
$pdata$?WriteVarint32SignExtendedToArray@CodedOutputStream@io@protobuf@google@@SAPEAEHPEAE@Z DD imagerel $LN3
	DD	imagerel $LN3+36
	DD	imagerel $unwind$?WriteVarint32SignExtendedToArray@CodedOutputStream@io@protobuf@google@@SAPEAEHPEAE@Z
pdata	ENDS
;	COMDAT pdata
pdata	SEGMENT
$pdata$?WriteTagToArray@CodedOutputStream@io@protobuf@google@@SAPEAEIPEAE@Z DD imagerel $LN3
	DD	imagerel $LN3+32
	DD	imagerel $unwind$?WriteTagToArray@CodedOutputStream@io@protobuf@google@@SAPEAEIPEAE@Z
pdata	ENDS
;	COMDAT pdata
pdata	SEGMENT
$pdata$?VarintSize32@CodedOutputStream@io@protobuf@google@@SA_KI@Z DD imagerel $LN3
	DD	imagerel $LN3+50
	DD	imagerel $unwind$?VarintSize32@CodedOutputStream@io@protobuf@google@@SA_KI@Z
pdata	ENDS
;	COMDAT pdata
pdata	SEGMENT
$pdata$?VarintSize64@CodedOutputStream@io@protobuf@google@@SA_K_K@Z DD imagerel $LN3
	DD	imagerel $LN3+54
	DD	imagerel $unwind$?VarintSize64@CodedOutputStream@io@protobuf@google@@SA_K_K@Z
pdata	ENDS
;	COMDAT pdata
pdata	SEGMENT
$pdata$?VarintSize32SignExtended@CodedOutputStream@io@protobuf@google@@SA_KH@Z DD imagerel $LN3
	DD	imagerel $LN3+26
	DD	imagerel $unwind$?VarintSize32SignExtended@CodedOutputStream@io@protobuf@google@@SA_KH@Z
pdata	ENDS
;	COMDAT pdata
pdata	SEGMENT
$pdata$?VarintSize32PlusOne@CodedOutputStream@io@protobuf@google@@SA_KI@Z DD imagerel $LN3
	DD	imagerel $LN3+52
	DD	imagerel $unwind$?VarintSize32PlusOne@CodedOutputStream@io@protobuf@google@@SA_KI@Z
pdata	ENDS
;	COMDAT pdata
pdata	SEGMENT
$pdata$??1Arena@protobuf@google@@QEAA@XZ DD imagerel $LN3
	DD	imagerel $LN3+27
	DD	imagerel $unwind$??1Arena@protobuf@google@@QEAA@XZ
pdata	ENDS
;	COMDAT pdata
pdata	SEGMENT
$pdata$?SpaceAllocated@Arena@protobuf@google@@QEBA_KXZ DD imagerel $LN3
	DD	imagerel $LN3+27
	DD	imagerel $unwind$?SpaceAllocated@Arena@protobuf@google@@QEBA_KXZ
pdata	ENDS
;	COMDAT pdata
pdata	SEGMENT
$pdata$?AllocateInternal@Arena@protobuf@google@@AEAAPEAX_K0P6AXPEAX@ZPEBVtype_info@@@Z DD imagerel $LN7
	DD	imagerel $LN7+248
	DD	imagerel $unwind$?AllocateInternal@Arena@protobuf@google@@AEAAPEAX_K0P6AXPEAX@ZPEBVtype_info@@@Z
pdata	ENDS
;	COMDAT pdata
pdata	SEGMENT
$pdata$?AllocateAlignedWithHook@Arena@protobuf@google@@AEAAPEAX_K0PEBVtype_info@@@Z DD imagerel $LN5
	DD	imagerel $LN5+115
	DD	imagerel $unwind$?AllocateAlignedWithHook@Arena@protobuf@google@@AEAAPEAX_K0PEBVtype_info@@@Z
pdata	ENDS
;	COMDAT pdata
pdata	SEGMENT
$pdata$??_GArena@protobuf@google@@QEAAPEAXI@Z DD imagerel $LN4
	DD	imagerel $LN4+59
	DD	imagerel $unwind$??_GArena@protobuf@google@@QEAAPEAXI@Z
pdata	ENDS
;	COMDAT pdata
pdata	SEGMENT
$pdata$?Get@TaggedStringPtr@internal@protobuf@google@@QEBAPEAV?$basic_string@DU?$char_traits@D@std@@V?$allocator@D@2@@std@@XZ DD imagerel $LN3
	DD	imagerel $LN3+28
	DD	imagerel $unwind$?Get@TaggedStringPtr@internal@protobuf@google@@QEBAPEAV?$basic_string@DU?$char_traits@D@std@@V?$allocator@D@2@@std@@XZ
pdata	ENDS
;	COMDAT pdata
pdata	SEGMENT
$pdata$??0ArenaStringPtr@internal@protobuf@google@@QEAA@PEAV?$ExplicitlyConstructed@V?$basic_string@DU?$char_traits@D@std@@V?$allocator@D@2@@std@@$07@123@UConstantInitialized@123@@Z DD imagerel $LN3
	DD	imagerel $LN3+54
	DD	imagerel $unwind$??0ArenaStringPtr@internal@protobuf@google@@QEAA@PEAV?$ExplicitlyConstructed@V?$basic_string@DU?$char_traits@D@std@@V?$allocator@D@2@@std@@$07@123@UConstantInitialized@123@@Z
pdata	ENDS
;	COMDAT pdata
pdata	SEGMENT
$pdata$?InitDefault@ArenaStringPtr@internal@protobuf@google@@QEAAXXZ DD imagerel $LN3
	DD	imagerel $LN3+42
	DD	imagerel $unwind$?InitDefault@ArenaStringPtr@internal@protobuf@google@@QEAAXXZ
pdata	ENDS
;	COMDAT pdata
pdata	SEGMENT
$pdata$?Get@ArenaStringPtr@internal@protobuf@google@@QEBAAEBV?$basic_string@DU?$char_traits@D@std@@V?$allocator@D@2@@std@@XZ DD imagerel $LN3
	DD	imagerel $LN3+27
	DD	imagerel $unwind$?Get@ArenaStringPtr@internal@protobuf@google@@QEBAAEBV?$basic_string@DU?$char_traits@D@std@@V?$allocator@D@2@@std@@XZ
pdata	ENDS
;	COMDAT pdata
pdata	SEGMENT
$pdata$?ClearNonDefaultToEmpty@ArenaStringPtr@internal@protobuf@google@@QEAAXXZ DD imagerel $LN3
	DD	imagerel $LN3+35
	DD	imagerel $unwind$?ClearNonDefaultToEmpty@ArenaStringPtr@internal@protobuf@google@@QEAAXXZ
pdata	ENDS
;	COMDAT pdata
pdata	SEGMENT
$pdata$?InternalSwap@ArenaStringPtr@internal@protobuf@google@@SAXPEAU1234@PEAVArena@34@01@Z DD imagerel $LN3
	DD	imagerel $LN3+47
	DD	imagerel $unwind$?InternalSwap@ArenaStringPtr@internal@protobuf@google@@SAXPEAU1234@PEAVArena@34@01@Z
pdata	ENDS
;	COMDAT pdata
pdata	SEGMENT
$pdata$??$swap@VTaggedStringPtr@internal@protobuf@google@@$0A@@std@@YAXAEAVTaggedStringPtr@internal@protobuf@google@@0@Z DD imagerel $LN3
	DD	imagerel $LN3+79
	DD	imagerel $unwind$??$swap@VTaggedStringPtr@internal@protobuf@google@@$0A@@std@@YAXAEAVTaggedStringPtr@internal@protobuf@google@@0@Z
pdata	ENDS
;	COMDAT pdata
pdata	SEGMENT
$pdata$??0InternalMetadata@internal@protobuf@google@@QEAA@PEAVArena@23@_N@Z DD imagerel $LN3
	DD	imagerel $LN3+50
	DD	imagerel $unwind$??0InternalMetadata@internal@protobuf@google@@QEAA@PEAVArena@23@_N@Z
pdata	ENDS
;	COMDAT pdata
pdata	SEGMENT
$pdata$?SetArena@InternalMetadata@internal@protobuf@google@@QEAAXPEAVArena@34@_N@Z DD imagerel $LN10
	DD	imagerel $LN10+276
	DD	imagerel $unwind$?SetArena@InternalMetadata@internal@protobuf@google@@QEAAXPEAVArena@34@_N@Z
pdata	ENDS
;	COMDAT pdata
pdata	SEGMENT
$pdata$?dtor$0@?0??SetArena@InternalMetadata@internal@protobuf@google@@QEAAXPEAVArena@34@_N@Z@4HA DD imagerel ?dtor$0@?0??SetArena@InternalMetadata@internal@protobuf@google@@QEAAXPEAVArena@34@_N@Z@4HA
	DD	imagerel ?dtor$0@?0??SetArena@InternalMetadata@internal@protobuf@google@@QEAAXPEAVArena@34@_N@Z@4HA+38
	DD	imagerel $unwind$?dtor$0@?0??SetArena@InternalMetadata@internal@protobuf@google@@QEAAXPEAVArena@34@_N@Z@4HA
pdata	ENDS
;	COMDAT pdata
pdata	SEGMENT
$pdata$??1InternalMetadata@internal@protobuf@google@@QEAA@XZ DD imagerel $LN6
	DD	imagerel $LN6+87
	DD	imagerel $unwind$??1InternalMetadata@internal@protobuf@google@@QEAA@XZ
pdata	ENDS
;	COMDAT pdata
pdata	SEGMENT
$pdata$?arena@InternalMetadata@internal@protobuf@google@@QEBAPEAVArena@34@XZ DD imagerel $LN5
	DD	imagerel $LN5+58
	DD	imagerel $unwind$?arena@InternalMetadata@internal@protobuf@google@@QEBAPEAVArena@34@XZ
pdata	ENDS
;	COMDAT pdata
pdata	SEGMENT
$pdata$?have_unknown_fields@InternalMetadata@internal@protobuf@google@@QEBA_NXZ DD imagerel $LN3
	DD	imagerel $LN3+24
	DD	imagerel $unwind$?have_unknown_fields@InternalMetadata@internal@protobuf@google@@QEBA_NXZ
pdata	ENDS
;	COMDAT pdata
pdata	SEGMENT
$pdata$?InternalSwap@InternalMetadata@internal@protobuf@google@@QEAAXPEAV1234@@Z DD imagerel $LN3
	DD	imagerel $LN3+37
	DD	imagerel $unwind$?InternalSwap@InternalMetadata@internal@protobuf@google@@QEAAXPEAV1234@@Z
pdata	ENDS
;	COMDAT pdata
pdata	SEGMENT
$pdata$?HasMessageOwnedArenaTag@InternalMetadata@internal@protobuf@google@@AEBA_NXZ DD imagerel $LN5
	DD	imagerel $LN5+45
	DD	imagerel $unwind$?HasMessageOwnedArenaTag@InternalMetadata@internal@protobuf@google@@AEBA_NXZ
pdata	ENDS
;	COMDAT pdata
pdata	SEGMENT
$pdata$??0MessageLite@protobuf@google@@QEAA@XZ DD imagerel $LN4
	DD	imagerel $LN4+51
	DD	imagerel $unwind$??0MessageLite@protobuf@google@@QEAA@XZ
pdata	ENDS
;	COMDAT pdata
pdata	SEGMENT
$pdata$??1MessageLite@protobuf@google@@UEAA@XZ DD imagerel $LN3
	DD	imagerel $LN3+31
	DD	imagerel $unwind$??1MessageLite@protobuf@google@@UEAA@XZ
pdata	ENDS
;	COMDAT pdata
pdata	SEGMENT
$pdata$??0MessageLite@protobuf@google@@IEAA@PEAVArena@12@_N@Z DD imagerel $LN4
	DD	imagerel $LN4+79
	DD	imagerel $unwind$??0MessageLite@protobuf@google@@IEAA@PEAVArena@12@_N@Z
pdata	ENDS
;	COMDAT pdata
pdata	SEGMENT
$pdata$?GetArenaForAllocation@MessageLite@protobuf@google@@IEBAPEAVArena@23@XZ DD imagerel $LN3
	DD	imagerel $LN3+31
	DD	imagerel $unwind$?GetArenaForAllocation@MessageLite@protobuf@google@@IEBAPEAVArena@23@XZ
pdata	ENDS
;	COMDAT pdata
pdata	SEGMENT
$pdata$??_GMessageLite@protobuf@google@@UEAAPEAXI@Z DD imagerel $LN4
	DD	imagerel $LN4+59
	DD	imagerel $unwind$??_GMessageLite@protobuf@google@@UEAAPEAXI@Z
pdata	ENDS
;	COMDAT pdata
pdata	SEGMENT
$pdata$??0?$HasBits@$00@internal@protobuf@google@@QEAA@XZ DD imagerel $LN3
	DD	imagerel $LN3+32
	DD	imagerel $unwind$??0?$HasBits@$00@internal@protobuf@google@@QEAA@XZ
pdata	ENDS
;	COMDAT pdata
pdata	SEGMENT
$pdata$?Clear@?$HasBits@$00@internal@protobuf@google@@QEAAXXZ DD imagerel $LN3
	DD	imagerel $LN3+35
	DD	imagerel $unwind$?Clear@?$HasBits@$00@internal@protobuf@google@@QEAAXXZ
pdata	ENDS
;	COMDAT pdata
pdata	SEGMENT
$pdata$?Or@?$HasBits@$00@internal@protobuf@google@@QEAAXAEBV1234@@Z DD imagerel $LN6
	DD	imagerel $LN6+115
	DD	imagerel $unwind$?Or@?$HasBits@$00@internal@protobuf@google@@QEAAXAEBV1234@@Z
pdata	ENDS
;	COMDAT pdata
pdata	SEGMENT
$pdata$??1RepeatedPtrFieldBase@internal@protobuf@google@@IEAA@XZ DD imagerel $LN4
	DD	imagerel $LN4+39
	DD	imagerel $unwind$??1RepeatedPtrFieldBase@internal@protobuf@google@@IEAA@XZ
pdata	ENDS
;	COMDAT pdata
pdata	SEGMENT
$pdata$?NeedsDestroy@RepeatedPtrFieldBase@internal@protobuf@google@@IEBA_NXZ DD imagerel $LN5
	DD	imagerel $LN5+57
	DD	imagerel $unwind$?NeedsDestroy@RepeatedPtrFieldBase@internal@protobuf@google@@IEBA_NXZ
pdata	ENDS
;	COMDAT pdata
pdata	SEGMENT
$pdata$?InternalSwap@RepeatedPtrFieldBase@internal@protobuf@google@@QEAAXPEAV1234@@Z DD imagerel $LN8
	DD	imagerel $LN8+566
	DD	imagerel $unwind$?InternalSwap@RepeatedPtrFieldBase@internal@protobuf@google@@QEAAXPEAV1234@@Z
pdata	ENDS
;	COMDAT pdata
pdata	SEGMENT
$pdata$?dtor$0@?0??InternalSwap@RepeatedPtrFieldBase@internal@protobuf@google@@QEAAXPEAV1234@@Z@4HA DD imagerel ?dtor$0@?0??InternalSwap@RepeatedPtrFieldBase@internal@protobuf@google@@QEAAXPEAV1234@@Z@4HA
	DD	imagerel ?dtor$0@?0??InternalSwap@RepeatedPtrFieldBase@internal@protobuf@google@@QEAAXPEAV1234@@Z@4HA+41
	DD	imagerel $unwind$?dtor$0@?0??InternalSwap@RepeatedPtrFieldBase@internal@protobuf@google@@QEAAXPEAV1234@@Z@4HA
pdata	ENDS
;	COMDAT pdata
pdata	SEGMENT
$pdata$?raw_data@RepeatedPtrFieldBase@internal@protobuf@google@@IEBAPEBQEAXXZ DD imagerel $LN5
	DD	imagerel $LN5+57
	DD	imagerel $unwind$?raw_data@RepeatedPtrFieldBase@internal@protobuf@google@@IEBAPEBQEAXXZ
pdata	ENDS
;	COMDAT pdata
pdata	SEGMENT
$pdata$?MergeFromInternal@RepeatedPtrFieldBase@internal@protobuf@google@@AEAAXAEBV1234@P81234@EAAXPEAPEAX1HH@Z@Z DD imagerel $LN4
	DD	imagerel $LN4+200
	DD	imagerel $unwind$?MergeFromInternal@RepeatedPtrFieldBase@internal@protobuf@google@@AEAAXAEBV1234@P81234@EAAXPEAPEAX1HH@Z@Z
pdata	ENDS
;	COMDAT pdata
pdata	SEGMENT
$pdata$??$make_tuple@AEAPEAVArena@protobuf@google@@AEAHAEAHAEAPEAURep@RepeatedPtrFieldBase@internal@23@@std@@YA?AV?$tuple@PEAVArena@protobuf@google@@HHPEAURep@RepeatedPtrFieldBase@internal@23@@0@AEAPEAVArena@protobuf@google@@AEAH1AEAPEAURep@RepeatedPtrFieldBase@internal@34@@Z DD imagerel $LN3
	DD	imagerel $LN3+132
	DD	imagerel $unwind$??$make_tuple@AEAPEAVArena@protobuf@google@@AEAHAEAHAEAPEAURep@RepeatedPtrFieldBase@internal@23@@std@@YA?AV?$tuple@PEAVArena@protobuf@google@@HHPEAURep@RepeatedPtrFieldBase@internal@23@@0@AEAPEAVArena@protobuf@google@@AEAH1AEAPEAURep@RepeatedPtrFieldBase@internal@34@@Z
pdata	ENDS
;	COMDAT pdata
pdata	SEGMENT
$pdata$??$tie@PEAVArena@protobuf@google@@HHPEAURep@RepeatedPtrFieldBase@internal@23@@std@@YA?AV?$tuple@AEAPEAVArena@protobuf@google@@AEAHAEAHAEAPEAURep@RepeatedPtrFieldBase@internal@23@@0@AEAPEAVArena@protobuf@google@@AEAH1AEAPEAURep@RepeatedPtrFieldBase@internal@34@@Z DD imagerel $LN3
	DD	imagerel $LN3+69
	DD	imagerel $unwind$??$tie@PEAVArena@protobuf@google@@HHPEAURep@RepeatedPtrFieldBase@internal@23@@std@@YA?AV?$tuple@AEAPEAVArena@protobuf@google@@AEAHAEAHAEAPEAURep@RepeatedPtrFieldBase@internal@23@@0@AEAPEAVArena@protobuf@google@@AEAH1AEAPEAURep@RepeatedPtrFieldBase@internal@34@@Z
pdata	ENDS
;	COMDAT pdata
pdata	SEGMENT
$pdata$??$?4PEAVArena@protobuf@google@@HHPEAURep@RepeatedPtrFieldBase@internal@12@$0A@@?$tuple@AEAPEAVArena@protobuf@google@@AEAHAEAHAEAPEAURep@RepeatedPtrFieldBase@internal@23@@std@@QEAAAEAV01@$$QEAV?$tuple@PEAVArena@protobuf@google@@HHPEAURep@RepeatedPtrFieldBase@internal@23@@1@@Z DD imagerel $LN3
	DD	imagerel $LN3+102
	DD	imagerel $unwind$??$?4PEAVArena@protobuf@google@@HHPEAURep@RepeatedPtrFieldBase@internal@12@$0A@@?$tuple@AEAPEAVArena@protobuf@google@@AEAHAEAHAEAPEAURep@RepeatedPtrFieldBase@internal@23@@std@@QEAAAEAV01@$$QEAV?$tuple@PEAVArena@protobuf@google@@HHPEAURep@RepeatedPtrFieldBase@internal@23@@1@@Z
pdata	ENDS
;	COMDAT pdata
pdata	SEGMENT
$pdata$??$?4PEAVArena@protobuf@google@@HHPEAURep@RepeatedPtrFieldBase@internal@12@$0A@@?$tuple@AEAPEAVArena@protobuf@google@@AEAHAEAHAEAPEAURep@RepeatedPtrFieldBase@internal@23@@std@@QEAAAEAV01@AEBV?$tuple@PEAVArena@protobuf@google@@HHPEAURep@RepeatedPtrFieldBase@internal@23@@1@@Z DD imagerel $LN3
	DD	imagerel $LN3+83
	DD	imagerel $unwind$??$?4PEAVArena@protobuf@google@@HHPEAURep@RepeatedPtrFieldBase@internal@12@$0A@@?$tuple@AEAPEAVArena@protobuf@google@@AEAHAEAHAEAPEAURep@RepeatedPtrFieldBase@internal@23@@std@@QEAAAEAV01@AEBV?$tuple@PEAVArena@protobuf@google@@HHPEAURep@RepeatedPtrFieldBase@internal@23@@1@@Z
pdata	ENDS
;	COMDAT pdata
pdata	SEGMENT
$pdata$??_G?$RepeatedField@H@protobuf@google@@QEAAPEAXI@Z DD imagerel $LN4
	DD	imagerel $LN4+59
	DD	imagerel $unwind$??_G?$RepeatedField@H@protobuf@google@@QEAAPEAXI@Z
pdata	ENDS
;	COMDAT pdata
pdata	SEGMENT
$pdata$??_G?$RepeatedField@I@protobuf@google@@QEAAPEAXI@Z DD imagerel $LN4
	DD	imagerel $LN4+59
	DD	imagerel $unwind$??_G?$RepeatedField@I@protobuf@google@@QEAAPEAXI@Z
pdata	ENDS
;	COMDAT pdata
pdata	SEGMENT
$pdata$?EncodeFloat@WireFormatLite@internal@protobuf@google@@SAIM@Z DD imagerel $LN3
	DD	imagerel $LN3+25
	DD	imagerel $unwind$?EncodeFloat@WireFormatLite@internal@protobuf@google@@SAIM@Z
pdata	ENDS
;	COMDAT pdata
pdata	SEGMENT
$pdata$?WriteTagToArray@WireFormatLite@internal@protobuf@google@@SAPEAEHW4WireType@1234@PEAE@Z DD imagerel $LN3
	DD	imagerel $LN3+47
	DD	imagerel $unwind$?WriteTagToArray@WireFormatLite@internal@protobuf@google@@SAPEAEHW4WireType@1234@PEAE@Z
pdata	ENDS
;	COMDAT pdata
pdata	SEGMENT
$pdata$?WriteUInt32NoTagToArray@WireFormatLite@internal@protobuf@google@@SAPEAEIPEAE@Z DD imagerel $LN3
	DD	imagerel $LN3+32
	DD	imagerel $unwind$?WriteUInt32NoTagToArray@WireFormatLite@internal@protobuf@google@@SAPEAEIPEAE@Z
pdata	ENDS
;	COMDAT pdata
pdata	SEGMENT
$pdata$?WriteFloatNoTagToArray@WireFormatLite@internal@protobuf@google@@SAPEAEMPEAE@Z DD imagerel $LN3
	DD	imagerel $LN3+43
	DD	imagerel $unwind$?WriteFloatNoTagToArray@WireFormatLite@internal@protobuf@google@@SAPEAEMPEAE@Z
pdata	ENDS
;	COMDAT pdata
pdata	SEGMENT
$pdata$?WriteBoolNoTagToArray@WireFormatLite@internal@protobuf@google@@SAPEAE_NPEAE@Z DD imagerel $LN5
	DD	imagerel $LN5+69
	DD	imagerel $unwind$?WriteBoolNoTagToArray@WireFormatLite@internal@protobuf@google@@SAPEAE_NPEAE@Z
pdata	ENDS
;	COMDAT pdata
pdata	SEGMENT
$pdata$?WriteEnumNoTagToArray@WireFormatLite@internal@protobuf@google@@SAPEAEHPEAE@Z DD imagerel $LN3
	DD	imagerel $LN3+32
	DD	imagerel $unwind$?WriteEnumNoTagToArray@WireFormatLite@internal@protobuf@google@@SAPEAEHPEAE@Z
pdata	ENDS
;	COMDAT pdata
pdata	SEGMENT
$pdata$?WriteUInt32ToArray@WireFormatLite@internal@protobuf@google@@SAPEAEHIPEAE@Z DD imagerel $LN3
	DD	imagerel $LN3+57
	DD	imagerel $unwind$?WriteUInt32ToArray@WireFormatLite@internal@protobuf@google@@SAPEAEHIPEAE@Z
pdata	ENDS
;	COMDAT pdata
pdata	SEGMENT
$pdata$?WriteFloatToArray@WireFormatLite@internal@protobuf@google@@SAPEAEHMPEAE@Z DD imagerel $LN3
	DD	imagerel $LN3+64
	DD	imagerel $unwind$?WriteFloatToArray@WireFormatLite@internal@protobuf@google@@SAPEAEHMPEAE@Z
pdata	ENDS
;	COMDAT pdata
pdata	SEGMENT
$pdata$?WriteBoolToArray@WireFormatLite@internal@protobuf@google@@SAPEAEH_NPEAE@Z DD imagerel $LN3
	DD	imagerel $LN3+58
	DD	imagerel $unwind$?WriteBoolToArray@WireFormatLite@internal@protobuf@google@@SAPEAEH_NPEAE@Z
pdata	ENDS
;	COMDAT pdata
pdata	SEGMENT
$pdata$?WriteEnumToArray@WireFormatLite@internal@protobuf@google@@SAPEAEHHPEAE@Z DD imagerel $LN3
	DD	imagerel $LN3+57
	DD	imagerel $unwind$?WriteEnumToArray@WireFormatLite@internal@protobuf@google@@SAPEAEHHPEAE@Z
pdata	ENDS
;	COMDAT pdata
pdata	SEGMENT
$pdata$?UInt32Size@WireFormatLite@internal@protobuf@google@@SA_KI@Z DD imagerel $LN3
	DD	imagerel $LN3+22
	DD	imagerel $unwind$?UInt32Size@WireFormatLite@internal@protobuf@google@@SA_KI@Z
pdata	ENDS
;	COMDAT pdata
pdata	SEGMENT
$pdata$?EnumSize@WireFormatLite@internal@protobuf@google@@SA_KH@Z DD imagerel $LN3
	DD	imagerel $LN3+22
	DD	imagerel $unwind$?EnumSize@WireFormatLite@internal@protobuf@google@@SA_KH@Z
pdata	ENDS
;	COMDAT pdata
pdata	SEGMENT
$pdata$?UInt32SizePlusOne@WireFormatLite@internal@protobuf@google@@SA_KI@Z DD imagerel $LN3
	DD	imagerel $LN3+22
	DD	imagerel $unwind$?UInt32SizePlusOne@WireFormatLite@internal@protobuf@google@@SA_KI@Z
pdata	ENDS
;	COMDAT pdata
pdata	SEGMENT
$pdata$?StringSize@WireFormatLite@internal@protobuf@google@@SA_KAEBV?$basic_string@DU?$char_traits@D@std@@V?$allocator@D@2@@std@@@Z DD imagerel $LN3
	DD	imagerel $LN3+32
	DD	imagerel $unwind$?StringSize@WireFormatLite@internal@protobuf@google@@SA_KAEBV?$basic_string@DU?$char_traits@D@std@@V?$allocator@D@2@@std@@@Z
pdata	ENDS
;	COMDAT pdata
pdata	SEGMENT
$pdata$?LengthDelimitedSize@WireFormatLite@internal@protobuf@google@@SA_K_K@Z DD imagerel $LN3
	DD	imagerel $LN3+34
	DD	imagerel $unwind$?LengthDelimitedSize@WireFormatLite@internal@protobuf@google@@SA_K_K@Z
pdata	ENDS
;	COMDAT pdata
pdata	SEGMENT
$pdata$??$bit_cast@IM@internal@protobuf@google@@YAIAEBM@Z DD imagerel $LN3
	DD	imagerel $LN3+39
	DD	imagerel $unwind$??$bit_cast@IM@internal@protobuf@google@@YAIAEBM@Z
pdata	ENDS
;	COMDAT pdata
pdata	SEGMENT
$pdata$?Get@CachedSize@internal@protobuf@google@@QEBAHXZ DD imagerel $LN3
	DD	imagerel $LN3+36
	DD	imagerel $unwind$?Get@CachedSize@internal@protobuf@google@@QEBAHXZ
pdata	ENDS
;	COMDAT pdata
pdata	SEGMENT
$pdata$?Set@CachedSize@internal@protobuf@google@@QEAAXH@Z DD imagerel $LN3
	DD	imagerel $LN3+45
	DD	imagerel $unwind$?Set@CachedSize@internal@protobuf@google@@QEAAXH@Z
pdata	ENDS
;	COMDAT pdata
pdata	SEGMENT
$pdata$?store@?$_Atomic_storage@H$03@std@@QEAAXH@Z DD imagerel $LN3
	DD	imagerel $LN3+61
	DD	imagerel $unwind$?store@?$_Atomic_storage@H$03@std@@QEAAXH@Z
pdata	ENDS
;	COMDAT pdata
pdata	SEGMENT
$pdata$?store@?$_Atomic_storage@H$03@std@@QEAAXHW4memory_order@2@@Z DD imagerel $LN17
	DD	imagerel $LN17+268
	DD	imagerel $unwind$?store@?$_Atomic_storage@H$03@std@@QEAAXHW4memory_order@2@@Z
pdata	ENDS
;	COMDAT pdata
pdata	SEGMENT
$pdata$?load@?$_Atomic_storage@H$03@std@@QEBAHW4memory_order@2@@Z DD imagerel $LN17
	DD	imagerel $LN17+224
	DD	imagerel $unwind$?load@?$_Atomic_storage@H$03@std@@QEBAHW4memory_order@2@@Z
pdata	ENDS
;	COMDAT pdata
pdata	SEGMENT
$pdata$??0?$_Atomic_integral@H$03@std@@QEAA@H@Z DD imagerel $LN3
	DD	imagerel $LN3+37
	DD	imagerel $unwind$??0?$_Atomic_integral@H$03@std@@QEAA@H@Z
pdata	ENDS
;	COMDAT pdata
pdata	SEGMENT
$pdata$??0?$_Atomic_integral_facade@H@std@@QEAA@H@Z DD imagerel $LN3
	DD	imagerel $LN3+37
	DD	imagerel $unwind$??0?$_Atomic_integral_facade@H@std@@QEAA@H@Z
pdata	ENDS
;	COMDAT pdata
pdata	SEGMENT
$pdata$??0?$atomic@H@std@@QEAA@H@Z DD imagerel $LN3
	DD	imagerel $LN3+37
	DD	imagerel $unwind$??0?$atomic@H@std@@QEAA@H@Z
pdata	ENDS
;	COMDAT pdata
pdata	SEGMENT
$pdata$??0CachedSize@internal@protobuf@google@@QEAA@XZ DD imagerel $LN3
	DD	imagerel $LN3+41
	DD	imagerel $unwind$??0CachedSize@internal@protobuf@google@@QEAA@XZ
pdata	ENDS
;	COMDAT pdata
pdata	SEGMENT
$pdata$?WriteVarint@internal@protobuf@google@@YAXI_KPEAVUnknownFieldSet@23@@Z DD imagerel $LN3
	DD	imagerel $LN3+42
	DD	imagerel $unwind$?WriteVarint@internal@protobuf@google@@YAXI_KPEAVUnknownFieldSet@23@@Z
pdata	ENDS
;	COMDAT pdata
pdata	SEGMENT
$pdata$?DataAvailable@EpsCopyInputStream@internal@protobuf@google@@QEAA_NPEBD@Z DD imagerel $LN5
	DD	imagerel $LN5+54
	DD	imagerel $unwind$?DataAvailable@EpsCopyInputStream@internal@protobuf@google@@QEAA_NPEBD@Z
pdata	ENDS
;	COMDAT pdata
pdata	SEGMENT
$pdata$?DoneWithCheck@EpsCopyInputStream@internal@protobuf@google@@IEAA_NPEAPEBDH@Z DD imagerel $LN16
	DD	imagerel $LN16+516
	DD	imagerel $unwind$?DoneWithCheck@EpsCopyInputStream@internal@protobuf@google@@IEAA_NPEAPEBDH@Z
pdata	ENDS
;	COMDAT pdata
pdata	SEGMENT
$pdata$?dtor$0@?0??DoneWithCheck@EpsCopyInputStream@internal@protobuf@google@@IEAA_NPEAPEBDH@Z@4HA DD imagerel ?dtor$0@?0??DoneWithCheck@EpsCopyInputStream@internal@protobuf@google@@IEAA_NPEAPEBDH@Z@4HA
	DD	imagerel ?dtor$0@?0??DoneWithCheck@EpsCopyInputStream@internal@protobuf@google@@IEAA_NPEAPEBDH@Z@4HA+38
	DD	imagerel $unwind$?dtor$0@?0??DoneWithCheck@EpsCopyInputStream@internal@protobuf@google@@IEAA_NPEAPEBDH@Z@4HA
pdata	ENDS
;	COMDAT pdata
pdata	SEGMENT
$pdata$?dtor$1@?0??DoneWithCheck@EpsCopyInputStream@internal@protobuf@google@@IEAA_NPEAPEBDH@Z@4HA DD imagerel ?dtor$1@?0??DoneWithCheck@EpsCopyInputStream@internal@protobuf@google@@IEAA_NPEAPEBDH@Z@4HA
	DD	imagerel ?dtor$1@?0??DoneWithCheck@EpsCopyInputStream@internal@protobuf@google@@IEAA_NPEAPEBDH@Z@4HA+41
	DD	imagerel $unwind$?dtor$1@?0??DoneWithCheck@EpsCopyInputStream@internal@protobuf@google@@IEAA_NPEAPEBDH@Z@4HA
pdata	ENDS
;	COMDAT pdata
pdata	SEGMENT
$pdata$?Done@ParseContext@internal@protobuf@google@@QEAA_NPEAPEBD@Z DD imagerel $LN3
	DD	imagerel $LN3+43
	DD	imagerel $unwind$?Done@ParseContext@internal@protobuf@google@@QEAA_NPEAPEBD@Z
pdata	ENDS
;	COMDAT pdata
pdata	SEGMENT
$pdata$?Load@?$EndianHelper@$03@internal@protobuf@google@@SAIPEBX@Z DD imagerel $LN3
	DD	imagerel $LN3+44
	DD	imagerel $unwind$?Load@?$EndianHelper@$03@internal@protobuf@google@@SAIPEBX@Z
pdata	ENDS
;	COMDAT pdata
pdata	SEGMENT
$pdata$?VarintParseSlow@internal@protobuf@google@@YAPEBDPEBDIPEAI@Z DD imagerel $LN3
	DD	imagerel $LN3+59
	DD	imagerel $unwind$?VarintParseSlow@internal@protobuf@google@@YAPEBDPEBDIPEAI@Z
pdata	ENDS
;	COMDAT pdata
pdata	SEGMENT
$pdata$?VarintParseSlow@internal@protobuf@google@@YAPEBDPEBDIPEA_K@Z DD imagerel $LN3
	DD	imagerel $LN3+61
	DD	imagerel $unwind$?VarintParseSlow@internal@protobuf@google@@YAPEBDPEBDIPEA_K@Z
pdata	ENDS
;	COMDAT pdata
pdata	SEGMENT
$pdata$?ReadTag@internal@protobuf@google@@YAPEBDPEBDPEAII@Z DD imagerel $LN5
	DD	imagerel $LN5+188
	DD	imagerel $unwind$?ReadTag@internal@protobuf@google@@YAPEBDPEBDPEAII@Z
pdata	ENDS
;	COMDAT pdata
pdata	SEGMENT
$pdata$?ReadSize@internal@protobuf@google@@YAIPEAPEBD@Z DD imagerel $LN4
	DD	imagerel $LN4+118
	DD	imagerel $unwind$?ReadSize@internal@protobuf@google@@YAIPEAPEBD@Z
pdata	ENDS
;	COMDAT pdata
pdata	SEGMENT
$pdata$?ReadVarint64@internal@protobuf@google@@YA_KPEAPEBD@Z DD imagerel $LN3
	DD	imagerel $LN3+45
	DD	imagerel $unwind$?ReadVarint64@internal@protobuf@google@@YA_KPEAPEBD@Z
pdata	ENDS
;	COMDAT pdata
pdata	SEGMENT
$pdata$??$VarintParse@_K@internal@protobuf@google@@YAPEBDPEBDPEA_K@Z DD imagerel $LN5
	DD	imagerel $LN5+184
	DD	imagerel $unwind$??$VarintParse@_K@internal@protobuf@google@@YAPEBDPEBDPEA_K@Z
pdata	ENDS
;	COMDAT pdata
pdata	SEGMENT
$pdata$?ReadVarint32@internal@protobuf@google@@YAIPEAPEBD@Z DD imagerel $LN3
	DD	imagerel $LN3+44
	DD	imagerel $unwind$?ReadVarint32@internal@protobuf@google@@YAIPEAPEBD@Z
pdata	ENDS
;	COMDAT pdata
pdata	SEGMENT
$pdata$??$VarintParse@I@internal@protobuf@google@@YAPEBDPEBDPEAI@Z DD imagerel $LN5
	DD	imagerel $LN5+182
	DD	imagerel $unwind$??$VarintParse@I@internal@protobuf@google@@YAPEBDPEBDPEAI@Z
pdata	ENDS
;	COMDAT pdata
pdata	SEGMENT
$pdata$?VerifyUTF8@internal@protobuf@google@@YA_NPEBV?$basic_string@DU?$char_traits@D@std@@V?$allocator@D@2@@std@@PEBD@Z DD imagerel $LN3
	DD	imagerel $LN3+81
	DD	imagerel $unwind$?VerifyUTF8@internal@protobuf@google@@YA_NPEBV?$basic_string@DU?$char_traits@D@std@@V?$allocator@D@2@@std@@PEBD@Z
pdata	ENDS
;	COMDAT pdata
pdata	SEGMENT
$pdata$??0UnknownFieldSet@protobuf@google@@QEAA@XZ DD imagerel $LN4
	DD	imagerel $LN4+32
	DD	imagerel $unwind$??0UnknownFieldSet@protobuf@google@@QEAA@XZ
pdata	ENDS
;	COMDAT pdata
pdata	SEGMENT
$pdata$??1UnknownFieldSet@protobuf@google@@QEAA@XZ DD imagerel $LN3
	DD	imagerel $LN3+38
	DD	imagerel $unwind$??1UnknownFieldSet@protobuf@google@@QEAA@XZ
pdata	ENDS
;	COMDAT pdata
pdata	SEGMENT
$pdata$?Clear@UnknownFieldSet@protobuf@google@@QEAAXXZ DD imagerel $LN4
	DD	imagerel $LN4+44
	DD	imagerel $unwind$?Clear@UnknownFieldSet@protobuf@google@@QEAAXXZ
pdata	ENDS
;	COMDAT pdata
pdata	SEGMENT
$pdata$?deallocate@?$allocator@VUnknownField@protobuf@google@@@std@@QEAAXQEAVUnknownField@protobuf@google@@_K@Z DD imagerel $LN13
	DD	imagerel $LN13+176
	DD	imagerel $unwind$?deallocate@?$allocator@VUnknownField@protobuf@google@@@std@@QEAAXQEAVUnknownField@protobuf@google@@_K@Z
pdata	ENDS
;	COMDAT pdata
pdata	SEGMENT
$pdata$??0?$vector@VUnknownField@protobuf@google@@V?$allocator@VUnknownField@protobuf@google@@@std@@@std@@QEAA@XZ DD imagerel $LN3
	DD	imagerel $LN3+90
	DD	imagerel $unwind$??0?$vector@VUnknownField@protobuf@google@@V?$allocator@VUnknownField@protobuf@google@@@std@@@std@@QEAA@XZ
pdata	ENDS
;	COMDAT pdata
pdata	SEGMENT
$pdata$??1?$vector@VUnknownField@protobuf@google@@V?$allocator@VUnknownField@protobuf@google@@@std@@@std@@QEAA@XZ DD imagerel $LN3
	DD	imagerel $LN3+97
	DD	imagerel $unwind$??1?$vector@VUnknownField@protobuf@google@@V?$allocator@VUnknownField@protobuf@google@@@std@@@std@@QEAA@XZ
pdata	ENDS
;	COMDAT pdata
pdata	SEGMENT
$pdata$?empty@?$vector@VUnknownField@protobuf@google@@V?$allocator@VUnknownField@protobuf@google@@@std@@@std@@QEBA_NXZ DD imagerel $LN5
	DD	imagerel $LN5+64
	DD	imagerel $unwind$?empty@?$vector@VUnknownField@protobuf@google@@V?$allocator@VUnknownField@protobuf@google@@@std@@@std@@QEBA_NXZ
pdata	ENDS
;	COMDAT pdata
pdata	SEGMENT
$pdata$?_Tidy@?$vector@VUnknownField@protobuf@google@@V?$allocator@VUnknownField@protobuf@google@@@std@@@std@@AEAAXXZ DD imagerel $LN4
	DD	imagerel $LN4+208
	DD	imagerel $unwind$?_Tidy@?$vector@VUnknownField@protobuf@google@@V?$allocator@VUnknownField@protobuf@google@@@std@@@std@@AEAAXXZ
pdata	ENDS
;	COMDAT pdata
pdata	SEGMENT
$pdata$?_Getal@?$vector@VUnknownField@protobuf@google@@V?$allocator@VUnknownField@protobuf@google@@@std@@@std@@AEAAAEAV?$allocator@VUnknownField@protobuf@google@@@2@XZ DD imagerel $LN3
	DD	imagerel $LN3+27
	DD	imagerel $unwind$?_Getal@?$vector@VUnknownField@protobuf@google@@V?$allocator@VUnknownField@protobuf@google@@@std@@@std@@AEAAAEAV?$allocator@VUnknownField@protobuf@google@@@2@XZ
pdata	ENDS
;	COMDAT pdata
pdata	SEGMENT
$pdata$??0?$_Vector_val@U?$_Simple_types@VUnknownField@protobuf@google@@@std@@@std@@QEAA@XZ DD imagerel $LN3
	DD	imagerel $LN3+68
	DD	imagerel $unwind$??0?$_Vector_val@U?$_Simple_types@VUnknownField@protobuf@google@@@std@@@std@@QEAA@XZ
pdata	ENDS
;	COMDAT pdata
pdata	SEGMENT
$pdata$??0Message@protobuf@google@@QEAA@XZ DD imagerel $LN4
	DD	imagerel $LN4+44
	DD	imagerel $unwind$??0Message@protobuf@google@@QEAA@XZ
pdata	ENDS
;	COMDAT pdata
pdata	SEGMENT
$pdata$??0Message@protobuf@google@@IEAA@PEAVArena@12@_N@Z DD imagerel $LN4
	DD	imagerel $LN4+65
	DD	imagerel $unwind$??0Message@protobuf@google@@IEAA@PEAVArena@12@_N@Z
pdata	ENDS
;	COMDAT pdata
pdata	SEGMENT
$pdata$??1Message@protobuf@google@@UEAA@XZ DD imagerel $LN3
	DD	imagerel $LN3+24
	DD	imagerel $unwind$??1Message@protobuf@google@@UEAA@XZ
pdata	ENDS
;	COMDAT pdata
pdata	SEGMENT
$pdata$??_GMessage@protobuf@google@@UEAAPEAXI@Z DD imagerel $LN4
	DD	imagerel $LN4+59
	DD	imagerel $unwind$??_GMessage@protobuf@google@@UEAAPEAXI@Z
pdata	ENDS
;	COMDAT pdata
pdata	SEGMENT
$pdata$??$unknown_fields@VUnknownFieldSet@protobuf@google@@@InternalMetadata@internal@protobuf@google@@QEBAAEBVUnknownFieldSet@23@P6AAEBV423@XZ@Z DD imagerel $LN5
	DD	imagerel $LN5+58
	DD	imagerel $unwind$??$unknown_fields@VUnknownFieldSet@protobuf@google@@@InternalMetadata@internal@protobuf@google@@QEBAAEBVUnknownFieldSet@23@P6AAEBV423@XZ@Z
pdata	ENDS
;	COMDAT pdata
pdata	SEGMENT
$pdata$??$mutable_unknown_fields@VUnknownFieldSet@protobuf@google@@@InternalMetadata@internal@protobuf@google@@QEAAPEAVUnknownFieldSet@23@XZ DD imagerel $LN5
	DD	imagerel $LN5+59
	DD	imagerel $unwind$??$mutable_unknown_fields@VUnknownFieldSet@protobuf@google@@@InternalMetadata@internal@protobuf@google@@QEAAPEAVUnknownFieldSet@23@XZ
pdata	ENDS
pdata	SEGMENT
$pdata$??$CreateMaybeMessage@VAbilityData@SC2APIProtocol@@$$V@Arena@protobuf@google@@CAPEAVAbilityData@SC2APIProtocol@@PEAV012@@Z DD imagerel $LN3
	DD	imagerel $LN3+24
	DD	imagerel $unwind$??$CreateMaybeMessage@VAbilityData@SC2APIProtocol@@$$V@Arena@protobuf@google@@CAPEAVAbilityData@SC2APIProtocol@@PEAV012@@Z
$pdata$??$CreateMaybeMessage@VBuffData@SC2APIProtocol@@$$V@Arena@protobuf@google@@CAPEAVBuffData@SC2APIProtocol@@PEAV012@@Z DD imagerel $LN3
	DD	imagerel $LN3+24
	DD	imagerel $unwind$??$CreateMaybeMessage@VBuffData@SC2APIProtocol@@$$V@Arena@protobuf@google@@CAPEAVBuffData@SC2APIProtocol@@PEAV012@@Z
$pdata$??$CreateMaybeMessage@VDamageBonus@SC2APIProtocol@@$$V@Arena@protobuf@google@@CAPEAVDamageBonus@SC2APIProtocol@@PEAV012@@Z DD imagerel $LN3
	DD	imagerel $LN3+24
	DD	imagerel $unwind$??$CreateMaybeMessage@VDamageBonus@SC2APIProtocol@@$$V@Arena@protobuf@google@@CAPEAVDamageBonus@SC2APIProtocol@@PEAV012@@Z
$pdata$??$CreateMaybeMessage@VEffectData@SC2APIProtocol@@$$V@Arena@protobuf@google@@CAPEAVEffectData@SC2APIProtocol@@PEAV012@@Z DD imagerel $LN3
	DD	imagerel $LN3+24
	DD	imagerel $unwind$??$CreateMaybeMessage@VEffectData@SC2APIProtocol@@$$V@Arena@protobuf@google@@CAPEAVEffectData@SC2APIProtocol@@PEAV012@@Z
$pdata$??$CreateMaybeMessage@VUnitTypeData@SC2APIProtocol@@$$V@Arena@protobuf@google@@CAPEAVUnitTypeData@SC2APIProtocol@@PEAV012@@Z DD imagerel $LN3
	DD	imagerel $LN3+24
	DD	imagerel $unwind$??$CreateMaybeMessage@VUnitTypeData@SC2APIProtocol@@$$V@Arena@protobuf@google@@CAPEAVUnitTypeData@SC2APIProtocol@@PEAV012@@Z
$pdata$??$CreateMaybeMessage@VUpgradeData@SC2APIProtocol@@$$V@Arena@protobuf@google@@CAPEAVUpgradeData@SC2APIProtocol@@PEAV012@@Z DD imagerel $LN3
	DD	imagerel $LN3+24
	DD	imagerel $unwind$??$CreateMaybeMessage@VUpgradeData@SC2APIProtocol@@$$V@Arena@protobuf@google@@CAPEAVUpgradeData@SC2APIProtocol@@PEAV012@@Z
$pdata$??$CreateMaybeMessage@VWeapon@SC2APIProtocol@@$$V@Arena@protobuf@google@@CAPEAVWeapon@SC2APIProtocol@@PEAV012@@Z DD imagerel $LN3
	DD	imagerel $LN3+24
	DD	imagerel $unwind$??$CreateMaybeMessage@VWeapon@SC2APIProtocol@@$$V@Arena@protobuf@google@@CAPEAVWeapon@SC2APIProtocol@@PEAV012@@Z
$pdata$?AbilityData_Target_IsValid@SC2APIProtocol@@YA_NH@Z DD imagerel $LN11
	DD	imagerel $LN11+58
	DD	imagerel $unwind$?AbilityData_Target_IsValid@SC2APIProtocol@@YA_NH@Z
$pdata$?AbilityData_Target_descriptor@SC2APIProtocol@@YAPEBVEnumDescriptor@protobuf@google@@XZ DD imagerel $LN3
	DD	imagerel $LN3+43
	DD	imagerel $unwind$?AbilityData_Target_descriptor@SC2APIProtocol@@YAPEBVEnumDescriptor@protobuf@google@@XZ
$pdata$?Weapon_TargetType_IsValid@SC2APIProtocol@@YA_NH@Z DD imagerel $LN9
	DD	imagerel $LN9+46
	DD	imagerel $unwind$?Weapon_TargetType_IsValid@SC2APIProtocol@@YA_NH@Z
$pdata$?Weapon_TargetType_descriptor@SC2APIProtocol@@YAPEBVEnumDescriptor@protobuf@google@@XZ DD imagerel $LN3
	DD	imagerel $LN3+43
	DD	imagerel $unwind$?Weapon_TargetType_descriptor@SC2APIProtocol@@YAPEBVEnumDescriptor@protobuf@google@@XZ
$pdata$?Attribute_IsValid@SC2APIProtocol@@YA_NH@Z DD imagerel $LN18
	DD	imagerel $LN18+108
	DD	imagerel $unwind$?Attribute_IsValid@SC2APIProtocol@@YA_NH@Z
$pdata$?Attribute_descriptor@SC2APIProtocol@@YAPEBVEnumDescriptor@protobuf@google@@XZ DD imagerel $LN3
	DD	imagerel $LN3+43
	DD	imagerel $unwind$?Attribute_descriptor@SC2APIProtocol@@YAPEBVEnumDescriptor@protobuf@google@@XZ
$pdata$??1AbilityData@SC2APIProtocol@@UEAA@XZ DD imagerel $LN4
	DD	imagerel $LN4+82
	DD	imagerel $unwind$??1AbilityData@SC2APIProtocol@@UEAA@XZ
$pdata$??0AbilityData@SC2APIProtocol@@QEAA@AEBV01@@Z DD imagerel $LN8
	DD	imagerel $LN8+943
	DD	imagerel $unwind$??0AbilityData@SC2APIProtocol@@QEAA@AEBV01@@Z
pdata	ENDS
pdata	SEGMENT
$pdata$?dtor$0@?0???0AbilityData@SC2APIProtocol@@QEAA@AEBV01@@Z@4HA DD imagerel ?dtor$0@?0???0AbilityData@SC2APIProtocol@@QEAA@AEBV01@@Z@4HA
	DD	imagerel ?dtor$0@?0???0AbilityData@SC2APIProtocol@@QEAA@AEBV01@@Z@4HA+27
	DD	imagerel $unwind$?dtor$0@?0???0AbilityData@SC2APIProtocol@@QEAA@AEBV01@@Z@4HA
pdata	ENDS
;	COMDAT pdata
pdata	SEGMENT
$pdata$?mutable_unknown_fields@AbilityData@SC2APIProtocol@@QEAAPEAVUnknownFieldSet@protobuf@google@@XZ DD imagerel $LN3
	DD	imagerel $LN3+31
	DD	imagerel $unwind$?mutable_unknown_fields@AbilityData@SC2APIProtocol@@QEAAPEAVUnknownFieldSet@protobuf@google@@XZ
pdata	ENDS
;	COMDAT pdata
pdata	SEGMENT
$pdata$?New@AbilityData@SC2APIProtocol@@UEBAPEAV12@PEAVArena@protobuf@google@@@Z DD imagerel $LN3
	DD	imagerel $LN3+29
	DD	imagerel $unwind$?New@AbilityData@SC2APIProtocol@@UEBAPEAV12@PEAVArena@protobuf@google@@@Z
pdata	ENDS
pdata	SEGMENT
$pdata$?CopyFrom@AbilityData@SC2APIProtocol@@QEAAXAEBV12@@Z DD imagerel $LN4
	DD	imagerel $LN4+58
	DD	imagerel $unwind$?CopyFrom@AbilityData@SC2APIProtocol@@QEAAXAEBV12@@Z
pdata	ENDS
;	COMDAT pdata
pdata	SEGMENT
$pdata$?MergeFrom@AbilityData@SC2APIProtocol@@QEAAXAEBV12@@Z DD imagerel $LN3
	DD	imagerel $LN3+34
	DD	imagerel $unwind$?MergeFrom@AbilityData@SC2APIProtocol@@QEAAXAEBV12@@Z
pdata	ENDS
pdata	SEGMENT
$pdata$?MergeImpl@AbilityData@SC2APIProtocol@@CAXAEAVMessage@protobuf@google@@AEBV345@@Z DD imagerel $LN25
	DD	imagerel $LN25+914
	DD	imagerel $unwind$?MergeImpl@AbilityData@SC2APIProtocol@@CAXAEAVMessage@protobuf@google@@AEBV345@@Z
pdata	ENDS
pdata	SEGMENT
$pdata$?dtor$0@?0??MergeImpl@AbilityData@SC2APIProtocol@@CAXAEAVMessage@protobuf@google@@AEBV345@@Z@4HA DD imagerel ?dtor$0@?0??MergeImpl@AbilityData@SC2APIProtocol@@CAXAEAVMessage@protobuf@google@@AEBV345@@Z@4HA
	DD	imagerel ?dtor$0@?0??MergeImpl@AbilityData@SC2APIProtocol@@CAXAEAVMessage@protobuf@google@@AEBV345@@Z@4HA+41
	DD	imagerel $unwind$?dtor$0@?0??MergeImpl@AbilityData@SC2APIProtocol@@CAXAEAVMessage@protobuf@google@@AEBV345@@Z@4HA
pdata	ENDS
pdata	SEGMENT
$pdata$?Clear@AbilityData@SC2APIProtocol@@UEAAXXZ DD imagerel $LN10
	DD	imagerel $LN10+336
	DD	imagerel $unwind$?Clear@AbilityData@SC2APIProtocol@@UEAAXXZ
$pdata$?ByteSizeLong@AbilityData@SC2APIProtocol@@UEBA_KXZ DD imagerel $LN20
	DD	imagerel $LN20+666
	DD	imagerel $unwind$?ByteSizeLong@AbilityData@SC2APIProtocol@@UEBA_KXZ
$pdata$?_InternalParse@AbilityData@SC2APIProtocol@@UEAAPEBDPEBDPEAVParseContext@internal@protobuf@google@@@Z DD imagerel $LN130
	DD	imagerel $LN130+1956
	DD	imagerel $unwind$?_InternalParse@AbilityData@SC2APIProtocol@@UEAAPEBDPEBDPEAVParseContext@internal@protobuf@google@@@Z
$pdata$?_InternalSerialize@AbilityData@SC2APIProtocol@@UEBAPEAEPEAEPEAVEpsCopyOutputStream@io@protobuf@google@@@Z DD imagerel $LN19
	DD	imagerel $LN19+1654
	DD	imagerel $unwind$?_InternalSerialize@AbilityData@SC2APIProtocol@@UEBAPEAEPEAEPEAVEpsCopyOutputStream@io@protobuf@google@@@Z
pdata	ENDS
;	COMDAT pdata
pdata	SEGMENT
$pdata$?GetCachedSize@AbilityData@SC2APIProtocol@@UEBAHXZ DD imagerel $LN3
	DD	imagerel $LN3+31
	DD	imagerel $unwind$?GetCachedSize@AbilityData@SC2APIProtocol@@UEBAHXZ
pdata	ENDS
;	COMDAT pdata
pdata	SEGMENT
$pdata$?SharedCtor@AbilityData@SC2APIProtocol@@AEAAXPEAVArena@protobuf@google@@_N@Z DD imagerel $LN3
	DD	imagerel $LN3+375
	DD	imagerel $unwind$?SharedCtor@AbilityData@SC2APIProtocol@@AEAAXPEAVArena@protobuf@google@@_N@Z
pdata	ENDS
;	COMDAT pdata
pdata	SEGMENT
$pdata$?SharedDtor@AbilityData@SC2APIProtocol@@AEAAXXZ DD imagerel $LN8
	DD	imagerel $LN8+283
	DD	imagerel $unwind$?SharedDtor@AbilityData@SC2APIProtocol@@AEAAXXZ
pdata	ENDS
;	COMDAT pdata
pdata	SEGMENT
$pdata$?dtor$0@?0??SharedDtor@AbilityData@SC2APIProtocol@@AEAAXXZ@4HA DD imagerel ?dtor$0@?0??SharedDtor@AbilityData@SC2APIProtocol@@AEAAXXZ@4HA
	DD	imagerel ?dtor$0@?0??SharedDtor@AbilityData@SC2APIProtocol@@AEAAXXZ@4HA+38
	DD	imagerel $unwind$?dtor$0@?0??SharedDtor@AbilityData@SC2APIProtocol@@AEAAXXZ@4HA
pdata	ENDS
pdata	SEGMENT
$pdata$?SetCachedSize@AbilityData@SC2APIProtocol@@EEBAXH@Z DD imagerel $LN3
	DD	imagerel $LN3+46
	DD	imagerel $unwind$?SetCachedSize@AbilityData@SC2APIProtocol@@EEBAXH@Z
$pdata$?InternalSwap@AbilityData@SC2APIProtocol@@AEAAXPEAV12@@Z DD imagerel $LN3
	DD	imagerel $LN3+358
	DD	imagerel $unwind$?InternalSwap@AbilityData@SC2APIProtocol@@AEAAXPEAV12@@Z
$pdata$??0AbilityData@SC2APIProtocol@@IEAA@PEAVArena@protobuf@google@@_N@Z DD imagerel $LN4
	DD	imagerel $LN4+88
	DD	imagerel $unwind$??0AbilityData@SC2APIProtocol@@IEAA@PEAVArena@protobuf@google@@_N@Z
pdata	ENDS
pdata	SEGMENT
$pdata$?dtor$0@?0???0AbilityData@SC2APIProtocol@@IEAA@PEAVArena@protobuf@google@@_N@Z@4HA DD imagerel ?dtor$0@?0???0AbilityData@SC2APIProtocol@@IEAA@PEAVArena@protobuf@google@@_N@Z@4HA
	DD	imagerel ?dtor$0@?0???0AbilityData@SC2APIProtocol@@IEAA@PEAVArena@protobuf@google@@_N@Z@4HA+24
	DD	imagerel $unwind$?dtor$0@?0???0AbilityData@SC2APIProtocol@@IEAA@PEAVArena@protobuf@google@@_N@Z@4HA
pdata	ENDS
pdata	SEGMENT
$pdata$?GetMetadata@AbilityData@SC2APIProtocol@@UEBA?AUMetadata@protobuf@google@@XZ DD imagerel $LN3
	DD	imagerel $LN3+92
	DD	imagerel $unwind$?GetMetadata@AbilityData@SC2APIProtocol@@UEBA?AUMetadata@protobuf@google@@XZ
pdata	ENDS
;	COMDAT pdata
pdata	SEGMENT
$pdata$?_internal_has_link_name@AbilityData@SC2APIProtocol@@AEBA_NXZ DD imagerel $LN5
	DD	imagerel $LN5+81
	DD	imagerel $unwind$?_internal_has_link_name@AbilityData@SC2APIProtocol@@AEBA_NXZ
pdata	ENDS
;	COMDAT pdata
pdata	SEGMENT
$pdata$?_internal_link_name@AbilityData@SC2APIProtocol@@AEBAAEBV?$basic_string@DU?$char_traits@D@std@@V?$allocator@D@2@@std@@XZ DD imagerel $LN3
	DD	imagerel $LN3+31
	DD	imagerel $unwind$?_internal_link_name@AbilityData@SC2APIProtocol@@AEBAAEBV?$basic_string@DU?$char_traits@D@std@@V?$allocator@D@2@@std@@XZ
pdata	ENDS
;	COMDAT pdata
pdata	SEGMENT
$pdata$?_internal_set_link_name@AbilityData@SC2APIProtocol@@AEAAXAEBV?$basic_string@DU?$char_traits@D@std@@V?$allocator@D@2@@std@@@Z DD imagerel $LN3
	DD	imagerel $LN3+109
	DD	imagerel $unwind$?_internal_set_link_name@AbilityData@SC2APIProtocol@@AEAAXAEBV?$basic_string@DU?$char_traits@D@std@@V?$allocator@D@2@@std@@@Z
pdata	ENDS
;	COMDAT pdata
pdata	SEGMENT
$pdata$?_internal_mutable_link_name@AbilityData@SC2APIProtocol@@AEAAPEAV?$basic_string@DU?$char_traits@D@std@@V?$allocator@D@2@@std@@XZ DD imagerel $LN3
	DD	imagerel $LN3+99
	DD	imagerel $unwind$?_internal_mutable_link_name@AbilityData@SC2APIProtocol@@AEAAPEAV?$basic_string@DU?$char_traits@D@std@@V?$allocator@D@2@@std@@XZ
pdata	ENDS
;	COMDAT pdata
pdata	SEGMENT
$pdata$?_internal_has_button_name@AbilityData@SC2APIProtocol@@AEBA_NXZ DD imagerel $LN5
	DD	imagerel $LN5+81
	DD	imagerel $unwind$?_internal_has_button_name@AbilityData@SC2APIProtocol@@AEBA_NXZ
pdata	ENDS
;	COMDAT pdata
pdata	SEGMENT
$pdata$?_internal_button_name@AbilityData@SC2APIProtocol@@AEBAAEBV?$basic_string@DU?$char_traits@D@std@@V?$allocator@D@2@@std@@XZ DD imagerel $LN3
	DD	imagerel $LN3+31
	DD	imagerel $unwind$?_internal_button_name@AbilityData@SC2APIProtocol@@AEBAAEBV?$basic_string@DU?$char_traits@D@std@@V?$allocator@D@2@@std@@XZ
pdata	ENDS
;	COMDAT pdata
pdata	SEGMENT
$pdata$?_internal_set_button_name@AbilityData@SC2APIProtocol@@AEAAXAEBV?$basic_string@DU?$char_traits@D@std@@V?$allocator@D@2@@std@@@Z DD imagerel $LN3
	DD	imagerel $LN3+109
	DD	imagerel $unwind$?_internal_set_button_name@AbilityData@SC2APIProtocol@@AEAAXAEBV?$basic_string@DU?$char_traits@D@std@@V?$allocator@D@2@@std@@@Z
pdata	ENDS
;	COMDAT pdata
pdata	SEGMENT
$pdata$?_internal_mutable_button_name@AbilityData@SC2APIProtocol@@AEAAPEAV?$basic_string@DU?$char_traits@D@std@@V?$allocator@D@2@@std@@XZ DD imagerel $LN3
	DD	imagerel $LN3+99
	DD	imagerel $unwind$?_internal_mutable_button_name@AbilityData@SC2APIProtocol@@AEAAPEAV?$basic_string@DU?$char_traits@D@std@@V?$allocator@D@2@@std@@XZ
pdata	ENDS
;	COMDAT pdata
pdata	SEGMENT
$pdata$?_internal_has_friendly_name@AbilityData@SC2APIProtocol@@AEBA_NXZ DD imagerel $LN5
	DD	imagerel $LN5+81
	DD	imagerel $unwind$?_internal_has_friendly_name@AbilityData@SC2APIProtocol@@AEBA_NXZ
pdata	ENDS
;	COMDAT pdata
pdata	SEGMENT
$pdata$?_internal_friendly_name@AbilityData@SC2APIProtocol@@AEBAAEBV?$basic_string@DU?$char_traits@D@std@@V?$allocator@D@2@@std@@XZ DD imagerel $LN3
	DD	imagerel $LN3+31
	DD	imagerel $unwind$?_internal_friendly_name@AbilityData@SC2APIProtocol@@AEBAAEBV?$basic_string@DU?$char_traits@D@std@@V?$allocator@D@2@@std@@XZ
pdata	ENDS
;	COMDAT pdata
pdata	SEGMENT
$pdata$?_internal_set_friendly_name@AbilityData@SC2APIProtocol@@AEAAXAEBV?$basic_string@DU?$char_traits@D@std@@V?$allocator@D@2@@std@@@Z DD imagerel $LN3
	DD	imagerel $LN3+109
	DD	imagerel $unwind$?_internal_set_friendly_name@AbilityData@SC2APIProtocol@@AEAAXAEBV?$basic_string@DU?$char_traits@D@std@@V?$allocator@D@2@@std@@@Z
pdata	ENDS
;	COMDAT pdata
pdata	SEGMENT
$pdata$?_internal_mutable_friendly_name@AbilityData@SC2APIProtocol@@AEAAPEAV?$basic_string@DU?$char_traits@D@std@@V?$allocator@D@2@@std@@XZ DD imagerel $LN3
	DD	imagerel $LN3+99
	DD	imagerel $unwind$?_internal_mutable_friendly_name@AbilityData@SC2APIProtocol@@AEAAPEAV?$basic_string@DU?$char_traits@D@std@@V?$allocator@D@2@@std@@XZ
pdata	ENDS
;	COMDAT pdata
pdata	SEGMENT
$pdata$?_internal_has_hotkey@AbilityData@SC2APIProtocol@@AEBA_NXZ DD imagerel $LN5
	DD	imagerel $LN5+81
	DD	imagerel $unwind$?_internal_has_hotkey@AbilityData@SC2APIProtocol@@AEBA_NXZ
pdata	ENDS
;	COMDAT pdata
pdata	SEGMENT
$pdata$?_internal_hotkey@AbilityData@SC2APIProtocol@@AEBAAEBV?$basic_string@DU?$char_traits@D@std@@V?$allocator@D@2@@std@@XZ DD imagerel $LN3
	DD	imagerel $LN3+31
	DD	imagerel $unwind$?_internal_hotkey@AbilityData@SC2APIProtocol@@AEBAAEBV?$basic_string@DU?$char_traits@D@std@@V?$allocator@D@2@@std@@XZ
pdata	ENDS
;	COMDAT pdata
pdata	SEGMENT
$pdata$?_internal_set_hotkey@AbilityData@SC2APIProtocol@@AEAAXAEBV?$basic_string@DU?$char_traits@D@std@@V?$allocator@D@2@@std@@@Z DD imagerel $LN3
	DD	imagerel $LN3+109
	DD	imagerel $unwind$?_internal_set_hotkey@AbilityData@SC2APIProtocol@@AEAAXAEBV?$basic_string@DU?$char_traits@D@std@@V?$allocator@D@2@@std@@@Z
pdata	ENDS
;	COMDAT pdata
pdata	SEGMENT
$pdata$?_internal_mutable_hotkey@AbilityData@SC2APIProtocol@@AEAAPEAV?$basic_string@DU?$char_traits@D@std@@V?$allocator@D@2@@std@@XZ DD imagerel $LN3
	DD	imagerel $LN3+99
	DD	imagerel $unwind$?_internal_mutable_hotkey@AbilityData@SC2APIProtocol@@AEAAPEAV?$basic_string@DU?$char_traits@D@std@@V?$allocator@D@2@@std@@XZ
pdata	ENDS
;	COMDAT pdata
pdata	SEGMENT
$pdata$?_internal_set_target@AbilityData@SC2APIProtocol@@AEAAXW4AbilityData_Target@2@@Z DD imagerel $LN4
	DD	imagerel $LN4+122
	DD	imagerel $unwind$?_internal_set_target@AbilityData@SC2APIProtocol@@AEAAXW4AbilityData_Target@2@@Z
pdata	ENDS
;	COMDAT pdata
pdata	SEGMENT
$pdata$??_GAbilityData@SC2APIProtocol@@UEAAPEAXI@Z DD imagerel $LN4
	DD	imagerel $LN4+59
	DD	imagerel $unwind$??_GAbilityData@SC2APIProtocol@@UEAAPEAXI@Z
pdata	ENDS
;	COMDAT pdata
pdata	SEGMENT
$pdata$??$CreateMaybeMessage@VAbilityData@SC2APIProtocol@@@MessageLite@protobuf@google@@KAPEAVAbilityData@SC2APIProtocol@@PEAVArena@12@@Z DD imagerel $LN3
	DD	imagerel $LN3+24
	DD	imagerel $unwind$??$CreateMaybeMessage@VAbilityData@SC2APIProtocol@@@MessageLite@protobuf@google@@KAPEAVAbilityData@SC2APIProtocol@@PEAVArena@12@@Z
pdata	ENDS
pdata	SEGMENT
$pdata$??1DamageBonus@SC2APIProtocol@@UEAA@XZ DD imagerel $LN4
	DD	imagerel $LN4+82
	DD	imagerel $unwind$??1DamageBonus@SC2APIProtocol@@UEAA@XZ
$pdata$??0DamageBonus@SC2APIProtocol@@QEAA@AEBV01@@Z DD imagerel $LN4
	DD	imagerel $LN4+271
	DD	imagerel $unwind$??0DamageBonus@SC2APIProtocol@@QEAA@AEBV01@@Z
pdata	ENDS
pdata	SEGMENT
$pdata$?dtor$0@?0???0DamageBonus@SC2APIProtocol@@QEAA@AEBV01@@Z@4HA DD imagerel ?dtor$0@?0???0DamageBonus@SC2APIProtocol@@QEAA@AEBV01@@Z@4HA
	DD	imagerel ?dtor$0@?0???0DamageBonus@SC2APIProtocol@@QEAA@AEBV01@@Z@4HA+24
	DD	imagerel $unwind$?dtor$0@?0???0DamageBonus@SC2APIProtocol@@QEAA@AEBV01@@Z@4HA
pdata	ENDS
;	COMDAT pdata
pdata	SEGMENT
$pdata$?mutable_unknown_fields@DamageBonus@SC2APIProtocol@@QEAAPEAVUnknownFieldSet@protobuf@google@@XZ DD imagerel $LN3
	DD	imagerel $LN3+31
	DD	imagerel $unwind$?mutable_unknown_fields@DamageBonus@SC2APIProtocol@@QEAAPEAVUnknownFieldSet@protobuf@google@@XZ
pdata	ENDS
;	COMDAT pdata
pdata	SEGMENT
$pdata$?New@DamageBonus@SC2APIProtocol@@UEBAPEAV12@PEAVArena@protobuf@google@@@Z DD imagerel $LN3
	DD	imagerel $LN3+29
	DD	imagerel $unwind$?New@DamageBonus@SC2APIProtocol@@UEBAPEAV12@PEAVArena@protobuf@google@@@Z
pdata	ENDS
pdata	SEGMENT
$pdata$?CopyFrom@DamageBonus@SC2APIProtocol@@QEAAXAEBV12@@Z DD imagerel $LN4
	DD	imagerel $LN4+58
	DD	imagerel $unwind$?CopyFrom@DamageBonus@SC2APIProtocol@@QEAAXAEBV12@@Z
pdata	ENDS
;	COMDAT pdata
pdata	SEGMENT
$pdata$?MergeFrom@DamageBonus@SC2APIProtocol@@QEAAXAEBV12@@Z DD imagerel $LN3
	DD	imagerel $LN3+34
	DD	imagerel $unwind$?MergeFrom@DamageBonus@SC2APIProtocol@@QEAAXAEBV12@@Z
pdata	ENDS
pdata	SEGMENT
$pdata$?MergeImpl@DamageBonus@SC2APIProtocol@@CAXAEAVMessage@protobuf@google@@AEBV345@@Z DD imagerel $LN11
	DD	imagerel $LN11+430
	DD	imagerel $unwind$?MergeImpl@DamageBonus@SC2APIProtocol@@CAXAEAVMessage@protobuf@google@@AEBV345@@Z
pdata	ENDS
pdata	SEGMENT
$pdata$?dtor$0@?0??MergeImpl@DamageBonus@SC2APIProtocol@@CAXAEAVMessage@protobuf@google@@AEBV345@@Z@4HA DD imagerel ?dtor$0@?0??MergeImpl@DamageBonus@SC2APIProtocol@@CAXAEAVMessage@protobuf@google@@AEBV345@@Z@4HA
	DD	imagerel ?dtor$0@?0??MergeImpl@DamageBonus@SC2APIProtocol@@CAXAEAVMessage@protobuf@google@@AEBV345@@Z@4HA+41
	DD	imagerel $unwind$?dtor$0@?0??MergeImpl@DamageBonus@SC2APIProtocol@@CAXAEAVMessage@protobuf@google@@AEBV345@@Z@4HA
pdata	ENDS
pdata	SEGMENT
$pdata$?Clear@DamageBonus@SC2APIProtocol@@UEAAXXZ DD imagerel $LN4
	DD	imagerel $LN4+124
	DD	imagerel $unwind$?Clear@DamageBonus@SC2APIProtocol@@UEAAXXZ
$pdata$?ByteSizeLong@DamageBonus@SC2APIProtocol@@UEBA_KXZ DD imagerel $LN6
	DD	imagerel $LN6+169
	DD	imagerel $unwind$?ByteSizeLong@DamageBonus@SC2APIProtocol@@UEBA_KXZ
$pdata$?_InternalParse@DamageBonus@SC2APIProtocol@@UEAAPEBDPEBDPEAVParseContext@internal@protobuf@google@@@Z DD imagerel $LN30
	DD	imagerel $LN30+491
	DD	imagerel $unwind$?_InternalParse@DamageBonus@SC2APIProtocol@@UEAAPEBDPEBDPEAVParseContext@internal@protobuf@google@@@Z
$pdata$?_InternalSerialize@DamageBonus@SC2APIProtocol@@UEBAPEAEPEAEPEAVEpsCopyOutputStream@io@protobuf@google@@@Z DD imagerel $LN6
	DD	imagerel $LN6+274
	DD	imagerel $unwind$?_InternalSerialize@DamageBonus@SC2APIProtocol@@UEBAPEAEPEAEPEAVEpsCopyOutputStream@io@protobuf@google@@@Z
pdata	ENDS
;	COMDAT pdata
pdata	SEGMENT
$pdata$?GetCachedSize@DamageBonus@SC2APIProtocol@@UEBAHXZ DD imagerel $LN3
	DD	imagerel $LN3+31
	DD	imagerel $unwind$?GetCachedSize@DamageBonus@SC2APIProtocol@@UEBAHXZ
pdata	ENDS
;	COMDAT pdata
pdata	SEGMENT
$pdata$?SharedCtor@DamageBonus@SC2APIProtocol@@AEAAXPEAVArena@protobuf@google@@_N@Z DD imagerel $LN3
	DD	imagerel $LN3+129
	DD	imagerel $unwind$?SharedCtor@DamageBonus@SC2APIProtocol@@AEAAXPEAVArena@protobuf@google@@_N@Z
pdata	ENDS
;	COMDAT pdata
pdata	SEGMENT
$pdata$?SharedDtor@DamageBonus@SC2APIProtocol@@AEAAXXZ DD imagerel $LN8
	DD	imagerel $LN8+203
	DD	imagerel $unwind$?SharedDtor@DamageBonus@SC2APIProtocol@@AEAAXXZ
pdata	ENDS
;	COMDAT pdata
pdata	SEGMENT
$pdata$?dtor$0@?0??SharedDtor@DamageBonus@SC2APIProtocol@@AEAAXXZ@4HA DD imagerel ?dtor$0@?0??SharedDtor@DamageBonus@SC2APIProtocol@@AEAAXXZ@4HA
	DD	imagerel ?dtor$0@?0??SharedDtor@DamageBonus@SC2APIProtocol@@AEAAXXZ@4HA+38
	DD	imagerel $unwind$?dtor$0@?0??SharedDtor@DamageBonus@SC2APIProtocol@@AEAAXXZ@4HA
pdata	ENDS
pdata	SEGMENT
$pdata$?SetCachedSize@DamageBonus@SC2APIProtocol@@EEBAXH@Z DD imagerel $LN3
	DD	imagerel $LN3+46
	DD	imagerel $unwind$?SetCachedSize@DamageBonus@SC2APIProtocol@@EEBAXH@Z
$pdata$?InternalSwap@DamageBonus@SC2APIProtocol@@AEAAXPEAV12@@Z DD imagerel $LN3
	DD	imagerel $LN3+184
	DD	imagerel $unwind$?InternalSwap@DamageBonus@SC2APIProtocol@@AEAAXPEAV12@@Z
$pdata$??0DamageBonus@SC2APIProtocol@@IEAA@PEAVArena@protobuf@google@@_N@Z DD imagerel $LN4
	DD	imagerel $LN4+88
	DD	imagerel $unwind$??0DamageBonus@SC2APIProtocol@@IEAA@PEAVArena@protobuf@google@@_N@Z
pdata	ENDS
pdata	SEGMENT
$pdata$?dtor$0@?0???0DamageBonus@SC2APIProtocol@@IEAA@PEAVArena@protobuf@google@@_N@Z@4HA DD imagerel ?dtor$0@?0???0DamageBonus@SC2APIProtocol@@IEAA@PEAVArena@protobuf@google@@_N@Z@4HA
	DD	imagerel ?dtor$0@?0???0DamageBonus@SC2APIProtocol@@IEAA@PEAVArena@protobuf@google@@_N@Z@4HA+24
	DD	imagerel $unwind$?dtor$0@?0???0DamageBonus@SC2APIProtocol@@IEAA@PEAVArena@protobuf@google@@_N@Z@4HA
pdata	ENDS
pdata	SEGMENT
$pdata$?GetMetadata@DamageBonus@SC2APIProtocol@@UEBA?AUMetadata@protobuf@google@@XZ DD imagerel $LN3
	DD	imagerel $LN3+92
	DD	imagerel $unwind$?GetMetadata@DamageBonus@SC2APIProtocol@@UEBA?AUMetadata@protobuf@google@@XZ
pdata	ENDS
;	COMDAT pdata
pdata	SEGMENT
$pdata$?_internal_set_attribute@DamageBonus@SC2APIProtocol@@AEAAXW4Attribute@2@@Z DD imagerel $LN4
	DD	imagerel $LN4+121
	DD	imagerel $unwind$?_internal_set_attribute@DamageBonus@SC2APIProtocol@@AEAAXW4Attribute@2@@Z
pdata	ENDS
;	COMDAT pdata
pdata	SEGMENT
$pdata$??_GDamageBonus@SC2APIProtocol@@UEAAPEAXI@Z DD imagerel $LN4
	DD	imagerel $LN4+59
	DD	imagerel $unwind$??_GDamageBonus@SC2APIProtocol@@UEAAPEAXI@Z
pdata	ENDS
;	COMDAT pdata
pdata	SEGMENT
$pdata$??$CreateMaybeMessage@VDamageBonus@SC2APIProtocol@@@MessageLite@protobuf@google@@KAPEAVDamageBonus@SC2APIProtocol@@PEAVArena@12@@Z DD imagerel $LN3
	DD	imagerel $LN3+24
	DD	imagerel $unwind$??$CreateMaybeMessage@VDamageBonus@SC2APIProtocol@@@MessageLite@protobuf@google@@KAPEAVDamageBonus@SC2APIProtocol@@PEAVArena@12@@Z
pdata	ENDS
pdata	SEGMENT
$pdata$??1Weapon@SC2APIProtocol@@UEAA@XZ DD imagerel $LN4
	DD	imagerel $LN4+82
	DD	imagerel $unwind$??1Weapon@SC2APIProtocol@@UEAA@XZ
pdata	ENDS
;	COMDAT pdata
pdata	SEGMENT
$pdata$??0Weapon@SC2APIProtocol@@QEAA@UConstantInitialized@internal@protobuf@google@@@Z DD imagerel $LN6
	DD	imagerel $LN6+186
	DD	imagerel $unwind$??0Weapon@SC2APIProtocol@@QEAA@UConstantInitialized@internal@protobuf@google@@@Z
pdata	ENDS
;	COMDAT pdata
pdata	SEGMENT
$pdata$?dtor$0@?0???0Weapon@SC2APIProtocol@@QEAA@UConstantInitialized@internal@protobuf@google@@@Z@4HA DD imagerel ?dtor$0@?0???0Weapon@SC2APIProtocol@@QEAA@UConstantInitialized@internal@protobuf@google@@@Z@4HA
	DD	imagerel ?dtor$0@?0???0Weapon@SC2APIProtocol@@QEAA@UConstantInitialized@internal@protobuf@google@@@Z@4HA+24
	DD	imagerel $unwind$?dtor$0@?0???0Weapon@SC2APIProtocol@@QEAA@UConstantInitialized@internal@protobuf@google@@@Z@4HA
pdata	ENDS
pdata	SEGMENT
$pdata$??0Weapon@SC2APIProtocol@@QEAA@AEBV01@@Z DD imagerel $LN5
	DD	imagerel $LN5+345
	DD	imagerel $unwind$??0Weapon@SC2APIProtocol@@QEAA@AEBV01@@Z
pdata	ENDS
pdata	SEGMENT
$pdata$?dtor$0@?0???0Weapon@SC2APIProtocol@@QEAA@AEBV01@@Z@4HA DD imagerel ?dtor$0@?0???0Weapon@SC2APIProtocol@@QEAA@AEBV01@@Z@4HA
	DD	imagerel ?dtor$0@?0???0Weapon@SC2APIProtocol@@QEAA@AEBV01@@Z@4HA+24
	DD	imagerel $unwind$?dtor$0@?0???0Weapon@SC2APIProtocol@@QEAA@AEBV01@@Z@4HA
pdata	ENDS
;	COMDAT pdata
pdata	SEGMENT
$pdata$?mutable_unknown_fields@Weapon@SC2APIProtocol@@QEAAPEAVUnknownFieldSet@protobuf@google@@XZ DD imagerel $LN3
	DD	imagerel $LN3+31
	DD	imagerel $unwind$?mutable_unknown_fields@Weapon@SC2APIProtocol@@QEAAPEAVUnknownFieldSet@protobuf@google@@XZ
pdata	ENDS
;	COMDAT pdata
pdata	SEGMENT
$pdata$?New@Weapon@SC2APIProtocol@@UEBAPEAV12@PEAVArena@protobuf@google@@@Z DD imagerel $LN3
	DD	imagerel $LN3+29
	DD	imagerel $unwind$?New@Weapon@SC2APIProtocol@@UEBAPEAV12@PEAVArena@protobuf@google@@@Z
pdata	ENDS
pdata	SEGMENT
$pdata$?CopyFrom@Weapon@SC2APIProtocol@@QEAAXAEBV12@@Z DD imagerel $LN4
	DD	imagerel $LN4+58
	DD	imagerel $unwind$?CopyFrom@Weapon@SC2APIProtocol@@QEAAXAEBV12@@Z
pdata	ENDS
;	COMDAT pdata
pdata	SEGMENT
$pdata$?MergeFrom@Weapon@SC2APIProtocol@@QEAAXAEBV12@@Z DD imagerel $LN3
	DD	imagerel $LN3+34
	DD	imagerel $unwind$?MergeFrom@Weapon@SC2APIProtocol@@QEAAXAEBV12@@Z
pdata	ENDS
pdata	SEGMENT
$pdata$?MergeImpl@Weapon@SC2APIProtocol@@CAXAEAVMessage@protobuf@google@@AEBV345@@Z DD imagerel $LN14
	DD	imagerel $LN14+559
	DD	imagerel $unwind$?MergeImpl@Weapon@SC2APIProtocol@@CAXAEAVMessage@protobuf@google@@AEBV345@@Z
pdata	ENDS
pdata	SEGMENT
$pdata$?dtor$0@?0??MergeImpl@Weapon@SC2APIProtocol@@CAXAEAVMessage@protobuf@google@@AEBV345@@Z@4HA DD imagerel ?dtor$0@?0??MergeImpl@Weapon@SC2APIProtocol@@CAXAEAVMessage@protobuf@google@@AEBV345@@Z@4HA
	DD	imagerel ?dtor$0@?0??MergeImpl@Weapon@SC2APIProtocol@@CAXAEAVMessage@protobuf@google@@AEBV345@@Z@4HA+41
	DD	imagerel $unwind$?dtor$0@?0??MergeImpl@Weapon@SC2APIProtocol@@CAXAEAVMessage@protobuf@google@@AEBV345@@Z@4HA
pdata	ENDS
pdata	SEGMENT
$pdata$?Clear@Weapon@SC2APIProtocol@@UEAAXXZ DD imagerel $LN4
	DD	imagerel $LN4+172
	DD	imagerel $unwind$?Clear@Weapon@SC2APIProtocol@@UEAAXXZ
$pdata$?ByteSizeLong@Weapon@SC2APIProtocol@@UEBA_KXZ DD imagerel $LN12
	DD	imagerel $LN12+416
	DD	imagerel $unwind$?ByteSizeLong@Weapon@SC2APIProtocol@@UEBA_KXZ
$pdata$?_InternalParse@Weapon@SC2APIProtocol@@UEAAPEBDPEBDPEAVParseContext@internal@protobuf@google@@@Z DD imagerel $LN59
	DD	imagerel $LN59+1052
	DD	imagerel $unwind$?_InternalParse@Weapon@SC2APIProtocol@@UEAAPEBDPEBDPEAVParseContext@internal@protobuf@google@@@Z
$pdata$?_InternalSerialize@Weapon@SC2APIProtocol@@UEBAPEAEPEAEPEAVEpsCopyOutputStream@io@protobuf@google@@@Z DD imagerel $LN12
	DD	imagerel $LN12+599
	DD	imagerel $unwind$?_InternalSerialize@Weapon@SC2APIProtocol@@UEBAPEAEPEAEPEAVEpsCopyOutputStream@io@protobuf@google@@@Z
pdata	ENDS
;	COMDAT pdata
pdata	SEGMENT
$pdata$?GetCachedSize@Weapon@SC2APIProtocol@@UEBAHXZ DD imagerel $LN3
	DD	imagerel $LN3+31
	DD	imagerel $unwind$?GetCachedSize@Weapon@SC2APIProtocol@@UEBAHXZ
pdata	ENDS
;	COMDAT pdata
pdata	SEGMENT
$pdata$?SharedCtor@Weapon@SC2APIProtocol@@AEAAXPEAVArena@protobuf@google@@_N@Z DD imagerel $LN4
	DD	imagerel $LN4+196
	DD	imagerel $unwind$?SharedCtor@Weapon@SC2APIProtocol@@AEAAXPEAVArena@protobuf@google@@_N@Z
pdata	ENDS
;	COMDAT pdata
pdata	SEGMENT
$pdata$?SharedDtor@Weapon@SC2APIProtocol@@AEAAXXZ DD imagerel $LN8
	DD	imagerel $LN8+232
	DD	imagerel $unwind$?SharedDtor@Weapon@SC2APIProtocol@@AEAAXXZ
pdata	ENDS
;	COMDAT pdata
pdata	SEGMENT
$pdata$?dtor$0@?0??SharedDtor@Weapon@SC2APIProtocol@@AEAAXXZ@4HA DD imagerel ?dtor$0@?0??SharedDtor@Weapon@SC2APIProtocol@@AEAAXXZ@4HA
	DD	imagerel ?dtor$0@?0??SharedDtor@Weapon@SC2APIProtocol@@AEAAXXZ@4HA+38
	DD	imagerel $unwind$?dtor$0@?0??SharedDtor@Weapon@SC2APIProtocol@@AEAAXXZ@4HA
pdata	ENDS
pdata	SEGMENT
$pdata$?SetCachedSize@Weapon@SC2APIProtocol@@EEBAXH@Z DD imagerel $LN3
	DD	imagerel $LN3+46
	DD	imagerel $unwind$?SetCachedSize@Weapon@SC2APIProtocol@@EEBAXH@Z
$pdata$?InternalSwap@Weapon@SC2APIProtocol@@AEAAXPEAV12@@Z DD imagerel $LN3
	DD	imagerel $LN3+220
	DD	imagerel $unwind$?InternalSwap@Weapon@SC2APIProtocol@@AEAAXPEAV12@@Z
$pdata$??0Weapon@SC2APIProtocol@@IEAA@PEAVArena@protobuf@google@@_N@Z DD imagerel $LN4
	DD	imagerel $LN4+88
	DD	imagerel $unwind$??0Weapon@SC2APIProtocol@@IEAA@PEAVArena@protobuf@google@@_N@Z
pdata	ENDS
pdata	SEGMENT
$pdata$?dtor$0@?0???0Weapon@SC2APIProtocol@@IEAA@PEAVArena@protobuf@google@@_N@Z@4HA DD imagerel ?dtor$0@?0???0Weapon@SC2APIProtocol@@IEAA@PEAVArena@protobuf@google@@_N@Z@4HA
	DD	imagerel ?dtor$0@?0???0Weapon@SC2APIProtocol@@IEAA@PEAVArena@protobuf@google@@_N@Z@4HA+24
	DD	imagerel $unwind$?dtor$0@?0???0Weapon@SC2APIProtocol@@IEAA@PEAVArena@protobuf@google@@_N@Z@4HA
pdata	ENDS
pdata	SEGMENT
$pdata$?GetMetadata@Weapon@SC2APIProtocol@@UEBA?AUMetadata@protobuf@google@@XZ DD imagerel $LN3
	DD	imagerel $LN3+92
	DD	imagerel $unwind$?GetMetadata@Weapon@SC2APIProtocol@@UEBA?AUMetadata@protobuf@google@@XZ
pdata	ENDS
;	COMDAT pdata
pdata	SEGMENT
$pdata$?_internal_damage_bonus_size@Weapon@SC2APIProtocol@@AEBAHXZ DD imagerel $LN3
	DD	imagerel $LN3+31
	DD	imagerel $unwind$?_internal_damage_bonus_size@Weapon@SC2APIProtocol@@AEBAHXZ
pdata	ENDS
;	COMDAT pdata
pdata	SEGMENT
$pdata$?_internal_damage_bonus@Weapon@SC2APIProtocol@@AEBAAEBVDamageBonus@2@H@Z DD imagerel $LN3
	DD	imagerel $LN3+46
	DD	imagerel $unwind$?_internal_damage_bonus@Weapon@SC2APIProtocol@@AEBAAEBVDamageBonus@2@H@Z
pdata	ENDS
;	COMDAT pdata
pdata	SEGMENT
$pdata$?_internal_add_damage_bonus@Weapon@SC2APIProtocol@@AEAAPEAVDamageBonus@2@XZ DD imagerel $LN3
	DD	imagerel $LN3+31
	DD	imagerel $unwind$?_internal_add_damage_bonus@Weapon@SC2APIProtocol@@AEAAPEAVDamageBonus@2@XZ
pdata	ENDS
;	COMDAT pdata
pdata	SEGMENT
$pdata$?_internal_set_type@Weapon@SC2APIProtocol@@AEAAXW4Weapon_TargetType@2@@Z DD imagerel $LN4
	DD	imagerel $LN4+121
	DD	imagerel $unwind$?_internal_set_type@Weapon@SC2APIProtocol@@AEAAXW4Weapon_TargetType@2@@Z
pdata	ENDS
;	COMDAT pdata
pdata	SEGMENT
$pdata$??0?$RepeatedPtrField@VDamageBonus@SC2APIProtocol@@@protobuf@google@@QEAA@XZ DD imagerel $LN4
	DD	imagerel $LN4+29
	DD	imagerel $unwind$??0?$RepeatedPtrField@VDamageBonus@SC2APIProtocol@@@protobuf@google@@QEAA@XZ
pdata	ENDS
;	COMDAT pdata
pdata	SEGMENT
$pdata$??0?$RepeatedPtrField@VDamageBonus@SC2APIProtocol@@@protobuf@google@@QEAA@PEAVArena@12@@Z DD imagerel $LN4
	DD	imagerel $LN4+39
	DD	imagerel $unwind$??0?$RepeatedPtrField@VDamageBonus@SC2APIProtocol@@@protobuf@google@@QEAA@PEAVArena@12@@Z
pdata	ENDS
;	COMDAT pdata
pdata	SEGMENT
$pdata$??0?$RepeatedPtrField@VDamageBonus@SC2APIProtocol@@@protobuf@google@@QEAA@AEBV012@@Z DD imagerel $LN4
	DD	imagerel $LN4+51
	DD	imagerel $unwind$??0?$RepeatedPtrField@VDamageBonus@SC2APIProtocol@@@protobuf@google@@QEAA@AEBV012@@Z
pdata	ENDS
;	COMDAT pdata
pdata	SEGMENT
$pdata$?dtor$0@?0???0?$RepeatedPtrField@VDamageBonus@SC2APIProtocol@@@protobuf@google@@QEAA@AEBV012@@Z@4HA DD imagerel ?dtor$0@?0???0?$RepeatedPtrField@VDamageBonus@SC2APIProtocol@@@protobuf@google@@QEAA@AEBV012@@Z@4HA
	DD	imagerel ?dtor$0@?0???0?$RepeatedPtrField@VDamageBonus@SC2APIProtocol@@@protobuf@google@@QEAA@AEBV012@@Z@4HA+24
	DD	imagerel $unwind$?dtor$0@?0???0?$RepeatedPtrField@VDamageBonus@SC2APIProtocol@@@protobuf@google@@QEAA@AEBV012@@Z@4HA
pdata	ENDS
;	COMDAT pdata
pdata	SEGMENT
$pdata$??1?$RepeatedPtrField@VDamageBonus@SC2APIProtocol@@@protobuf@google@@QEAA@XZ DD imagerel $LN4
	DD	imagerel $LN4+52
	DD	imagerel $unwind$??1?$RepeatedPtrField@VDamageBonus@SC2APIProtocol@@@protobuf@google@@QEAA@XZ
pdata	ENDS
;	COMDAT pdata
pdata	SEGMENT
$pdata$?size@?$RepeatedPtrField@VDamageBonus@SC2APIProtocol@@@protobuf@google@@QEBAHXZ DD imagerel $LN3
	DD	imagerel $LN3+24
	DD	imagerel $unwind$?size@?$RepeatedPtrField@VDamageBonus@SC2APIProtocol@@@protobuf@google@@QEBAHXZ
pdata	ENDS
;	COMDAT pdata
pdata	SEGMENT
$pdata$?Get@?$RepeatedPtrField@VDamageBonus@SC2APIProtocol@@@protobuf@google@@QEBAAEBVDamageBonus@SC2APIProtocol@@H@Z DD imagerel $LN3
	DD	imagerel $LN3+32
	DD	imagerel $unwind$?Get@?$RepeatedPtrField@VDamageBonus@SC2APIProtocol@@@protobuf@google@@QEBAAEBVDamageBonus@SC2APIProtocol@@H@Z
pdata	ENDS
;	COMDAT pdata
pdata	SEGMENT
$pdata$?Add@?$RepeatedPtrField@VDamageBonus@SC2APIProtocol@@@protobuf@google@@QEAAPEAVDamageBonus@SC2APIProtocol@@XZ DD imagerel $LN3
	DD	imagerel $LN3+26
	DD	imagerel $unwind$?Add@?$RepeatedPtrField@VDamageBonus@SC2APIProtocol@@@protobuf@google@@QEAAPEAVDamageBonus@SC2APIProtocol@@XZ
pdata	ENDS
;	COMDAT pdata
pdata	SEGMENT
$pdata$?Clear@?$RepeatedPtrField@VDamageBonus@SC2APIProtocol@@@protobuf@google@@QEAAXXZ DD imagerel $LN3
	DD	imagerel $LN3+24
	DD	imagerel $unwind$?Clear@?$RepeatedPtrField@VDamageBonus@SC2APIProtocol@@@protobuf@google@@QEAAXXZ
pdata	ENDS
;	COMDAT pdata
pdata	SEGMENT
$pdata$?MergeFrom@?$RepeatedPtrField@VDamageBonus@SC2APIProtocol@@@protobuf@google@@QEAAXAEBV123@@Z DD imagerel $LN3
	DD	imagerel $LN3+34
	DD	imagerel $unwind$?MergeFrom@?$RepeatedPtrField@VDamageBonus@SC2APIProtocol@@@protobuf@google@@QEAAXAEBV123@@Z
pdata	ENDS
;	COMDAT pdata
pdata	SEGMENT
$pdata$?begin@?$RepeatedPtrField@VDamageBonus@SC2APIProtocol@@@protobuf@google@@QEBA?AV?$RepeatedPtrIterator@$$CBVDamageBonus@SC2APIProtocol@@@internal@23@XZ DD imagerel $LN3
	DD	imagerel $LN3+60
	DD	imagerel $unwind$?begin@?$RepeatedPtrField@VDamageBonus@SC2APIProtocol@@@protobuf@google@@QEBA?AV?$RepeatedPtrIterator@$$CBVDamageBonus@SC2APIProtocol@@@internal@23@XZ
pdata	ENDS
;	COMDAT pdata
pdata	SEGMENT
$pdata$?end@?$RepeatedPtrField@VDamageBonus@SC2APIProtocol@@@protobuf@google@@QEBA?AV?$RepeatedPtrIterator@$$CBVDamageBonus@SC2APIProtocol@@@internal@23@XZ DD imagerel $LN3
	DD	imagerel $LN3+86
	DD	imagerel $unwind$?end@?$RepeatedPtrField@VDamageBonus@SC2APIProtocol@@@protobuf@google@@QEBA?AV?$RepeatedPtrIterator@$$CBVDamageBonus@SC2APIProtocol@@@internal@23@XZ
pdata	ENDS
;	COMDAT pdata
pdata	SEGMENT
$pdata$?InternalSwap@?$RepeatedPtrField@VDamageBonus@SC2APIProtocol@@@protobuf@google@@QEAAXPEAV123@@Z DD imagerel $LN3
	DD	imagerel $LN3+34
	DD	imagerel $unwind$?InternalSwap@?$RepeatedPtrField@VDamageBonus@SC2APIProtocol@@@protobuf@google@@QEAAXPEAV123@@Z
pdata	ENDS
;	COMDAT pdata
pdata	SEGMENT
$pdata$??_G?$RepeatedPtrField@VDamageBonus@SC2APIProtocol@@@protobuf@google@@QEAAPEAXI@Z DD imagerel $LN4
	DD	imagerel $LN4+59
	DD	imagerel $unwind$??_G?$RepeatedPtrField@VDamageBonus@SC2APIProtocol@@@protobuf@google@@QEAAPEAXI@Z
pdata	ENDS
;	COMDAT pdata
pdata	SEGMENT
$pdata$??_GWeapon@SC2APIProtocol@@UEAAPEAXI@Z DD imagerel $LN4
	DD	imagerel $LN4+59
	DD	imagerel $unwind$??_GWeapon@SC2APIProtocol@@UEAAPEAXI@Z
pdata	ENDS
;	COMDAT pdata
pdata	SEGMENT
$pdata$??$CreateMaybeMessage@VWeapon@SC2APIProtocol@@@MessageLite@protobuf@google@@KAPEAVWeapon@SC2APIProtocol@@PEAVArena@12@@Z DD imagerel $LN3
	DD	imagerel $LN3+24
	DD	imagerel $unwind$??$CreateMaybeMessage@VWeapon@SC2APIProtocol@@@MessageLite@protobuf@google@@KAPEAVWeapon@SC2APIProtocol@@PEAVArena@12@@Z
pdata	ENDS
pdata	SEGMENT
$pdata$??1UnitTypeData@SC2APIProtocol@@UEAA@XZ DD imagerel $LN4
	DD	imagerel $LN4+82
	DD	imagerel $unwind$??1UnitTypeData@SC2APIProtocol@@UEAA@XZ
pdata	ENDS
;	COMDAT pdata
pdata	SEGMENT
$pdata$??0UnitTypeData@SC2APIProtocol@@QEAA@UConstantInitialized@internal@protobuf@google@@@Z DD imagerel $LN8
	DD	imagerel $LN8+422
	DD	imagerel $unwind$??0UnitTypeData@SC2APIProtocol@@QEAA@UConstantInitialized@internal@protobuf@google@@@Z
pdata	ENDS
;	COMDAT pdata
pdata	SEGMENT
$pdata$?dtor$0@?0???0UnitTypeData@SC2APIProtocol@@QEAA@UConstantInitialized@internal@protobuf@google@@@Z@4HA DD imagerel ?dtor$0@?0???0UnitTypeData@SC2APIProtocol@@QEAA@UConstantInitialized@internal@protobuf@google@@@Z@4HA
	DD	imagerel ?dtor$0@?0???0UnitTypeData@SC2APIProtocol@@QEAA@UConstantInitialized@internal@protobuf@google@@@Z@4HA+24
	DD	imagerel $unwind$?dtor$0@?0???0UnitTypeData@SC2APIProtocol@@QEAA@UConstantInitialized@internal@protobuf@google@@@Z@4HA
pdata	ENDS
;	COMDAT pdata
pdata	SEGMENT
$pdata$?dtor$1@?0???0UnitTypeData@SC2APIProtocol@@QEAA@UConstantInitialized@internal@protobuf@google@@@Z@4HA DD imagerel ?dtor$1@?0???0UnitTypeData@SC2APIProtocol@@QEAA@UConstantInitialized@internal@protobuf@google@@@Z@4HA
	DD	imagerel ?dtor$1@?0???0UnitTypeData@SC2APIProtocol@@QEAA@UConstantInitialized@internal@protobuf@google@@@Z@4HA+32
	DD	imagerel $unwind$?dtor$1@?0???0UnitTypeData@SC2APIProtocol@@QEAA@UConstantInitialized@internal@protobuf@google@@@Z@4HA
pdata	ENDS
;	COMDAT pdata
pdata	SEGMENT
$pdata$?dtor$2@?0???0UnitTypeData@SC2APIProtocol@@QEAA@UConstantInitialized@internal@protobuf@google@@@Z@4HA DD imagerel ?dtor$2@?0???0UnitTypeData@SC2APIProtocol@@QEAA@UConstantInitialized@internal@protobuf@google@@@Z@4HA
	DD	imagerel ?dtor$2@?0???0UnitTypeData@SC2APIProtocol@@QEAA@UConstantInitialized@internal@protobuf@google@@@Z@4HA+32
	DD	imagerel $unwind$?dtor$2@?0???0UnitTypeData@SC2APIProtocol@@QEAA@UConstantInitialized@internal@protobuf@google@@@Z@4HA
pdata	ENDS
;	COMDAT pdata
pdata	SEGMENT
$pdata$?dtor$3@?0???0UnitTypeData@SC2APIProtocol@@QEAA@UConstantInitialized@internal@protobuf@google@@@Z@4HA DD imagerel ?dtor$3@?0???0UnitTypeData@SC2APIProtocol@@QEAA@UConstantInitialized@internal@protobuf@google@@@Z@4HA
	DD	imagerel ?dtor$3@?0???0UnitTypeData@SC2APIProtocol@@QEAA@UConstantInitialized@internal@protobuf@google@@@Z@4HA+32
	DD	imagerel $unwind$?dtor$3@?0???0UnitTypeData@SC2APIProtocol@@QEAA@UConstantInitialized@internal@protobuf@google@@@Z@4HA
pdata	ENDS
pdata	SEGMENT
$pdata$??0UnitTypeData@SC2APIProtocol@@QEAA@AEBV01@@Z DD imagerel $LN8
	DD	imagerel $LN8+744
	DD	imagerel $unwind$??0UnitTypeData@SC2APIProtocol@@QEAA@AEBV01@@Z
pdata	ENDS
pdata	SEGMENT
$pdata$?dtor$0@?0???0UnitTypeData@SC2APIProtocol@@QEAA@AEBV01@@Z@4HA DD imagerel ?dtor$0@?0???0UnitTypeData@SC2APIProtocol@@QEAA@AEBV01@@Z@4HA
	DD	imagerel ?dtor$0@?0???0UnitTypeData@SC2APIProtocol@@QEAA@AEBV01@@Z@4HA+27
	DD	imagerel $unwind$?dtor$0@?0???0UnitTypeData@SC2APIProtocol@@QEAA@AEBV01@@Z@4HA
$pdata$?dtor$1@?0???0UnitTypeData@SC2APIProtocol@@QEAA@AEBV01@@Z@4HA DD imagerel ?dtor$1@?0???0UnitTypeData@SC2APIProtocol@@QEAA@AEBV01@@Z@4HA
