; Listing generated by Microsoft (R) Optimizing Compiler Version 19.34.31937.0 

include listing.inc

INCLUDELIB LIBCMTD
INCLUDELIB OLDNAMES

PUBLIC	??_R0?AVDebugCommand@SC2APIProtocol@@@8		; SC2APIProtocol::DebugCommand `RTTI Type Descriptor'
PUBLIC	??_R0?AVLine@SC2APIProtocol@@@8			; SC2APIProtocol::Line `RTTI Type Descriptor'
PUBLIC	??_R0?AVColor@SC2APIProtocol@@@8		; SC2APIProtocol::Color `RTTI Type Descriptor'
PUBLIC	??_R0?AVDebugText@SC2APIProtocol@@@8		; SC2APIProtocol::DebugText `RTTI Type Descriptor'
PUBLIC	??_R0?AVDebugLine@SC2APIProtocol@@@8		; SC2APIProtocol::DebugLine `RTTI Type Descriptor'
PUBLIC	??_R0?AVDebugBox@SC2APIProtocol@@@8		; SC2APIProtocol::DebugBox `RTTI Type Descriptor'
PUBLIC	??_R0?AVDebugSphere@SC2APIProtocol@@@8		; SC2APIProtocol::DebugSphere `RTTI Type Descriptor'
PUBLIC	??_R0?AVDebugCreateUnit@SC2APIProtocol@@@8	; SC2APIProtocol::DebugCreateUnit `RTTI Type Descriptor'
PUBLIC	??_R0?AVDebugTestProcess@SC2APIProtocol@@@8	; SC2APIProtocol::DebugTestProcess `RTTI Type Descriptor'
PUBLIC	??_R0?AVDebugSetScore@SC2APIProtocol@@@8	; SC2APIProtocol::DebugSetScore `RTTI Type Descriptor'
PUBLIC	??_R0?AVDebugEndGame@SC2APIProtocol@@@8		; SC2APIProtocol::DebugEndGame `RTTI Type Descriptor'
PUBLIC	??_R0?AVDebugSetUnitValue@SC2APIProtocol@@@8	; SC2APIProtocol::DebugSetUnitValue `RTTI Type Descriptor'
PUBLIC	?offsets@TableStruct_s2clientprotocol_2fdebug_2eproto@@2QBIB ; TableStruct_s2clientprotocol_2fdebug_2eproto::offsets
PUBLIC	?descriptor_table_s2clientprotocol_2fdebug_2eproto@@3UDescriptorTable@internal@protobuf@google@@B ; descriptor_table_s2clientprotocol_2fdebug_2eproto
PUBLIC	?New@DebugCommand@SC2APIProtocol@@UEBAPEAV12@PEAVArena@protobuf@google@@@Z ; SC2APIProtocol::DebugCommand::New
PUBLIC	?MergeImpl@DebugCommand@SC2APIProtocol@@CAXAEAVMessage@protobuf@google@@AEBV345@@Z ; SC2APIProtocol::DebugCommand::MergeImpl
PUBLIC	?Clear@DebugCommand@SC2APIProtocol@@UEAAXXZ	; SC2APIProtocol::DebugCommand::Clear
PUBLIC	?IsInitialized@DebugCommand@SC2APIProtocol@@UEBA_NXZ ; SC2APIProtocol::DebugCommand::IsInitialized
PUBLIC	?ByteSizeLong@DebugCommand@SC2APIProtocol@@UEBA_KXZ ; SC2APIProtocol::DebugCommand::ByteSizeLong
PUBLIC	?_InternalParse@DebugCommand@SC2APIProtocol@@UEAAPEBDPEBDPEAVParseContext@internal@protobuf@google@@@Z ; SC2APIProtocol::DebugCommand::_InternalParse
PUBLIC	?_InternalSerialize@DebugCommand@SC2APIProtocol@@UEBAPEAEPEAEPEAVEpsCopyOutputStream@io@protobuf@google@@@Z ; SC2APIProtocol::DebugCommand::_InternalSerialize
PUBLIC	?GetCachedSize@DebugCommand@SC2APIProtocol@@UEBAHXZ ; SC2APIProtocol::DebugCommand::GetCachedSize
PUBLIC	?SetCachedSize@DebugCommand@SC2APIProtocol@@EEBAXH@Z ; SC2APIProtocol::DebugCommand::SetCachedSize
PUBLIC	?_class_data_@DebugCommand@SC2APIProtocol@@2UClassData@Message@protobuf@google@@B ; SC2APIProtocol::DebugCommand::_class_data_
PUBLIC	?GetClassData@DebugCommand@SC2APIProtocol@@UEBAPEBUClassData@Message@protobuf@google@@XZ ; SC2APIProtocol::DebugCommand::GetClassData
PUBLIC	?GetMetadata@DebugCommand@SC2APIProtocol@@UEBA?AUMetadata@protobuf@google@@XZ ; SC2APIProtocol::DebugCommand::GetMetadata
PUBLIC	??_7DebugCommand@SC2APIProtocol@@6B@		; SC2APIProtocol::DebugCommand::`vftable'
PUBLIC	??_GDebugCommand@SC2APIProtocol@@UEAAPEAXI@Z	; SC2APIProtocol::DebugCommand::`scalar deleting destructor'
PUBLIC	?MergeImpl@DebugDraw@SC2APIProtocol@@CAXAEAVMessage@protobuf@google@@AEBV345@@Z ; SC2APIProtocol::DebugDraw::MergeImpl
PUBLIC	?_class_data_@DebugDraw@SC2APIProtocol@@2UClassData@Message@protobuf@google@@B ; SC2APIProtocol::DebugDraw::_class_data_
PUBLIC	?New@Line@SC2APIProtocol@@UEBAPEAV12@PEAVArena@protobuf@google@@@Z ; SC2APIProtocol::Line::New
PUBLIC	?MergeImpl@Line@SC2APIProtocol@@CAXAEAVMessage@protobuf@google@@AEBV345@@Z ; SC2APIProtocol::Line::MergeImpl
PUBLIC	?Clear@Line@SC2APIProtocol@@UEAAXXZ		; SC2APIProtocol::Line::Clear
PUBLIC	?IsInitialized@Line@SC2APIProtocol@@UEBA_NXZ	; SC2APIProtocol::Line::IsInitialized
PUBLIC	?ByteSizeLong@Line@SC2APIProtocol@@UEBA_KXZ	; SC2APIProtocol::Line::ByteSizeLong
PUBLIC	?_InternalParse@Line@SC2APIProtocol@@UEAAPEBDPEBDPEAVParseContext@internal@protobuf@google@@@Z ; SC2APIProtocol::Line::_InternalParse
PUBLIC	?_InternalSerialize@Line@SC2APIProtocol@@UEBAPEAEPEAEPEAVEpsCopyOutputStream@io@protobuf@google@@@Z ; SC2APIProtocol::Line::_InternalSerialize
PUBLIC	?GetCachedSize@Line@SC2APIProtocol@@UEBAHXZ	; SC2APIProtocol::Line::GetCachedSize
PUBLIC	?SetCachedSize@Line@SC2APIProtocol@@EEBAXH@Z	; SC2APIProtocol::Line::SetCachedSize
PUBLIC	?_class_data_@Line@SC2APIProtocol@@2UClassData@Message@protobuf@google@@B ; SC2APIProtocol::Line::_class_data_
PUBLIC	?GetClassData@Line@SC2APIProtocol@@UEBAPEBUClassData@Message@protobuf@google@@XZ ; SC2APIProtocol::Line::GetClassData
PUBLIC	?GetMetadata@Line@SC2APIProtocol@@UEBA?AUMetadata@protobuf@google@@XZ ; SC2APIProtocol::Line::GetMetadata
PUBLIC	??_7Line@SC2APIProtocol@@6B@			; SC2APIProtocol::Line::`vftable'
PUBLIC	??_GLine@SC2APIProtocol@@UEAAPEAXI@Z		; SC2APIProtocol::Line::`scalar deleting destructor'
PUBLIC	?New@Color@SC2APIProtocol@@UEBAPEAV12@PEAVArena@protobuf@google@@@Z ; SC2APIProtocol::Color::New
PUBLIC	?MergeImpl@Color@SC2APIProtocol@@CAXAEAVMessage@protobuf@google@@AEBV345@@Z ; SC2APIProtocol::Color::MergeImpl
PUBLIC	?Clear@Color@SC2APIProtocol@@UEAAXXZ		; SC2APIProtocol::Color::Clear
PUBLIC	?IsInitialized@Color@SC2APIProtocol@@UEBA_NXZ	; SC2APIProtocol::Color::IsInitialized
PUBLIC	?ByteSizeLong@Color@SC2APIProtocol@@UEBA_KXZ	; SC2APIProtocol::Color::ByteSizeLong
PUBLIC	?_InternalParse@Color@SC2APIProtocol@@UEAAPEBDPEBDPEAVParseContext@internal@protobuf@google@@@Z ; SC2APIProtocol::Color::_InternalParse
PUBLIC	?_InternalSerialize@Color@SC2APIProtocol@@UEBAPEAEPEAEPEAVEpsCopyOutputStream@io@protobuf@google@@@Z ; SC2APIProtocol::Color::_InternalSerialize
PUBLIC	?GetCachedSize@Color@SC2APIProtocol@@UEBAHXZ	; SC2APIProtocol::Color::GetCachedSize
PUBLIC	?SetCachedSize@Color@SC2APIProtocol@@EEBAXH@Z	; SC2APIProtocol::Color::SetCachedSize
PUBLIC	?_class_data_@Color@SC2APIProtocol@@2UClassData@Message@protobuf@google@@B ; SC2APIProtocol::Color::_class_data_
PUBLIC	?GetClassData@Color@SC2APIProtocol@@UEBAPEBUClassData@Message@protobuf@google@@XZ ; SC2APIProtocol::Color::GetClassData
PUBLIC	?GetMetadata@Color@SC2APIProtocol@@UEBA?AUMetadata@protobuf@google@@XZ ; SC2APIProtocol::Color::GetMetadata
PUBLIC	??_7Color@SC2APIProtocol@@6B@			; SC2APIProtocol::Color::`vftable'
PUBLIC	??_GColor@SC2APIProtocol@@UEAAPEAXI@Z		; SC2APIProtocol::Color::`scalar deleting destructor'
PUBLIC	?New@DebugText@SC2APIProtocol@@UEBAPEAV12@PEAVArena@protobuf@google@@@Z ; SC2APIProtocol::DebugText::New
PUBLIC	?MergeImpl@DebugText@SC2APIProtocol@@CAXAEAVMessage@protobuf@google@@AEBV345@@Z ; SC2APIProtocol::DebugText::MergeImpl
PUBLIC	?Clear@DebugText@SC2APIProtocol@@UEAAXXZ	; SC2APIProtocol::DebugText::Clear
PUBLIC	?IsInitialized@DebugText@SC2APIProtocol@@UEBA_NXZ ; SC2APIProtocol::DebugText::IsInitialized
PUBLIC	?ByteSizeLong@DebugText@SC2APIProtocol@@UEBA_KXZ ; SC2APIProtocol::DebugText::ByteSizeLong
PUBLIC	?_InternalParse@DebugText@SC2APIProtocol@@UEAAPEBDPEBDPEAVParseContext@internal@protobuf@google@@@Z ; SC2APIProtocol::DebugText::_InternalParse
PUBLIC	?_InternalSerialize@DebugText@SC2APIProtocol@@UEBAPEAEPEAEPEAVEpsCopyOutputStream@io@protobuf@google@@@Z ; SC2APIProtocol::DebugText::_InternalSerialize
PUBLIC	?GetCachedSize@DebugText@SC2APIProtocol@@UEBAHXZ ; SC2APIProtocol::DebugText::GetCachedSize
PUBLIC	?SetCachedSize@DebugText@SC2APIProtocol@@EEBAXH@Z ; SC2APIProtocol::DebugText::SetCachedSize
PUBLIC	?_class_data_@DebugText@SC2APIProtocol@@2UClassData@Message@protobuf@google@@B ; SC2APIProtocol::DebugText::_class_data_
PUBLIC	?GetClassData@DebugText@SC2APIProtocol@@UEBAPEBUClassData@Message@protobuf@google@@XZ ; SC2APIProtocol::DebugText::GetClassData
PUBLIC	?GetMetadata@DebugText@SC2APIProtocol@@UEBA?AUMetadata@protobuf@google@@XZ ; SC2APIProtocol::DebugText::GetMetadata
PUBLIC	??_R0?AVMessage@protobuf@google@@@8		; google::protobuf::Message `RTTI Type Descriptor'
PUBLIC	??_R3Message@protobuf@google@@8			; google::protobuf::Message::`RTTI Class Hierarchy Descriptor'
PUBLIC	??_R2Message@protobuf@google@@8			; google::protobuf::Message::`RTTI Base Class Array'
PUBLIC	??_R1A@?0A@EA@Message@protobuf@google@@8	; google::protobuf::Message::`RTTI Base Class Descriptor at (0,-1,0,64)'
PUBLIC	??_R1A@?0A@EA@MessageLite@protobuf@google@@8	; google::protobuf::MessageLite::`RTTI Base Class Descriptor at (0,-1,0,64)'
PUBLIC	??_R0?AVMessageLite@protobuf@google@@@8		; google::protobuf::MessageLite `RTTI Type Descriptor'
PUBLIC	??_R3MessageLite@protobuf@google@@8		; google::protobuf::MessageLite::`RTTI Class Hierarchy Descriptor'
PUBLIC	??_R2MessageLite@protobuf@google@@8		; google::protobuf::MessageLite::`RTTI Base Class Array'
PUBLIC	??_R4Color@SC2APIProtocol@@6B@			; SC2APIProtocol::Color::`RTTI Complete Object Locator'
PUBLIC	??_R3Color@SC2APIProtocol@@8			; SC2APIProtocol::Color::`RTTI Class Hierarchy Descriptor'
PUBLIC	??_R2Color@SC2APIProtocol@@8			; SC2APIProtocol::Color::`RTTI Base Class Array'
PUBLIC	??_R1A@?0A@EA@Color@SC2APIProtocol@@8		; SC2APIProtocol::Color::`RTTI Base Class Descriptor at (0,-1,0,64)'
PUBLIC	??_R4DebugBox@SC2APIProtocol@@6B@		; SC2APIProtocol::DebugBox::`RTTI Complete Object Locator'
PUBLIC	??_R3DebugBox@SC2APIProtocol@@8			; SC2APIProtocol::DebugBox::`RTTI Class Hierarchy Descriptor'
PUBLIC	??_R2DebugBox@SC2APIProtocol@@8			; SC2APIProtocol::DebugBox::`RTTI Base Class Array'
PUBLIC	??_R1A@?0A@EA@DebugBox@SC2APIProtocol@@8	; SC2APIProtocol::DebugBox::`RTTI Base Class Descriptor at (0,-1,0,64)'
PUBLIC	??_R4DebugCommand@SC2APIProtocol@@6B@		; SC2APIProtocol::DebugCommand::`RTTI Complete Object Locator'
PUBLIC	??_R3DebugCommand@SC2APIProtocol@@8		; SC2APIProtocol::DebugCommand::`RTTI Class Hierarchy Descriptor'
PUBLIC	??_R2DebugCommand@SC2APIProtocol@@8		; SC2APIProtocol::DebugCommand::`RTTI Base Class Array'
PUBLIC	??_R1A@?0A@EA@DebugCommand@SC2APIProtocol@@8	; SC2APIProtocol::DebugCommand::`RTTI Base Class Descriptor at (0,-1,0,64)'
PUBLIC	??_R4DebugCreateUnit@SC2APIProtocol@@6B@	; SC2APIProtocol::DebugCreateUnit::`RTTI Complete Object Locator'
PUBLIC	??_R3DebugCreateUnit@SC2APIProtocol@@8		; SC2APIProtocol::DebugCreateUnit::`RTTI Class Hierarchy Descriptor'
PUBLIC	??_R2DebugCreateUnit@SC2APIProtocol@@8		; SC2APIProtocol::DebugCreateUnit::`RTTI Base Class Array'
PUBLIC	??_R1A@?0A@EA@DebugCreateUnit@SC2APIProtocol@@8	; SC2APIProtocol::DebugCreateUnit::`RTTI Base Class Descriptor at (0,-1,0,64)'
PUBLIC	??_R4DebugEndGame@SC2APIProtocol@@6B@		; SC2APIProtocol::DebugEndGame::`RTTI Complete Object Locator'
PUBLIC	??_R3DebugEndGame@SC2APIProtocol@@8		; SC2APIProtocol::DebugEndGame::`RTTI Class Hierarchy Descriptor'
PUBLIC	??_R2DebugEndGame@SC2APIProtocol@@8		; SC2APIProtocol::DebugEndGame::`RTTI Base Class Array'
PUBLIC	??_R1A@?0A@EA@DebugEndGame@SC2APIProtocol@@8	; SC2APIProtocol::DebugEndGame::`RTTI Base Class Descriptor at (0,-1,0,64)'
PUBLIC	??_R4DebugLine@SC2APIProtocol@@6B@		; SC2APIProtocol::DebugLine::`RTTI Complete Object Locator'
PUBLIC	??_R3DebugLine@SC2APIProtocol@@8		; SC2APIProtocol::DebugLine::`RTTI Class Hierarchy Descriptor'
PUBLIC	??_R2DebugLine@SC2APIProtocol@@8		; SC2APIProtocol::DebugLine::`RTTI Base Class Array'
PUBLIC	??_R1A@?0A@EA@DebugLine@SC2APIProtocol@@8	; SC2APIProtocol::DebugLine::`RTTI Base Class Descriptor at (0,-1,0,64)'
PUBLIC	??_R4DebugSetScore@SC2APIProtocol@@6B@		; SC2APIProtocol::DebugSetScore::`RTTI Complete Object Locator'
PUBLIC	??_R3DebugSetScore@SC2APIProtocol@@8		; SC2APIProtocol::DebugSetScore::`RTTI Class Hierarchy Descriptor'
PUBLIC	??_R2DebugSetScore@SC2APIProtocol@@8		; SC2APIProtocol::DebugSetScore::`RTTI Base Class Array'
PUBLIC	??_R1A@?0A@EA@DebugSetScore@SC2APIProtocol@@8	; SC2APIProtocol::DebugSetScore::`RTTI Base Class Descriptor at (0,-1,0,64)'
PUBLIC	??_R4DebugSetUnitValue@SC2APIProtocol@@6B@	; SC2APIProtocol::DebugSetUnitValue::`RTTI Complete Object Locator'
PUBLIC	??_R3DebugSetUnitValue@SC2APIProtocol@@8	; SC2APIProtocol::DebugSetUnitValue::`RTTI Class Hierarchy Descriptor'
PUBLIC	??_R2DebugSetUnitValue@SC2APIProtocol@@8	; SC2APIProtocol::DebugSetUnitValue::`RTTI Base Class Array'
PUBLIC	??_R1A@?0A@EA@DebugSetUnitValue@SC2APIProtocol@@8 ; SC2APIProtocol::DebugSetUnitValue::`RTTI Base Class Descriptor at (0,-1,0,64)'
PUBLIC	??_R4DebugSphere@SC2APIProtocol@@6B@		; SC2APIProtocol::DebugSphere::`RTTI Complete Object Locator'
PUBLIC	??_R3DebugSphere@SC2APIProtocol@@8		; SC2APIProtocol::DebugSphere::`RTTI Class Hierarchy Descriptor'
PUBLIC	??_R2DebugSphere@SC2APIProtocol@@8		; SC2APIProtocol::DebugSphere::`RTTI Base Class Array'
PUBLIC	??_R1A@?0A@EA@DebugSphere@SC2APIProtocol@@8	; SC2APIProtocol::DebugSphere::`RTTI Base Class Descriptor at (0,-1,0,64)'
PUBLIC	??_R4DebugTestProcess@SC2APIProtocol@@6B@	; SC2APIProtocol::DebugTestProcess::`RTTI Complete Object Locator'
PUBLIC	??_R3DebugTestProcess@SC2APIProtocol@@8		; SC2APIProtocol::DebugTestProcess::`RTTI Class Hierarchy Descriptor'
PUBLIC	??_7DebugText@SC2APIProtocol@@6B@		; SC2APIProtocol::DebugText::`vftable'
PUBLIC	??_R2DebugTestProcess@SC2APIProtocol@@8		; SC2APIProtocol::DebugTestProcess::`RTTI Base Class Array'
PUBLIC	??_R1A@?0A@EA@DebugTestProcess@SC2APIProtocol@@8 ; SC2APIProtocol::DebugTestProcess::`RTTI Base Class Descriptor at (0,-1,0,64)'
PUBLIC	??_R4DebugText@SC2APIProtocol@@6B@		; SC2APIProtocol::DebugText::`RTTI Complete Object Locator'
PUBLIC	??_GDebugText@SC2APIProtocol@@UEAAPEAXI@Z	; SC2APIProtocol::DebugText::`scalar deleting destructor'
PUBLIC	??_R3DebugText@SC2APIProtocol@@8		; SC2APIProtocol::DebugText::`RTTI Class Hierarchy Descriptor'
PUBLIC	??_R2DebugText@SC2APIProtocol@@8		; SC2APIProtocol::DebugText::`RTTI Base Class Array'
PUBLIC	??_R1A@?0A@EA@DebugText@SC2APIProtocol@@8	; SC2APIProtocol::DebugText::`RTTI Base Class Descriptor at (0,-1,0,64)'
PUBLIC	??_R4Line@SC2APIProtocol@@6B@			; SC2APIProtocol::Line::`RTTI Complete Object Locator'
PUBLIC	??_R3Line@SC2APIProtocol@@8			; SC2APIProtocol::Line::`RTTI Class Hierarchy Descriptor'
PUBLIC	??_R2Line@SC2APIProtocol@@8			; SC2APIProtocol::Line::`RTTI Base Class Array'
PUBLIC	??_R1A@?0A@EA@Line@SC2APIProtocol@@8		; SC2APIProtocol::Line::`RTTI Base Class Descriptor at (0,-1,0,64)'
PUBLIC	?New@DebugLine@SC2APIProtocol@@UEBAPEAV12@PEAVArena@protobuf@google@@@Z ; SC2APIProtocol::DebugLine::New
PUBLIC	?MergeImpl@DebugLine@SC2APIProtocol@@CAXAEAVMessage@protobuf@google@@AEBV345@@Z ; SC2APIProtocol::DebugLine::MergeImpl
PUBLIC	?Clear@DebugLine@SC2APIProtocol@@UEAAXXZ	; SC2APIProtocol::DebugLine::Clear
PUBLIC	?IsInitialized@DebugLine@SC2APIProtocol@@UEBA_NXZ ; SC2APIProtocol::DebugLine::IsInitialized
PUBLIC	?ByteSizeLong@DebugLine@SC2APIProtocol@@UEBA_KXZ ; SC2APIProtocol::DebugLine::ByteSizeLong
PUBLIC	?_InternalParse@DebugLine@SC2APIProtocol@@UEAAPEBDPEBDPEAVParseContext@internal@protobuf@google@@@Z ; SC2APIProtocol::DebugLine::_InternalParse
PUBLIC	?_InternalSerialize@DebugLine@SC2APIProtocol@@UEBAPEAEPEAEPEAVEpsCopyOutputStream@io@protobuf@google@@@Z ; SC2APIProtocol::DebugLine::_InternalSerialize
PUBLIC	?GetCachedSize@DebugLine@SC2APIProtocol@@UEBAHXZ ; SC2APIProtocol::DebugLine::GetCachedSize
PUBLIC	?SetCachedSize@DebugLine@SC2APIProtocol@@EEBAXH@Z ; SC2APIProtocol::DebugLine::SetCachedSize
PUBLIC	?_class_data_@DebugLine@SC2APIProtocol@@2UClassData@Message@protobuf@google@@B ; SC2APIProtocol::DebugLine::_class_data_
PUBLIC	?GetClassData@DebugLine@SC2APIProtocol@@UEBAPEBUClassData@Message@protobuf@google@@XZ ; SC2APIProtocol::DebugLine::GetClassData
PUBLIC	?GetMetadata@DebugLine@SC2APIProtocol@@UEBA?AUMetadata@protobuf@google@@XZ ; SC2APIProtocol::DebugLine::GetMetadata
PUBLIC	??_7DebugLine@SC2APIProtocol@@6B@		; SC2APIProtocol::DebugLine::`vftable'
PUBLIC	??_GDebugLine@SC2APIProtocol@@UEAAPEAXI@Z	; SC2APIProtocol::DebugLine::`scalar deleting destructor'
PUBLIC	?New@DebugBox@SC2APIProtocol@@UEBAPEAV12@PEAVArena@protobuf@google@@@Z ; SC2APIProtocol::DebugBox::New
PUBLIC	?MergeImpl@DebugBox@SC2APIProtocol@@CAXAEAVMessage@protobuf@google@@AEBV345@@Z ; SC2APIProtocol::DebugBox::MergeImpl
PUBLIC	?Clear@DebugBox@SC2APIProtocol@@UEAAXXZ		; SC2APIProtocol::DebugBox::Clear
PUBLIC	?IsInitialized@DebugBox@SC2APIProtocol@@UEBA_NXZ ; SC2APIProtocol::DebugBox::IsInitialized
PUBLIC	?ByteSizeLong@DebugBox@SC2APIProtocol@@UEBA_KXZ	; SC2APIProtocol::DebugBox::ByteSizeLong
PUBLIC	?_InternalParse@DebugBox@SC2APIProtocol@@UEAAPEBDPEBDPEAVParseContext@internal@protobuf@google@@@Z ; SC2APIProtocol::DebugBox::_InternalParse
PUBLIC	?_InternalSerialize@DebugBox@SC2APIProtocol@@UEBAPEAEPEAEPEAVEpsCopyOutputStream@io@protobuf@google@@@Z ; SC2APIProtocol::DebugBox::_InternalSerialize
PUBLIC	?GetCachedSize@DebugBox@SC2APIProtocol@@UEBAHXZ	; SC2APIProtocol::DebugBox::GetCachedSize
PUBLIC	?SetCachedSize@DebugBox@SC2APIProtocol@@EEBAXH@Z ; SC2APIProtocol::DebugBox::SetCachedSize
PUBLIC	?_class_data_@DebugBox@SC2APIProtocol@@2UClassData@Message@protobuf@google@@B ; SC2APIProtocol::DebugBox::_class_data_
PUBLIC	?GetClassData@DebugBox@SC2APIProtocol@@UEBAPEBUClassData@Message@protobuf@google@@XZ ; SC2APIProtocol::DebugBox::GetClassData
PUBLIC	?GetMetadata@DebugBox@SC2APIProtocol@@UEBA?AUMetadata@protobuf@google@@XZ ; SC2APIProtocol::DebugBox::GetMetadata
PUBLIC	??_7DebugBox@SC2APIProtocol@@6B@		; SC2APIProtocol::DebugBox::`vftable'
PUBLIC	??_GDebugBox@SC2APIProtocol@@UEAAPEAXI@Z	; SC2APIProtocol::DebugBox::`scalar deleting destructor'
PUBLIC	?New@DebugSphere@SC2APIProtocol@@UEBAPEAV12@PEAVArena@protobuf@google@@@Z ; SC2APIProtocol::DebugSphere::New
PUBLIC	?MergeImpl@DebugSphere@SC2APIProtocol@@CAXAEAVMessage@protobuf@google@@AEBV345@@Z ; SC2APIProtocol::DebugSphere::MergeImpl
PUBLIC	?Clear@DebugSphere@SC2APIProtocol@@UEAAXXZ	; SC2APIProtocol::DebugSphere::Clear
PUBLIC	?IsInitialized@DebugSphere@SC2APIProtocol@@UEBA_NXZ ; SC2APIProtocol::DebugSphere::IsInitialized
PUBLIC	?ByteSizeLong@DebugSphere@SC2APIProtocol@@UEBA_KXZ ; SC2APIProtocol::DebugSphere::ByteSizeLong
PUBLIC	?_InternalParse@DebugSphere@SC2APIProtocol@@UEAAPEBDPEBDPEAVParseContext@internal@protobuf@google@@@Z ; SC2APIProtocol::DebugSphere::_InternalParse
PUBLIC	?_InternalSerialize@DebugSphere@SC2APIProtocol@@UEBAPEAEPEAEPEAVEpsCopyOutputStream@io@protobuf@google@@@Z ; SC2APIProtocol::DebugSphere::_InternalSerialize
PUBLIC	?GetCachedSize@DebugSphere@SC2APIProtocol@@UEBAHXZ ; SC2APIProtocol::DebugSphere::GetCachedSize
PUBLIC	?SetCachedSize@DebugSphere@SC2APIProtocol@@EEBAXH@Z ; SC2APIProtocol::DebugSphere::SetCachedSize
PUBLIC	?_class_data_@DebugSphere@SC2APIProtocol@@2UClassData@Message@protobuf@google@@B ; SC2APIProtocol::DebugSphere::_class_data_
PUBLIC	?GetClassData@DebugSphere@SC2APIProtocol@@UEBAPEBUClassData@Message@protobuf@google@@XZ ; SC2APIProtocol::DebugSphere::GetClassData
PUBLIC	?GetMetadata@DebugSphere@SC2APIProtocol@@UEBA?AUMetadata@protobuf@google@@XZ ; SC2APIProtocol::DebugSphere::GetMetadata
PUBLIC	??_7DebugSphere@SC2APIProtocol@@6B@		; SC2APIProtocol::DebugSphere::`vftable'
PUBLIC	??_GDebugSphere@SC2APIProtocol@@UEAAPEAXI@Z	; SC2APIProtocol::DebugSphere::`scalar deleting destructor'
PUBLIC	?New@DebugCreateUnit@SC2APIProtocol@@UEBAPEAV12@PEAVArena@protobuf@google@@@Z ; SC2APIProtocol::DebugCreateUnit::New
PUBLIC	?MergeImpl@DebugCreateUnit@SC2APIProtocol@@CAXAEAVMessage@protobuf@google@@AEBV345@@Z ; SC2APIProtocol::DebugCreateUnit::MergeImpl
PUBLIC	?Clear@DebugCreateUnit@SC2APIProtocol@@UEAAXXZ	; SC2APIProtocol::DebugCreateUnit::Clear
PUBLIC	?IsInitialized@DebugCreateUnit@SC2APIProtocol@@UEBA_NXZ ; SC2APIProtocol::DebugCreateUnit::IsInitialized
PUBLIC	?ByteSizeLong@DebugCreateUnit@SC2APIProtocol@@UEBA_KXZ ; SC2APIProtocol::DebugCreateUnit::ByteSizeLong
PUBLIC	?_InternalParse@DebugCreateUnit@SC2APIProtocol@@UEAAPEBDPEBDPEAVParseContext@internal@protobuf@google@@@Z ; SC2APIProtocol::DebugCreateUnit::_InternalParse
PUBLIC	?_InternalSerialize@DebugCreateUnit@SC2APIProtocol@@UEBAPEAEPEAEPEAVEpsCopyOutputStream@io@protobuf@google@@@Z ; SC2APIProtocol::DebugCreateUnit::_InternalSerialize
PUBLIC	?GetCachedSize@DebugCreateUnit@SC2APIProtocol@@UEBAHXZ ; SC2APIProtocol::DebugCreateUnit::GetCachedSize
PUBLIC	?SetCachedSize@DebugCreateUnit@SC2APIProtocol@@EEBAXH@Z ; SC2APIProtocol::DebugCreateUnit::SetCachedSize
PUBLIC	?_class_data_@DebugCreateUnit@SC2APIProtocol@@2UClassData@Message@protobuf@google@@B ; SC2APIProtocol::DebugCreateUnit::_class_data_
PUBLIC	?GetClassData@DebugCreateUnit@SC2APIProtocol@@UEBAPEBUClassData@Message@protobuf@google@@XZ ; SC2APIProtocol::DebugCreateUnit::GetClassData
PUBLIC	?GetMetadata@DebugCreateUnit@SC2APIProtocol@@UEBA?AUMetadata@protobuf@google@@XZ ; SC2APIProtocol::DebugCreateUnit::GetMetadata
PUBLIC	??_7DebugCreateUnit@SC2APIProtocol@@6B@		; SC2APIProtocol::DebugCreateUnit::`vftable'
PUBLIC	??_GDebugCreateUnit@SC2APIProtocol@@UEAAPEAXI@Z	; SC2APIProtocol::DebugCreateUnit::`scalar deleting destructor'
PUBLIC	?MergeImpl@DebugKillUnit@SC2APIProtocol@@CAXAEAVMessage@protobuf@google@@AEBV345@@Z ; SC2APIProtocol::DebugKillUnit::MergeImpl
PUBLIC	?_class_data_@DebugKillUnit@SC2APIProtocol@@2UClassData@Message@protobuf@google@@B ; SC2APIProtocol::DebugKillUnit::_class_data_
PUBLIC	?New@DebugTestProcess@SC2APIProtocol@@UEBAPEAV12@PEAVArena@protobuf@google@@@Z ; SC2APIProtocol::DebugTestProcess::New
PUBLIC	?MergeImpl@DebugTestProcess@SC2APIProtocol@@CAXAEAVMessage@protobuf@google@@AEBV345@@Z ; SC2APIProtocol::DebugTestProcess::MergeImpl
PUBLIC	?Clear@DebugTestProcess@SC2APIProtocol@@UEAAXXZ	; SC2APIProtocol::DebugTestProcess::Clear
PUBLIC	?IsInitialized@DebugTestProcess@SC2APIProtocol@@UEBA_NXZ ; SC2APIProtocol::DebugTestProcess::IsInitialized
PUBLIC	?ByteSizeLong@DebugTestProcess@SC2APIProtocol@@UEBA_KXZ ; SC2APIProtocol::DebugTestProcess::ByteSizeLong
PUBLIC	?_InternalParse@DebugTestProcess@SC2APIProtocol@@UEAAPEBDPEBDPEAVParseContext@internal@protobuf@google@@@Z ; SC2APIProtocol::DebugTestProcess::_InternalParse
PUBLIC	?_InternalSerialize@DebugTestProcess@SC2APIProtocol@@UEBAPEAEPEAEPEAVEpsCopyOutputStream@io@protobuf@google@@@Z ; SC2APIProtocol::DebugTestProcess::_InternalSerialize
PUBLIC	?GetCachedSize@DebugTestProcess@SC2APIProtocol@@UEBAHXZ ; SC2APIProtocol::DebugTestProcess::GetCachedSize
PUBLIC	?SetCachedSize@DebugTestProcess@SC2APIProtocol@@EEBAXH@Z ; SC2APIProtocol::DebugTestProcess::SetCachedSize
PUBLIC	?_class_data_@DebugTestProcess@SC2APIProtocol@@2UClassData@Message@protobuf@google@@B ; SC2APIProtocol::DebugTestProcess::_class_data_
PUBLIC	?GetClassData@DebugTestProcess@SC2APIProtocol@@UEBAPEBUClassData@Message@protobuf@google@@XZ ; SC2APIProtocol::DebugTestProcess::GetClassData
PUBLIC	?GetMetadata@DebugTestProcess@SC2APIProtocol@@UEBA?AUMetadata@protobuf@google@@XZ ; SC2APIProtocol::DebugTestProcess::GetMetadata
PUBLIC	??_7DebugTestProcess@SC2APIProtocol@@6B@	; SC2APIProtocol::DebugTestProcess::`vftable'
PUBLIC	??_GDebugTestProcess@SC2APIProtocol@@UEAAPEAXI@Z ; SC2APIProtocol::DebugTestProcess::`scalar deleting destructor'
PUBLIC	?New@DebugSetScore@SC2APIProtocol@@UEBAPEAV12@PEAVArena@protobuf@google@@@Z ; SC2APIProtocol::DebugSetScore::New
PUBLIC	?MergeImpl@DebugSetScore@SC2APIProtocol@@CAXAEAVMessage@protobuf@google@@AEBV345@@Z ; SC2APIProtocol::DebugSetScore::MergeImpl
PUBLIC	?Clear@DebugSetScore@SC2APIProtocol@@UEAAXXZ	; SC2APIProtocol::DebugSetScore::Clear
PUBLIC	?IsInitialized@DebugSetScore@SC2APIProtocol@@UEBA_NXZ ; SC2APIProtocol::DebugSetScore::IsInitialized
PUBLIC	?ByteSizeLong@DebugSetScore@SC2APIProtocol@@UEBA_KXZ ; SC2APIProtocol::DebugSetScore::ByteSizeLong
PUBLIC	?_InternalParse@DebugSetScore@SC2APIProtocol@@UEAAPEBDPEBDPEAVParseContext@internal@protobuf@google@@@Z ; SC2APIProtocol::DebugSetScore::_InternalParse
PUBLIC	?_InternalSerialize@DebugSetScore@SC2APIProtocol@@UEBAPEAEPEAEPEAVEpsCopyOutputStream@io@protobuf@google@@@Z ; SC2APIProtocol::DebugSetScore::_InternalSerialize
PUBLIC	?GetCachedSize@DebugSetScore@SC2APIProtocol@@UEBAHXZ ; SC2APIProtocol::DebugSetScore::GetCachedSize
PUBLIC	?SetCachedSize@DebugSetScore@SC2APIProtocol@@EEBAXH@Z ; SC2APIProtocol::DebugSetScore::SetCachedSize
PUBLIC	?_class_data_@DebugSetScore@SC2APIProtocol@@2UClassData@Message@protobuf@google@@B ; SC2APIProtocol::DebugSetScore::_class_data_
PUBLIC	?GetClassData@DebugSetScore@SC2APIProtocol@@UEBAPEBUClassData@Message@protobuf@google@@XZ ; SC2APIProtocol::DebugSetScore::GetClassData
PUBLIC	?GetMetadata@DebugSetScore@SC2APIProtocol@@UEBA?AUMetadata@protobuf@google@@XZ ; SC2APIProtocol::DebugSetScore::GetMetadata
PUBLIC	??_7DebugSetScore@SC2APIProtocol@@6B@		; SC2APIProtocol::DebugSetScore::`vftable'
PUBLIC	??_GDebugSetScore@SC2APIProtocol@@UEAAPEAXI@Z	; SC2APIProtocol::DebugSetScore::`scalar deleting destructor'
PUBLIC	?New@DebugEndGame@SC2APIProtocol@@UEBAPEAV12@PEAVArena@protobuf@google@@@Z ; SC2APIProtocol::DebugEndGame::New
PUBLIC	?MergeImpl@DebugEndGame@SC2APIProtocol@@CAXAEAVMessage@protobuf@google@@AEBV345@@Z ; SC2APIProtocol::DebugEndGame::MergeImpl
PUBLIC	?Clear@DebugEndGame@SC2APIProtocol@@UEAAXXZ	; SC2APIProtocol::DebugEndGame::Clear
PUBLIC	?IsInitialized@DebugEndGame@SC2APIProtocol@@UEBA_NXZ ; SC2APIProtocol::DebugEndGame::IsInitialized
PUBLIC	?ByteSizeLong@DebugEndGame@SC2APIProtocol@@UEBA_KXZ ; SC2APIProtocol::DebugEndGame::ByteSizeLong
PUBLIC	?_InternalParse@DebugEndGame@SC2APIProtocol@@UEAAPEBDPEBDPEAVParseContext@internal@protobuf@google@@@Z ; SC2APIProtocol::DebugEndGame::_InternalParse
PUBLIC	?_InternalSerialize@DebugEndGame@SC2APIProtocol@@UEBAPEAEPEAEPEAVEpsCopyOutputStream@io@protobuf@google@@@Z ; SC2APIProtocol::DebugEndGame::_InternalSerialize
PUBLIC	?GetCachedSize@DebugEndGame@SC2APIProtocol@@UEBAHXZ ; SC2APIProtocol::DebugEndGame::GetCachedSize
PUBLIC	?SetCachedSize@DebugEndGame@SC2APIProtocol@@EEBAXH@Z ; SC2APIProtocol::DebugEndGame::SetCachedSize
PUBLIC	?_class_data_@DebugEndGame@SC2APIProtocol@@2UClassData@Message@protobuf@google@@B ; SC2APIProtocol::DebugEndGame::_class_data_
PUBLIC	?GetClassData@DebugEndGame@SC2APIProtocol@@UEBAPEBUClassData@Message@protobuf@google@@XZ ; SC2APIProtocol::DebugEndGame::GetClassData
PUBLIC	?GetMetadata@DebugEndGame@SC2APIProtocol@@UEBA?AUMetadata@protobuf@google@@XZ ; SC2APIProtocol::DebugEndGame::GetMetadata
PUBLIC	??_7DebugEndGame@SC2APIProtocol@@6B@		; SC2APIProtocol::DebugEndGame::`vftable'
PUBLIC	??_GDebugEndGame@SC2APIProtocol@@UEAAPEAXI@Z	; SC2APIProtocol::DebugEndGame::`scalar deleting destructor'
PUBLIC	?New@DebugSetUnitValue@SC2APIProtocol@@UEBAPEAV12@PEAVArena@protobuf@google@@@Z ; SC2APIProtocol::DebugSetUnitValue::New
PUBLIC	?MergeImpl@DebugSetUnitValue@SC2APIProtocol@@CAXAEAVMessage@protobuf@google@@AEBV345@@Z ; SC2APIProtocol::DebugSetUnitValue::MergeImpl
PUBLIC	?Clear@DebugSetUnitValue@SC2APIProtocol@@UEAAXXZ ; SC2APIProtocol::DebugSetUnitValue::Clear
PUBLIC	?IsInitialized@DebugSetUnitValue@SC2APIProtocol@@UEBA_NXZ ; SC2APIProtocol::DebugSetUnitValue::IsInitialized
PUBLIC	?ByteSizeLong@DebugSetUnitValue@SC2APIProtocol@@UEBA_KXZ ; SC2APIProtocol::DebugSetUnitValue::ByteSizeLong
PUBLIC	?_InternalParse@DebugSetUnitValue@SC2APIProtocol@@UEAAPEBDPEBDPEAVParseContext@internal@protobuf@google@@@Z ; SC2APIProtocol::DebugSetUnitValue::_InternalParse
PUBLIC	?_InternalSerialize@DebugSetUnitValue@SC2APIProtocol@@UEBAPEAEPEAEPEAVEpsCopyOutputStream@io@protobuf@google@@@Z ; SC2APIProtocol::DebugSetUnitValue::_InternalSerialize
PUBLIC	?GetCachedSize@DebugSetUnitValue@SC2APIProtocol@@UEBAHXZ ; SC2APIProtocol::DebugSetUnitValue::GetCachedSize
PUBLIC	?SetCachedSize@DebugSetUnitValue@SC2APIProtocol@@EEBAXH@Z ; SC2APIProtocol::DebugSetUnitValue::SetCachedSize
PUBLIC	?_class_data_@DebugSetUnitValue@SC2APIProtocol@@2UClassData@Message@protobuf@google@@B ; SC2APIProtocol::DebugSetUnitValue::_class_data_
PUBLIC	?GetClassData@DebugSetUnitValue@SC2APIProtocol@@UEBAPEBUClassData@Message@protobuf@google@@XZ ; SC2APIProtocol::DebugSetUnitValue::GetClassData
PUBLIC	?GetMetadata@DebugSetUnitValue@SC2APIProtocol@@UEBA?AUMetadata@protobuf@google@@XZ ; SC2APIProtocol::DebugSetUnitValue::GetMetadata
PUBLIC	??_7DebugSetUnitValue@SC2APIProtocol@@6B@	; SC2APIProtocol::DebugSetUnitValue::`vftable'
PUBLIC	??_GDebugSetUnitValue@SC2APIProtocol@@UEAAPEAXI@Z ; SC2APIProtocol::DebugSetUnitValue::`scalar deleting destructor'
PUBLIC	?OnDemandRegisterArenaDtor@MessageLite@protobuf@google@@UEAAXPEAVArena@23@@Z ; google::protobuf::MessageLite::OnDemandRegisterArenaDtor
EXTRN	??_EDebugCommand@SC2APIProtocol@@UEAAPEAXI@Z:PROC ; SC2APIProtocol::DebugCommand::`vector deleting destructor'
EXTRN	??_ELine@SC2APIProtocol@@UEAAPEAXI@Z:PROC	; SC2APIProtocol::Line::`vector deleting destructor'
EXTRN	??_EColor@SC2APIProtocol@@UEAAPEAXI@Z:PROC	; SC2APIProtocol::Color::`vector deleting destructor'
EXTRN	??_EDebugText@SC2APIProtocol@@UEAAPEAXI@Z:PROC	; SC2APIProtocol::DebugText::`vector deleting destructor'
EXTRN	??_EDebugLine@SC2APIProtocol@@UEAAPEAXI@Z:PROC	; SC2APIProtocol::DebugLine::`vector deleting destructor'
EXTRN	?MergeFrom@Message@protobuf@google@@UEAAXAEBV123@@Z:PROC ; google::protobuf::Message::MergeFrom
EXTRN	?InitializationErrorString@Message@protobuf@google@@UEBA?AV?$basic_string@DU?$char_traits@D@std@@V?$allocator@D@2@@std@@XZ:PROC ; google::protobuf::Message::InitializationErrorString
EXTRN	?SpaceUsedLong@Message@protobuf@google@@UEBA_KXZ:PROC ; google::protobuf::Message::SpaceUsedLong
EXTRN	?GetTypeName@Message@protobuf@google@@UEBA?AV?$basic_string@DU?$char_traits@D@std@@V?$allocator@D@2@@std@@XZ:PROC ; google::protobuf::Message::GetTypeName
EXTRN	?CheckTypeAndMergeFrom@Message@protobuf@google@@UEAAXAEBVMessageLite@23@@Z:PROC ; google::protobuf::Message::CheckTypeAndMergeFrom
EXTRN	?CopyWithSourceCheck@Message@protobuf@google@@KAXAEAV123@AEBV123@@Z:PROC ; google::protobuf::Message::CopyWithSourceCheck
EXTRN	??_EDebugBox@SC2APIProtocol@@UEAAPEAXI@Z:PROC	; SC2APIProtocol::DebugBox::`vector deleting destructor'
EXTRN	??_EDebugSphere@SC2APIProtocol@@UEAAPEAXI@Z:PROC ; SC2APIProtocol::DebugSphere::`vector deleting destructor'
EXTRN	??_EDebugCreateUnit@SC2APIProtocol@@UEAAPEAXI@Z:PROC ; SC2APIProtocol::DebugCreateUnit::`vector deleting destructor'
EXTRN	??_EDebugTestProcess@SC2APIProtocol@@UEAAPEAXI@Z:PROC ; SC2APIProtocol::DebugTestProcess::`vector deleting destructor'
EXTRN	??_7type_info@@6B@:BYTE				; type_info::`vftable'
EXTRN	??_EDebugSetScore@SC2APIProtocol@@UEAAPEAXI@Z:PROC ; SC2APIProtocol::DebugSetScore::`vector deleting destructor'
EXTRN	??_EDebugEndGame@SC2APIProtocol@@UEAAPEAXI@Z:PROC ; SC2APIProtocol::DebugEndGame::`vector deleting destructor'
EXTRN	??_EDebugSetUnitValue@SC2APIProtocol@@UEAAPEAXI@Z:PROC ; SC2APIProtocol::DebugSetUnitValue::`vector deleting destructor'
EXTRN	?fixed_address_empty_string@internal@protobuf@google@@3V?$ExplicitlyConstructed@V?$basic_string@DU?$char_traits@D@std@@V?$allocator@D@2@@std@@$07@123@A:BYTE ; google::protobuf::internal::fixed_address_empty_string
EXTRN	?descriptor_table_s2clientprotocol_2fcommon_2eproto@@3UDescriptorTable@internal@protobuf@google@@B:BYTE ; descriptor_table_s2clientprotocol_2fcommon_2eproto
_BSS	SEGMENT
?descriptor_table_s2clientprotocol_2fdebug_2eproto_once@@3Uonce_flag@std@@A DQ 01H DUP (?) ; descriptor_table_s2clientprotocol_2fdebug_2eproto_once
?file_level_metadata_s2clientprotocol_2fdebug_2eproto@@3PAUMetadata@protobuf@google@@A DB 0e0H DUP (?) ; file_level_metadata_s2clientprotocol_2fdebug_2eproto
?file_level_enum_descriptors_s2clientprotocol_2fdebug_2eproto@@3PAPEBVEnumDescriptor@protobuf@google@@A DQ 04H DUP (?) ; file_level_enum_descriptors_s2clientprotocol_2fdebug_2eproto
_BSS	ENDS
;	COMDAT ??_7DebugSetUnitValue@SC2APIProtocol@@6B@
CONST	SEGMENT
??_7DebugSetUnitValue@SC2APIProtocol@@6B@ DQ FLAT:??_R4DebugSetUnitValue@SC2APIProtocol@@6B@ ; SC2APIProtocol::DebugSetUnitValue::`vftable'
	DQ	FLAT:??_EDebugSetUnitValue@SC2APIProtocol@@UEAAPEAXI@Z
	DQ	FLAT:?GetTypeName@Message@protobuf@google@@UEBA?AV?$basic_string@DU?$char_traits@D@std@@V?$allocator@D@2@@std@@XZ
	DQ	FLAT:?New@DebugSetUnitValue@SC2APIProtocol@@UEBAPEAV12@PEAVArena@protobuf@google@@@Z
	DQ	FLAT:?Clear@DebugSetUnitValue@SC2APIProtocol@@UEAAXXZ
	DQ	FLAT:?IsInitialized@DebugSetUnitValue@SC2APIProtocol@@UEBA_NXZ
	DQ	FLAT:?InitializationErrorString@Message@protobuf@google@@UEBA?AV?$basic_string@DU?$char_traits@D@std@@V?$allocator@D@2@@std@@XZ
	DQ	FLAT:?CheckTypeAndMergeFrom@Message@protobuf@google@@UEAAXAEBVMessageLite@23@@Z
	DQ	FLAT:?ByteSizeLong@DebugSetUnitValue@SC2APIProtocol@@UEBA_KXZ
	DQ	FLAT:?GetCachedSize@DebugSetUnitValue@SC2APIProtocol@@UEBAHXZ
	DQ	FLAT:?_InternalParse@DebugSetUnitValue@SC2APIProtocol@@UEAAPEBDPEBDPEAVParseContext@internal@protobuf@google@@@Z
	DQ	FLAT:?OnDemandRegisterArenaDtor@MessageLite@protobuf@google@@UEAAXPEAVArena@23@@Z
	DQ	FLAT:?_InternalSerialize@DebugSetUnitValue@SC2APIProtocol@@UEBAPEAEPEAEPEAVEpsCopyOutputStream@io@protobuf@google@@@Z
	DQ	FLAT:?MergeFrom@Message@protobuf@google@@UEAAXAEBV123@@Z
	DQ	FLAT:?SpaceUsedLong@Message@protobuf@google@@UEBA_KXZ
	DQ	FLAT:?SetCachedSize@DebugSetUnitValue@SC2APIProtocol@@EEBAXH@Z
	DQ	FLAT:?GetMetadata@DebugSetUnitValue@SC2APIProtocol@@UEBA?AUMetadata@protobuf@google@@XZ
	DQ	FLAT:?GetClassData@DebugSetUnitValue@SC2APIProtocol@@UEBAPEBUClassData@Message@protobuf@google@@XZ
CONST	ENDS
;	COMDAT ??_7DebugEndGame@SC2APIProtocol@@6B@
CONST	SEGMENT
??_7DebugEndGame@SC2APIProtocol@@6B@ DQ FLAT:??_R4DebugEndGame@SC2APIProtocol@@6B@ ; SC2APIProtocol::DebugEndGame::`vftable'
	DQ	FLAT:??_EDebugEndGame@SC2APIProtocol@@UEAAPEAXI@Z
	DQ	FLAT:?GetTypeName@Message@protobuf@google@@UEBA?AV?$basic_string@DU?$char_traits@D@std@@V?$allocator@D@2@@std@@XZ
	DQ	FLAT:?New@DebugEndGame@SC2APIProtocol@@UEBAPEAV12@PEAVArena@protobuf@google@@@Z
	DQ	FLAT:?Clear@DebugEndGame@SC2APIProtocol@@UEAAXXZ
	DQ	FLAT:?IsInitialized@DebugEndGame@SC2APIProtocol@@UEBA_NXZ
	DQ	FLAT:?InitializationErrorString@Message@protobuf@google@@UEBA?AV?$basic_string@DU?$char_traits@D@std@@V?$allocator@D@2@@std@@XZ
	DQ	FLAT:?CheckTypeAndMergeFrom@Message@protobuf@google@@UEAAXAEBVMessageLite@23@@Z
	DQ	FLAT:?ByteSizeLong@DebugEndGame@SC2APIProtocol@@UEBA_KXZ
	DQ	FLAT:?GetCachedSize@DebugEndGame@SC2APIProtocol@@UEBAHXZ
	DQ	FLAT:?_InternalParse@DebugEndGame@SC2APIProtocol@@UEAAPEBDPEBDPEAVParseContext@internal@protobuf@google@@@Z
	DQ	FLAT:?OnDemandRegisterArenaDtor@MessageLite@protobuf@google@@UEAAXPEAVArena@23@@Z
	DQ	FLAT:?_InternalSerialize@DebugEndGame@SC2APIProtocol@@UEBAPEAEPEAEPEAVEpsCopyOutputStream@io@protobuf@google@@@Z
	DQ	FLAT:?MergeFrom@Message@protobuf@google@@UEAAXAEBV123@@Z
	DQ	FLAT:?SpaceUsedLong@Message@protobuf@google@@UEBA_KXZ
	DQ	FLAT:?SetCachedSize@DebugEndGame@SC2APIProtocol@@EEBAXH@Z
	DQ	FLAT:?GetMetadata@DebugEndGame@SC2APIProtocol@@UEBA?AUMetadata@protobuf@google@@XZ
	DQ	FLAT:?GetClassData@DebugEndGame@SC2APIProtocol@@UEBAPEBUClassData@Message@protobuf@google@@XZ
CONST	ENDS
;	COMDAT ??_7DebugSetScore@SC2APIProtocol@@6B@
CONST	SEGMENT
??_7DebugSetScore@SC2APIProtocol@@6B@ DQ FLAT:??_R4DebugSetScore@SC2APIProtocol@@6B@ ; SC2APIProtocol::DebugSetScore::`vftable'
	DQ	FLAT:??_EDebugSetScore@SC2APIProtocol@@UEAAPEAXI@Z
	DQ	FLAT:?GetTypeName@Message@protobuf@google@@UEBA?AV?$basic_string@DU?$char_traits@D@std@@V?$allocator@D@2@@std@@XZ
	DQ	FLAT:?New@DebugSetScore@SC2APIProtocol@@UEBAPEAV12@PEAVArena@protobuf@google@@@Z
	DQ	FLAT:?Clear@DebugSetScore@SC2APIProtocol@@UEAAXXZ
	DQ	FLAT:?IsInitialized@DebugSetScore@SC2APIProtocol@@UEBA_NXZ
	DQ	FLAT:?InitializationErrorString@Message@protobuf@google@@UEBA?AV?$basic_string@DU?$char_traits@D@std@@V?$allocator@D@2@@std@@XZ
	DQ	FLAT:?CheckTypeAndMergeFrom@Message@protobuf@google@@UEAAXAEBVMessageLite@23@@Z
	DQ	FLAT:?ByteSizeLong@DebugSetScore@SC2APIProtocol@@UEBA_KXZ
	DQ	FLAT:?GetCachedSize@DebugSetScore@SC2APIProtocol@@UEBAHXZ
	DQ	FLAT:?_InternalParse@DebugSetScore@SC2APIProtocol@@UEAAPEBDPEBDPEAVParseContext@internal@protobuf@google@@@Z
	DQ	FLAT:?OnDemandRegisterArenaDtor@MessageLite@protobuf@google@@UEAAXPEAVArena@23@@Z
	DQ	FLAT:?_InternalSerialize@DebugSetScore@SC2APIProtocol@@UEBAPEAEPEAEPEAVEpsCopyOutputStream@io@protobuf@google@@@Z
	DQ	FLAT:?MergeFrom@Message@protobuf@google@@UEAAXAEBV123@@Z
	DQ	FLAT:?SpaceUsedLong@Message@protobuf@google@@UEBA_KXZ
	DQ	FLAT:?SetCachedSize@DebugSetScore@SC2APIProtocol@@EEBAXH@Z
	DQ	FLAT:?GetMetadata@DebugSetScore@SC2APIProtocol@@UEBA?AUMetadata@protobuf@google@@XZ
	DQ	FLAT:?GetClassData@DebugSetScore@SC2APIProtocol@@UEBAPEBUClassData@Message@protobuf@google@@XZ
CONST	ENDS
;	COMDAT ??_7DebugTestProcess@SC2APIProtocol@@6B@
CONST	SEGMENT
??_7DebugTestProcess@SC2APIProtocol@@6B@ DQ FLAT:??_R4DebugTestProcess@SC2APIProtocol@@6B@ ; SC2APIProtocol::DebugTestProcess::`vftable'
	DQ	FLAT:??_EDebugTestProcess@SC2APIProtocol@@UEAAPEAXI@Z
	DQ	FLAT:?GetTypeName@Message@protobuf@google@@UEBA?AV?$basic_string@DU?$char_traits@D@std@@V?$allocator@D@2@@std@@XZ
	DQ	FLAT:?New@DebugTestProcess@SC2APIProtocol@@UEBAPEAV12@PEAVArena@protobuf@google@@@Z
	DQ	FLAT:?Clear@DebugTestProcess@SC2APIProtocol@@UEAAXXZ
	DQ	FLAT:?IsInitialized@DebugTestProcess@SC2APIProtocol@@UEBA_NXZ
	DQ	FLAT:?InitializationErrorString@Message@protobuf@google@@UEBA?AV?$basic_string@DU?$char_traits@D@std@@V?$allocator@D@2@@std@@XZ
	DQ	FLAT:?CheckTypeAndMergeFrom@Message@protobuf@google@@UEAAXAEBVMessageLite@23@@Z
	DQ	FLAT:?ByteSizeLong@DebugTestProcess@SC2APIProtocol@@UEBA_KXZ
	DQ	FLAT:?GetCachedSize@DebugTestProcess@SC2APIProtocol@@UEBAHXZ
	DQ	FLAT:?_InternalParse@DebugTestProcess@SC2APIProtocol@@UEAAPEBDPEBDPEAVParseContext@internal@protobuf@google@@@Z
	DQ	FLAT:?OnDemandRegisterArenaDtor@MessageLite@protobuf@google@@UEAAXPEAVArena@23@@Z
	DQ	FLAT:?_InternalSerialize@DebugTestProcess@SC2APIProtocol@@UEBAPEAEPEAEPEAVEpsCopyOutputStream@io@protobuf@google@@@Z
	DQ	FLAT:?MergeFrom@Message@protobuf@google@@UEAAXAEBV123@@Z
	DQ	FLAT:?SpaceUsedLong@Message@protobuf@google@@UEBA_KXZ
	DQ	FLAT:?SetCachedSize@DebugTestProcess@SC2APIProtocol@@EEBAXH@Z
	DQ	FLAT:?GetMetadata@DebugTestProcess@SC2APIProtocol@@UEBA?AUMetadata@protobuf@google@@XZ
	DQ	FLAT:?GetClassData@DebugTestProcess@SC2APIProtocol@@UEBAPEBUClassData@Message@protobuf@google@@XZ
CONST	ENDS
;	COMDAT ??_7DebugCreateUnit@SC2APIProtocol@@6B@
CONST	SEGMENT
??_7DebugCreateUnit@SC2APIProtocol@@6B@ DQ FLAT:??_R4DebugCreateUnit@SC2APIProtocol@@6B@ ; SC2APIProtocol::DebugCreateUnit::`vftable'
	DQ	FLAT:??_EDebugCreateUnit@SC2APIProtocol@@UEAAPEAXI@Z
	DQ	FLAT:?GetTypeName@Message@protobuf@google@@UEBA?AV?$basic_string@DU?$char_traits@D@std@@V?$allocator@D@2@@std@@XZ
	DQ	FLAT:?New@DebugCreateUnit@SC2APIProtocol@@UEBAPEAV12@PEAVArena@protobuf@google@@@Z
	DQ	FLAT:?Clear@DebugCreateUnit@SC2APIProtocol@@UEAAXXZ
	DQ	FLAT:?IsInitialized@DebugCreateUnit@SC2APIProtocol@@UEBA_NXZ
	DQ	FLAT:?InitializationErrorString@Message@protobuf@google@@UEBA?AV?$basic_string@DU?$char_traits@D@std@@V?$allocator@D@2@@std@@XZ
	DQ	FLAT:?CheckTypeAndMergeFrom@Message@protobuf@google@@UEAAXAEBVMessageLite@23@@Z
	DQ	FLAT:?ByteSizeLong@DebugCreateUnit@SC2APIProtocol@@UEBA_KXZ
	DQ	FLAT:?GetCachedSize@DebugCreateUnit@SC2APIProtocol@@UEBAHXZ
	DQ	FLAT:?_InternalParse@DebugCreateUnit@SC2APIProtocol@@UEAAPEBDPEBDPEAVParseContext@internal@protobuf@google@@@Z
	DQ	FLAT:?OnDemandRegisterArenaDtor@MessageLite@protobuf@google@@UEAAXPEAVArena@23@@Z
	DQ	FLAT:?_InternalSerialize@DebugCreateUnit@SC2APIProtocol@@UEBAPEAEPEAEPEAVEpsCopyOutputStream@io@protobuf@google@@@Z
	DQ	FLAT:?MergeFrom@Message@protobuf@google@@UEAAXAEBV123@@Z
	DQ	FLAT:?SpaceUsedLong@Message@protobuf@google@@UEBA_KXZ
	DQ	FLAT:?SetCachedSize@DebugCreateUnit@SC2APIProtocol@@EEBAXH@Z
	DQ	FLAT:?GetMetadata@DebugCreateUnit@SC2APIProtocol@@UEBA?AUMetadata@protobuf@google@@XZ
	DQ	FLAT:?GetClassData@DebugCreateUnit@SC2APIProtocol@@UEBAPEBUClassData@Message@protobuf@google@@XZ
CONST	ENDS
;	COMDAT ??_7DebugSphere@SC2APIProtocol@@6B@
CONST	SEGMENT
??_7DebugSphere@SC2APIProtocol@@6B@ DQ FLAT:??_R4DebugSphere@SC2APIProtocol@@6B@ ; SC2APIProtocol::DebugSphere::`vftable'
	DQ	FLAT:??_EDebugSphere@SC2APIProtocol@@UEAAPEAXI@Z
	DQ	FLAT:?GetTypeName@Message@protobuf@google@@UEBA?AV?$basic_string@DU?$char_traits@D@std@@V?$allocator@D@2@@std@@XZ
	DQ	FLAT:?New@DebugSphere@SC2APIProtocol@@UEBAPEAV12@PEAVArena@protobuf@google@@@Z
	DQ	FLAT:?Clear@DebugSphere@SC2APIProtocol@@UEAAXXZ
	DQ	FLAT:?IsInitialized@DebugSphere@SC2APIProtocol@@UEBA_NXZ
	DQ	FLAT:?InitializationErrorString@Message@protobuf@google@@UEBA?AV?$basic_string@DU?$char_traits@D@std@@V?$allocator@D@2@@std@@XZ
	DQ	FLAT:?CheckTypeAndMergeFrom@Message@protobuf@google@@UEAAXAEBVMessageLite@23@@Z
	DQ	FLAT:?ByteSizeLong@DebugSphere@SC2APIProtocol@@UEBA_KXZ
	DQ	FLAT:?GetCachedSize@DebugSphere@SC2APIProtocol@@UEBAHXZ
	DQ	FLAT:?_InternalParse@DebugSphere@SC2APIProtocol@@UEAAPEBDPEBDPEAVParseContext@internal@protobuf@google@@@Z
	DQ	FLAT:?OnDemandRegisterArenaDtor@MessageLite@protobuf@google@@UEAAXPEAVArena@23@@Z
	DQ	FLAT:?_InternalSerialize@DebugSphere@SC2APIProtocol@@UEBAPEAEPEAEPEAVEpsCopyOutputStream@io@protobuf@google@@@Z
	DQ	FLAT:?MergeFrom@Message@protobuf@google@@UEAAXAEBV123@@Z
	DQ	FLAT:?SpaceUsedLong@Message@protobuf@google@@UEBA_KXZ
	DQ	FLAT:?SetCachedSize@DebugSphere@SC2APIProtocol@@EEBAXH@Z
	DQ	FLAT:?GetMetadata@DebugSphere@SC2APIProtocol@@UEBA?AUMetadata@protobuf@google@@XZ
	DQ	FLAT:?GetClassData@DebugSphere@SC2APIProtocol@@UEBAPEBUClassData@Message@protobuf@google@@XZ
CONST	ENDS
;	COMDAT ??_7DebugBox@SC2APIProtocol@@6B@
CONST	SEGMENT
??_7DebugBox@SC2APIProtocol@@6B@ DQ FLAT:??_R4DebugBox@SC2APIProtocol@@6B@ ; SC2APIProtocol::DebugBox::`vftable'
	DQ	FLAT:??_EDebugBox@SC2APIProtocol@@UEAAPEAXI@Z
	DQ	FLAT:?GetTypeName@Message@protobuf@google@@UEBA?AV?$basic_string@DU?$char_traits@D@std@@V?$allocator@D@2@@std@@XZ
	DQ	FLAT:?New@DebugBox@SC2APIProtocol@@UEBAPEAV12@PEAVArena@protobuf@google@@@Z
	DQ	FLAT:?Clear@DebugBox@SC2APIProtocol@@UEAAXXZ
	DQ	FLAT:?IsInitialized@DebugBox@SC2APIProtocol@@UEBA_NXZ
	DQ	FLAT:?InitializationErrorString@Message@protobuf@google@@UEBA?AV?$basic_string@DU?$char_traits@D@std@@V?$allocator@D@2@@std@@XZ
	DQ	FLAT:?CheckTypeAndMergeFrom@Message@protobuf@google@@UEAAXAEBVMessageLite@23@@Z
	DQ	FLAT:?ByteSizeLong@DebugBox@SC2APIProtocol@@UEBA_KXZ
	DQ	FLAT:?GetCachedSize@DebugBox@SC2APIProtocol@@UEBAHXZ
	DQ	FLAT:?_InternalParse@DebugBox@SC2APIProtocol@@UEAAPEBDPEBDPEAVParseContext@internal@protobuf@google@@@Z
	DQ	FLAT:?OnDemandRegisterArenaDtor@MessageLite@protobuf@google@@UEAAXPEAVArena@23@@Z
	DQ	FLAT:?_InternalSerialize@DebugBox@SC2APIProtocol@@UEBAPEAEPEAEPEAVEpsCopyOutputStream@io@protobuf@google@@@Z
	DQ	FLAT:?MergeFrom@Message@protobuf@google@@UEAAXAEBV123@@Z
	DQ	FLAT:?SpaceUsedLong@Message@protobuf@google@@UEBA_KXZ
	DQ	FLAT:?SetCachedSize@DebugBox@SC2APIProtocol@@EEBAXH@Z
	DQ	FLAT:?GetMetadata@DebugBox@SC2APIProtocol@@UEBA?AUMetadata@protobuf@google@@XZ
	DQ	FLAT:?GetClassData@DebugBox@SC2APIProtocol@@UEBAPEBUClassData@Message@protobuf@google@@XZ
CONST	ENDS
;	COMDAT ??_7DebugLine@SC2APIProtocol@@6B@
CONST	SEGMENT
??_7DebugLine@SC2APIProtocol@@6B@ DQ FLAT:??_R4DebugLine@SC2APIProtocol@@6B@ ; SC2APIProtocol::DebugLine::`vftable'
	DQ	FLAT:??_EDebugLine@SC2APIProtocol@@UEAAPEAXI@Z
	DQ	FLAT:?GetTypeName@Message@protobuf@google@@UEBA?AV?$basic_string@DU?$char_traits@D@std@@V?$allocator@D@2@@std@@XZ
	DQ	FLAT:?New@DebugLine@SC2APIProtocol@@UEBAPEAV12@PEAVArena@protobuf@google@@@Z
	DQ	FLAT:?Clear@DebugLine@SC2APIProtocol@@UEAAXXZ
	DQ	FLAT:?IsInitialized@DebugLine@SC2APIProtocol@@UEBA_NXZ
	DQ	FLAT:?InitializationErrorString@Message@protobuf@google@@UEBA?AV?$basic_string@DU?$char_traits@D@std@@V?$allocator@D@2@@std@@XZ
	DQ	FLAT:?CheckTypeAndMergeFrom@Message@protobuf@google@@UEAAXAEBVMessageLite@23@@Z
	DQ	FLAT:?ByteSizeLong@DebugLine@SC2APIProtocol@@UEBA_KXZ
	DQ	FLAT:?GetCachedSize@DebugLine@SC2APIProtocol@@UEBAHXZ
	DQ	FLAT:?_InternalParse@DebugLine@SC2APIProtocol@@UEAAPEBDPEBDPEAVParseContext@internal@protobuf@google@@@Z
	DQ	FLAT:?OnDemandRegisterArenaDtor@MessageLite@protobuf@google@@UEAAXPEAVArena@23@@Z
	DQ	FLAT:?_InternalSerialize@DebugLine@SC2APIProtocol@@UEBAPEAEPEAEPEAVEpsCopyOutputStream@io@protobuf@google@@@Z
	DQ	FLAT:?MergeFrom@Message@protobuf@google@@UEAAXAEBV123@@Z
	DQ	FLAT:?SpaceUsedLong@Message@protobuf@google@@UEBA_KXZ
	DQ	FLAT:?SetCachedSize@DebugLine@SC2APIProtocol@@EEBAXH@Z
	DQ	FLAT:?GetMetadata@DebugLine@SC2APIProtocol@@UEBA?AUMetadata@protobuf@google@@XZ
	DQ	FLAT:?GetClassData@DebugLine@SC2APIProtocol@@UEBAPEBUClassData@Message@protobuf@google@@XZ
CONST	ENDS
;	COMDAT ??_R1A@?0A@EA@Line@SC2APIProtocol@@8
rdata$r	SEGMENT
??_R1A@?0A@EA@Line@SC2APIProtocol@@8 DD imagerel ??_R0?AVLine@SC2APIProtocol@@@8 ; SC2APIProtocol::Line::`RTTI Base Class Descriptor at (0,-1,0,64)'
	DD	02H
	DD	00H
	DD	0ffffffffH
	DD	00H
	DD	040H
	DD	imagerel ??_R3Line@SC2APIProtocol@@8
rdata$r	ENDS
;	COMDAT ??_R2Line@SC2APIProtocol@@8
rdata$r	SEGMENT
??_R2Line@SC2APIProtocol@@8 DD imagerel ??_R1A@?0A@EA@Line@SC2APIProtocol@@8 ; SC2APIProtocol::Line::`RTTI Base Class Array'
	DD	imagerel ??_R1A@?0A@EA@Message@protobuf@google@@8
	DD	imagerel ??_R1A@?0A@EA@MessageLite@protobuf@google@@8
	ORG $+3
rdata$r	ENDS
;	COMDAT ??_R3Line@SC2APIProtocol@@8
rdata$r	SEGMENT
??_R3Line@SC2APIProtocol@@8 DD 00H			; SC2APIProtocol::Line::`RTTI Class Hierarchy Descriptor'
	DD	00H
	DD	03H
	DD	imagerel ??_R2Line@SC2APIProtocol@@8
rdata$r	ENDS
;	COMDAT ??_R4Line@SC2APIProtocol@@6B@
rdata$r	SEGMENT
??_R4Line@SC2APIProtocol@@6B@ DD 01H			; SC2APIProtocol::Line::`RTTI Complete Object Locator'
	DD	00H
	DD	00H
	DD	imagerel ??_R0?AVLine@SC2APIProtocol@@@8
	DD	imagerel ??_R3Line@SC2APIProtocol@@8
	DD	imagerel ??_R4Line@SC2APIProtocol@@6B@
rdata$r	ENDS
;	COMDAT ??_R1A@?0A@EA@DebugText@SC2APIProtocol@@8
rdata$r	SEGMENT
??_R1A@?0A@EA@DebugText@SC2APIProtocol@@8 DD imagerel ??_R0?AVDebugText@SC2APIProtocol@@@8 ; SC2APIProtocol::DebugText::`RTTI Base Class Descriptor at (0,-1,0,64)'
	DD	02H
	DD	00H
	DD	0ffffffffH
	DD	00H
	DD	040H
	DD	imagerel ??_R3DebugText@SC2APIProtocol@@8
rdata$r	ENDS
;	COMDAT ??_R2DebugText@SC2APIProtocol@@8
rdata$r	SEGMENT
??_R2DebugText@SC2APIProtocol@@8 DD imagerel ??_R1A@?0A@EA@DebugText@SC2APIProtocol@@8 ; SC2APIProtocol::DebugText::`RTTI Base Class Array'
	DD	imagerel ??_R1A@?0A@EA@Message@protobuf@google@@8
	DD	imagerel ??_R1A@?0A@EA@MessageLite@protobuf@google@@8
	ORG $+3
rdata$r	ENDS
;	COMDAT ??_R3DebugText@SC2APIProtocol@@8
rdata$r	SEGMENT
??_R3DebugText@SC2APIProtocol@@8 DD 00H			; SC2APIProtocol::DebugText::`RTTI Class Hierarchy Descriptor'
	DD	00H
	DD	03H
	DD	imagerel ??_R2DebugText@SC2APIProtocol@@8
rdata$r	ENDS
;	COMDAT ??_R4DebugText@SC2APIProtocol@@6B@
rdata$r	SEGMENT
??_R4DebugText@SC2APIProtocol@@6B@ DD 01H		; SC2APIProtocol::DebugText::`RTTI Complete Object Locator'
	DD	00H
	DD	00H
	DD	imagerel ??_R0?AVDebugText@SC2APIProtocol@@@8
	DD	imagerel ??_R3DebugText@SC2APIProtocol@@8
	DD	imagerel ??_R4DebugText@SC2APIProtocol@@6B@
rdata$r	ENDS
;	COMDAT ??_R1A@?0A@EA@DebugTestProcess@SC2APIProtocol@@8
rdata$r	SEGMENT
??_R1A@?0A@EA@DebugTestProcess@SC2APIProtocol@@8 DD imagerel ??_R0?AVDebugTestProcess@SC2APIProtocol@@@8 ; SC2APIProtocol::DebugTestProcess::`RTTI Base Class Descriptor at (0,-1,0,64)'
	DD	02H
	DD	00H
	DD	0ffffffffH
	DD	00H
	DD	040H
	DD	imagerel ??_R3DebugTestProcess@SC2APIProtocol@@8
rdata$r	ENDS
;	COMDAT ??_R2DebugTestProcess@SC2APIProtocol@@8
rdata$r	SEGMENT
??_R2DebugTestProcess@SC2APIProtocol@@8 DD imagerel ??_R1A@?0A@EA@DebugTestProcess@SC2APIProtocol@@8 ; SC2APIProtocol::DebugTestProcess::`RTTI Base Class Array'
	DD	imagerel ??_R1A@?0A@EA@Message@protobuf@google@@8
	DD	imagerel ??_R1A@?0A@EA@MessageLite@protobuf@google@@8
	ORG $+3
rdata$r	ENDS
;	COMDAT ??_7DebugText@SC2APIProtocol@@6B@
CONST	SEGMENT
??_7DebugText@SC2APIProtocol@@6B@ DQ FLAT:??_R4DebugText@SC2APIProtocol@@6B@ ; SC2APIProtocol::DebugText::`vftable'
	DQ	FLAT:??_EDebugText@SC2APIProtocol@@UEAAPEAXI@Z
	DQ	FLAT:?GetTypeName@Message@protobuf@google@@UEBA?AV?$basic_string@DU?$char_traits@D@std@@V?$allocator@D@2@@std@@XZ
	DQ	FLAT:?New@DebugText@SC2APIProtocol@@UEBAPEAV12@PEAVArena@protobuf@google@@@Z
	DQ	FLAT:?Clear@DebugText@SC2APIProtocol@@UEAAXXZ
	DQ	FLAT:?IsInitialized@DebugText@SC2APIProtocol@@UEBA_NXZ
	DQ	FLAT:?InitializationErrorString@Message@protobuf@google@@UEBA?AV?$basic_string@DU?$char_traits@D@std@@V?$allocator@D@2@@std@@XZ
	DQ	FLAT:?CheckTypeAndMergeFrom@Message@protobuf@google@@UEAAXAEBVMessageLite@23@@Z
	DQ	FLAT:?ByteSizeLong@DebugText@SC2APIProtocol@@UEBA_KXZ
	DQ	FLAT:?GetCachedSize@DebugText@SC2APIProtocol@@UEBAHXZ
	DQ	FLAT:?_InternalParse@DebugText@SC2APIProtocol@@UEAAPEBDPEBDPEAVParseContext@internal@protobuf@google@@@Z
	DQ	FLAT:?OnDemandRegisterArenaDtor@MessageLite@protobuf@google@@UEAAXPEAVArena@23@@Z
	DQ	FLAT:?_InternalSerialize@DebugText@SC2APIProtocol@@UEBAPEAEPEAEPEAVEpsCopyOutputStream@io@protobuf@google@@@Z
	DQ	FLAT:?MergeFrom@Message@protobuf@google@@UEAAXAEBV123@@Z
	DQ	FLAT:?SpaceUsedLong@Message@protobuf@google@@UEBA_KXZ
	DQ	FLAT:?SetCachedSize@DebugText@SC2APIProtocol@@EEBAXH@Z
	DQ	FLAT:?GetMetadata@DebugText@SC2APIProtocol@@UEBA?AUMetadata@protobuf@google@@XZ
	DQ	FLAT:?GetClassData@DebugText@SC2APIProtocol@@UEBAPEBUClassData@Message@protobuf@google@@XZ
CONST	ENDS
;	COMDAT ??_R3DebugTestProcess@SC2APIProtocol@@8
rdata$r	SEGMENT
??_R3DebugTestProcess@SC2APIProtocol@@8 DD 00H		; SC2APIProtocol::DebugTestProcess::`RTTI Class Hierarchy Descriptor'
	DD	00H
	DD	03H
	DD	imagerel ??_R2DebugTestProcess@SC2APIProtocol@@8
rdata$r	ENDS
;	COMDAT ??_R4DebugTestProcess@SC2APIProtocol@@6B@
rdata$r	SEGMENT
??_R4DebugTestProcess@SC2APIProtocol@@6B@ DD 01H	; SC2APIProtocol::DebugTestProcess::`RTTI Complete Object Locator'
	DD	00H
	DD	00H
	DD	imagerel ??_R0?AVDebugTestProcess@SC2APIProtocol@@@8
	DD	imagerel ??_R3DebugTestProcess@SC2APIProtocol@@8
	DD	imagerel ??_R4DebugTestProcess@SC2APIProtocol@@6B@
rdata$r	ENDS
;	COMDAT ??_R1A@?0A@EA@DebugSphere@SC2APIProtocol@@8
rdata$r	SEGMENT
??_R1A@?0A@EA@DebugSphere@SC2APIProtocol@@8 DD imagerel ??_R0?AVDebugSphere@SC2APIProtocol@@@8 ; SC2APIProtocol::DebugSphere::`RTTI Base Class Descriptor at (0,-1,0,64)'
	DD	02H
	DD	00H
	DD	0ffffffffH
	DD	00H
	DD	040H
	DD	imagerel ??_R3DebugSphere@SC2APIProtocol@@8
rdata$r	ENDS
;	COMDAT ??_R2DebugSphere@SC2APIProtocol@@8
rdata$r	SEGMENT
??_R2DebugSphere@SC2APIProtocol@@8 DD imagerel ??_R1A@?0A@EA@DebugSphere@SC2APIProtocol@@8 ; SC2APIProtocol::DebugSphere::`RTTI Base Class Array'
	DD	imagerel ??_R1A@?0A@EA@Message@protobuf@google@@8
	DD	imagerel ??_R1A@?0A@EA@MessageLite@protobuf@google@@8
	ORG $+3
rdata$r	ENDS
;	COMDAT ??_R3DebugSphere@SC2APIProtocol@@8
rdata$r	SEGMENT
??_R3DebugSphere@SC2APIProtocol@@8 DD 00H		; SC2APIProtocol::DebugSphere::`RTTI Class Hierarchy Descriptor'
	DD	00H
	DD	03H
	DD	imagerel ??_R2DebugSphere@SC2APIProtocol@@8
rdata$r	ENDS
;	COMDAT ??_R4DebugSphere@SC2APIProtocol@@6B@
rdata$r	SEGMENT
??_R4DebugSphere@SC2APIProtocol@@6B@ DD 01H		; SC2APIProtocol::DebugSphere::`RTTI Complete Object Locator'
	DD	00H
	DD	00H
	DD	imagerel ??_R0?AVDebugSphere@SC2APIProtocol@@@8
	DD	imagerel ??_R3DebugSphere@SC2APIProtocol@@8
	DD	imagerel ??_R4DebugSphere@SC2APIProtocol@@6B@
rdata$r	ENDS
;	COMDAT ??_R1A@?0A@EA@DebugSetUnitValue@SC2APIProtocol@@8
rdata$r	SEGMENT
??_R1A@?0A@EA@DebugSetUnitValue@SC2APIProtocol@@8 DD imagerel ??_R0?AVDebugSetUnitValue@SC2APIProtocol@@@8 ; SC2APIProtocol::DebugSetUnitValue::`RTTI Base Class Descriptor at (0,-1,0,64)'
	DD	02H
	DD	00H
	DD	0ffffffffH
	DD	00H
	DD	040H
	DD	imagerel ??_R3DebugSetUnitValue@SC2APIProtocol@@8
rdata$r	ENDS
;	COMDAT ??_R2DebugSetUnitValue@SC2APIProtocol@@8
rdata$r	SEGMENT
??_R2DebugSetUnitValue@SC2APIProtocol@@8 DD imagerel ??_R1A@?0A@EA@DebugSetUnitValue@SC2APIProtocol@@8 ; SC2APIProtocol::DebugSetUnitValue::`RTTI Base Class Array'
	DD	imagerel ??_R1A@?0A@EA@Message@protobuf@google@@8
	DD	imagerel ??_R1A@?0A@EA@MessageLite@protobuf@google@@8
	ORG $+3
rdata$r	ENDS
;	COMDAT ??_R3DebugSetUnitValue@SC2APIProtocol@@8
rdata$r	SEGMENT
??_R3DebugSetUnitValue@SC2APIProtocol@@8 DD 00H		; SC2APIProtocol::DebugSetUnitValue::`RTTI Class Hierarchy Descriptor'
	DD	00H
	DD	03H
	DD	imagerel ??_R2DebugSetUnitValue@SC2APIProtocol@@8
rdata$r	ENDS
;	COMDAT ??_R4DebugSetUnitValue@SC2APIProtocol@@6B@
rdata$r	SEGMENT
??_R4DebugSetUnitValue@SC2APIProtocol@@6B@ DD 01H	; SC2APIProtocol::DebugSetUnitValue::`RTTI Complete Object Locator'
	DD	00H
	DD	00H
	DD	imagerel ??_R0?AVDebugSetUnitValue@SC2APIProtocol@@@8
	DD	imagerel ??_R3DebugSetUnitValue@SC2APIProtocol@@8
	DD	imagerel ??_R4DebugSetUnitValue@SC2APIProtocol@@6B@
rdata$r	ENDS
;	COMDAT ??_R1A@?0A@EA@DebugSetScore@SC2APIProtocol@@8
rdata$r	SEGMENT
??_R1A@?0A@EA@DebugSetScore@SC2APIProtocol@@8 DD imagerel ??_R0?AVDebugSetScore@SC2APIProtocol@@@8 ; SC2APIProtocol::DebugSetScore::`RTTI Base Class Descriptor at (0,-1,0,64)'
	DD	02H
	DD	00H
	DD	0ffffffffH
	DD	00H
	DD	040H
	DD	imagerel ??_R3DebugSetScore@SC2APIProtocol@@8
rdata$r	ENDS
;	COMDAT ??_R2DebugSetScore@SC2APIProtocol@@8
rdata$r	SEGMENT
??_R2DebugSetScore@SC2APIProtocol@@8 DD imagerel ??_R1A@?0A@EA@DebugSetScore@SC2APIProtocol@@8 ; SC2APIProtocol::DebugSetScore::`RTTI Base Class Array'
	DD	imagerel ??_R1A@?0A@EA@Message@protobuf@google@@8
	DD	imagerel ??_R1A@?0A@EA@MessageLite@protobuf@google@@8
	ORG $+3
rdata$r	ENDS
;	COMDAT ??_R3DebugSetScore@SC2APIProtocol@@8
rdata$r	SEGMENT
??_R3DebugSetScore@SC2APIProtocol@@8 DD 00H		; SC2APIProtocol::DebugSetScore::`RTTI Class Hierarchy Descriptor'
	DD	00H
	DD	03H
	DD	imagerel ??_R2DebugSetScore@SC2APIProtocol@@8
rdata$r	ENDS
;	COMDAT ??_R4DebugSetScore@SC2APIProtocol@@6B@
rdata$r	SEGMENT
??_R4DebugSetScore@SC2APIProtocol@@6B@ DD 01H		; SC2APIProtocol::DebugSetScore::`RTTI Complete Object Locator'
	DD	00H
	DD	00H
	DD	imagerel ??_R0?AVDebugSetScore@SC2APIProtocol@@@8
	DD	imagerel ??_R3DebugSetScore@SC2APIProtocol@@8
	DD	imagerel ??_R4DebugSetScore@SC2APIProtocol@@6B@
rdata$r	ENDS
;	COMDAT ??_R1A@?0A@EA@DebugLine@SC2APIProtocol@@8
rdata$r	SEGMENT
??_R1A@?0A@EA@DebugLine@SC2APIProtocol@@8 DD imagerel ??_R0?AVDebugLine@SC2APIProtocol@@@8 ; SC2APIProtocol::DebugLine::`RTTI Base Class Descriptor at (0,-1,0,64)'
	DD	02H
	DD	00H
	DD	0ffffffffH
	DD	00H
	DD	040H
	DD	imagerel ??_R3DebugLine@SC2APIProtocol@@8
rdata$r	ENDS
;	COMDAT ??_R2DebugLine@SC2APIProtocol@@8
rdata$r	SEGMENT
??_R2DebugLine@SC2APIProtocol@@8 DD imagerel ??_R1A@?0A@EA@DebugLine@SC2APIProtocol@@8 ; SC2APIProtocol::DebugLine::`RTTI Base Class Array'
	DD	imagerel ??_R1A@?0A@EA@Message@protobuf@google@@8
	DD	imagerel ??_R1A@?0A@EA@MessageLite@protobuf@google@@8
	ORG $+3
rdata$r	ENDS
;	COMDAT ??_R3DebugLine@SC2APIProtocol@@8
rdata$r	SEGMENT
??_R3DebugLine@SC2APIProtocol@@8 DD 00H			; SC2APIProtocol::DebugLine::`RTTI Class Hierarchy Descriptor'
	DD	00H
	DD	03H
	DD	imagerel ??_R2DebugLine@SC2APIProtocol@@8
rdata$r	ENDS
;	COMDAT ??_R4DebugLine@SC2APIProtocol@@6B@
rdata$r	SEGMENT
??_R4DebugLine@SC2APIProtocol@@6B@ DD 01H		; SC2APIProtocol::DebugLine::`RTTI Complete Object Locator'
	DD	00H
	DD	00H
	DD	imagerel ??_R0?AVDebugLine@SC2APIProtocol@@@8
	DD	imagerel ??_R3DebugLine@SC2APIProtocol@@8
	DD	imagerel ??_R4DebugLine@SC2APIProtocol@@6B@
rdata$r	ENDS
;	COMDAT ??_R1A@?0A@EA@DebugEndGame@SC2APIProtocol@@8
rdata$r	SEGMENT
??_R1A@?0A@EA@DebugEndGame@SC2APIProtocol@@8 DD imagerel ??_R0?AVDebugEndGame@SC2APIProtocol@@@8 ; SC2APIProtocol::DebugEndGame::`RTTI Base Class Descriptor at (0,-1,0,64)'
	DD	02H
	DD	00H
	DD	0ffffffffH
	DD	00H
	DD	040H
	DD	imagerel ??_R3DebugEndGame@SC2APIProtocol@@8
rdata$r	ENDS
;	COMDAT ??_R2DebugEndGame@SC2APIProtocol@@8
rdata$r	SEGMENT
??_R2DebugEndGame@SC2APIProtocol@@8 DD imagerel ??_R1A@?0A@EA@DebugEndGame@SC2APIProtocol@@8 ; SC2APIProtocol::DebugEndGame::`RTTI Base Class Array'
	DD	imagerel ??_R1A@?0A@EA@Message@protobuf@google@@8
	DD	imagerel ??_R1A@?0A@EA@MessageLite@protobuf@google@@8
	ORG $+3
rdata$r	ENDS
;	COMDAT ??_R3DebugEndGame@SC2APIProtocol@@8
rdata$r	SEGMENT
??_R3DebugEndGame@SC2APIProtocol@@8 DD 00H		; SC2APIProtocol::DebugEndGame::`RTTI Class Hierarchy Descriptor'
	DD	00H
	DD	03H
	DD	imagerel ??_R2DebugEndGame@SC2APIProtocol@@8
rdata$r	ENDS
;	COMDAT ??_R4DebugEndGame@SC2APIProtocol@@6B@
rdata$r	SEGMENT
??_R4DebugEndGame@SC2APIProtocol@@6B@ DD 01H		; SC2APIProtocol::DebugEndGame::`RTTI Complete Object Locator'
	DD	00H
	DD	00H
	DD	imagerel ??_R0?AVDebugEndGame@SC2APIProtocol@@@8
	DD	imagerel ??_R3DebugEndGame@SC2APIProtocol@@8
	DD	imagerel ??_R4DebugEndGame@SC2APIProtocol@@6B@
rdata$r	ENDS
;	COMDAT ??_R1A@?0A@EA@DebugCreateUnit@SC2APIProtocol@@8
rdata$r	SEGMENT
??_R1A@?0A@EA@DebugCreateUnit@SC2APIProtocol@@8 DD imagerel ??_R0?AVDebugCreateUnit@SC2APIProtocol@@@8 ; SC2APIProtocol::DebugCreateUnit::`RTTI Base Class Descriptor at (0,-1,0,64)'
	DD	02H
	DD	00H
	DD	0ffffffffH
	DD	00H
	DD	040H
	DD	imagerel ??_R3DebugCreateUnit@SC2APIProtocol@@8
rdata$r	ENDS
;	COMDAT ??_R2DebugCreateUnit@SC2APIProtocol@@8
rdata$r	SEGMENT
??_R2DebugCreateUnit@SC2APIProtocol@@8 DD imagerel ??_R1A@?0A@EA@DebugCreateUnit@SC2APIProtocol@@8 ; SC2APIProtocol::DebugCreateUnit::`RTTI Base Class Array'
	DD	imagerel ??_R1A@?0A@EA@Message@protobuf@google@@8
	DD	imagerel ??_R1A@?0A@EA@MessageLite@protobuf@google@@8
	ORG $+3
rdata$r	ENDS
;	COMDAT ??_R3DebugCreateUnit@SC2APIProtocol@@8
rdata$r	SEGMENT
??_R3DebugCreateUnit@SC2APIProtocol@@8 DD 00H		; SC2APIProtocol::DebugCreateUnit::`RTTI Class Hierarchy Descriptor'
	DD	00H
	DD	03H
	DD	imagerel ??_R2DebugCreateUnit@SC2APIProtocol@@8
rdata$r	ENDS
;	COMDAT ??_R4DebugCreateUnit@SC2APIProtocol@@6B@
rdata$r	SEGMENT
??_R4DebugCreateUnit@SC2APIProtocol@@6B@ DD 01H		; SC2APIProtocol::DebugCreateUnit::`RTTI Complete Object Locator'
	DD	00H
	DD	00H
	DD	imagerel ??_R0?AVDebugCreateUnit@SC2APIProtocol@@@8
	DD	imagerel ??_R3DebugCreateUnit@SC2APIProtocol@@8
	DD	imagerel ??_R4DebugCreateUnit@SC2APIProtocol@@6B@
rdata$r	ENDS
;	COMDAT ??_R1A@?0A@EA@DebugCommand@SC2APIProtocol@@8
rdata$r	SEGMENT
??_R1A@?0A@EA@DebugCommand@SC2APIProtocol@@8 DD imagerel ??_R0?AVDebugCommand@SC2APIProtocol@@@8 ; SC2APIProtocol::DebugCommand::`RTTI Base Class Descriptor at (0,-1,0,64)'
	DD	02H
	DD	00H
	DD	0ffffffffH
	DD	00H
	DD	040H
	DD	imagerel ??_R3DebugCommand@SC2APIProtocol@@8
rdata$r	ENDS
;	COMDAT ??_R2DebugCommand@SC2APIProtocol@@8
rdata$r	SEGMENT
??_R2DebugCommand@SC2APIProtocol@@8 DD imagerel ??_R1A@?0A@EA@DebugCommand@SC2APIProtocol@@8 ; SC2APIProtocol::DebugCommand::`RTTI Base Class Array'
	DD	imagerel ??_R1A@?0A@EA@Message@protobuf@google@@8
	DD	imagerel ??_R1A@?0A@EA@MessageLite@protobuf@google@@8
	ORG $+3
rdata$r	ENDS
;	COMDAT ??_R3DebugCommand@SC2APIProtocol@@8
rdata$r	SEGMENT
??_R3DebugCommand@SC2APIProtocol@@8 DD 00H		; SC2APIProtocol::DebugCommand::`RTTI Class Hierarchy Descriptor'
	DD	00H
	DD	03H
	DD	imagerel ??_R2DebugCommand@SC2APIProtocol@@8
rdata$r	ENDS
;	COMDAT ??_R4DebugCommand@SC2APIProtocol@@6B@
rdata$r	SEGMENT
??_R4DebugCommand@SC2APIProtocol@@6B@ DD 01H		; SC2APIProtocol::DebugCommand::`RTTI Complete Object Locator'
	DD	00H
	DD	00H
	DD	imagerel ??_R0?AVDebugCommand@SC2APIProtocol@@@8
	DD	imagerel ??_R3DebugCommand@SC2APIProtocol@@8
	DD	imagerel ??_R4DebugCommand@SC2APIProtocol@@6B@
rdata$r	ENDS
;	COMDAT ??_R1A@?0A@EA@DebugBox@SC2APIProtocol@@8
rdata$r	SEGMENT
??_R1A@?0A@EA@DebugBox@SC2APIProtocol@@8 DD imagerel ??_R0?AVDebugBox@SC2APIProtocol@@@8 ; SC2APIProtocol::DebugBox::`RTTI Base Class Descriptor at (0,-1,0,64)'
	DD	02H
	DD	00H
	DD	0ffffffffH
	DD	00H
	DD	040H
	DD	imagerel ??_R3DebugBox@SC2APIProtocol@@8
rdata$r	ENDS
;	COMDAT ??_R2DebugBox@SC2APIProtocol@@8
rdata$r	SEGMENT
??_R2DebugBox@SC2APIProtocol@@8 DD imagerel ??_R1A@?0A@EA@DebugBox@SC2APIProtocol@@8 ; SC2APIProtocol::DebugBox::`RTTI Base Class Array'
	DD	imagerel ??_R1A@?0A@EA@Message@protobuf@google@@8
	DD	imagerel ??_R1A@?0A@EA@MessageLite@protobuf@google@@8
	ORG $+3
rdata$r	ENDS
;	COMDAT ??_R3DebugBox@SC2APIProtocol@@8
rdata$r	SEGMENT
??_R3DebugBox@SC2APIProtocol@@8 DD 00H			; SC2APIProtocol::DebugBox::`RTTI Class Hierarchy Descriptor'
	DD	00H
	DD	03H
	DD	imagerel ??_R2DebugBox@SC2APIProtocol@@8
rdata$r	ENDS
;	COMDAT ??_R4DebugBox@SC2APIProtocol@@6B@
rdata$r	SEGMENT
??_R4DebugBox@SC2APIProtocol@@6B@ DD 01H		; SC2APIProtocol::DebugBox::`RTTI Complete Object Locator'
	DD	00H
	DD	00H
	DD	imagerel ??_R0?AVDebugBox@SC2APIProtocol@@@8
	DD	imagerel ??_R3DebugBox@SC2APIProtocol@@8
	DD	imagerel ??_R4DebugBox@SC2APIProtocol@@6B@
rdata$r	ENDS
;	COMDAT ??_R1A@?0A@EA@Color@SC2APIProtocol@@8
rdata$r	SEGMENT
??_R1A@?0A@EA@Color@SC2APIProtocol@@8 DD imagerel ??_R0?AVColor@SC2APIProtocol@@@8 ; SC2APIProtocol::Color::`RTTI Base Class Descriptor at (0,-1,0,64)'
	DD	02H
	DD	00H
	DD	0ffffffffH
	DD	00H
	DD	040H
	DD	imagerel ??_R3Color@SC2APIProtocol@@8
rdata$r	ENDS
;	COMDAT ??_R2Color@SC2APIProtocol@@8
rdata$r	SEGMENT
??_R2Color@SC2APIProtocol@@8 DD imagerel ??_R1A@?0A@EA@Color@SC2APIProtocol@@8 ; SC2APIProtocol::Color::`RTTI Base Class Array'
	DD	imagerel ??_R1A@?0A@EA@Message@protobuf@google@@8
	DD	imagerel ??_R1A@?0A@EA@MessageLite@protobuf@google@@8
	ORG $+3
rdata$r	ENDS
;	COMDAT ??_R3Color@SC2APIProtocol@@8
rdata$r	SEGMENT
??_R3Color@SC2APIProtocol@@8 DD 00H			; SC2APIProtocol::Color::`RTTI Class Hierarchy Descriptor'
	DD	00H
	DD	03H
	DD	imagerel ??_R2Color@SC2APIProtocol@@8
rdata$r	ENDS
;	COMDAT ??_R4Color@SC2APIProtocol@@6B@
rdata$r	SEGMENT
??_R4Color@SC2APIProtocol@@6B@ DD 01H			; SC2APIProtocol::Color::`RTTI Complete Object Locator'
	DD	00H
	DD	00H
	DD	imagerel ??_R0?AVColor@SC2APIProtocol@@@8
	DD	imagerel ??_R3Color@SC2APIProtocol@@8
	DD	imagerel ??_R4Color@SC2APIProtocol@@6B@
rdata$r	ENDS
;	COMDAT ??_R2MessageLite@protobuf@google@@8
rdata$r	SEGMENT
??_R2MessageLite@protobuf@google@@8 DD imagerel ??_R1A@?0A@EA@MessageLite@protobuf@google@@8 ; google::protobuf::MessageLite::`RTTI Base Class Array'
	ORG $+3
rdata$r	ENDS
;	COMDAT ??_R3MessageLite@protobuf@google@@8
rdata$r	SEGMENT
??_R3MessageLite@protobuf@google@@8 DD 00H		; google::protobuf::MessageLite::`RTTI Class Hierarchy Descriptor'
	DD	00H
	DD	01H
	DD	imagerel ??_R2MessageLite@protobuf@google@@8
rdata$r	ENDS
;	COMDAT ??_R0?AVMessageLite@protobuf@google@@@8
data$rs	SEGMENT
??_R0?AVMessageLite@protobuf@google@@@8 DQ FLAT:??_7type_info@@6B@ ; google::protobuf::MessageLite `RTTI Type Descriptor'
	DQ	0000000000000000H
	DB	'.?AVMessageLite@protobuf@google@@', 00H
data$rs	ENDS
;	COMDAT ??_R1A@?0A@EA@MessageLite@protobuf@google@@8
rdata$r	SEGMENT
??_R1A@?0A@EA@MessageLite@protobuf@google@@8 DD imagerel ??_R0?AVMessageLite@protobuf@google@@@8 ; google::protobuf::MessageLite::`RTTI Base Class Descriptor at (0,-1,0,64)'
	DD	00H
	DD	00H
	DD	0ffffffffH
	DD	00H
	DD	040H
	DD	imagerel ??_R3MessageLite@protobuf@google@@8
rdata$r	ENDS
;	COMDAT ??_R1A@?0A@EA@Message@protobuf@google@@8
rdata$r	SEGMENT
??_R1A@?0A@EA@Message@protobuf@google@@8 DD imagerel ??_R0?AVMessage@protobuf@google@@@8 ; google::protobuf::Message::`RTTI Base Class Descriptor at (0,-1,0,64)'
	DD	01H
	DD	00H
	DD	0ffffffffH
	DD	00H
	DD	040H
	DD	imagerel ??_R3Message@protobuf@google@@8
rdata$r	ENDS
;	COMDAT ??_R2Message@protobuf@google@@8
rdata$r	SEGMENT
??_R2Message@protobuf@google@@8 DD imagerel ??_R1A@?0A@EA@Message@protobuf@google@@8 ; google::protobuf::Message::`RTTI Base Class Array'
	DD	imagerel ??_R1A@?0A@EA@MessageLite@protobuf@google@@8
	ORG $+3
rdata$r	ENDS
;	COMDAT ??_R3Message@protobuf@google@@8
rdata$r	SEGMENT
??_R3Message@protobuf@google@@8 DD 00H			; google::protobuf::Message::`RTTI Class Hierarchy Descriptor'
	DD	00H
	DD	02H
	DD	imagerel ??_R2Message@protobuf@google@@8
rdata$r	ENDS
;	COMDAT ??_R0?AVMessage@protobuf@google@@@8
data$rs	SEGMENT
??_R0?AVMessage@protobuf@google@@@8 DQ FLAT:??_7type_info@@6B@ ; google::protobuf::Message `RTTI Type Descriptor'
	DQ	0000000000000000H
	DB	'.?AVMessage@protobuf@google@@', 00H
data$rs	ENDS
;	COMDAT ??_7Color@SC2APIProtocol@@6B@
CONST	SEGMENT
??_7Color@SC2APIProtocol@@6B@ DQ FLAT:??_R4Color@SC2APIProtocol@@6B@ ; SC2APIProtocol::Color::`vftable'
	DQ	FLAT:??_EColor@SC2APIProtocol@@UEAAPEAXI@Z
	DQ	FLAT:?GetTypeName@Message@protobuf@google@@UEBA?AV?$basic_string@DU?$char_traits@D@std@@V?$allocator@D@2@@std@@XZ
	DQ	FLAT:?New@Color@SC2APIProtocol@@UEBAPEAV12@PEAVArena@protobuf@google@@@Z
	DQ	FLAT:?Clear@Color@SC2APIProtocol@@UEAAXXZ
	DQ	FLAT:?IsInitialized@Color@SC2APIProtocol@@UEBA_NXZ
	DQ	FLAT:?InitializationErrorString@Message@protobuf@google@@UEBA?AV?$basic_string@DU?$char_traits@D@std@@V?$allocator@D@2@@std@@XZ
	DQ	FLAT:?CheckTypeAndMergeFrom@Message@protobuf@google@@UEAAXAEBVMessageLite@23@@Z
	DQ	FLAT:?ByteSizeLong@Color@SC2APIProtocol@@UEBA_KXZ
	DQ	FLAT:?GetCachedSize@Color@SC2APIProtocol@@UEBAHXZ
	DQ	FLAT:?_InternalParse@Color@SC2APIProtocol@@UEAAPEBDPEBDPEAVParseContext@internal@protobuf@google@@@Z
	DQ	FLAT:?OnDemandRegisterArenaDtor@MessageLite@protobuf@google@@UEAAXPEAVArena@23@@Z
	DQ	FLAT:?_InternalSerialize@Color@SC2APIProtocol@@UEBAPEAEPEAEPEAVEpsCopyOutputStream@io@protobuf@google@@@Z
	DQ	FLAT:?MergeFrom@Message@protobuf@google@@UEAAXAEBV123@@Z
	DQ	FLAT:?SpaceUsedLong@Message@protobuf@google@@UEBA_KXZ
	DQ	FLAT:?SetCachedSize@Color@SC2APIProtocol@@EEBAXH@Z
	DQ	FLAT:?GetMetadata@Color@SC2APIProtocol@@UEBA?AUMetadata@protobuf@google@@XZ
	DQ	FLAT:?GetClassData@Color@SC2APIProtocol@@UEBAPEBUClassData@Message@protobuf@google@@XZ
CONST	ENDS
;	COMDAT ??_7Line@SC2APIProtocol@@6B@
CONST	SEGMENT
??_7Line@SC2APIProtocol@@6B@ DQ FLAT:??_R4Line@SC2APIProtocol@@6B@ ; SC2APIProtocol::Line::`vftable'
	DQ	FLAT:??_ELine@SC2APIProtocol@@UEAAPEAXI@Z
	DQ	FLAT:?GetTypeName@Message@protobuf@google@@UEBA?AV?$basic_string@DU?$char_traits@D@std@@V?$allocator@D@2@@std@@XZ
	DQ	FLAT:?New@Line@SC2APIProtocol@@UEBAPEAV12@PEAVArena@protobuf@google@@@Z
	DQ	FLAT:?Clear@Line@SC2APIProtocol@@UEAAXXZ
	DQ	FLAT:?IsInitialized@Line@SC2APIProtocol@@UEBA_NXZ
	DQ	FLAT:?InitializationErrorString@Message@protobuf@google@@UEBA?AV?$basic_string@DU?$char_traits@D@std@@V?$allocator@D@2@@std@@XZ
	DQ	FLAT:?CheckTypeAndMergeFrom@Message@protobuf@google@@UEAAXAEBVMessageLite@23@@Z
	DQ	FLAT:?ByteSizeLong@Line@SC2APIProtocol@@UEBA_KXZ
	DQ	FLAT:?GetCachedSize@Line@SC2APIProtocol@@UEBAHXZ
	DQ	FLAT:?_InternalParse@Line@SC2APIProtocol@@UEAAPEBDPEBDPEAVParseContext@internal@protobuf@google@@@Z
	DQ	FLAT:?OnDemandRegisterArenaDtor@MessageLite@protobuf@google@@UEAAXPEAVArena@23@@Z
	DQ	FLAT:?_InternalSerialize@Line@SC2APIProtocol@@UEBAPEAEPEAEPEAVEpsCopyOutputStream@io@protobuf@google@@@Z
	DQ	FLAT:?MergeFrom@Message@protobuf@google@@UEAAXAEBV123@@Z
	DQ	FLAT:?SpaceUsedLong@Message@protobuf@google@@UEBA_KXZ
	DQ	FLAT:?SetCachedSize@Line@SC2APIProtocol@@EEBAXH@Z
	DQ	FLAT:?GetMetadata@Line@SC2APIProtocol@@UEBA?AUMetadata@protobuf@google@@XZ
	DQ	FLAT:?GetClassData@Line@SC2APIProtocol@@UEBAPEBUClassData@Message@protobuf@google@@XZ
CONST	ENDS
;	COMDAT ??_7DebugCommand@SC2APIProtocol@@6B@
CONST	SEGMENT
??_7DebugCommand@SC2APIProtocol@@6B@ DQ FLAT:??_R4DebugCommand@SC2APIProtocol@@6B@ ; SC2APIProtocol::DebugCommand::`vftable'
	DQ	FLAT:??_EDebugCommand@SC2APIProtocol@@UEAAPEAXI@Z
	DQ	FLAT:?GetTypeName@Message@protobuf@google@@UEBA?AV?$basic_string@DU?$char_traits@D@std@@V?$allocator@D@2@@std@@XZ
	DQ	FLAT:?New@DebugCommand@SC2APIProtocol@@UEBAPEAV12@PEAVArena@protobuf@google@@@Z
	DQ	FLAT:?Clear@DebugCommand@SC2APIProtocol@@UEAAXXZ
	DQ	FLAT:?IsInitialized@DebugCommand@SC2APIProtocol@@UEBA_NXZ
	DQ	FLAT:?InitializationErrorString@Message@protobuf@google@@UEBA?AV?$basic_string@DU?$char_traits@D@std@@V?$allocator@D@2@@std@@XZ
	DQ	FLAT:?CheckTypeAndMergeFrom@Message@protobuf@google@@UEAAXAEBVMessageLite@23@@Z
	DQ	FLAT:?ByteSizeLong@DebugCommand@SC2APIProtocol@@UEBA_KXZ
	DQ	FLAT:?GetCachedSize@DebugCommand@SC2APIProtocol@@UEBAHXZ
	DQ	FLAT:?_InternalParse@DebugCommand@SC2APIProtocol@@UEAAPEBDPEBDPEAVParseContext@internal@protobuf@google@@@Z
	DQ	FLAT:?OnDemandRegisterArenaDtor@MessageLite@protobuf@google@@UEAAXPEAVArena@23@@Z
	DQ	FLAT:?_InternalSerialize@DebugCommand@SC2APIProtocol@@UEBAPEAEPEAEPEAVEpsCopyOutputStream@io@protobuf@google@@@Z
	DQ	FLAT:?MergeFrom@Message@protobuf@google@@UEAAXAEBV123@@Z
	DQ	FLAT:?SpaceUsedLong@Message@protobuf@google@@UEBA_KXZ
	DQ	FLAT:?SetCachedSize@DebugCommand@SC2APIProtocol@@EEBAXH@Z
	DQ	FLAT:?GetMetadata@DebugCommand@SC2APIProtocol@@UEBA?AUMetadata@protobuf@google@@XZ
	DQ	FLAT:?GetClassData@DebugCommand@SC2APIProtocol@@UEBAPEBUClassData@Message@protobuf@google@@XZ
CONST	ENDS
_DATA	SEGMENT
?descriptor_table_s2clientprotocol_2fdebug_2eproto@@3UDescriptorTable@internal@protobuf@google@@B DB 00H ; descriptor_table_s2clientprotocol_2fdebug_2eproto
	DB	00H
	ORG $+2
	DD	081bH
	DQ	FLAT:?descriptor_table_protodef_s2clientprotocol_2fdebug_2eproto@@3QBDB
	DQ	FLAT:$SG131223
	DQ	FLAT:?descriptor_table_s2clientprotocol_2fdebug_2eproto_once@@3Uonce_flag@std@@A
	DQ	FLAT:?descriptor_table_s2clientprotocol_2fdebug_2eproto_deps@@3QBQEBUDescriptorTable@internal@protobuf@google@@B
	DD	01H
	DD	0eH
	DQ	FLAT:?schemas@@3QBUMigrationSchema@internal@protobuf@google@@B
	DQ	FLAT:?file_default_instances@@3QBQEBVMessage@protobuf@google@@B
	DQ	FLAT:?offsets@TableStruct_s2clientprotocol_2fdebug_2eproto@@2QBIB
	DQ	FLAT:?file_level_metadata_s2clientprotocol_2fdebug_2eproto@@3PAUMetadata@protobuf@google@@A
	DQ	FLAT:?file_level_enum_descriptors_s2clientprotocol_2fdebug_2eproto@@3PAPEBVEnumDescriptor@protobuf@google@@A
	DQ	0000000000000000H
_DATA	ENDS
;	COMDAT ??_R0?AVDebugSetUnitValue@SC2APIProtocol@@@8
data$r	SEGMENT
??_R0?AVDebugSetUnitValue@SC2APIProtocol@@@8 DQ FLAT:??_7type_info@@6B@ ; SC2APIProtocol::DebugSetUnitValue `RTTI Type Descriptor'
	DQ	0000000000000000H
	DB	'.?AVDebugSetUnitValue@SC2APIProtocol@@', 00H
data$r	ENDS
;	COMDAT ??_R0?AVDebugEndGame@SC2APIProtocol@@@8
data$r	SEGMENT
??_R0?AVDebugEndGame@SC2APIProtocol@@@8 DQ FLAT:??_7type_info@@6B@ ; SC2APIProtocol::DebugEndGame `RTTI Type Descriptor'
	DQ	0000000000000000H
	DB	'.?AVDebugEndGame@SC2APIProtocol@@', 00H
data$r	ENDS
;	COMDAT ??_R0?AVDebugSetScore@SC2APIProtocol@@@8
data$r	SEGMENT
??_R0?AVDebugSetScore@SC2APIProtocol@@@8 DQ FLAT:??_7type_info@@6B@ ; SC2APIProtocol::DebugSetScore `RTTI Type Descriptor'
	DQ	0000000000000000H
	DB	'.?AVDebugSetScore@SC2APIProtocol@@', 00H
data$r	ENDS
;	COMDAT ??_R0?AVDebugTestProcess@SC2APIProtocol@@@8
data$r	SEGMENT
??_R0?AVDebugTestProcess@SC2APIProtocol@@@8 DQ FLAT:??_7type_info@@6B@ ; SC2APIProtocol::DebugTestProcess `RTTI Type Descriptor'
	DQ	0000000000000000H
	DB	'.?AVDebugTestProcess@SC2APIProtocol@@', 00H
data$r	ENDS
;	COMDAT ??_R0?AVDebugCreateUnit@SC2APIProtocol@@@8
data$r	SEGMENT
??_R0?AVDebugCreateUnit@SC2APIProtocol@@@8 DQ FLAT:??_7type_info@@6B@ ; SC2APIProtocol::DebugCreateUnit `RTTI Type Descriptor'
	DQ	0000000000000000H
	DB	'.?AVDebugCreateUnit@SC2APIProtocol@@', 00H
data$r	ENDS
;	COMDAT ??_R0?AVDebugSphere@SC2APIProtocol@@@8
data$r	SEGMENT
??_R0?AVDebugSphere@SC2APIProtocol@@@8 DQ FLAT:??_7type_info@@6B@ ; SC2APIProtocol::DebugSphere `RTTI Type Descriptor'
	DQ	0000000000000000H
	DB	'.?AVDebugSphere@SC2APIProtocol@@', 00H
data$r	ENDS
;	COMDAT ??_R0?AVDebugBox@SC2APIProtocol@@@8
data$r	SEGMENT
??_R0?AVDebugBox@SC2APIProtocol@@@8 DQ FLAT:??_7type_info@@6B@ ; SC2APIProtocol::DebugBox `RTTI Type Descriptor'
	DQ	0000000000000000H
	DB	'.?AVDebugBox@SC2APIProtocol@@', 00H
data$r	ENDS
;	COMDAT ??_R0?AVDebugLine@SC2APIProtocol@@@8
data$r	SEGMENT
??_R0?AVDebugLine@SC2APIProtocol@@@8 DQ FLAT:??_7type_info@@6B@ ; SC2APIProtocol::DebugLine `RTTI Type Descriptor'
	DQ	0000000000000000H
	DB	'.?AVDebugLine@SC2APIProtocol@@', 00H
data$r	ENDS
;	COMDAT ??_R0?AVDebugText@SC2APIProtocol@@@8
data$r	SEGMENT
??_R0?AVDebugText@SC2APIProtocol@@@8 DQ FLAT:??_7type_info@@6B@ ; SC2APIProtocol::DebugText `RTTI Type Descriptor'
	DQ	0000000000000000H
	DB	'.?AVDebugText@SC2APIProtocol@@', 00H
data$r	ENDS
;	COMDAT ??_R0?AVColor@SC2APIProtocol@@@8
data$r	SEGMENT
??_R0?AVColor@SC2APIProtocol@@@8 DQ FLAT:??_7type_info@@6B@ ; SC2APIProtocol::Color `RTTI Type Descriptor'
	DQ	0000000000000000H
	DB	'.?AVColor@SC2APIProtocol@@', 00H
data$r	ENDS
;	COMDAT ??_R0?AVLine@SC2APIProtocol@@@8
data$r	SEGMENT
??_R0?AVLine@SC2APIProtocol@@@8 DQ FLAT:??_7type_info@@6B@ ; SC2APIProtocol::Line `RTTI Type Descriptor'
	DQ	0000000000000000H
	DB	'.?AVLine@SC2APIProtocol@@', 00H
data$r	ENDS
;	COMDAT ??_R0?AVDebugCommand@SC2APIProtocol@@@8
data$r	SEGMENT
??_R0?AVDebugCommand@SC2APIProtocol@@@8 DQ FLAT:??_7type_info@@6B@ ; SC2APIProtocol::DebugCommand `RTTI Type Descriptor'
	DQ	0000000000000000H
	DB	'.?AVDebugCommand@SC2APIProtocol@@', 00H
data$r	ENDS
CONST	SEGMENT
?schemas@@3QBUMigrationSchema@internal@protobuf@google@@B DD 00H ; schemas
	DD	0ffffffffH
	DD	0ffffffffH
	DD	020H
	DD	0fH
	DD	0ffffffffH
	DD	0ffffffffH
	DD	078H
	DD	019H
	DD	021H
	DD	0ffffffffH
	DD	028H
	DD	023H
	DD	02cH
	DD	0ffffffffH
	DD	028H
	DD	02fH
	DD	03aH
	DD	0ffffffffH
	DD	040H
	DD	03fH
	DD	047H
	DD	0ffffffffH
	DD	028H
	DD	049H
	DD	052H
	DD	0ffffffffH
	DD	030H
	DD	055H
	DD	05eH
	DD	0ffffffffH
	DD	030H
	DD	061H
	DD	06bH
	DD	0ffffffffH
	DD	030H
	DD	06fH
	DD	0ffffffffH
	DD	0ffffffffH
	DD	028H
	DD	076H
	DD	07eH
	DD	0ffffffffH
	DD	020H
	DD	080H
	DD	087H
	DD	0ffffffffH
	DD	020H
	DD	088H
	DD	08fH
	DD	0ffffffffH
	DD	020H
	DD	090H
	DD	099H
	DD	0ffffffffH
	DD	028H
?file_default_instances@@3QBQEBVMessage@protobuf@google@@B DQ FLAT:?_DebugCommand_default_instance_@SC2APIProtocol@@3UDebugCommandDefaultTypeInternal@1@A ; file_default_instances
	DQ	FLAT:?_DebugDraw_default_instance_@SC2APIProtocol@@3UDebugDrawDefaultTypeInternal@1@A
	DQ	FLAT:?_Line_default_instance_@SC2APIProtocol@@3ULineDefaultTypeInternal@1@A
	DQ	FLAT:?_Color_default_instance_@SC2APIProtocol@@3UColorDefaultTypeInternal@1@A
	DQ	FLAT:?_DebugText_default_instance_@SC2APIProtocol@@3UDebugTextDefaultTypeInternal@1@A
	DQ	FLAT:?_DebugLine_default_instance_@SC2APIProtocol@@3UDebugLineDefaultTypeInternal@1@A
	DQ	FLAT:?_DebugBox_default_instance_@SC2APIProtocol@@3UDebugBoxDefaultTypeInternal@1@A
	DQ	FLAT:?_DebugSphere_default_instance_@SC2APIProtocol@@3UDebugSphereDefaultTypeInternal@1@A
	DQ	FLAT:?_DebugCreateUnit_default_instance_@SC2APIProtocol@@3UDebugCreateUnitDefaultTypeInternal@1@A
	DQ	FLAT:?_DebugKillUnit_default_instance_@SC2APIProtocol@@3UDebugKillUnitDefaultTypeInternal@1@A
	DQ	FLAT:?_DebugTestProcess_default_instance_@SC2APIProtocol@@3UDebugTestProcessDefaultTypeInternal@1@A
	DQ	FLAT:?_DebugSetScore_default_instance_@SC2APIProtocol@@3UDebugSetScoreDefaultTypeInternal@1@A
	DQ	FLAT:?_DebugEndGame_default_instance_@SC2APIProtocol@@3UDebugEndGameDefaultTypeInternal@1@A
	DQ	FLAT:?_DebugSetUnitValue_default_instance_@SC2APIProtocol@@3UDebugSetUnitValueDefaultTypeInternal@1@A
?descriptor_table_protodef_s2clientprotocol_2fdebug_2eproto@@3QBDB DB 0aH
	DB	01cH, 's2clientprotocol/debug.proto', 012H, 0eH, 'SC2APIProtoc'
	DB	'ol', 01aH, 01dH, 's2clientprotocol/common.proto"', 0bbH, 03H, 0aH
	DB	0cH, 'DebugCommand', 012H, ')', 0aH, 04H, 'draw', 018H, 01H, ' '
	DB	01H, '(', 0bH, '2', 019H, '.SC2APIProtocol.DebugDrawH', 00H, 012H
	DB	'4', 0aH, 0aH, 'game_state', 018H, 02H, ' ', 01H, '(', 0eH, '2'
	DB	01eH, '.SC2APIProtocol.DebugGameStateH', 00H, 012H, '6', 0aH, 0bH
	DB	'create_unit', 018H, 03H, ' ', 01H, '(', 0bH, '2', 01fH, '.SC2'
	DB	'APIProtocol.DebugCreateUnitH', 00H, 012H, '2', 0aH, 09H, 'kil'
	DB	'l_unit', 018H, 04H, ' ', 01H, '(', 0bH, '2', 01dH, '.SC2APIPr'
	DB	'otocol.DebugKillUnitH', 00H, 012H, '8', 0aH, 0cH, 'test_proce'
	DB	'ss', 018H, 05H, ' ', 01H, '(', 0bH, '2 .SC2APIProtocol.DebugT'
	DB	'estProcessH', 00H, 012H, '.', 0aH, 05H, 'score', 018H, 06H, ' '
	DB	01H, '(', 0bH, '2', 01dH, '.SC2APIProtocol.DebugSetScoreH', 00H
	DB	012H, '0', 0aH, 08H, 'end_game', 018H, 07H, ' ', 01H, '(', 0bH
	DB	'2', 01cH, '.SC2APIProtocol.DebugEndGameH', 00H, 012H, '7', 0aH
	DB	0aH, 'unit_value', 018H, 08H, ' ', 01H, '(', 0bH, '2!.SC2APIPr'
	DB	'otocol.DebugSetUnitValueH', 00H, 'B', 09H, 0aH, 07H, 'command'
	DB	'"', 0b5H, 01H, 0aH, 09H, 'DebugDraw', 012H, '''', 0aH, 04H, 't'
	DB	'ext', 018H, 01H, ' ', 03H, '(', 0bH, '2', 019H, '.SC2APIProto'
	DB	'col.DebugText', 012H, '(', 0aH, 05H, 'lines', 018H, 02H, ' ', 03H
	DB	'(', 0bH, '2', 019H, '.SC2APIProtocol.DebugLine', 012H, '''', 0aH
	DB	05H, 'boxes', 018H, 03H, ' ', 03H, '(', 0bH, '2', 018H, '.SC2A'
	DB	'PIProtocol.DebugBox', 012H, ',', 0aH, 07H, 'spheres', 018H, 04H
	DB	' ', 03H, '(', 0bH, '2', 01bH, '.SC2APIProtocol.DebugSphere"L', 0aH
	DB	04H, 'Line', 012H, '!', 0aH, 02H, 'p0', 018H, 01H, ' ', 01H, '('
	DB	0bH, '2', 015H, '.SC2APIProtocol.Point', 012H, '!', 0aH, 02H, 'p'
	DB	'1', 018H, 02H, ' ', 01H, '(', 0bH, '2', 015H, '.SC2APIProtoco'
	DB	'l.Point"(', 0aH, 05H, 'Color', 012H, 09H, 0aH, 01H, 'r', 018H
	DB	01H, ' ', 01H, '(', 0dH, 012H, 09H, 0aH, 01H, 'g', 018H, 02H, ' '
	DB	01H, '(', 0dH, 012H, 09H, 0aH, 01H, 'b', 018H, 03H, ' ', 01H, '('
	DB	0dH, '"', 0a3H, 01H, 0aH, 09H, 'DebugText', 012H, '$', 0aH, 05H
	DB	'color', 018H, 01H, ' ', 01H, '(', 0bH, '2', 015H, '.SC2APIPro'
	DB	'tocol.Color', 012H, 0cH, 0aH, 04H, 'text', 018H, 02H, ' ', 01H
	DB	'(', 09H, 012H, '*', 0aH, 0bH, 'virtual_pos', 018H, 03H, ' ', 01H
	DB	'(', 0bH, '2', 015H, '.SC2APIProtocol.Point', 012H, '(', 0aH, 09H
	DB	'world_pos', 018H, 04H, ' ', 01H, '(', 0bH, '2', 015H, '.SC2AP'
	DB	'IProtocol.Point', 012H, 0cH, 0aH, 04H, 'size', 018H, 05H, ' ', 01H
	DB	'(', 0dH, '"U', 0aH, 09H, 'DebugLine', 012H, '$', 0aH, 05H, 'c'
	DB	'olor', 018H, 01H, ' ', 01H, '(', 0bH, '2', 015H, '.SC2APIProt'
	DB	'ocol.Color', 012H, '"', 0aH, 04H, 'line', 018H, 02H, ' ', 01H
	DB	'(', 0bH, '2', 014H, '.SC2APIProtocol.Line"x', 0aH, 08H, 'Debu'
	DB	'gBox', 012H, '$', 0aH, 05H, 'color', 018H, 01H, ' ', 01H, '(', 0bH
	DB	'2', 015H, '.SC2APIProtocol.Color', 012H, '"', 0aH, 03H, 'min', 018H
	DB	02H, ' ', 01H, '(', 0bH, '2', 015H, '.SC2APIProtocol.Point', 012H
	DB	'"', 0aH, 03H, 'max', 018H, 03H, ' ', 01H, '(', 0bH, '2', 015H
	DB	'.SC2APIProtocol.Point"`', 0aH, 0bH, 'DebugSphere', 012H, '$', 0aH
	DB	05H, 'color', 018H, 01H, ' ', 01H, '(', 0bH, '2', 015H, '.SC2A'
	DB	'PIProtocol.Color', 012H, ' ', 0aH, 01H, 'p', 018H, 02H, ' ', 01H
	DB	'(', 0bH, '2', 015H, '.SC2APIProtocol.Point', 012H, 09H, 0aH, 01H
	DB	'r', 018H, 03H, ' ', 01H, '(', 02H, '"k', 0aH, 0fH, 'DebugCrea'
	DB	'teUnit', 012H, 011H, 0aH, 09H, 'unit_type', 018H, 01H, ' ', 01H
	DB	'(', 0dH, 012H, 0dH, 0aH, 05H, 'owner', 018H, 02H, ' ', 01H, '('
	DB	05H, 012H, '$', 0aH, 03H, 'pos', 018H, 03H, ' ', 01H, '(', 0bH
	DB	'2', 017H, '.SC2APIProtocol.Point2D', 012H, 010H, 0aH, 08H, 'q'
	DB	'uantity', 018H, 04H, ' ', 01H, '(', 0dH, '"', 01cH, 0aH, 0dH, 'D'
	DB	'ebugKillUnit', 012H, 0bH, 0aH, 03H, 'tag', 018H, 01H, ' ', 03H
	DB	'(', 04H, '"', 080H, 01H, 0aH, 010H, 'DebugTestProcess', 012H, '3'
	DB	0aH, 04H, 'test', 018H, 01H, ' ', 01H, '(', 0eH, '2%.SC2APIPro'
	DB	'tocol.DebugTestProcess.Test', 012H, 010H, 0aH, 08H, 'delay_ms'
	DB	018H, 02H, ' ', 01H, '(', 05H, '"%', 0aH, 04H, 'Test', 012H, 08H
	DB	0aH, 04H, 'hang', 010H, 01H, 012H, 09H, 0aH, 05H, 'crash', 010H
	DB	02H, 012H, 08H, 0aH, 04H, 'exit', 010H, 03H, '"', 01eH, 0aH, 0dH
	DB	'DebugSetScore', 012H, 0dH, 0aH, 05H, 'score', 018H, 01H, ' ', 01H
	DB	'(', 02H, '"z', 0aH, 0cH, 'DebugEndGame', 012H, ':', 0aH, 0aH, 'e'
	DB	'nd_result', 018H, 01H, ' ', 01H, '(', 0eH, '2&.SC2APIProtocol'
	DB	'.DebugEndGame.EndResult".', 0aH, 09H, 'EndResult', 012H, 0dH, 0aH
	DB	09H, 'Surrender', 010H, 01H, 012H, 012H, 0aH, 0eH, 'DeclareVic'
	DB	'tory', 010H, 02H, '"', 0a5H, 01H, 0aH, 011H, 'DebugSetUnitVal'
	DB	'ue', 012H, '?', 0aH, 0aH, 'unit_value', 018H, 01H, ' ', 01H, '('
	DB	0eH, '2+.SC2APIProtocol.DebugSetUnitValue.UnitValue', 012H, 0dH
	DB	0aH, 05H, 'value', 018H, 02H, ' ', 01H, '(', 02H, 012H, 010H, 0aH
	DB	08H, 'unit_tag', 018H, 03H, ' ', 01H, '(', 04H, '".', 0aH, 09H
	DB	'UnitValue', 012H, 0aH, 0aH, 06H, 'Energy', 010H, 01H, 012H, 08H
	DB	0aH, 04H, 'Life', 010H, 02H, 012H, 0bH, 0aH, 07H, 'Shields', 010H
	DB	03H, '*', 0b2H, 01H, 0aH, 0eH, 'DebugGameState', 012H, 0cH, 0aH
	DB	08H, 'show_map', 010H, 01H, 012H, 011H, 0aH, 0dH, 'control_ene'
	DB	'my', 010H, 02H, 012H, 08H, 0aH, 04H, 'food', 010H, 03H, 012H, 08H
	DB	0aH, 04H, 'free', 010H, 04H, 012H, 011H, 0aH, 0dH, 'all_resour'
	DB	'ces', 010H, 05H, 012H, 07H, 0aH, 03H, 'god', 010H, 06H, 012H, 0cH
	DB	0aH, 08H, 'minerals', 010H, 07H, 012H, 07H, 0aH, 03H, 'gas', 010H
	DB	08H, 012H, 0cH, 0aH, 08H, 'cooldown', 010H, 09H, 012H, 0dH, 0aH
	DB	09H, 'tech_tree', 010H, 0aH, 012H, 0bH, 0aH, 07H, 'upgrade', 010H
	DB	0bH, 012H, 0eH, 0aH, 0aH, 'fast_build', 010H, 0cH, 00H ; descriptor_table_protodef_s2clientprotocol_2fdebug_2eproto
$SG149964 DB	'%s', 00H
	ORG $+1
?descriptor_table_s2clientprotocol_2fdebug_2eproto_deps@@3QBQEBUDescriptorTable@internal@protobuf@google@@B DQ FLAT:?descriptor_table_s2clientprotocol_2fcommon_2eproto@@3UDescriptorTable@internal@protobuf@google@@B ; descriptor_table_s2clientprotocol_2fdebug_2eproto_deps
$SG131223 DB	's2clientprotocol/debug.proto', 00H
	ORG $+3
$SG131711 DB	'vendor\s2clientprotocol\include\s2clientprotocol\debug.p'
	DB	'b.cc', 00H
	ORG $+3
$SG131712 DB	'CHECK failed: (&from) != (_this): ', 00H
	ORG $+1
$SG149967 DB	00H, 00H
	ORG $+2
$SG132439 DB	'vendor\s2clientprotocol\include\s2clientprotocol\debug.p'
	DB	'b.cc', 00H
	ORG $+3
$SG132440 DB	'CHECK failed: (&from) != (_this): ', 00H
	ORG $+5
$SG132571 DB	'vendor\s2clientprotocol\include\s2clientprotocol\debug.p'
	DB	'b.cc', 00H
	ORG $+3
$SG132572 DB	'CHECK failed: _impl_.p0_ != nullptr: ', 00H
	ORG $+2
$SG132574 DB	'vendor\s2clientprotocol\include\s2clientprotocol\debug.p'
	DB	'b.cc', 00H
	ORG $+3
$SG132575 DB	'CHECK failed: _impl_.p1_ != nullptr: ', 00H
	ORG $+2
$SG132653 DB	'vendor\s2clientprotocol\include\s2clientprotocol\debug.p'
	DB	'b.cc', 00H
	ORG $+3
$SG132654 DB	'CHECK failed: (&from) != (_this): ', 00H
	ORG $+5
?offsets@TableStruct_s2clientprotocol_2fdebug_2eproto@@2QBIB DD 0ffffffffH ; TableStruct_s2clientprotocol_2fdebug_2eproto::offsets
	DD	08H
	DD	0ffffffffH
	DD	01cH
	DD	0ffffffffH
	DD	0ffffffffH
	DD	040000000H
	DD	040000000H
	DD	040000000H
	DD	040000000H
	DD	040000000H
	DD	040000000H
	DD	040000000H
	DD	040000000H
	DD	010H
	DD	0ffffffffH
	DD	08H
	DD	0ffffffffH
	DD	0ffffffffH
	DD	0ffffffffH
	DD	0ffffffffH
	DD	010H
	DD	028H
	DD	040H
	DD	058H
	DD	010H
	DD	08H
	DD	0ffffffffH
	DD	0ffffffffH
	DD	0ffffffffH
	DD	0ffffffffH
	DD	018H
	DD	020H
	DD	00H
	DD	01H
	DD	010H
	DD	08H
	DD	0ffffffffH
	DD	0ffffffffH
	DD	0ffffffffH
	DD	0ffffffffH
	DD	018H
	DD	01cH
	DD	020H
	DD	00H
	DD	01H
	DD	02H
	DD	010H
	DD	08H
	DD	0ffffffffH
	DD	0ffffffffH
	DD	0ffffffffH
	DD	0ffffffffH
	DD	020H
	DD	018H
	DD	028H
	DD	030H
	DD	038H
	DD	01H
	DD	00H
	DD	02H
	DD	03H
	DD	04H
	DD	010H
	DD	08H
	DD	0ffffffffH
	DD	0ffffffffH
	DD	0ffffffffH
	DD	0ffffffffH
	DD	018H
	DD	020H
	DD	00H
	DD	01H
	DD	010H
	DD	08H
	DD	0ffffffffH
	DD	0ffffffffH
	DD	0ffffffffH
	DD	0ffffffffH
	DD	018H
	DD	020H
	DD	028H
	DD	00H
	DD	01H
	DD	02H
	DD	010H
	DD	08H
	DD	0ffffffffH
	DD	0ffffffffH
	DD	0ffffffffH
	DD	0ffffffffH
	DD	018H
	DD	020H
	DD	028H
	DD	00H
	DD	01H
	DD	02H
	DD	010H
	DD	08H
	DD	0ffffffffH
	DD	0ffffffffH
	DD	0ffffffffH
	DD	0ffffffffH
	DD	020H
	DD	024H
	DD	018H
	DD	028H
	DD	01H
	DD	02H
	DD	00H
	DD	03H
	DD	0ffffffffH
	DD	08H
	DD	0ffffffffH
	DD	0ffffffffH
	DD	0ffffffffH
	DD	0ffffffffH
	DD	010H
	DD	010H
	DD	08H
	DD	0ffffffffH
	DD	0ffffffffH
	DD	0ffffffffH
	DD	0ffffffffH
	DD	01cH
	DD	018H
	DD	01H
	DD	00H
	DD	010H
	DD	08H
	DD	0ffffffffH
	DD	0ffffffffH
	DD	0ffffffffH
	DD	0ffffffffH
	DD	018H
	DD	00H
	DD	010H
	DD	08H
	DD	0ffffffffH
	DD	0ffffffffH
	DD	0ffffffffH
	DD	0ffffffffH
	DD	018H
	DD	00H
	DD	010H
	DD	08H
	DD	0ffffffffH
	DD	0ffffffffH
	DD	0ffffffffH
	DD	0ffffffffH
	DD	024H
	DD	020H
	DD	018H
	DD	02H
	DD	01H
	DD	00H
$SG132868 DB	'vendor\s2clientprotocol\include\s2clientprotocol\debug.p'
	DB	'b.cc', 00H
	ORG $+3
$SG132869 DB	'CHECK failed: (&from) != (_this): ', 00H
	ORG $+5
?_class_data_@DebugCommand@SC2APIProtocol@@2UClassData@Message@protobuf@google@@B DQ FLAT:?CopyWithSourceCheck@Message@protobuf@google@@KAXAEAV123@AEBV123@@Z ; SC2APIProtocol::DebugCommand::_class_data_
	DQ	FLAT:?MergeImpl@DebugCommand@SC2APIProtocol@@CAXAEAVMessage@protobuf@google@@AEBV345@@Z
$SG133041 DB	'vendor\s2clientprotocol\include\s2clientprotocol\debug.p'
	DB	'b.cc', 00H
	ORG $+3
$SG133042 DB	'CHECK failed: _impl_.color_ != nullptr: ', 00H
	ORG $+7
$SG133044 DB	'vendor\s2clientprotocol\include\s2clientprotocol\debug.p'
	DB	'b.cc', 00H
	ORG $+3
$SG133045 DB	'CHECK failed: _impl_.virtual_pos_ != nullptr: ', 00H
	ORG $+1
$SG133047 DB	'vendor\s2clientprotocol\include\s2clientprotocol\debug.p'
	DB	'b.cc', 00H
	ORG $+3
$SG133048 DB	'CHECK failed: _impl_.world_pos_ != nullptr: ', 00H
	ORG $+3
$SG133082 DB	'SC2APIProtocol.DebugText.text', 00H
	ORG $+2
$SG133121 DB	'SC2APIProtocol.DebugText.text', 00H
	ORG $+2
$SG133157 DB	'vendor\s2clientprotocol\include\s2clientprotocol\debug.p'
	DB	'b.cc', 00H
	ORG $+3
$SG133158 DB	'CHECK failed: (&from) != (_this): ', 00H
	ORG $+5
$SG141421 DB	'W:\cpp\void\alistar\tests\vendor\protobuf\src\google/pro'
	DB	'tobuf/wire_format_lite.h', 00H
	ORG $+15
$SG141422 DB	'CHECK failed: (UInt32Size(tag)) == (static_cast<size_t>('
	DB	'tag_size)): ', 00H
	ORG $+11
$SG141445 DB	'W:\cpp\void\alistar\tests\vendor\protobuf\src\google/pro'
	DB	'tobuf/wire_format_lite.h', 00H
	ORG $+15
$SG141446 DB	'CHECK failed: (UInt32Size(tag)) == (static_cast<size_t>('
	DB	'tag_size)): ', 00H
	ORG $+11
$SG141469 DB	'W:\cpp\void\alistar\tests\vendor\protobuf\src\google/pro'
	DB	'tobuf/wire_format_lite.h', 00H
	ORG $+15
$SG141470 DB	'CHECK failed: (UInt32Size(tag)) == (static_cast<size_t>('
	DB	'tag_size)): ', 00H
	ORG $+3
?_class_data_@DebugDraw@SC2APIProtocol@@2UClassData@Message@protobuf@google@@B DQ FLAT:?CopyWithSourceCheck@Message@protobuf@google@@KAXAEAV123@AEBV123@@Z ; SC2APIProtocol::DebugDraw::_class_data_
	DQ	FLAT:?MergeImpl@DebugDraw@SC2APIProtocol@@CAXAEAVMessage@protobuf@google@@AEBV345@@Z
	ORG $+8
$SG141493 DB	'W:\cpp\void\alistar\tests\vendor\protobuf\src\google/pro'
	DB	'tobuf/wire_format_lite.h', 00H
	ORG $+7
$SG133301 DB	'vendor\s2clientprotocol\include\s2clientprotocol\debug.p'
	DB	'b.cc', 00H
	ORG $+11
$SG141494 DB	'CHECK failed: (UInt32Size(tag)) == (static_cast<size_t>('
	DB	'tag_size)): ', 00H
	ORG $+3
$SG133302 DB	'CHECK failed: _impl_.color_ != nullptr: ', 00H
	ORG $+7
$SG133304 DB	'vendor\s2clientprotocol\include\s2clientprotocol\debug.p'
	DB	'b.cc', 00H
	ORG $+3
$SG133305 DB	'CHECK failed: _impl_.line_ != nullptr: ', 00H
$SG141517 DB	'W:\cpp\void\alistar\tests\vendor\protobuf\src\google/pro'
	DB	'tobuf/wire_format_lite.h', 00H
	ORG $+15
$SG141518 DB	'CHECK failed: (UInt32Size(tag)) == (static_cast<size_t>('
	DB	'tag_size)): ', 00H
	ORG $+11
$SG141541 DB	'W:\cpp\void\alistar\tests\vendor\protobuf\src\google/pro'
	DB	'tobuf/wire_format_lite.h', 00H
	ORG $+15
$SG141542 DB	'CHECK failed: (UInt32Size(tag)) == (static_cast<size_t>('
	DB	'tag_size)): ', 00H
	ORG $+3
$SG133383 DB	'vendor\s2clientprotocol\include\s2clientprotocol\debug.p'
	DB	'b.cc', 00H
	ORG $+3
$SG133384 DB	'CHECK failed: (&from) != (_this): ', 00H
	ORG $+5
$SG141730 DB	'W:\cpp\void\alistar\tests\vendor\protobuf\src\google/pro'
	DB	'tobuf/wire_format_lite.h', 00H
	ORG $+7
$SG141731 DB	'CHECK failed: (n) > (0): ', 00H
	ORG $+6
$SG133541 DB	'vendor\s2clientprotocol\include\s2clientprotocol\debug.p'
	DB	'b.cc', 00H
	ORG $+3
$SG133542 DB	'CHECK failed: _impl_.color_ != nullptr: ', 00H
	ORG $+7
$SG133544 DB	'vendor\s2clientprotocol\include\s2clientprotocol\debug.p'
	DB	'b.cc', 00H
	ORG $+3
$SG133545 DB	'CHECK failed: _impl_.min_ != nullptr: ', 00H
	ORG $+1
$SG133547 DB	'vendor\s2clientprotocol\include\s2clientprotocol\debug.p'
	DB	'b.cc', 00H
	ORG $+3
$SG133548 DB	'CHECK failed: _impl_.max_ != nullptr: ', 00H
	ORG $+9
$SG141742 DB	'W:\cpp\void\alistar\tests\vendor\protobuf\src\google/pro'
	DB	'tobuf/wire_format_lite.h', 00H
	ORG $+7
$SG141743 DB	'CHECK failed: (n) > (0): ', 00H
	ORG $+14
$SG141754 DB	'W:\cpp\void\alistar\tests\vendor\protobuf\src\google/pro'
	DB	'tobuf/wire_format_lite.h', 00H
	ORG $+7
$SG141755 DB	'CHECK failed: (n) > (0): ', 00H
	ORG $+14
$SG141766 DB	'W:\cpp\void\alistar\tests\vendor\protobuf\src\google/pro'
	DB	'tobuf/wire_format_lite.h', 00H
	ORG $+7
$SG141767 DB	'CHECK failed: (n) > (0): ', 00H
	ORG $+6
$SG149963 DB	'invalid argument', 00H
	ORG $+7
$SG149965 DB	'D:\Program Files\Microsoft Visual Studio\2022\Community\'
	DB	'VC\Tools\MSVC\14.34.31933\include\xmemory', 00H
	ORG $+14
$SG149966 DB	'D', 00H, ':', 00H, '\', 00H, 'P', 00H, 'r', 00H, 'o', 00H
	DB	'g', 00H, 'r', 00H, 'a', 00H, 'm', 00H, ' ', 00H, 'F', 00H, 'i'
	DB	00H, 'l', 00H, 'e', 00H, 's', 00H, '\', 00H, 'M', 00H, 'i', 00H
	DB	'c', 00H, 'r', 00H, 'o', 00H, 's', 00H, 'o', 00H, 'f', 00H, 't'
	DB	00H, ' ', 00H, 'V', 00H, 'i', 00H, 's', 00H, 'u', 00H, 'a', 00H
	DB	'l', 00H, ' ', 00H, 'S', 00H, 't', 00H, 'u', 00H, 'd', 00H, 'i'
	DB	00H, 'o', 00H, '\', 00H, '2', 00H, '0', 00H, '2', 00H, '2', 00H
	DB	'\', 00H, 'C', 00H, 'o', 00H, 'm', 00H, 'm', 00H, 'u', 00H, 'n'
	DB	00H, 'i', 00H, 't', 00H, 'y', 00H, '\', 00H, 'V', 00H, 'C', 00H
	DB	'\', 00H, 'T', 00H, 'o', 00H, 'o', 00H, 'l', 00H, 's', 00H, '\'
	DB	00H, 'M', 00H, 'S', 00H, 'V', 00H, 'C', 00H, '\', 00H, '1', 00H
	DB	'4', 00H, '.', 00H, '3', 00H, '4', 00H, '.', 00H, '3', 00H, '1'
	DB	00H, '9', 00H, '3', 00H, '3', 00H, '\', 00H, 'i', 00H, 'n', 00H
	DB	'c', 00H, 'l', 00H, 'u', 00H, 'd', 00H, 'e', 00H, '\', 00H, 'x'
	DB	00H, 'm', 00H, 'e', 00H, 'm', 00H, 'o', 00H, 'r', 00H, 'y', 00H
	DB	00H, 00H
	ORG $+4
$SG149968 DB	'"', 00H, 'i', 00H, 'n', 00H, 'v', 00H, 'a', 00H, 'l', 00H
	DB	'i', 00H, 'd', 00H, ' ', 00H, 'a', 00H, 'r', 00H, 'g', 00H, 'u'
	DB	00H, 'm', 00H, 'e', 00H, 'n', 00H, 't', 00H, '"', 00H, 00H, 00H
	ORG $+2
$SG141778 DB	'W:\cpp\void\alistar\tests\vendor\protobuf\src\google/pro'
	DB	'tobuf/wire_format_lite.h', 00H
	ORG $+7
$SG141779 DB	'CHECK failed: (n) > (0): ', 00H
	ORG $+14
$SG141790 DB	'W:\cpp\void\alistar\tests\vendor\protobuf\src\google/pro'
	DB	'tobuf/wire_format_lite.h', 00H
	ORG $+7
$SG141791 DB	'CHECK failed: (n) > (0): ', 00H
	ORG $+14
$SG141802 DB	'W:\cpp\void\alistar\tests\vendor\protobuf\src\google/pro'
	DB	'tobuf/wire_format_lite.h', 00H
	ORG $+7
$SG141803 DB	'CHECK failed: (n) > (0): ', 00H
	ORG $+14
$SG141814 DB	'W:\cpp\void\alistar\tests\vendor\protobuf\src\google/pro'
	DB	'tobuf/wire_format_lite.h', 00H
	ORG $+7
$SG141815 DB	'CHECK failed: (n) > (0): ', 00H
	ORG $+6
$SG133631 DB	'vendor\s2clientprotocol\include\s2clientprotocol\debug.p'
	DB	'b.cc', 00H
	ORG $+3
$SG133632 DB	'CHECK failed: (&from) != (_this): ', 00H
	ORG $+5
$SG141826 DB	'W:\cpp\void\alistar\tests\vendor\protobuf\src\google/pro'
	DB	'tobuf/wire_format_lite.h', 00H
	ORG $+7
$SG141827 DB	'CHECK failed: (n) > (0): ', 00H
	ORG $+14
$SG141838 DB	'W:\cpp\void\alistar\tests\vendor\protobuf\src\google/pro'
	DB	'tobuf/wire_format_lite.h', 00H
	ORG $+7
$SG141839 DB	'CHECK failed: (n) > (0): ', 00H
	ORG $+14
$SG141850 DB	'W:\cpp\void\alistar\tests\vendor\protobuf\src\google/pro'
	DB	'tobuf/wire_format_lite.h', 00H
	ORG $+7
$SG141851 DB	'CHECK failed: (n) > (0): ', 00H
	ORG $+6
$SG133778 DB	'vendor\s2clientprotocol\include\s2clientprotocol\debug.p'
	DB	'b.cc', 00H
	ORG $+3
$SG133779 DB	'CHECK failed: _impl_.color_ != nullptr: ', 00H
	ORG $+7
$SG133781 DB	'vendor\s2clientprotocol\include\s2clientprotocol\debug.p'
	DB	'b.cc', 00H
	ORG $+3
$SG133782 DB	'CHECK failed: _impl_.p_ != nullptr: ', 00H
	ORG $+3
$SG133868 DB	'vendor\s2clientprotocol\include\s2clientprotocol\debug.p'
	DB	'b.cc', 00H
	ORG $+3
$SG133869 DB	'CHECK failed: (&from) != (_this): ', 00H
	ORG $+5
$SG134013 DB	'vendor\s2clientprotocol\include\s2clientprotocol\debug.p'
	DB	'b.cc', 00H
	ORG $+3
$SG134014 DB	'CHECK failed: _impl_.pos_ != nullptr: ', 00H
	ORG $+1
?_class_data_@Line@SC2APIProtocol@@2UClassData@Message@protobuf@google@@B DQ FLAT:?CopyWithSourceCheck@Message@protobuf@google@@KAXAEAV123@AEBV123@@Z ; SC2APIProtocol::Line::_class_data_
	DQ	FLAT:?MergeImpl@Line@SC2APIProtocol@@CAXAEAVMessage@protobuf@google@@AEBV345@@Z
$SG134111 DB	'vendor\s2clientprotocol\include\s2clientprotocol\debug.p'
	DB	'b.cc', 00H
	ORG $+3
$SG134112 DB	'CHECK failed: (&from) != (_this): ', 00H
	ORG $+5
?_class_data_@Color@SC2APIProtocol@@2UClassData@Message@protobuf@google@@B DQ FLAT:?CopyWithSourceCheck@Message@protobuf@google@@KAXAEAV123@AEBV123@@Z ; SC2APIProtocol::Color::_class_data_
	DQ	FLAT:?MergeImpl@Color@SC2APIProtocol@@CAXAEAVMessage@protobuf@google@@AEBV345@@Z
$SG134289 DB	'vendor\s2clientprotocol\include\s2clientprotocol\debug.p'
	DB	'b.cc', 00H
	ORG $+3
$SG134290 DB	'CHECK failed: (&from) != (_this): ', 00H
	ORG $+5
?_class_data_@DebugText@SC2APIProtocol@@2UClassData@Message@protobuf@google@@B DQ FLAT:?CopyWithSourceCheck@Message@protobuf@google@@KAXAEAV123@AEBV123@@Z ; SC2APIProtocol::DebugText::_class_data_
	DQ	FLAT:?MergeImpl@DebugText@SC2APIProtocol@@CAXAEAVMessage@protobuf@google@@AEBV345@@Z
$SG134460 DB	'vendor\s2clientprotocol\include\s2clientprotocol\debug.p'
	DB	'b.cc', 00H
	ORG $+3
$SG134461 DB	'CHECK failed: (&from) != (_this): ', 00H
	ORG $+5
$SG134612 DB	'vendor\s2clientprotocol\include\s2clientprotocol\debug.p'
	DB	'b.cc', 00H
	ORG $+3
$SG134613 DB	'CHECK failed: (&from) != (_this): ', 00H
	ORG $+5
?_class_data_@DebugLine@SC2APIProtocol@@2UClassData@Message@protobuf@google@@B DQ FLAT:?CopyWithSourceCheck@Message@protobuf@google@@KAXAEAV123@AEBV123@@Z ; SC2APIProtocol::DebugLine::_class_data_
	DQ	FLAT:?MergeImpl@DebugLine@SC2APIProtocol@@CAXAEAVMessage@protobuf@google@@AEBV345@@Z
$SG134781 DB	'vendor\s2clientprotocol\include\s2clientprotocol\debug.p'
	DB	'b.cc', 00H
	ORG $+3
$SG134782 DB	'CHECK failed: (&from) != (_this): ', 00H
	ORG $+5
?_class_data_@DebugBox@SC2APIProtocol@@2UClassData@Message@protobuf@google@@B DQ FLAT:?CopyWithSourceCheck@Message@protobuf@google@@KAXAEAV123@AEBV123@@Z ; SC2APIProtocol::DebugBox::_class_data_
	DQ	FLAT:?MergeImpl@DebugBox@SC2APIProtocol@@CAXAEAVMessage@protobuf@google@@AEBV345@@Z
$SG134967 DB	'vendor\s2clientprotocol\include\s2clientprotocol\debug.p'
	DB	'b.cc', 00H
	ORG $+3
$SG134968 DB	'CHECK failed: (&from) != (_this): ', 00H
	ORG $+5
?_class_data_@DebugSphere@SC2APIProtocol@@2UClassData@Message@protobuf@google@@B DQ FLAT:?CopyWithSourceCheck@Message@protobuf@google@@KAXAEAV123@AEBV123@@Z ; SC2APIProtocol::DebugSphere::_class_data_
	DQ	FLAT:?MergeImpl@DebugSphere@SC2APIProtocol@@CAXAEAVMessage@protobuf@google@@AEBV345@@Z
?_class_data_@DebugCreateUnit@SC2APIProtocol@@2UClassData@Message@protobuf@google@@B DQ FLAT:?CopyWithSourceCheck@Message@protobuf@google@@KAXAEAV123@AEBV123@@Z ; SC2APIProtocol::DebugCreateUnit::_class_data_
	DQ	FLAT:?MergeImpl@DebugCreateUnit@SC2APIProtocol@@CAXAEAVMessage@protobuf@google@@AEBV345@@Z
?_class_data_@DebugKillUnit@SC2APIProtocol@@2UClassData@Message@protobuf@google@@B DQ FLAT:?CopyWithSourceCheck@Message@protobuf@google@@KAXAEAV123@AEBV123@@Z ; SC2APIProtocol::DebugKillUnit::_class_data_
	DQ	FLAT:?MergeImpl@DebugKillUnit@SC2APIProtocol@@CAXAEAVMessage@protobuf@google@@AEBV345@@Z
?_class_data_@DebugTestProcess@SC2APIProtocol@@2UClassData@Message@protobuf@google@@B DQ FLAT:?CopyWithSourceCheck@Message@protobuf@google@@KAXAEAV123@AEBV123@@Z ; SC2APIProtocol::DebugTestProcess::_class_data_
	DQ	FLAT:?MergeImpl@DebugTestProcess@SC2APIProtocol@@CAXAEAVMessage@protobuf@google@@AEBV345@@Z
?_class_data_@DebugSetScore@SC2APIProtocol@@2UClassData@Message@protobuf@google@@B DQ FLAT:?CopyWithSourceCheck@Message@protobuf@google@@KAXAEAV123@AEBV123@@Z ; SC2APIProtocol::DebugSetScore::_class_data_
	DQ	FLAT:?MergeImpl@DebugSetScore@SC2APIProtocol@@CAXAEAVMessage@protobuf@google@@AEBV345@@Z
?_class_data_@DebugEndGame@SC2APIProtocol@@2UClassData@Message@protobuf@google@@B DQ FLAT:?CopyWithSourceCheck@Message@protobuf@google@@KAXAEAV123@AEBV123@@Z ; SC2APIProtocol::DebugEndGame::_class_data_
	DQ	FLAT:?MergeImpl@DebugEndGame@SC2APIProtocol@@CAXAEAVMessage@protobuf@google@@AEBV345@@Z
?_class_data_@DebugSetUnitValue@SC2APIProtocol@@2UClassData@Message@protobuf@google@@B DQ FLAT:?CopyWithSourceCheck@Message@protobuf@google@@KAXAEAV123@AEBV123@@Z ; SC2APIProtocol::DebugSetUnitValue::_class_data_
	DQ	FLAT:?MergeImpl@DebugSetUnitValue@SC2APIProtocol@@CAXAEAVMessage@protobuf@google@@AEBV345@@Z
CONST	ENDS
PUBLIC	?__empty_global_delete@@YAXPEAX@Z		; __empty_global_delete
PUBLIC	?__empty_global_delete@@YAXPEAX_K@Z		; __empty_global_delete
PUBLIC	?__empty_global_delete@@YAXPEAXW4align_val_t@std@@@Z ; __empty_global_delete
PUBLIC	?__empty_global_delete@@YAXPEAX_KW4align_val_t@std@@@Z ; __empty_global_delete
PUBLIC	?is_constant_evaluated@std@@YA_NXZ		; std::is_constant_evaluated
PUBLIC	??2@YAPEAX_KPEAX@Z				; operator new
PUBLIC	??0exception@std@@QEAA@QEBDH@Z			; std::exception::exception
PUBLIC	??0exception@std@@QEAA@AEBV01@@Z		; std::exception::exception
PUBLIC	??1exception@std@@UEAA@XZ			; std::exception::~exception
PUBLIC	?what@exception@std@@UEBAPEBDXZ			; std::exception::what
PUBLIC	??_Gexception@std@@UEAAPEAXI@Z			; std::exception::`scalar deleting destructor'
PUBLIC	??0bad_alloc@std@@AEAA@QEBD@Z			; std::bad_alloc::bad_alloc
PUBLIC	??1bad_alloc@std@@UEAA@XZ			; std::bad_alloc::~bad_alloc
PUBLIC	??0bad_alloc@std@@QEAA@AEBV01@@Z		; std::bad_alloc::bad_alloc
PUBLIC	??_Gbad_alloc@std@@UEAAPEAXI@Z			; std::bad_alloc::`scalar deleting destructor'
PUBLIC	??0bad_array_new_length@std@@QEAA@XZ		; std::bad_array_new_length::bad_array_new_length
PUBLIC	??1bad_array_new_length@std@@UEAA@XZ		; std::bad_array_new_length::~bad_array_new_length
PUBLIC	??0bad_array_new_length@std@@QEAA@AEBV01@@Z	; std::bad_array_new_length::bad_array_new_length
PUBLIC	??_Gbad_array_new_length@std@@UEAAPEAXI@Z	; std::bad_array_new_length::`scalar deleting destructor'
PUBLIC	?_Throw_bad_array_new_length@std@@YAXXZ		; std::_Throw_bad_array_new_length
PUBLIC	?_Allocate@_Default_allocate_traits@std@@SAPEAX_K@Z ; std::_Default_allocate_traits::_Allocate
PUBLIC	?_Adjust_manually_vector_aligned@std@@YAXAEAPEAXAEA_K@Z ; std::_Adjust_manually_vector_aligned
PUBLIC	??0_Container_proxy@std@@QEAA@PEAU_Container_base12@1@@Z ; std::_Container_proxy::_Container_proxy
PUBLIC	??0_Container_base12@std@@QEAA@XZ		; std::_Container_base12::_Container_base12
PUBLIC	?_Orphan_all@_Container_base12@std@@QEAAXXZ	; std::_Container_base12::_Orphan_all
PUBLIC	?_Orphan_all_unlocked_v3@_Container_base12@std@@AEAAXXZ ; std::_Container_base12::_Orphan_all_unlocked_v3
PUBLIC	?_Orphan_all_locked_v3@_Container_base12@std@@AEAAXXZ ; std::_Container_base12::_Orphan_all_locked_v3
PUBLIC	??$exchange@PEAU_Iterator_base12@std@@$$T@std@@YAPEAU_Iterator_base12@0@AEAPEAU10@$$QEA$$T@Z ; std::exchange<std::_Iterator_base12 *,std::nullptr_t>
PUBLIC	??$_Construct_in_place@U_Container_proxy@std@@PEAU_Container_base12@2@@std@@YAXAEAU_Container_proxy@0@$$QEAPEAU_Container_base12@0@@Z ; std::_Construct_in_place<std::_Container_proxy,std::_Container_base12 *>
PUBLIC	?assign@?$_Char_traits@DH@std@@SAXAEADAEBD@Z	; std::_Char_traits<char,int>::assign
PUBLIC	?assign@?$_Narrow_char_traits@DH@std@@SAXAEADAEBD@Z ; std::_Narrow_char_traits<char,int>::assign
PUBLIC	?_Myptr@?$_String_val@U?$_Simple_types@D@std@@@std@@QEAAPEADXZ ; std::_String_val<std::_Simple_types<char> >::_Myptr
PUBLIC	?_Myptr@?$_String_val@U?$_Simple_types@D@std@@@std@@QEBAPEBDXZ ; std::_String_val<std::_Simple_types<char> >::_Myptr
PUBLIC	?_Large_string_engaged@?$_String_val@U?$_Simple_types@D@std@@@std@@QEBA_NXZ ; std::_String_val<std::_Simple_types<char> >::_Large_string_engaged
PUBLIC	?clear@?$basic_string@DU?$char_traits@D@std@@V?$allocator@D@2@@std@@QEAAXXZ ; std::basic_string<char,std::char_traits<char>,std::allocator<char> >::clear
PUBLIC	?data@?$basic_string@DU?$char_traits@D@std@@V?$allocator@D@2@@std@@QEBAPEBDXZ ; std::basic_string<char,std::char_traits<char>,std::allocator<char> >::data
PUBLIC	?length@?$basic_string@DU?$char_traits@D@std@@V?$allocator@D@2@@std@@QEBA_KXZ ; std::basic_string<char,std::char_traits<char>,std::allocator<char> >::length
PUBLIC	?size@?$basic_string@DU?$char_traits@D@std@@V?$allocator@D@2@@std@@QEBA_KXZ ; std::basic_string<char,std::char_traits<char>,std::allocator<char> >::size
PUBLIC	?_Eos@?$basic_string@DU?$char_traits@D@std@@V?$allocator@D@2@@std@@AEAAX_K@Z ; std::basic_string<char,std::char_traits<char>,std::allocator<char> >::_Eos
PUBLIC	??$swap@H$0A@@std@@YAXAEAH0@Z			; std::swap<int,0>
PUBLIC	??$swap@_J$0A@@std@@YAXAEA_J0@Z			; std::swap<__int64,0>
PUBLIC	?Log2FloorNonZero@Bits@protobuf@google@@SAII@Z	; google::protobuf::Bits::Log2FloorNonZero
PUBLIC	?Log2FloorNonZero64@Bits@protobuf@google@@SAI_K@Z ; google::protobuf::Bits::Log2FloorNonZero64
PUBLIC	?CheckSize@StringPiece@stringpiece_internal@protobuf@google@@CA_K_K@Z ; google::protobuf::stringpiece_internal::StringPiece::CheckSize
PUBLIC	??$?0V?$allocator@D@std@@@StringPiece@stringpiece_internal@protobuf@google@@QEAA@AEBV?$basic_string@DU?$char_traits@D@std@@V?$allocator@D@2@@std@@@Z ; google::protobuf::stringpiece_internal::StringPiece::StringPiece<std::allocator<char> >
PUBLIC	?EnsureSpace@EpsCopyOutputStream@io@protobuf@google@@QEAAPEAEPEAE@Z ; google::protobuf::io::EpsCopyOutputStream::EnsureSpace
PUBLIC	?WriteStringMaybeAliased@EpsCopyOutputStream@io@protobuf@google@@QEAAPEAEIAEBV?$basic_string@DU?$char_traits@D@std@@V?$allocator@D@2@@std@@PEAE@Z ; google::protobuf::io::EpsCopyOutputStream::WriteStringMaybeAliased
PUBLIC	?TagSize@EpsCopyOutputStream@io@protobuf@google@@CAHI@Z ; google::protobuf::io::EpsCopyOutputStream::TagSize
PUBLIC	??$UnsafeVarint@I@EpsCopyOutputStream@io@protobuf@google@@CAPEAEIPEAE@Z ; google::protobuf::io::EpsCopyOutputStream::UnsafeVarint<unsigned int>
PUBLIC	?WriteLittleEndian32ToArray@CodedOutputStream@io@protobuf@google@@SAPEAEIPEAE@Z ; google::protobuf::io::CodedOutputStream::WriteLittleEndian32ToArray
PUBLIC	?WriteVarint32ToArray@CodedOutputStream@io@protobuf@google@@SAPEAEIPEAE@Z ; google::protobuf::io::CodedOutputStream::WriteVarint32ToArray
PUBLIC	?WriteVarint64ToArray@CodedOutputStream@io@protobuf@google@@SAPEAE_KPEAE@Z ; google::protobuf::io::CodedOutputStream::WriteVarint64ToArray
PUBLIC	?WriteVarint32SignExtendedToArray@CodedOutputStream@io@protobuf@google@@SAPEAEHPEAE@Z ; google::protobuf::io::CodedOutputStream::WriteVarint32SignExtendedToArray
PUBLIC	?WriteTagToArray@CodedOutputStream@io@protobuf@google@@SAPEAEIPEAE@Z ; google::protobuf::io::CodedOutputStream::WriteTagToArray
PUBLIC	?VarintSize32@CodedOutputStream@io@protobuf@google@@SA_KI@Z ; google::protobuf::io::CodedOutputStream::VarintSize32
PUBLIC	?VarintSize64@CodedOutputStream@io@protobuf@google@@SA_K_K@Z ; google::protobuf::io::CodedOutputStream::VarintSize64
PUBLIC	?VarintSize32SignExtended@CodedOutputStream@io@protobuf@google@@SA_KH@Z ; google::protobuf::io::CodedOutputStream::VarintSize32SignExtended
PUBLIC	?VarintSize32PlusOne@CodedOutputStream@io@protobuf@google@@SA_KI@Z ; google::protobuf::io::CodedOutputStream::VarintSize32PlusOne
PUBLIC	?VarintSize64PlusOne@CodedOutputStream@io@protobuf@google@@SA_K_K@Z ; google::protobuf::io::CodedOutputStream::VarintSize64PlusOne
PUBLIC	?VarintSize32SignExtendedPlusOne@CodedOutputStream@io@protobuf@google@@SA_KH@Z ; google::protobuf::io::CodedOutputStream::VarintSize32SignExtendedPlusOne
PUBLIC	??$UnsafeVarint@_K@EpsCopyOutputStream@io@protobuf@google@@CAPEAE_KPEAE@Z ; google::protobuf::io::EpsCopyOutputStream::UnsafeVarint<unsigned __int64>
PUBLIC	?AlignUpTo8@internal@protobuf@google@@YA_K_K@Z	; google::protobuf::internal::AlignUpTo8
PUBLIC	?AlignTo@internal@protobuf@google@@YAPEAXPEAX_K@Z ; google::protobuf::internal::AlignTo
PUBLIC	??1Arena@protobuf@google@@QEAA@XZ		; google::protobuf::Arena::~Arena
PUBLIC	?SpaceAllocated@Arena@protobuf@google@@QEBA_KXZ	; google::protobuf::Arena::SpaceAllocated
PUBLIC	?AllocateInternal@Arena@protobuf@google@@AEAAPEAX_K0P6AXPEAX@ZPEBVtype_info@@@Z ; google::protobuf::Arena::AllocateInternal
PUBLIC	?AllocateAlignedWithHook@Arena@protobuf@google@@AEAAPEAX_K0PEBVtype_info@@@Z ; google::protobuf::Arena::AllocateAlignedWithHook
PUBLIC	??_GArena@protobuf@google@@QEAAPEAXI@Z		; google::protobuf::Arena::`scalar deleting destructor'
PUBLIC	??0TaggedStringPtr@internal@protobuf@google@@QEAA@PEAV?$ExplicitlyConstructed@V?$basic_string@DU?$char_traits@D@std@@V?$allocator@D@2@@std@@$07@123@@Z ; google::protobuf::internal::TaggedStringPtr::TaggedStringPtr
PUBLIC	?Get@TaggedStringPtr@internal@protobuf@google@@QEBAPEAV?$basic_string@DU?$char_traits@D@std@@V?$allocator@D@2@@std@@XZ ; google::protobuf::internal::TaggedStringPtr::Get
PUBLIC	?as_int@TaggedStringPtr@internal@protobuf@google@@AEBA_KXZ ; google::protobuf::internal::TaggedStringPtr::as_int
PUBLIC	?InitDefault@ArenaStringPtr@internal@protobuf@google@@QEAAXXZ ; google::protobuf::internal::ArenaStringPtr::InitDefault
PUBLIC	?Get@ArenaStringPtr@internal@protobuf@google@@QEBAAEBV?$basic_string@DU?$char_traits@D@std@@V?$allocator@D@2@@std@@XZ ; google::protobuf::internal::ArenaStringPtr::Get
PUBLIC	?ClearNonDefaultToEmpty@ArenaStringPtr@internal@protobuf@google@@QEAAXXZ ; google::protobuf::internal::ArenaStringPtr::ClearNonDefaultToEmpty
PUBLIC	?InternalSwap@ArenaStringPtr@internal@protobuf@google@@SAXPEAU1234@PEAVArena@34@01@Z ; google::protobuf::internal::ArenaStringPtr::InternalSwap
PUBLIC	??$swap@VTaggedStringPtr@internal@protobuf@google@@$0A@@std@@YAXAEAVTaggedStringPtr@internal@protobuf@google@@0@Z ; std::swap<google::protobuf::internal::TaggedStringPtr,0>
PUBLIC	??0InternalMetadata@internal@protobuf@google@@QEAA@XZ ; google::protobuf::internal::InternalMetadata::InternalMetadata
PUBLIC	??0InternalMetadata@internal@protobuf@google@@QEAA@PEAVArena@23@_N@Z ; google::protobuf::internal::InternalMetadata::InternalMetadata
PUBLIC	?SetArena@InternalMetadata@internal@protobuf@google@@QEAAXPEAVArena@34@_N@Z ; google::protobuf::internal::InternalMetadata::SetArena
PUBLIC	??1InternalMetadata@internal@protobuf@google@@QEAA@XZ ; google::protobuf::internal::InternalMetadata::~InternalMetadata
PUBLIC	?owning_arena@InternalMetadata@internal@protobuf@google@@QEBAPEAVArena@34@XZ ; google::protobuf::internal::InternalMetadata::owning_arena
PUBLIC	?arena@InternalMetadata@internal@protobuf@google@@QEBAPEAVArena@34@XZ ; google::protobuf::internal::InternalMetadata::arena
PUBLIC	?have_unknown_fields@InternalMetadata@internal@protobuf@google@@QEBA_NXZ ; google::protobuf::internal::InternalMetadata::have_unknown_fields
PUBLIC	?InternalSwap@InternalMetadata@internal@protobuf@google@@QEAAXPEAV1234@@Z ; google::protobuf::internal::InternalMetadata::InternalSwap
PUBLIC	?HasUnknownFieldsTag@InternalMetadata@internal@protobuf@google@@AEBA_NXZ ; google::protobuf::internal::InternalMetadata::HasUnknownFieldsTag
PUBLIC	?HasMessageOwnedArenaTag@InternalMetadata@internal@protobuf@google@@AEBA_NXZ ; google::protobuf::internal::InternalMetadata::HasMessageOwnedArenaTag
PUBLIC	??$PtrValue@UContainerBase@InternalMetadata@internal@protobuf@google@@@InternalMetadata@internal@protobuf@google@@AEBAPEAUContainerBase@0123@XZ ; google::protobuf::internal::InternalMetadata::PtrValue<google::protobuf::internal::InternalMetadata::ContainerBase>
PUBLIC	??$PtrValue@VArena@protobuf@google@@@InternalMetadata@internal@protobuf@google@@AEBAPEAVArena@23@XZ ; google::protobuf::internal::InternalMetadata::PtrValue<google::protobuf::Arena>
PUBLIC	?FromIntSize@internal@protobuf@google@@YA_KH@Z	; google::protobuf::internal::FromIntSize
PUBLIC	??0MessageLite@protobuf@google@@QEAA@XZ		; google::protobuf::MessageLite::MessageLite
PUBLIC	??1MessageLite@protobuf@google@@UEAA@XZ		; google::protobuf::MessageLite::~MessageLite
PUBLIC	?_InternalParse@MessageLite@protobuf@google@@UEAAPEBDPEBDPEAVParseContext@internal@23@@Z ; google::protobuf::MessageLite::_InternalParse
PUBLIC	??0MessageLite@protobuf@google@@IEAA@PEAVArena@12@_N@Z ; google::protobuf::MessageLite::MessageLite
PUBLIC	?GetOwningArena@MessageLite@protobuf@google@@IEBAPEAVArena@23@XZ ; google::protobuf::MessageLite::GetOwningArena
PUBLIC	?GetArenaForAllocation@MessageLite@protobuf@google@@IEBAPEAVArena@23@XZ ; google::protobuf::MessageLite::GetArenaForAllocation
PUBLIC	??_GMessageLite@protobuf@google@@UEAAPEAXI@Z	; google::protobuf::MessageLite::`scalar deleting destructor'
PUBLIC	??0?$HasBits@$00@internal@protobuf@google@@QEAA@XZ ; google::protobuf::internal::HasBits<1>::HasBits<1>
PUBLIC	?Clear@?$HasBits@$00@internal@protobuf@google@@QEAAXXZ ; google::protobuf::internal::HasBits<1>::Clear
PUBLIC	??A?$HasBits@$00@internal@protobuf@google@@QEAAAEAIH@Z ; google::protobuf::internal::HasBits<1>::operator[]
PUBLIC	??A?$HasBits@$00@internal@protobuf@google@@QEBAAEBIH@Z ; google::protobuf::internal::HasBits<1>::operator[]
PUBLIC	?Or@?$HasBits@$00@internal@protobuf@google@@QEAAXAEBV1234@@Z ; google::protobuf::internal::HasBits<1>::Or
PUBLIC	??0RepeatedPtrFieldBase@internal@protobuf@google@@IEAA@XZ ; google::protobuf::internal::RepeatedPtrFieldBase::RepeatedPtrFieldBase
PUBLIC	??0RepeatedPtrFieldBase@internal@protobuf@google@@IEAA@PEAVArena@23@@Z ; google::protobuf::internal::RepeatedPtrFieldBase::RepeatedPtrFieldBase
PUBLIC	??1RepeatedPtrFieldBase@internal@protobuf@google@@IEAA@XZ ; google::protobuf::internal::RepeatedPtrFieldBase::~RepeatedPtrFieldBase
PUBLIC	?size@RepeatedPtrFieldBase@internal@protobuf@google@@IEBAHXZ ; google::protobuf::internal::RepeatedPtrFieldBase::size
PUBLIC	?NeedsDestroy@RepeatedPtrFieldBase@internal@protobuf@google@@IEBA_NXZ ; google::protobuf::internal::RepeatedPtrFieldBase::NeedsDestroy
PUBLIC	?InternalSwap@RepeatedPtrFieldBase@internal@protobuf@google@@QEAAXPEAV1234@@Z ; google::protobuf::internal::RepeatedPtrFieldBase::InternalSwap
PUBLIC	?raw_data@RepeatedPtrFieldBase@internal@protobuf@google@@IEBAPEBQEAXXZ ; google::protobuf::internal::RepeatedPtrFieldBase::raw_data
PUBLIC	?GetOwningArena@RepeatedPtrFieldBase@internal@protobuf@google@@IEBAPEAVArena@34@XZ ; google::protobuf::internal::RepeatedPtrFieldBase::GetOwningArena
PUBLIC	?MergeFromInternal@RepeatedPtrFieldBase@internal@protobuf@google@@AEAAXAEBV1234@P81234@EAAXPEAPEAX1HH@Z@Z ; google::protobuf::internal::RepeatedPtrFieldBase::MergeFromInternal
PUBLIC	??$make_tuple@AEAPEAVArena@protobuf@google@@AEAHAEAHAEAPEAURep@RepeatedPtrFieldBase@internal@23@@std@@YA?AV?$tuple@PEAVArena@protobuf@google@@HHPEAURep@RepeatedPtrFieldBase@internal@23@@0@AEAPEAVArena@protobuf@google@@AEAH1AEAPEAURep@RepeatedPtrFieldBase@internal@34@@Z ; std::make_tuple<google::protobuf::Arena * &,int &,int &,google::protobuf::internal::RepeatedPtrFieldBase::Rep * &>
PUBLIC	?_Get_rest@?$tuple@PEAURep@RepeatedPtrFieldBase@internal@protobuf@google@@@std@@QEAAAEAV?$tuple@$$V@2@XZ ; std::tuple<google::protobuf::internal::RepeatedPtrFieldBase::Rep *>::_Get_rest
PUBLIC	?_Get_rest@?$tuple@PEAURep@RepeatedPtrFieldBase@internal@protobuf@google@@@std@@QEBAAEBV?$tuple@$$V@2@XZ ; std::tuple<google::protobuf::internal::RepeatedPtrFieldBase::Rep *>::_Get_rest
PUBLIC	?_Get_rest@?$tuple@HPEAURep@RepeatedPtrFieldBase@internal@protobuf@google@@@std@@QEAAAEAV?$tuple@PEAURep@RepeatedPtrFieldBase@internal@protobuf@google@@@2@XZ ; std::tuple<int,google::protobuf::internal::RepeatedPtrFieldBase::Rep *>::_Get_rest
PUBLIC	?_Get_rest@?$tuple@HPEAURep@RepeatedPtrFieldBase@internal@protobuf@google@@@std@@QEBAAEBV?$tuple@PEAURep@RepeatedPtrFieldBase@internal@protobuf@google@@@2@XZ ; std::tuple<int,google::protobuf::internal::RepeatedPtrFieldBase::Rep *>::_Get_rest
PUBLIC	?_Get_rest@?$tuple@HHPEAURep@RepeatedPtrFieldBase@internal@protobuf@google@@@std@@QEAAAEAV?$tuple@HPEAURep@RepeatedPtrFieldBase@internal@protobuf@google@@@2@XZ ; std::tuple<int,int,google::protobuf::internal::RepeatedPtrFieldBase::Rep *>::_Get_rest
PUBLIC	?_Get_rest@?$tuple@HHPEAURep@RepeatedPtrFieldBase@internal@protobuf@google@@@std@@QEBAAEBV?$tuple@HPEAURep@RepeatedPtrFieldBase@internal@protobuf@google@@@2@XZ ; std::tuple<int,int,google::protobuf::internal::RepeatedPtrFieldBase::Rep *>::_Get_rest
PUBLIC	?_Get_rest@?$tuple@PEAVArena@protobuf@google@@HHPEAURep@RepeatedPtrFieldBase@internal@23@@std@@QEAAAEAV?$tuple@HHPEAURep@RepeatedPtrFieldBase@internal@protobuf@google@@@2@XZ ; std::tuple<google::protobuf::Arena *,int,int,google::protobuf::internal::RepeatedPtrFieldBase::Rep *>::_Get_rest
PUBLIC	?_Get_rest@?$tuple@PEAVArena@protobuf@google@@HHPEAURep@RepeatedPtrFieldBase@internal@23@@std@@QEBAAEBV?$tuple@HHPEAURep@RepeatedPtrFieldBase@internal@protobuf@google@@@2@XZ ; std::tuple<google::protobuf::Arena *,int,int,google::protobuf::internal::RepeatedPtrFieldBase::Rep *>::_Get_rest
PUBLIC	??$tie@PEAVArena@protobuf@google@@HHPEAURep@RepeatedPtrFieldBase@internal@23@@std@@YA?AV?$tuple@AEAPEAVArena@protobuf@google@@AEAHAEAHAEAPEAURep@RepeatedPtrFieldBase@internal@23@@0@AEAPEAVArena@protobuf@google@@AEAH1AEAPEAURep@RepeatedPtrFieldBase@internal@34@@Z ; std::tie<google::protobuf::Arena *,int,int,google::protobuf::internal::RepeatedPtrFieldBase::Rep *>
PUBLIC	?_Get_rest@?$tuple@AEAPEAURep@RepeatedPtrFieldBase@internal@protobuf@google@@@std@@QEAAAEAV?$tuple@$$V@2@XZ ; std::tuple<google::protobuf::internal::RepeatedPtrFieldBase::Rep * &>::_Get_rest
PUBLIC	?_Get_rest@?$tuple@AEAHAEAPEAURep@RepeatedPtrFieldBase@internal@protobuf@google@@@std@@QEAAAEAV?$tuple@AEAPEAURep@RepeatedPtrFieldBase@internal@protobuf@google@@@2@XZ ; std::tuple<int &,google::protobuf::internal::RepeatedPtrFieldBase::Rep * &>::_Get_rest
PUBLIC	?_Get_rest@?$tuple@AEAHAEAHAEAPEAURep@RepeatedPtrFieldBase@internal@protobuf@google@@@std@@QEAAAEAV?$tuple@AEAHAEAPEAURep@RepeatedPtrFieldBase@internal@protobuf@google@@@2@XZ ; std::tuple<int &,int &,google::protobuf::internal::RepeatedPtrFieldBase::Rep * &>::_Get_rest
PUBLIC	?_Get_rest@?$tuple@AEAPEAVArena@protobuf@google@@AEAHAEAHAEAPEAURep@RepeatedPtrFieldBase@internal@23@@std@@QEAAAEAV?$tuple@AEAHAEAHAEAPEAURep@RepeatedPtrFieldBase@internal@protobuf@google@@@2@XZ ; std::tuple<google::protobuf::Arena * &,int &,int &,google::protobuf::internal::RepeatedPtrFieldBase::Rep * &>::_Get_rest
PUBLIC	??$?4PEAVArena@protobuf@google@@HHPEAURep@RepeatedPtrFieldBase@internal@12@$0A@@?$tuple@AEAPEAVArena@protobuf@google@@AEAHAEAHAEAPEAURep@RepeatedPtrFieldBase@internal@23@@std@@QEAAAEAV01@$$QEAV?$tuple@PEAVArena@protobuf@google@@HHPEAURep@RepeatedPtrFieldBase@internal@23@@1@@Z ; std::tuple<google::protobuf::Arena * &,int &,int &,google::protobuf::internal::RepeatedPtrFieldBase::Rep * &>::operator=<google::protobuf::Arena *,int,int,google::protobuf::internal::RepeatedPtrFieldBase::Rep *,0>
PUBLIC	??$?4PEAVArena@protobuf@google@@HHPEAURep@RepeatedPtrFieldBase@internal@12@$0A@@?$tuple@AEAPEAVArena@protobuf@google@@AEAHAEAHAEAPEAURep@RepeatedPtrFieldBase@internal@23@@std@@QEAAAEAV01@AEBV?$tuple@PEAVArena@protobuf@google@@HHPEAURep@RepeatedPtrFieldBase@internal@23@@1@@Z ; std::tuple<google::protobuf::Arena * &,int &,int &,google::protobuf::internal::RepeatedPtrFieldBase::Rep * &>::operator=<google::protobuf::Arena *,int,int,google::protobuf::internal::RepeatedPtrFieldBase::Rep *,0>
PUBLIC	??0?$RepeatedField@_K@protobuf@google@@QEAA@XZ	; google::protobuf::RepeatedField<unsigned __int64>::RepeatedField<unsigned __int64>
PUBLIC	??_G?$RepeatedField@_K@protobuf@google@@QEAAPEAXI@Z ; google::protobuf::RepeatedField<unsigned __int64>::`scalar deleting destructor'
PUBLIC	?MakeTag@WireFormatLite@internal@protobuf@google@@SAIHW4WireType@1234@@Z ; google::protobuf::internal::WireFormatLite::MakeTag
PUBLIC	?EncodeFloat@WireFormatLite@internal@protobuf@google@@SAIM@Z ; google::protobuf::internal::WireFormatLite::EncodeFloat
PUBLIC	?WriteTagToArray@WireFormatLite@internal@protobuf@google@@SAPEAEHW4WireType@1234@PEAE@Z ; google::protobuf::internal::WireFormatLite::WriteTagToArray
PUBLIC	?WriteInt32NoTagToArray@WireFormatLite@internal@protobuf@google@@SAPEAEHPEAE@Z ; google::protobuf::internal::WireFormatLite::WriteInt32NoTagToArray
PUBLIC	?WriteUInt32NoTagToArray@WireFormatLite@internal@protobuf@google@@SAPEAEIPEAE@Z ; google::protobuf::internal::WireFormatLite::WriteUInt32NoTagToArray
PUBLIC	?WriteUInt64NoTagToArray@WireFormatLite@internal@protobuf@google@@SAPEAE_KPEAE@Z ; google::protobuf::internal::WireFormatLite::WriteUInt64NoTagToArray
PUBLIC	?WriteFloatNoTagToArray@WireFormatLite@internal@protobuf@google@@SAPEAEMPEAE@Z ; google::protobuf::internal::WireFormatLite::WriteFloatNoTagToArray
PUBLIC	?WriteEnumNoTagToArray@WireFormatLite@internal@protobuf@google@@SAPEAEHPEAE@Z ; google::protobuf::internal::WireFormatLite::WriteEnumNoTagToArray
PUBLIC	?WriteInt32ToArray@WireFormatLite@internal@protobuf@google@@SAPEAEHHPEAE@Z ; google::protobuf::internal::WireFormatLite::WriteInt32ToArray
PUBLIC	?WriteUInt32ToArray@WireFormatLite@internal@protobuf@google@@SAPEAEHIPEAE@Z ; google::protobuf::internal::WireFormatLite::WriteUInt32ToArray
PUBLIC	?WriteUInt64ToArray@WireFormatLite@internal@protobuf@google@@SAPEAEH_KPEAE@Z ; google::protobuf::internal::WireFormatLite::WriteUInt64ToArray
PUBLIC	?WriteFloatToArray@WireFormatLite@internal@protobuf@google@@SAPEAEHMPEAE@Z ; google::protobuf::internal::WireFormatLite::WriteFloatToArray
PUBLIC	?WriteEnumToArray@WireFormatLite@internal@protobuf@google@@SAPEAEHHPEAE@Z ; google::protobuf::internal::WireFormatLite::WriteEnumToArray
PUBLIC	?EnumSize@WireFormatLite@internal@protobuf@google@@SA_KH@Z ; google::protobuf::internal::WireFormatLite::EnumSize
PUBLIC	?Int32SizePlusOne@WireFormatLite@internal@protobuf@google@@SA_KH@Z ; google::protobuf::internal::WireFormatLite::Int32SizePlusOne
PUBLIC	?UInt32SizePlusOne@WireFormatLite@internal@protobuf@google@@SA_KI@Z ; google::protobuf::internal::WireFormatLite::UInt32SizePlusOne
PUBLIC	?UInt64SizePlusOne@WireFormatLite@internal@protobuf@google@@SA_K_K@Z ; google::protobuf::internal::WireFormatLite::UInt64SizePlusOne
PUBLIC	?StringSize@WireFormatLite@internal@protobuf@google@@SA_KAEBV?$basic_string@DU?$char_traits@D@std@@V?$allocator@D@2@@std@@@Z ; google::protobuf::internal::WireFormatLite::StringSize
PUBLIC	?LengthDelimitedSize@WireFormatLite@internal@protobuf@google@@SA_K_K@Z ; google::protobuf::internal::WireFormatLite::LengthDelimitedSize
PUBLIC	??$bit_cast@IM@internal@protobuf@google@@YAIAEBM@Z ; google::protobuf::internal::bit_cast<unsigned int,float>
PUBLIC	?Get@CachedSize@internal@protobuf@google@@QEBAHXZ ; google::protobuf::internal::CachedSize::Get
PUBLIC	?Set@CachedSize@internal@protobuf@google@@QEAAXH@Z ; google::protobuf::internal::CachedSize::Set
PUBLIC	??0?$_Atomic_storage@H$03@std@@QEAA@H@Z		; std::_Atomic_storage<int,4>::_Atomic_storage<int,4>
PUBLIC	?store@?$_Atomic_storage@H$03@std@@QEAAXH@Z	; std::_Atomic_storage<int,4>::store
PUBLIC	?store@?$_Atomic_storage@H$03@std@@QEAAXHW4memory_order@2@@Z ; std::_Atomic_storage<int,4>::store
PUBLIC	?load@?$_Atomic_storage@H$03@std@@QEBAHW4memory_order@2@@Z ; std::_Atomic_storage<int,4>::load
PUBLIC	??0?$_Atomic_integral@H$03@std@@QEAA@H@Z	; std::_Atomic_integral<int,4>::_Atomic_integral<int,4>
PUBLIC	??0?$_Atomic_integral_facade@H@std@@QEAA@H@Z	; std::_Atomic_integral_facade<int>::_Atomic_integral_facade<int>
PUBLIC	??0?$atomic@H@std@@QEAA@H@Z			; std::atomic<int>::atomic<int>
PUBLIC	??0CachedSize@internal@protobuf@google@@QEAA@XZ	; google::protobuf::internal::CachedSize::CachedSize
PUBLIC	?ToHost@little_endian@internal@protobuf@google@@YAII@Z ; google::protobuf::internal::little_endian::ToHost
PUBLIC	?WriteVarint@internal@protobuf@google@@YAXI_KPEAVUnknownFieldSet@23@@Z ; google::protobuf::internal::WriteVarint
PUBLIC	?SetLastTag@EpsCopyInputStream@internal@protobuf@google@@QEAAXI@Z ; google::protobuf::internal::EpsCopyInputStream::SetLastTag
PUBLIC	?DataAvailable@EpsCopyInputStream@internal@protobuf@google@@QEAA_NPEBD@Z ; google::protobuf::internal::EpsCopyInputStream::DataAvailable
PUBLIC	?DoneWithCheck@EpsCopyInputStream@internal@protobuf@google@@IEAA_NPEAPEBDH@Z ; google::protobuf::internal::EpsCopyInputStream::DoneWithCheck
PUBLIC	?Done@ParseContext@internal@protobuf@google@@QEAA_NPEAPEBD@Z ; google::protobuf::internal::ParseContext::Done
PUBLIC	?Load@?$EndianHelper@$03@internal@protobuf@google@@SAIPEBX@Z ; google::protobuf::internal::EndianHelper<4>::Load
PUBLIC	?VarintParseSlow@internal@protobuf@google@@YAPEBDPEBDIPEAI@Z ; google::protobuf::internal::VarintParseSlow
PUBLIC	?VarintParseSlow@internal@protobuf@google@@YAPEBDPEBDIPEA_K@Z ; google::protobuf::internal::VarintParseSlow
PUBLIC	?ReadTag@internal@protobuf@google@@YAPEBDPEBDPEAII@Z ; google::protobuf::internal::ReadTag
PUBLIC	?ReadVarint64@internal@protobuf@google@@YA_KPEAPEBD@Z ; google::protobuf::internal::ReadVarint64
PUBLIC	??$VarintParse@_K@internal@protobuf@google@@YAPEBDPEBDPEA_K@Z ; google::protobuf::internal::VarintParse<unsigned __int64>
PUBLIC	?ReadVarint32@internal@protobuf@google@@YAIPEAPEBD@Z ; google::protobuf::internal::ReadVarint32
PUBLIC	??$VarintParse@I@internal@protobuf@google@@YAPEBDPEBDPEAI@Z ; google::protobuf::internal::VarintParse<unsigned int>
PUBLIC	?VerifyUTF8@internal@protobuf@google@@YA_NPEBV?$basic_string@DU?$char_traits@D@std@@V?$allocator@D@2@@std@@PEBD@Z ; google::protobuf::internal::VerifyUTF8
PUBLIC	??0UnknownFieldSet@protobuf@google@@QEAA@XZ	; google::protobuf::UnknownFieldSet::UnknownFieldSet
PUBLIC	??1UnknownFieldSet@protobuf@google@@QEAA@XZ	; google::protobuf::UnknownFieldSet::~UnknownFieldSet
PUBLIC	?Clear@UnknownFieldSet@protobuf@google@@QEAAXXZ	; google::protobuf::UnknownFieldSet::Clear
PUBLIC	??0?$allocator@VUnknownField@protobuf@google@@@std@@QEAA@XZ ; std::allocator<google::protobuf::UnknownField>::allocator<google::protobuf::UnknownField>
PUBLIC	?deallocate@?$allocator@VUnknownField@protobuf@google@@@std@@QEAAXQEAVUnknownField@protobuf@google@@_K@Z ; std::allocator<google::protobuf::UnknownField>::deallocate
PUBLIC	??0?$vector@VUnknownField@protobuf@google@@V?$allocator@VUnknownField@protobuf@google@@@std@@@std@@QEAA@XZ ; std::vector<google::protobuf::UnknownField,std::allocator<google::protobuf::UnknownField> >::vector<google::protobuf::UnknownField,std::allocator<google::protobuf::UnknownField> >
PUBLIC	??1?$vector@VUnknownField@protobuf@google@@V?$allocator@VUnknownField@protobuf@google@@@std@@@std@@QEAA@XZ ; std::vector<google::protobuf::UnknownField,std::allocator<google::protobuf::UnknownField> >::~vector<google::protobuf::UnknownField,std::allocator<google::protobuf::UnknownField> >
PUBLIC	?empty@?$vector@VUnknownField@protobuf@google@@V?$allocator@VUnknownField@protobuf@google@@@std@@@std@@QEBA_NXZ ; std::vector<google::protobuf::UnknownField,std::allocator<google::protobuf::UnknownField> >::empty
PUBLIC	?_Tidy@?$vector@VUnknownField@protobuf@google@@V?$allocator@VUnknownField@protobuf@google@@@std@@@std@@AEAAXXZ ; std::vector<google::protobuf::UnknownField,std::allocator<google::protobuf::UnknownField> >::_Tidy
PUBLIC	?_Getal@?$vector@VUnknownField@protobuf@google@@V?$allocator@VUnknownField@protobuf@google@@@std@@@std@@AEAAAEAV?$allocator@VUnknownField@protobuf@google@@@2@XZ ; std::vector<google::protobuf::UnknownField,std::allocator<google::protobuf::UnknownField> >::_Getal
PUBLIC	??0?$_Vector_val@U?$_Simple_types@VUnknownField@protobuf@google@@@std@@@std@@QEAA@XZ ; std::_Vector_val<std::_Simple_types<google::protobuf::UnknownField> >::_Vector_val<std::_Simple_types<google::protobuf::UnknownField> >
PUBLIC	?_Get_first@?$_Compressed_pair@V?$allocator@VUnknownField@protobuf@google@@@std@@V?$_Vector_val@U?$_Simple_types@VUnknownField@protobuf@google@@@std@@@2@$00@std@@QEAAAEAV?$allocator@VUnknownField@protobuf@google@@@2@XZ ; std::_Compressed_pair<std::allocator<google::protobuf::UnknownField>,std::_Vector_val<std::_Simple_types<google::protobuf::UnknownField> >,1>::_Get_first
PUBLIC	??0Message@protobuf@google@@QEAA@XZ		; google::protobuf::Message::Message
PUBLIC	?GetClassData@Message@protobuf@google@@MEBAPEBUClassData@123@XZ ; google::protobuf::Message::GetClassData
PUBLIC	??0Message@protobuf@google@@IEAA@PEAVArena@12@_N@Z ; google::protobuf::Message::Message
PUBLIC	??1Message@protobuf@google@@UEAA@XZ		; google::protobuf::Message::~Message
PUBLIC	??_GMessage@protobuf@google@@UEAAPEAXI@Z	; google::protobuf::Message::`scalar deleting destructor'
PUBLIC	??$unknown_fields@VUnknownFieldSet@protobuf@google@@@InternalMetadata@internal@protobuf@google@@QEBAAEBVUnknownFieldSet@23@P6AAEBV423@XZ@Z ; google::protobuf::internal::InternalMetadata::unknown_fields<google::protobuf::UnknownFieldSet>
PUBLIC	??$mutable_unknown_fields@VUnknownFieldSet@protobuf@google@@@InternalMetadata@internal@protobuf@google@@QEAAPEAVUnknownFieldSet@23@XZ ; google::protobuf::internal::InternalMetadata::mutable_unknown_fields<google::protobuf::UnknownFieldSet>
PUBLIC	?MergeFrom@Point2D@SC2APIProtocol@@QEAAXAEBV12@@Z ; SC2APIProtocol::Point2D::MergeFrom
PUBLIC	?GetCachedSize@Point2D@SC2APIProtocol@@UEBAHXZ	; SC2APIProtocol::Point2D::GetCachedSize
PUBLIC	??_GPoint2D@SC2APIProtocol@@UEAAPEAXI@Z		; SC2APIProtocol::Point2D::`scalar deleting destructor'
PUBLIC	??$CreateMaybeMessage@VPoint2D@SC2APIProtocol@@@MessageLite@protobuf@google@@KAPEAVPoint2D@SC2APIProtocol@@PEAVArena@12@@Z ; google::protobuf::MessageLite::CreateMaybeMessage<SC2APIProtocol::Point2D>
PUBLIC	?MergeFrom@Point@SC2APIProtocol@@QEAAXAEBV12@@Z	; SC2APIProtocol::Point::MergeFrom
PUBLIC	?GetCachedSize@Point@SC2APIProtocol@@UEBAHXZ	; SC2APIProtocol::Point::GetCachedSize
PUBLIC	??_GPoint@SC2APIProtocol@@UEAAPEAXI@Z		; SC2APIProtocol::Point::`scalar deleting destructor'
PUBLIC	??$CreateMaybeMessage@VPoint@SC2APIProtocol@@@MessageLite@protobuf@google@@KAPEAVPoint@SC2APIProtocol@@PEAVArena@12@@Z ; google::protobuf::MessageLite::CreateMaybeMessage<SC2APIProtocol::Point>
PUBLIC	??$CreateMaybeMessage@VColor@SC2APIProtocol@@$$V@Arena@protobuf@google@@CAPEAVColor@SC2APIProtocol@@PEAV012@@Z ; google::protobuf::Arena::CreateMaybeMessage<SC2APIProtocol::Color>
PUBLIC	??$CreateMaybeMessage@VDebugBox@SC2APIProtocol@@$$V@Arena@protobuf@google@@CAPEAVDebugBox@SC2APIProtocol@@PEAV012@@Z ; google::protobuf::Arena::CreateMaybeMessage<SC2APIProtocol::DebugBox>
PUBLIC	??$CreateMaybeMessage@VDebugCommand@SC2APIProtocol@@$$V@Arena@protobuf@google@@CAPEAVDebugCommand@SC2APIProtocol@@PEAV012@@Z ; google::protobuf::Arena::CreateMaybeMessage<SC2APIProtocol::DebugCommand>
PUBLIC	??$CreateMaybeMessage@VDebugCreateUnit@SC2APIProtocol@@$$V@Arena@protobuf@google@@CAPEAVDebugCreateUnit@SC2APIProtocol@@PEAV012@@Z ; google::protobuf::Arena::CreateMaybeMessage<SC2APIProtocol::DebugCreateUnit>
PUBLIC	??$CreateMaybeMessage@VDebugDraw@SC2APIProtocol@@$$V@Arena@protobuf@google@@CAPEAVDebugDraw@SC2APIProtocol@@PEAV012@@Z ; google::protobuf::Arena::CreateMaybeMessage<SC2APIProtocol::DebugDraw>
PUBLIC	??$CreateMaybeMessage@VDebugEndGame@SC2APIProtocol@@$$V@Arena@protobuf@google@@CAPEAVDebugEndGame@SC2APIProtocol@@PEAV012@@Z ; google::protobuf::Arena::CreateMaybeMessage<SC2APIProtocol::DebugEndGame>
PUBLIC	??$CreateMaybeMessage@VDebugKillUnit@SC2APIProtocol@@$$V@Arena@protobuf@google@@CAPEAVDebugKillUnit@SC2APIProtocol@@PEAV012@@Z ; google::protobuf::Arena::CreateMaybeMessage<SC2APIProtocol::DebugKillUnit>
PUBLIC	??$CreateMaybeMessage@VDebugLine@SC2APIProtocol@@$$V@Arena@protobuf@google@@CAPEAVDebugLine@SC2APIProtocol@@PEAV012@@Z ; google::protobuf::Arena::CreateMaybeMessage<SC2APIProtocol::DebugLine>
PUBLIC	??$CreateMaybeMessage@VDebugSetScore@SC2APIProtocol@@$$V@Arena@protobuf@google@@CAPEAVDebugSetScore@SC2APIProtocol@@PEAV012@@Z ; google::protobuf::Arena::CreateMaybeMessage<SC2APIProtocol::DebugSetScore>
PUBLIC	??$CreateMaybeMessage@VDebugSetUnitValue@SC2APIProtocol@@$$V@Arena@protobuf@google@@CAPEAVDebugSetUnitValue@SC2APIProtocol@@PEAV012@@Z ; google::protobuf::Arena::CreateMaybeMessage<SC2APIProtocol::DebugSetUnitValue>
PUBLIC	??$CreateMaybeMessage@VDebugSphere@SC2APIProtocol@@$$V@Arena@protobuf@google@@CAPEAVDebugSphere@SC2APIProtocol@@PEAV012@@Z ; google::protobuf::Arena::CreateMaybeMessage<SC2APIProtocol::DebugSphere>
PUBLIC	??$CreateMaybeMessage@VDebugTestProcess@SC2APIProtocol@@$$V@Arena@protobuf@google@@CAPEAVDebugTestProcess@SC2APIProtocol@@PEAV012@@Z ; google::protobuf::Arena::CreateMaybeMessage<SC2APIProtocol::DebugTestProcess>
PUBLIC	??$CreateMaybeMessage@VDebugText@SC2APIProtocol@@$$V@Arena@protobuf@google@@CAPEAVDebugText@SC2APIProtocol@@PEAV012@@Z ; google::protobuf::Arena::CreateMaybeMessage<SC2APIProtocol::DebugText>
PUBLIC	??$CreateMaybeMessage@VLine@SC2APIProtocol@@$$V@Arena@protobuf@google@@CAPEAVLine@SC2APIProtocol@@PEAV012@@Z ; google::protobuf::Arena::CreateMaybeMessage<SC2APIProtocol::Line>
PUBLIC	?DebugTestProcess_Test_IsValid@SC2APIProtocol@@YA_NH@Z ; SC2APIProtocol::DebugTestProcess_Test_IsValid
PUBLIC	?DebugTestProcess_Test_descriptor@SC2APIProtocol@@YAPEBVEnumDescriptor@protobuf@google@@XZ ; SC2APIProtocol::DebugTestProcess_Test_descriptor
PUBLIC	?DebugEndGame_EndResult_IsValid@SC2APIProtocol@@YA_NH@Z ; SC2APIProtocol::DebugEndGame_EndResult_IsValid
PUBLIC	?DebugEndGame_EndResult_descriptor@SC2APIProtocol@@YAPEBVEnumDescriptor@protobuf@google@@XZ ; SC2APIProtocol::DebugEndGame_EndResult_descriptor
PUBLIC	?DebugSetUnitValue_UnitValue_IsValid@SC2APIProtocol@@YA_NH@Z ; SC2APIProtocol::DebugSetUnitValue_UnitValue_IsValid
PUBLIC	?DebugSetUnitValue_UnitValue_descriptor@SC2APIProtocol@@YAPEBVEnumDescriptor@protobuf@google@@XZ ; SC2APIProtocol::DebugSetUnitValue_UnitValue_descriptor
PUBLIC	?DebugGameState_IsValid@SC2APIProtocol@@YA_NH@Z	; SC2APIProtocol::DebugGameState_IsValid
PUBLIC	?DebugGameState_descriptor@SC2APIProtocol@@YAPEBVEnumDescriptor@protobuf@google@@XZ ; SC2APIProtocol::DebugGameState_descriptor
PUBLIC	??1DebugCommand@SC2APIProtocol@@UEAA@XZ		; SC2APIProtocol::DebugCommand::~DebugCommand
PUBLIC	??0DebugCommand@SC2APIProtocol@@QEAA@AEBV01@@Z	; SC2APIProtocol::DebugCommand::DebugCommand
PUBLIC	?mutable_unknown_fields@DebugCommand@SC2APIProtocol@@QEAAPEAVUnknownFieldSet@protobuf@google@@XZ ; SC2APIProtocol::DebugCommand::mutable_unknown_fields
PUBLIC	?CopyFrom@DebugCommand@SC2APIProtocol@@QEAAXAEBV12@@Z ; SC2APIProtocol::DebugCommand::CopyFrom
PUBLIC	?MergeFrom@DebugCommand@SC2APIProtocol@@QEAAXAEBV12@@Z ; SC2APIProtocol::DebugCommand::MergeFrom
PUBLIC	?SharedCtor@DebugCommand@SC2APIProtocol@@AEAAXPEAVArena@protobuf@google@@_N@Z ; SC2APIProtocol::DebugCommand::SharedCtor
PUBLIC	?SharedDtor@DebugCommand@SC2APIProtocol@@AEAAXXZ ; SC2APIProtocol::DebugCommand::SharedDtor
PUBLIC	?InternalSwap@DebugCommand@SC2APIProtocol@@AEAAXPEAV12@@Z ; SC2APIProtocol::DebugCommand::InternalSwap
PUBLIC	??0DebugCommand@SC2APIProtocol@@IEAA@PEAVArena@protobuf@google@@_N@Z ; SC2APIProtocol::DebugCommand::DebugCommand
PUBLIC	?_internal_has_draw@DebugCommand@SC2APIProtocol@@AEBA_NXZ ; SC2APIProtocol::DebugCommand::_internal_has_draw
PUBLIC	?set_allocated_draw@DebugCommand@SC2APIProtocol@@QEAAXPEAVDebugDraw@2@@Z ; SC2APIProtocol::DebugCommand::set_allocated_draw
PUBLIC	?_internal_draw@DebugCommand@SC2APIProtocol@@AEBAAEBVDebugDraw@2@XZ ; SC2APIProtocol::DebugCommand::_internal_draw
PUBLIC	?_internal_mutable_draw@DebugCommand@SC2APIProtocol@@AEAAPEAVDebugDraw@2@XZ ; SC2APIProtocol::DebugCommand::_internal_mutable_draw
PUBLIC	?_internal_has_game_state@DebugCommand@SC2APIProtocol@@AEBA_NXZ ; SC2APIProtocol::DebugCommand::_internal_has_game_state
PUBLIC	?_internal_game_state@DebugCommand@SC2APIProtocol@@AEBA?AW4DebugGameState@2@XZ ; SC2APIProtocol::DebugCommand::_internal_game_state
PUBLIC	?_internal_set_game_state@DebugCommand@SC2APIProtocol@@AEAAXW4DebugGameState@2@@Z ; SC2APIProtocol::DebugCommand::_internal_set_game_state
PUBLIC	?_internal_has_create_unit@DebugCommand@SC2APIProtocol@@AEBA_NXZ ; SC2APIProtocol::DebugCommand::_internal_has_create_unit
PUBLIC	?set_allocated_create_unit@DebugCommand@SC2APIProtocol@@QEAAXPEAVDebugCreateUnit@2@@Z ; SC2APIProtocol::DebugCommand::set_allocated_create_unit
PUBLIC	?_internal_create_unit@DebugCommand@SC2APIProtocol@@AEBAAEBVDebugCreateUnit@2@XZ ; SC2APIProtocol::DebugCommand::_internal_create_unit
PUBLIC	?_internal_mutable_create_unit@DebugCommand@SC2APIProtocol@@AEAAPEAVDebugCreateUnit@2@XZ ; SC2APIProtocol::DebugCommand::_internal_mutable_create_unit
PUBLIC	?_internal_has_kill_unit@DebugCommand@SC2APIProtocol@@AEBA_NXZ ; SC2APIProtocol::DebugCommand::_internal_has_kill_unit
PUBLIC	?set_allocated_kill_unit@DebugCommand@SC2APIProtocol@@QEAAXPEAVDebugKillUnit@2@@Z ; SC2APIProtocol::DebugCommand::set_allocated_kill_unit
PUBLIC	?_internal_kill_unit@DebugCommand@SC2APIProtocol@@AEBAAEBVDebugKillUnit@2@XZ ; SC2APIProtocol::DebugCommand::_internal_kill_unit
PUBLIC	?_internal_mutable_kill_unit@DebugCommand@SC2APIProtocol@@AEAAPEAVDebugKillUnit@2@XZ ; SC2APIProtocol::DebugCommand::_internal_mutable_kill_unit
PUBLIC	?_internal_has_test_process@DebugCommand@SC2APIProtocol@@AEBA_NXZ ; SC2APIProtocol::DebugCommand::_internal_has_test_process
PUBLIC	?set_allocated_test_process@DebugCommand@SC2APIProtocol@@QEAAXPEAVDebugTestProcess@2@@Z ; SC2APIProtocol::DebugCommand::set_allocated_test_process
PUBLIC	?_internal_test_process@DebugCommand@SC2APIProtocol@@AEBAAEBVDebugTestProcess@2@XZ ; SC2APIProtocol::DebugCommand::_internal_test_process
PUBLIC	?_internal_mutable_test_process@DebugCommand@SC2APIProtocol@@AEAAPEAVDebugTestProcess@2@XZ ; SC2APIProtocol::DebugCommand::_internal_mutable_test_process
PUBLIC	?_internal_has_score@DebugCommand@SC2APIProtocol@@AEBA_NXZ ; SC2APIProtocol::DebugCommand::_internal_has_score
PUBLIC	?set_allocated_score@DebugCommand@SC2APIProtocol@@QEAAXPEAVDebugSetScore@2@@Z ; SC2APIProtocol::DebugCommand::set_allocated_score
PUBLIC	?_internal_score@DebugCommand@SC2APIProtocol@@AEBAAEBVDebugSetScore@2@XZ ; SC2APIProtocol::DebugCommand::_internal_score
PUBLIC	?_internal_mutable_score@DebugCommand@SC2APIProtocol@@AEAAPEAVDebugSetScore@2@XZ ; SC2APIProtocol::DebugCommand::_internal_mutable_score
PUBLIC	?_internal_has_end_game@DebugCommand@SC2APIProtocol@@AEBA_NXZ ; SC2APIProtocol::DebugCommand::_internal_has_end_game
PUBLIC	?set_allocated_end_game@DebugCommand@SC2APIProtocol@@QEAAXPEAVDebugEndGame@2@@Z ; SC2APIProtocol::DebugCommand::set_allocated_end_game
PUBLIC	?_internal_end_game@DebugCommand@SC2APIProtocol@@AEBAAEBVDebugEndGame@2@XZ ; SC2APIProtocol::DebugCommand::_internal_end_game
PUBLIC	?_internal_mutable_end_game@DebugCommand@SC2APIProtocol@@AEAAPEAVDebugEndGame@2@XZ ; SC2APIProtocol::DebugCommand::_internal_mutable_end_game
PUBLIC	?_internal_has_unit_value@DebugCommand@SC2APIProtocol@@AEBA_NXZ ; SC2APIProtocol::DebugCommand::_internal_has_unit_value
PUBLIC	?set_allocated_unit_value@DebugCommand@SC2APIProtocol@@QEAAXPEAVDebugSetUnitValue@2@@Z ; SC2APIProtocol::DebugCommand::set_allocated_unit_value
PUBLIC	?_internal_unit_value@DebugCommand@SC2APIProtocol@@AEBAAEBVDebugSetUnitValue@2@XZ ; SC2APIProtocol::DebugCommand::_internal_unit_value
PUBLIC	?_internal_mutable_unit_value@DebugCommand@SC2APIProtocol@@AEAAPEAVDebugSetUnitValue@2@XZ ; SC2APIProtocol::DebugCommand::_internal_mutable_unit_value
PUBLIC	?clear_command@DebugCommand@SC2APIProtocol@@QEAAXXZ ; SC2APIProtocol::DebugCommand::clear_command
PUBLIC	?command_case@DebugCommand@SC2APIProtocol@@QEBA?AW4CommandCase@12@XZ ; SC2APIProtocol::DebugCommand::command_case
PUBLIC	?set_has_draw@DebugCommand@SC2APIProtocol@@AEAAXXZ ; SC2APIProtocol::DebugCommand::set_has_draw
PUBLIC	?set_has_game_state@DebugCommand@SC2APIProtocol@@AEAAXXZ ; SC2APIProtocol::DebugCommand::set_has_game_state
PUBLIC	?set_has_create_unit@DebugCommand@SC2APIProtocol@@AEAAXXZ ; SC2APIProtocol::DebugCommand::set_has_create_unit
PUBLIC	?set_has_kill_unit@DebugCommand@SC2APIProtocol@@AEAAXXZ ; SC2APIProtocol::DebugCommand::set_has_kill_unit
PUBLIC	?set_has_test_process@DebugCommand@SC2APIProtocol@@AEAAXXZ ; SC2APIProtocol::DebugCommand::set_has_test_process
PUBLIC	?set_has_score@DebugCommand@SC2APIProtocol@@AEAAXXZ ; SC2APIProtocol::DebugCommand::set_has_score
PUBLIC	?set_has_end_game@DebugCommand@SC2APIProtocol@@AEAAXXZ ; SC2APIProtocol::DebugCommand::set_has_end_game
PUBLIC	?set_has_unit_value@DebugCommand@SC2APIProtocol@@AEAAXXZ ; SC2APIProtocol::DebugCommand::set_has_unit_value
PUBLIC	?has_command@DebugCommand@SC2APIProtocol@@AEBA_NXZ ; SC2APIProtocol::DebugCommand::has_command
PUBLIC	?clear_has_command@DebugCommand@SC2APIProtocol@@AEAAXXZ ; SC2APIProtocol::DebugCommand::clear_has_command
PUBLIC	??0CommandUnion@Impl_@DebugCommand@SC2APIProtocol@@QEAA@XZ ; SC2APIProtocol::DebugCommand::Impl_::CommandUnion::CommandUnion
PUBLIC	??$CreateMaybeMessage@VDebugCommand@SC2APIProtocol@@@MessageLite@protobuf@google@@KAPEAVDebugCommand@SC2APIProtocol@@PEAVArena@12@@Z ; google::protobuf::MessageLite::CreateMaybeMessage<SC2APIProtocol::DebugCommand>
PUBLIC	??1DebugDraw@SC2APIProtocol@@UEAA@XZ		; SC2APIProtocol::DebugDraw::~DebugDraw
PUBLIC	??0DebugDraw@SC2APIProtocol@@QEAA@UConstantInitialized@internal@protobuf@google@@@Z ; SC2APIProtocol::DebugDraw::DebugDraw
PUBLIC	??0DebugDraw@SC2APIProtocol@@QEAA@AEBV01@@Z	; SC2APIProtocol::DebugDraw::DebugDraw
PUBLIC	?New@DebugDraw@SC2APIProtocol@@UEBAPEAV12@PEAVArena@protobuf@google@@@Z ; SC2APIProtocol::DebugDraw::New
PUBLIC	?CopyFrom@DebugDraw@SC2APIProtocol@@QEAAXAEBV12@@Z ; SC2APIProtocol::DebugDraw::CopyFrom
PUBLIC	?MergeFrom@DebugDraw@SC2APIProtocol@@QEAAXAEBV12@@Z ; SC2APIProtocol::DebugDraw::MergeFrom
PUBLIC	?Clear@DebugDraw@SC2APIProtocol@@UEAAXXZ	; SC2APIProtocol::DebugDraw::Clear
PUBLIC	?IsInitialized@DebugDraw@SC2APIProtocol@@UEBA_NXZ ; SC2APIProtocol::DebugDraw::IsInitialized
PUBLIC	?ByteSizeLong@DebugDraw@SC2APIProtocol@@UEBA_KXZ ; SC2APIProtocol::DebugDraw::ByteSizeLong
PUBLIC	?_InternalParse@DebugDraw@SC2APIProtocol@@UEAAPEBDPEBDPEAVParseContext@internal@protobuf@google@@@Z ; SC2APIProtocol::DebugDraw::_InternalParse
PUBLIC	?_InternalSerialize@DebugDraw@SC2APIProtocol@@UEBAPEAEPEAEPEAVEpsCopyOutputStream@io@protobuf@google@@@Z ; SC2APIProtocol::DebugDraw::_InternalSerialize
PUBLIC	?GetCachedSize@DebugDraw@SC2APIProtocol@@UEBAHXZ ; SC2APIProtocol::DebugDraw::GetCachedSize
PUBLIC	?SharedCtor@DebugDraw@SC2APIProtocol@@AEAAXPEAVArena@protobuf@google@@_N@Z ; SC2APIProtocol::DebugDraw::SharedCtor
PUBLIC	?SharedDtor@DebugDraw@SC2APIProtocol@@AEAAXXZ	; SC2APIProtocol::DebugDraw::SharedDtor
PUBLIC	?SetCachedSize@DebugDraw@SC2APIProtocol@@EEBAXH@Z ; SC2APIProtocol::DebugDraw::SetCachedSize
PUBLIC	?InternalSwap@DebugDraw@SC2APIProtocol@@AEAAXPEAV12@@Z ; SC2APIProtocol::DebugDraw::InternalSwap
PUBLIC	??0DebugDraw@SC2APIProtocol@@IEAA@PEAVArena@protobuf@google@@_N@Z ; SC2APIProtocol::DebugDraw::DebugDraw
PUBLIC	?GetClassData@DebugDraw@SC2APIProtocol@@UEBAPEBUClassData@Message@protobuf@google@@XZ ; SC2APIProtocol::DebugDraw::GetClassData
PUBLIC	?GetMetadata@DebugDraw@SC2APIProtocol@@UEBA?AUMetadata@protobuf@google@@XZ ; SC2APIProtocol::DebugDraw::GetMetadata
PUBLIC	?_internal_text_size@DebugDraw@SC2APIProtocol@@AEBAHXZ ; SC2APIProtocol::DebugDraw::_internal_text_size
PUBLIC	?_internal_text@DebugDraw@SC2APIProtocol@@AEBAAEBVDebugText@2@H@Z ; SC2APIProtocol::DebugDraw::_internal_text
PUBLIC	?_internal_add_text@DebugDraw@SC2APIProtocol@@AEAAPEAVDebugText@2@XZ ; SC2APIProtocol::DebugDraw::_internal_add_text
PUBLIC	?_internal_lines_size@DebugDraw@SC2APIProtocol@@AEBAHXZ ; SC2APIProtocol::DebugDraw::_internal_lines_size
PUBLIC	?_internal_lines@DebugDraw@SC2APIProtocol@@AEBAAEBVDebugLine@2@H@Z ; SC2APIProtocol::DebugDraw::_internal_lines
PUBLIC	?_internal_add_lines@DebugDraw@SC2APIProtocol@@AEAAPEAVDebugLine@2@XZ ; SC2APIProtocol::DebugDraw::_internal_add_lines
PUBLIC	?_internal_boxes_size@DebugDraw@SC2APIProtocol@@AEBAHXZ ; SC2APIProtocol::DebugDraw::_internal_boxes_size
PUBLIC	?_internal_boxes@DebugDraw@SC2APIProtocol@@AEBAAEBVDebugBox@2@H@Z ; SC2APIProtocol::DebugDraw::_internal_boxes
PUBLIC	?_internal_add_boxes@DebugDraw@SC2APIProtocol@@AEAAPEAVDebugBox@2@XZ ; SC2APIProtocol::DebugDraw::_internal_add_boxes
PUBLIC	?_internal_spheres_size@DebugDraw@SC2APIProtocol@@AEBAHXZ ; SC2APIProtocol::DebugDraw::_internal_spheres_size
PUBLIC	?_internal_spheres@DebugDraw@SC2APIProtocol@@AEBAAEBVDebugSphere@2@H@Z ; SC2APIProtocol::DebugDraw::_internal_spheres
PUBLIC	?_internal_add_spheres@DebugDraw@SC2APIProtocol@@AEAAPEAVDebugSphere@2@XZ ; SC2APIProtocol::DebugDraw::_internal_add_spheres
PUBLIC	??0?$RepeatedPtrField@VDebugText@SC2APIProtocol@@@protobuf@google@@QEAA@XZ ; google::protobuf::RepeatedPtrField<SC2APIProtocol::DebugText>::RepeatedPtrField<SC2APIProtocol::DebugText>
PUBLIC	??0?$RepeatedPtrField@VDebugText@SC2APIProtocol@@@protobuf@google@@QEAA@PEAVArena@12@@Z ; google::protobuf::RepeatedPtrField<SC2APIProtocol::DebugText>::RepeatedPtrField<SC2APIProtocol::DebugText>
PUBLIC	??0?$RepeatedPtrField@VDebugText@SC2APIProtocol@@@protobuf@google@@QEAA@AEBV012@@Z ; google::protobuf::RepeatedPtrField<SC2APIProtocol::DebugText>::RepeatedPtrField<SC2APIProtocol::DebugText>
PUBLIC	??1?$RepeatedPtrField@VDebugText@SC2APIProtocol@@@protobuf@google@@QEAA@XZ ; google::protobuf::RepeatedPtrField<SC2APIProtocol::DebugText>::~RepeatedPtrField<SC2APIProtocol::DebugText>
PUBLIC	?size@?$RepeatedPtrField@VDebugText@SC2APIProtocol@@@protobuf@google@@QEBAHXZ ; google::protobuf::RepeatedPtrField<SC2APIProtocol::DebugText>::size
PUBLIC	?Get@?$RepeatedPtrField@VDebugText@SC2APIProtocol@@@protobuf@google@@QEBAAEBVDebugText@SC2APIProtocol@@H@Z ; google::protobuf::RepeatedPtrField<SC2APIProtocol::DebugText>::Get
PUBLIC	?Add@?$RepeatedPtrField@VDebugText@SC2APIProtocol@@@protobuf@google@@QEAAPEAVDebugText@SC2APIProtocol@@XZ ; google::protobuf::RepeatedPtrField<SC2APIProtocol::DebugText>::Add
PUBLIC	?Clear@?$RepeatedPtrField@VDebugText@SC2APIProtocol@@@protobuf@google@@QEAAXXZ ; google::protobuf::RepeatedPtrField<SC2APIProtocol::DebugText>::Clear
PUBLIC	?MergeFrom@?$RepeatedPtrField@VDebugText@SC2APIProtocol@@@protobuf@google@@QEAAXAEBV123@@Z ; google::protobuf::RepeatedPtrField<SC2APIProtocol::DebugText>::MergeFrom
PUBLIC	?begin@?$RepeatedPtrField@VDebugText@SC2APIProtocol@@@protobuf@google@@QEBA?AV?$RepeatedPtrIterator@$$CBVDebugText@SC2APIProtocol@@@internal@23@XZ ; google::protobuf::RepeatedPtrField<SC2APIProtocol::DebugText>::begin
PUBLIC	?end@?$RepeatedPtrField@VDebugText@SC2APIProtocol@@@protobuf@google@@QEBA?AV?$RepeatedPtrIterator@$$CBVDebugText@SC2APIProtocol@@@internal@23@XZ ; google::protobuf::RepeatedPtrField<SC2APIProtocol::DebugText>::end
PUBLIC	?InternalSwap@?$RepeatedPtrField@VDebugText@SC2APIProtocol@@@protobuf@google@@QEAAXPEAV123@@Z ; google::protobuf::RepeatedPtrField<SC2APIProtocol::DebugText>::InternalSwap
PUBLIC	??_G?$RepeatedPtrField@VDebugText@SC2APIProtocol@@@protobuf@google@@QEAAPEAXI@Z ; google::protobuf::RepeatedPtrField<SC2APIProtocol::DebugText>::`scalar deleting destructor'
PUBLIC	??0?$RepeatedPtrField@VDebugLine@SC2APIProtocol@@@protobuf@google@@QEAA@XZ ; google::protobuf::RepeatedPtrField<SC2APIProtocol::DebugLine>::RepeatedPtrField<SC2APIProtocol::DebugLine>
PUBLIC	??0?$RepeatedPtrField@VDebugLine@SC2APIProtocol@@@protobuf@google@@QEAA@PEAVArena@12@@Z ; google::protobuf::RepeatedPtrField<SC2APIProtocol::DebugLine>::RepeatedPtrField<SC2APIProtocol::DebugLine>
PUBLIC	??0?$RepeatedPtrField@VDebugLine@SC2APIProtocol@@@protobuf@google@@QEAA@AEBV012@@Z ; google::protobuf::RepeatedPtrField<SC2APIProtocol::DebugLine>::RepeatedPtrField<SC2APIProtocol::DebugLine>
PUBLIC	??1?$RepeatedPtrField@VDebugLine@SC2APIProtocol@@@protobuf@google@@QEAA@XZ ; google::protobuf::RepeatedPtrField<SC2APIProtocol::DebugLine>::~RepeatedPtrField<SC2APIProtocol::DebugLine>
PUBLIC	?size@?$RepeatedPtrField@VDebugLine@SC2APIProtocol@@@protobuf@google@@QEBAHXZ ; google::protobuf::RepeatedPtrField<SC2APIProtocol::DebugLine>::size
PUBLIC	?Get@?$RepeatedPtrField@VDebugLine@SC2APIProtocol@@@protobuf@google@@QEBAAEBVDebugLine@SC2APIProtocol@@H@Z ; google::protobuf::RepeatedPtrField<SC2APIProtocol::DebugLine>::Get
PUBLIC	?Add@?$RepeatedPtrField@VDebugLine@SC2APIProtocol@@@protobuf@google@@QEAAPEAVDebugLine@SC2APIProtocol@@XZ ; google::protobuf::RepeatedPtrField<SC2APIProtocol::DebugLine>::Add
PUBLIC	?Clear@?$RepeatedPtrField@VDebugLine@SC2APIProtocol@@@protobuf@google@@QEAAXXZ ; google::protobuf::RepeatedPtrField<SC2APIProtocol::DebugLine>::Clear
PUBLIC	?MergeFrom@?$RepeatedPtrField@VDebugLine@SC2APIProtocol@@@protobuf@google@@QEAAXAEBV123@@Z ; google::protobuf::RepeatedPtrField<SC2APIProtocol::DebugLine>::MergeFrom
PUBLIC	?begin@?$RepeatedPtrField@VDebugLine@SC2APIProtocol@@@protobuf@google@@QEBA?AV?$RepeatedPtrIterator@$$CBVDebugLine@SC2APIProtocol@@@internal@23@XZ ; google::protobuf::RepeatedPtrField<SC2APIProtocol::DebugLine>::begin
PUBLIC	?end@?$RepeatedPtrField@VDebugLine@SC2APIProtocol@@@protobuf@google@@QEBA?AV?$RepeatedPtrIterator@$$CBVDebugLine@SC2APIProtocol@@@internal@23@XZ ; google::protobuf::RepeatedPtrField<SC2APIProtocol::DebugLine>::end
PUBLIC	?InternalSwap@?$RepeatedPtrField@VDebugLine@SC2APIProtocol@@@protobuf@google@@QEAAXPEAV123@@Z ; google::protobuf::RepeatedPtrField<SC2APIProtocol::DebugLine>::InternalSwap
PUBLIC	??_G?$RepeatedPtrField@VDebugLine@SC2APIProtocol@@@protobuf@google@@QEAAPEAXI@Z ; google::protobuf::RepeatedPtrField<SC2APIProtocol::DebugLine>::`scalar deleting destructor'
PUBLIC	??0?$RepeatedPtrField@VDebugBox@SC2APIProtocol@@@protobuf@google@@QEAA@XZ ; google::protobuf::RepeatedPtrField<SC2APIProtocol::DebugBox>::RepeatedPtrField<SC2APIProtocol::DebugBox>
PUBLIC	??0?$RepeatedPtrField@VDebugBox@SC2APIProtocol@@@protobuf@google@@QEAA@PEAVArena@12@@Z ; google::protobuf::RepeatedPtrField<SC2APIProtocol::DebugBox>::RepeatedPtrField<SC2APIProtocol::DebugBox>
PUBLIC	??0?$RepeatedPtrField@VDebugBox@SC2APIProtocol@@@protobuf@google@@QEAA@AEBV012@@Z ; google::protobuf::RepeatedPtrField<SC2APIProtocol::DebugBox>::RepeatedPtrField<SC2APIProtocol::DebugBox>
PUBLIC	??1?$RepeatedPtrField@VDebugBox@SC2APIProtocol@@@protobuf@google@@QEAA@XZ ; google::protobuf::RepeatedPtrField<SC2APIProtocol::DebugBox>::~RepeatedPtrField<SC2APIProtocol::DebugBox>
PUBLIC	?size@?$RepeatedPtrField@VDebugBox@SC2APIProtocol@@@protobuf@google@@QEBAHXZ ; google::protobuf::RepeatedPtrField<SC2APIProtocol::DebugBox>::size
PUBLIC	?Get@?$RepeatedPtrField@VDebugBox@SC2APIProtocol@@@protobuf@google@@QEBAAEBVDebugBox@SC2APIProtocol@@H@Z ; google::protobuf::RepeatedPtrField<SC2APIProtocol::DebugBox>::Get
PUBLIC	?Add@?$RepeatedPtrField@VDebugBox@SC2APIProtocol@@@protobuf@google@@QEAAPEAVDebugBox@SC2APIProtocol@@XZ ; google::protobuf::RepeatedPtrField<SC2APIProtocol::DebugBox>::Add
PUBLIC	?Clear@?$RepeatedPtrField@VDebugBox@SC2APIProtocol@@@protobuf@google@@QEAAXXZ ; google::protobuf::RepeatedPtrField<SC2APIProtocol::DebugBox>::Clear
PUBLIC	?MergeFrom@?$RepeatedPtrField@VDebugBox@SC2APIProtocol@@@protobuf@google@@QEAAXAEBV123@@Z ; google::protobuf::RepeatedPtrField<SC2APIProtocol::DebugBox>::MergeFrom
PUBLIC	?begin@?$RepeatedPtrField@VDebugBox@SC2APIProtocol@@@protobuf@google@@QEBA?AV?$RepeatedPtrIterator@$$CBVDebugBox@SC2APIProtocol@@@internal@23@XZ ; google::protobuf::RepeatedPtrField<SC2APIProtocol::DebugBox>::begin
PUBLIC	?end@?$RepeatedPtrField@VDebugBox@SC2APIProtocol@@@protobuf@google@@QEBA?AV?$RepeatedPtrIterator@$$CBVDebugBox@SC2APIProtocol@@@internal@23@XZ ; google::protobuf::RepeatedPtrField<SC2APIProtocol::DebugBox>::end
PUBLIC	?InternalSwap@?$RepeatedPtrField@VDebugBox@SC2APIProtocol@@@protobuf@google@@QEAAXPEAV123@@Z ; google::protobuf::RepeatedPtrField<SC2APIProtocol::DebugBox>::InternalSwap
PUBLIC	??_G?$RepeatedPtrField@VDebugBox@SC2APIProtocol@@@protobuf@google@@QEAAPEAXI@Z ; google::protobuf::RepeatedPtrField<SC2APIProtocol::DebugBox>::`scalar deleting destructor'
PUBLIC	??0?$RepeatedPtrField@VDebugSphere@SC2APIProtocol@@@protobuf@google@@QEAA@XZ ; google::protobuf::RepeatedPtrField<SC2APIProtocol::DebugSphere>::RepeatedPtrField<SC2APIProtocol::DebugSphere>
PUBLIC	??0?$RepeatedPtrField@VDebugSphere@SC2APIProtocol@@@protobuf@google@@QEAA@PEAVArena@12@@Z ; google::protobuf::RepeatedPtrField<SC2APIProtocol::DebugSphere>::RepeatedPtrField<SC2APIProtocol::DebugSphere>
PUBLIC	??0?$RepeatedPtrField@VDebugSphere@SC2APIProtocol@@@protobuf@google@@QEAA@AEBV012@@Z ; google::protobuf::RepeatedPtrField<SC2APIProtocol::DebugSphere>::RepeatedPtrField<SC2APIProtocol::DebugSphere>
PUBLIC	??1?$RepeatedPtrField@VDebugSphere@SC2APIProtocol@@@protobuf@google@@QEAA@XZ ; google::protobuf::RepeatedPtrField<SC2APIProtocol::DebugSphere>::~RepeatedPtrField<SC2APIProtocol::DebugSphere>
PUBLIC	?size@?$RepeatedPtrField@VDebugSphere@SC2APIProtocol@@@protobuf@google@@QEBAHXZ ; google::protobuf::RepeatedPtrField<SC2APIProtocol::DebugSphere>::size
PUBLIC	?Get@?$RepeatedPtrField@VDebugSphere@SC2APIProtocol@@@protobuf@google@@QEBAAEBVDebugSphere@SC2APIProtocol@@H@Z ; google::protobuf::RepeatedPtrField<SC2APIProtocol::DebugSphere>::Get
PUBLIC	?Add@?$RepeatedPtrField@VDebugSphere@SC2APIProtocol@@@protobuf@google@@QEAAPEAVDebugSphere@SC2APIProtocol@@XZ ; google::protobuf::RepeatedPtrField<SC2APIProtocol::DebugSphere>::Add
PUBLIC	?Clear@?$RepeatedPtrField@VDebugSphere@SC2APIProtocol@@@protobuf@google@@QEAAXXZ ; google::protobuf::RepeatedPtrField<SC2APIProtocol::DebugSphere>::Clear
PUBLIC	?MergeFrom@?$RepeatedPtrField@VDebugSphere@SC2APIProtocol@@@protobuf@google@@QEAAXAEBV123@@Z ; google::protobuf::RepeatedPtrField<SC2APIProtocol::DebugSphere>::MergeFrom
PUBLIC	?begin@?$RepeatedPtrField@VDebugSphere@SC2APIProtocol@@@protobuf@google@@QEBA?AV?$RepeatedPtrIterator@$$CBVDebugSphere@SC2APIProtocol@@@internal@23@XZ ; google::protobuf::RepeatedPtrField<SC2APIProtocol::DebugSphere>::begin
PUBLIC	?end@?$RepeatedPtrField@VDebugSphere@SC2APIProtocol@@@protobuf@google@@QEBA?AV?$RepeatedPtrIterator@$$CBVDebugSphere@SC2APIProtocol@@@internal@23@XZ ; google::protobuf::RepeatedPtrField<SC2APIProtocol::DebugSphere>::end
PUBLIC	?InternalSwap@?$RepeatedPtrField@VDebugSphere@SC2APIProtocol@@@protobuf@google@@QEAAXPEAV123@@Z ; google::protobuf::RepeatedPtrField<SC2APIProtocol::DebugSphere>::InternalSwap
PUBLIC	??_G?$RepeatedPtrField@VDebugSphere@SC2APIProtocol@@@protobuf@google@@QEAAPEAXI@Z ; google::protobuf::RepeatedPtrField<SC2APIProtocol::DebugSphere>::`scalar deleting destructor'
PUBLIC	??_GDebugDraw@SC2APIProtocol@@UEAAPEAXI@Z	; SC2APIProtocol::DebugDraw::`scalar deleting destructor'
PUBLIC	??$CreateMaybeMessage@VDebugDraw@SC2APIProtocol@@@MessageLite@protobuf@google@@KAPEAVDebugDraw@SC2APIProtocol@@PEAVArena@12@@Z ; google::protobuf::MessageLite::CreateMaybeMessage<SC2APIProtocol::DebugDraw>
PUBLIC	??1Line@SC2APIProtocol@@UEAA@XZ			; SC2APIProtocol::Line::~Line
PUBLIC	??0Line@SC2APIProtocol@@QEAA@AEBV01@@Z		; SC2APIProtocol::Line::Line
PUBLIC	?internal_default_instance@Line@SC2APIProtocol@@SAPEBV12@XZ ; SC2APIProtocol::Line::internal_default_instance
PUBLIC	?CopyFrom@Line@SC2APIProtocol@@QEAAXAEBV12@@Z	; SC2APIProtocol::Line::CopyFrom
PUBLIC	?MergeFrom@Line@SC2APIProtocol@@QEAAXAEBV12@@Z	; SC2APIProtocol::Line::MergeFrom
PUBLIC	?SharedCtor@Line@SC2APIProtocol@@AEAAXPEAVArena@protobuf@google@@_N@Z ; SC2APIProtocol::Line::SharedCtor
PUBLIC	?SharedDtor@Line@SC2APIProtocol@@AEAAXXZ	; SC2APIProtocol::Line::SharedDtor
PUBLIC	?InternalSwap@Line@SC2APIProtocol@@AEAAXPEAV12@@Z ; SC2APIProtocol::Line::InternalSwap
PUBLIC	??0Line@SC2APIProtocol@@IEAA@PEAVArena@protobuf@google@@_N@Z ; SC2APIProtocol::Line::Line
PUBLIC	?_internal_has_p0@Line@SC2APIProtocol@@AEBA_NXZ	; SC2APIProtocol::Line::_internal_has_p0
PUBLIC	?clear_p0@Line@SC2APIProtocol@@QEAAXXZ		; SC2APIProtocol::Line::clear_p0
PUBLIC	?_internal_p0@Line@SC2APIProtocol@@AEBAAEBVPoint@2@XZ ; SC2APIProtocol::Line::_internal_p0
PUBLIC	?_internal_mutable_p0@Line@SC2APIProtocol@@AEAAPEAVPoint@2@XZ ; SC2APIProtocol::Line::_internal_mutable_p0
PUBLIC	?_internal_has_p1@Line@SC2APIProtocol@@AEBA_NXZ	; SC2APIProtocol::Line::_internal_has_p1
PUBLIC	?clear_p1@Line@SC2APIProtocol@@QEAAXXZ		; SC2APIProtocol::Line::clear_p1
PUBLIC	?_internal_p1@Line@SC2APIProtocol@@AEBAAEBVPoint@2@XZ ; SC2APIProtocol::Line::_internal_p1
PUBLIC	?_internal_mutable_p1@Line@SC2APIProtocol@@AEAAPEAVPoint@2@XZ ; SC2APIProtocol::Line::_internal_mutable_p1
PUBLIC	??$CreateMaybeMessage@VLine@SC2APIProtocol@@@MessageLite@protobuf@google@@KAPEAVLine@SC2APIProtocol@@PEAVArena@12@@Z ; google::protobuf::MessageLite::CreateMaybeMessage<SC2APIProtocol::Line>
PUBLIC	??1Color@SC2APIProtocol@@UEAA@XZ		; SC2APIProtocol::Color::~Color
PUBLIC	??0Color@SC2APIProtocol@@QEAA@AEBV01@@Z		; SC2APIProtocol::Color::Color
PUBLIC	?CopyFrom@Color@SC2APIProtocol@@QEAAXAEBV12@@Z	; SC2APIProtocol::Color::CopyFrom
PUBLIC	?MergeFrom@Color@SC2APIProtocol@@QEAAXAEBV12@@Z	; SC2APIProtocol::Color::MergeFrom
PUBLIC	?SharedCtor@Color@SC2APIProtocol@@AEAAXPEAVArena@protobuf@google@@_N@Z ; SC2APIProtocol::Color::SharedCtor
PUBLIC	?SharedDtor@Color@SC2APIProtocol@@AEAAXXZ	; SC2APIProtocol::Color::SharedDtor
PUBLIC	?InternalSwap@Color@SC2APIProtocol@@AEAAXPEAV12@@Z ; SC2APIProtocol::Color::InternalSwap
PUBLIC	??0Color@SC2APIProtocol@@IEAA@PEAVArena@protobuf@google@@_N@Z ; SC2APIProtocol::Color::Color
PUBLIC	?_internal_r@Color@SC2APIProtocol@@AEBAIXZ	; SC2APIProtocol::Color::_internal_r
PUBLIC	?_internal_g@Color@SC2APIProtocol@@AEBAIXZ	; SC2APIProtocol::Color::_internal_g
PUBLIC	?_internal_b@Color@SC2APIProtocol@@AEBAIXZ	; SC2APIProtocol::Color::_internal_b
PUBLIC	??$CreateMaybeMessage@VColor@SC2APIProtocol@@@MessageLite@protobuf@google@@KAPEAVColor@SC2APIProtocol@@PEAVArena@12@@Z ; google::protobuf::MessageLite::CreateMaybeMessage<SC2APIProtocol::Color>
PUBLIC	??1DebugText@SC2APIProtocol@@UEAA@XZ		; SC2APIProtocol::DebugText::~DebugText
PUBLIC	??0DebugText@SC2APIProtocol@@QEAA@AEBV01@@Z	; SC2APIProtocol::DebugText::DebugText
PUBLIC	?internal_default_instance@DebugText@SC2APIProtocol@@SAPEBV12@XZ ; SC2APIProtocol::DebugText::internal_default_instance
PUBLIC	?CopyFrom@DebugText@SC2APIProtocol@@QEAAXAEBV12@@Z ; SC2APIProtocol::DebugText::CopyFrom
PUBLIC	?MergeFrom@DebugText@SC2APIProtocol@@QEAAXAEBV12@@Z ; SC2APIProtocol::DebugText::MergeFrom
PUBLIC	?SharedCtor@DebugText@SC2APIProtocol@@AEAAXPEAVArena@protobuf@google@@_N@Z ; SC2APIProtocol::DebugText::SharedCtor
PUBLIC	?SharedDtor@DebugText@SC2APIProtocol@@AEAAXXZ	; SC2APIProtocol::DebugText::SharedDtor
PUBLIC	?InternalSwap@DebugText@SC2APIProtocol@@AEAAXPEAV12@@Z ; SC2APIProtocol::DebugText::InternalSwap
PUBLIC	??0DebugText@SC2APIProtocol@@IEAA@PEAVArena@protobuf@google@@_N@Z ; SC2APIProtocol::DebugText::DebugText
PUBLIC	?_internal_has_text@DebugText@SC2APIProtocol@@AEBA_NXZ ; SC2APIProtocol::DebugText::_internal_has_text
PUBLIC	?_internal_text@DebugText@SC2APIProtocol@@AEBAAEBV?$basic_string@DU?$char_traits@D@std@@V?$allocator@D@2@@std@@XZ ; SC2APIProtocol::DebugText::_internal_text
PUBLIC	?_internal_set_text@DebugText@SC2APIProtocol@@AEAAXAEBV?$basic_string@DU?$char_traits@D@std@@V?$allocator@D@2@@std@@@Z ; SC2APIProtocol::DebugText::_internal_set_text
PUBLIC	?_internal_mutable_text@DebugText@SC2APIProtocol@@AEAAPEAV?$basic_string@DU?$char_traits@D@std@@V?$allocator@D@2@@std@@XZ ; SC2APIProtocol::DebugText::_internal_mutable_text
PUBLIC	?_internal_has_color@DebugText@SC2APIProtocol@@AEBA_NXZ ; SC2APIProtocol::DebugText::_internal_has_color
PUBLIC	?_internal_color@DebugText@SC2APIProtocol@@AEBAAEBVColor@2@XZ ; SC2APIProtocol::DebugText::_internal_color
PUBLIC	?_internal_mutable_color@DebugText@SC2APIProtocol@@AEAAPEAVColor@2@XZ ; SC2APIProtocol::DebugText::_internal_mutable_color
PUBLIC	?_internal_has_virtual_pos@DebugText@SC2APIProtocol@@AEBA_NXZ ; SC2APIProtocol::DebugText::_internal_has_virtual_pos
PUBLIC	?clear_virtual_pos@DebugText@SC2APIProtocol@@QEAAXXZ ; SC2APIProtocol::DebugText::clear_virtual_pos
PUBLIC	?_internal_virtual_pos@DebugText@SC2APIProtocol@@AEBAAEBVPoint@2@XZ ; SC2APIProtocol::DebugText::_internal_virtual_pos
PUBLIC	?_internal_mutable_virtual_pos@DebugText@SC2APIProtocol@@AEAAPEAVPoint@2@XZ ; SC2APIProtocol::DebugText::_internal_mutable_virtual_pos
PUBLIC	?_internal_has_world_pos@DebugText@SC2APIProtocol@@AEBA_NXZ ; SC2APIProtocol::DebugText::_internal_has_world_pos
PUBLIC	?clear_world_pos@DebugText@SC2APIProtocol@@QEAAXXZ ; SC2APIProtocol::DebugText::clear_world_pos
PUBLIC	?_internal_world_pos@DebugText@SC2APIProtocol@@AEBAAEBVPoint@2@XZ ; SC2APIProtocol::DebugText::_internal_world_pos
PUBLIC	?_internal_mutable_world_pos@DebugText@SC2APIProtocol@@AEAAPEAVPoint@2@XZ ; SC2APIProtocol::DebugText::_internal_mutable_world_pos
PUBLIC	?_internal_size@DebugText@SC2APIProtocol@@AEBAIXZ ; SC2APIProtocol::DebugText::_internal_size
PUBLIC	??$CreateMaybeMessage@VDebugText@SC2APIProtocol@@@MessageLite@protobuf@google@@KAPEAVDebugText@SC2APIProtocol@@PEAVArena@12@@Z ; google::protobuf::MessageLite::CreateMaybeMessage<SC2APIProtocol::DebugText>
PUBLIC	??1DebugLine@SC2APIProtocol@@UEAA@XZ		; SC2APIProtocol::DebugLine::~DebugLine
PUBLIC	??0DebugLine@SC2APIProtocol@@QEAA@AEBV01@@Z	; SC2APIProtocol::DebugLine::DebugLine
PUBLIC	?internal_default_instance@DebugLine@SC2APIProtocol@@SAPEBV12@XZ ; SC2APIProtocol::DebugLine::internal_default_instance
PUBLIC	?CopyFrom@DebugLine@SC2APIProtocol@@QEAAXAEBV12@@Z ; SC2APIProtocol::DebugLine::CopyFrom
PUBLIC	?MergeFrom@DebugLine@SC2APIProtocol@@QEAAXAEBV12@@Z ; SC2APIProtocol::DebugLine::MergeFrom
PUBLIC	?SharedCtor@DebugLine@SC2APIProtocol@@AEAAXPEAVArena@protobuf@google@@_N@Z ; SC2APIProtocol::DebugLine::SharedCtor
PUBLIC	?SharedDtor@DebugLine@SC2APIProtocol@@AEAAXXZ	; SC2APIProtocol::DebugLine::SharedDtor
PUBLIC	?InternalSwap@DebugLine@SC2APIProtocol@@AEAAXPEAV12@@Z ; SC2APIProtocol::DebugLine::InternalSwap
PUBLIC	??0DebugLine@SC2APIProtocol@@IEAA@PEAVArena@protobuf@google@@_N@Z ; SC2APIProtocol::DebugLine::DebugLine
PUBLIC	?_internal_has_color@DebugLine@SC2APIProtocol@@AEBA_NXZ ; SC2APIProtocol::DebugLine::_internal_has_color
PUBLIC	?_internal_color@DebugLine@SC2APIProtocol@@AEBAAEBVColor@2@XZ ; SC2APIProtocol::DebugLine::_internal_color
PUBLIC	?_internal_mutable_color@DebugLine@SC2APIProtocol@@AEAAPEAVColor@2@XZ ; SC2APIProtocol::DebugLine::_internal_mutable_color
PUBLIC	?_internal_has_line@DebugLine@SC2APIProtocol@@AEBA_NXZ ; SC2APIProtocol::DebugLine::_internal_has_line
PUBLIC	?_internal_line@DebugLine@SC2APIProtocol@@AEBAAEBVLine@2@XZ ; SC2APIProtocol::DebugLine::_internal_line
PUBLIC	?_internal_mutable_line@DebugLine@SC2APIProtocol@@AEAAPEAVLine@2@XZ ; SC2APIProtocol::DebugLine::_internal_mutable_line
PUBLIC	??$CreateMaybeMessage@VDebugLine@SC2APIProtocol@@@MessageLite@protobuf@google@@KAPEAVDebugLine@SC2APIProtocol@@PEAVArena@12@@Z ; google::protobuf::MessageLite::CreateMaybeMessage<SC2APIProtocol::DebugLine>
PUBLIC	??1DebugBox@SC2APIProtocol@@UEAA@XZ		; SC2APIProtocol::DebugBox::~DebugBox
PUBLIC	??0DebugBox@SC2APIProtocol@@QEAA@AEBV01@@Z	; SC2APIProtocol::DebugBox::DebugBox
PUBLIC	?internal_default_instance@DebugBox@SC2APIProtocol@@SAPEBV12@XZ ; SC2APIProtocol::DebugBox::internal_default_instance
PUBLIC	?CopyFrom@DebugBox@SC2APIProtocol@@QEAAXAEBV12@@Z ; SC2APIProtocol::DebugBox::CopyFrom
PUBLIC	?MergeFrom@DebugBox@SC2APIProtocol@@QEAAXAEBV12@@Z ; SC2APIProtocol::DebugBox::MergeFrom
PUBLIC	?SharedCtor@DebugBox@SC2APIProtocol@@AEAAXPEAVArena@protobuf@google@@_N@Z ; SC2APIProtocol::DebugBox::SharedCtor
PUBLIC	?SharedDtor@DebugBox@SC2APIProtocol@@AEAAXXZ	; SC2APIProtocol::DebugBox::SharedDtor
PUBLIC	?InternalSwap@DebugBox@SC2APIProtocol@@AEAAXPEAV12@@Z ; SC2APIProtocol::DebugBox::InternalSwap
PUBLIC	??0DebugBox@SC2APIProtocol@@IEAA@PEAVArena@protobuf@google@@_N@Z ; SC2APIProtocol::DebugBox::DebugBox
PUBLIC	?_internal_has_color@DebugBox@SC2APIProtocol@@AEBA_NXZ ; SC2APIProtocol::DebugBox::_internal_has_color
PUBLIC	?_internal_color@DebugBox@SC2APIProtocol@@AEBAAEBVColor@2@XZ ; SC2APIProtocol::DebugBox::_internal_color
PUBLIC	?_internal_mutable_color@DebugBox@SC2APIProtocol@@AEAAPEAVColor@2@XZ ; SC2APIProtocol::DebugBox::_internal_mutable_color
PUBLIC	?_internal_has_min@DebugBox@SC2APIProtocol@@AEBA_NXZ ; SC2APIProtocol::DebugBox::_internal_has_min
PUBLIC	?clear_min@DebugBox@SC2APIProtocol@@QEAAXXZ	; SC2APIProtocol::DebugBox::clear_min
PUBLIC	?_internal_min@DebugBox@SC2APIProtocol@@AEBAAEBVPoint@2@XZ ; SC2APIProtocol::DebugBox::_internal_min
PUBLIC	?_internal_mutable_min@DebugBox@SC2APIProtocol@@AEAAPEAVPoint@2@XZ ; SC2APIProtocol::DebugBox::_internal_mutable_min
PUBLIC	?_internal_has_max@DebugBox@SC2APIProtocol@@AEBA_NXZ ; SC2APIProtocol::DebugBox::_internal_has_max
PUBLIC	?clear_max@DebugBox@SC2APIProtocol@@QEAAXXZ	; SC2APIProtocol::DebugBox::clear_max
PUBLIC	?_internal_max@DebugBox@SC2APIProtocol@@AEBAAEBVPoint@2@XZ ; SC2APIProtocol::DebugBox::_internal_max
PUBLIC	?_internal_mutable_max@DebugBox@SC2APIProtocol@@AEAAPEAVPoint@2@XZ ; SC2APIProtocol::DebugBox::_internal_mutable_max
PUBLIC	??$CreateMaybeMessage@VDebugBox@SC2APIProtocol@@@MessageLite@protobuf@google@@KAPEAVDebugBox@SC2APIProtocol@@PEAVArena@12@@Z ; google::protobuf::MessageLite::CreateMaybeMessage<SC2APIProtocol::DebugBox>
PUBLIC	??1DebugSphere@SC2APIProtocol@@UEAA@XZ		; SC2APIProtocol::DebugSphere::~DebugSphere
PUBLIC	??0DebugSphere@SC2APIProtocol@@QEAA@AEBV01@@Z	; SC2APIProtocol::DebugSphere::DebugSphere
PUBLIC	?internal_default_instance@DebugSphere@SC2APIProtocol@@SAPEBV12@XZ ; SC2APIProtocol::DebugSphere::internal_default_instance
PUBLIC	?CopyFrom@DebugSphere@SC2APIProtocol@@QEAAXAEBV12@@Z ; SC2APIProtocol::DebugSphere::CopyFrom
PUBLIC	?MergeFrom@DebugSphere@SC2APIProtocol@@QEAAXAEBV12@@Z ; SC2APIProtocol::DebugSphere::MergeFrom
PUBLIC	?SharedCtor@DebugSphere@SC2APIProtocol@@AEAAXPEAVArena@protobuf@google@@_N@Z ; SC2APIProtocol::DebugSphere::SharedCtor
PUBLIC	?SharedDtor@DebugSphere@SC2APIProtocol@@AEAAXXZ	; SC2APIProtocol::DebugSphere::SharedDtor
PUBLIC	?InternalSwap@DebugSphere@SC2APIProtocol@@AEAAXPEAV12@@Z ; SC2APIProtocol::DebugSphere::InternalSwap
PUBLIC	??0DebugSphere@SC2APIProtocol@@IEAA@PEAVArena@protobuf@google@@_N@Z ; SC2APIProtocol::DebugSphere::DebugSphere
PUBLIC	?_internal_has_color@DebugSphere@SC2APIProtocol@@AEBA_NXZ ; SC2APIProtocol::DebugSphere::_internal_has_color
PUBLIC	?_internal_color@DebugSphere@SC2APIProtocol@@AEBAAEBVColor@2@XZ ; SC2APIProtocol::DebugSphere::_internal_color
PUBLIC	?_internal_mutable_color@DebugSphere@SC2APIProtocol@@AEAAPEAVColor@2@XZ ; SC2APIProtocol::DebugSphere::_internal_mutable_color
PUBLIC	?_internal_has_p@DebugSphere@SC2APIProtocol@@AEBA_NXZ ; SC2APIProtocol::DebugSphere::_internal_has_p
PUBLIC	?clear_p@DebugSphere@SC2APIProtocol@@QEAAXXZ	; SC2APIProtocol::DebugSphere::clear_p
PUBLIC	?_internal_p@DebugSphere@SC2APIProtocol@@AEBAAEBVPoint@2@XZ ; SC2APIProtocol::DebugSphere::_internal_p
PUBLIC	?_internal_mutable_p@DebugSphere@SC2APIProtocol@@AEAAPEAVPoint@2@XZ ; SC2APIProtocol::DebugSphere::_internal_mutable_p
PUBLIC	?_internal_r@DebugSphere@SC2APIProtocol@@AEBAMXZ ; SC2APIProtocol::DebugSphere::_internal_r
PUBLIC	??$CreateMaybeMessage@VDebugSphere@SC2APIProtocol@@@MessageLite@protobuf@google@@KAPEAVDebugSphere@SC2APIProtocol@@PEAVArena@12@@Z ; google::protobuf::MessageLite::CreateMaybeMessage<SC2APIProtocol::DebugSphere>
PUBLIC	??1DebugCreateUnit@SC2APIProtocol@@UEAA@XZ	; SC2APIProtocol::DebugCreateUnit::~DebugCreateUnit
PUBLIC	??0DebugCreateUnit@SC2APIProtocol@@QEAA@AEBV01@@Z ; SC2APIProtocol::DebugCreateUnit::DebugCreateUnit
PUBLIC	?internal_default_instance@DebugCreateUnit@SC2APIProtocol@@SAPEBV12@XZ ; SC2APIProtocol::DebugCreateUnit::internal_default_instance
PUBLIC	?CopyFrom@DebugCreateUnit@SC2APIProtocol@@QEAAXAEBV12@@Z ; SC2APIProtocol::DebugCreateUnit::CopyFrom
PUBLIC	?MergeFrom@DebugCreateUnit@SC2APIProtocol@@QEAAXAEBV12@@Z ; SC2APIProtocol::DebugCreateUnit::MergeFrom
PUBLIC	?SharedCtor@DebugCreateUnit@SC2APIProtocol@@AEAAXPEAVArena@protobuf@google@@_N@Z ; SC2APIProtocol::DebugCreateUnit::SharedCtor
PUBLIC	?SharedDtor@DebugCreateUnit@SC2APIProtocol@@AEAAXXZ ; SC2APIProtocol::DebugCreateUnit::SharedDtor
PUBLIC	?InternalSwap@DebugCreateUnit@SC2APIProtocol@@AEAAXPEAV12@@Z ; SC2APIProtocol::DebugCreateUnit::InternalSwap
PUBLIC	??0DebugCreateUnit@SC2APIProtocol@@IEAA@PEAVArena@protobuf@google@@_N@Z ; SC2APIProtocol::DebugCreateUnit::DebugCreateUnit
PUBLIC	?_internal_has_pos@DebugCreateUnit@SC2APIProtocol@@AEBA_NXZ ; SC2APIProtocol::DebugCreateUnit::_internal_has_pos
PUBLIC	?clear_pos@DebugCreateUnit@SC2APIProtocol@@QEAAXXZ ; SC2APIProtocol::DebugCreateUnit::clear_pos
PUBLIC	?_internal_pos@DebugCreateUnit@SC2APIProtocol@@AEBAAEBVPoint2D@2@XZ ; SC2APIProtocol::DebugCreateUnit::_internal_pos
PUBLIC	?_internal_mutable_pos@DebugCreateUnit@SC2APIProtocol@@AEAAPEAVPoint2D@2@XZ ; SC2APIProtocol::DebugCreateUnit::_internal_mutable_pos
PUBLIC	?_internal_unit_type@DebugCreateUnit@SC2APIProtocol@@AEBAIXZ ; SC2APIProtocol::DebugCreateUnit::_internal_unit_type
PUBLIC	?_internal_owner@DebugCreateUnit@SC2APIProtocol@@AEBAHXZ ; SC2APIProtocol::DebugCreateUnit::_internal_owner
PUBLIC	?_internal_quantity@DebugCreateUnit@SC2APIProtocol@@AEBAIXZ ; SC2APIProtocol::DebugCreateUnit::_internal_quantity
PUBLIC	??$CreateMaybeMessage@VDebugCreateUnit@SC2APIProtocol@@@MessageLite@protobuf@google@@KAPEAVDebugCreateUnit@SC2APIProtocol@@PEAVArena@12@@Z ; google::protobuf::MessageLite::CreateMaybeMessage<SC2APIProtocol::DebugCreateUnit>
PUBLIC	??1DebugKillUnit@SC2APIProtocol@@UEAA@XZ	; SC2APIProtocol::DebugKillUnit::~DebugKillUnit
PUBLIC	??0DebugKillUnit@SC2APIProtocol@@QEAA@UConstantInitialized@internal@protobuf@google@@@Z ; SC2APIProtocol::DebugKillUnit::DebugKillUnit
PUBLIC	??0DebugKillUnit@SC2APIProtocol@@QEAA@AEBV01@@Z	; SC2APIProtocol::DebugKillUnit::DebugKillUnit
PUBLIC	?New@DebugKillUnit@SC2APIProtocol@@UEBAPEAV12@PEAVArena@protobuf@google@@@Z ; SC2APIProtocol::DebugKillUnit::New
PUBLIC	?CopyFrom@DebugKillUnit@SC2APIProtocol@@QEAAXAEBV12@@Z ; SC2APIProtocol::DebugKillUnit::CopyFrom
PUBLIC	?MergeFrom@DebugKillUnit@SC2APIProtocol@@QEAAXAEBV12@@Z ; SC2APIProtocol::DebugKillUnit::MergeFrom
PUBLIC	?Clear@DebugKillUnit@SC2APIProtocol@@UEAAXXZ	; SC2APIProtocol::DebugKillUnit::Clear
PUBLIC	?IsInitialized@DebugKillUnit@SC2APIProtocol@@UEBA_NXZ ; SC2APIProtocol::DebugKillUnit::IsInitialized
PUBLIC	?ByteSizeLong@DebugKillUnit@SC2APIProtocol@@UEBA_KXZ ; SC2APIProtocol::DebugKillUnit::ByteSizeLong
PUBLIC	?_InternalParse@DebugKillUnit@SC2APIProtocol@@UEAAPEBDPEBDPEAVParseContext@internal@protobuf@google@@@Z ; SC2APIProtocol::DebugKillUnit::_InternalParse
PUBLIC	?_InternalSerialize@DebugKillUnit@SC2APIProtocol@@UEBAPEAEPEAEPEAVEpsCopyOutputStream@io@protobuf@google@@@Z ; SC2APIProtocol::DebugKillUnit::_InternalSerialize
PUBLIC	?GetCachedSize@DebugKillUnit@SC2APIProtocol@@UEBAHXZ ; SC2APIProtocol::DebugKillUnit::GetCachedSize
PUBLIC	?SharedCtor@DebugKillUnit@SC2APIProtocol@@AEAAXPEAVArena@protobuf@google@@_N@Z ; SC2APIProtocol::DebugKillUnit::SharedCtor
PUBLIC	?SharedDtor@DebugKillUnit@SC2APIProtocol@@AEAAXXZ ; SC2APIProtocol::DebugKillUnit::SharedDtor
PUBLIC	?SetCachedSize@DebugKillUnit@SC2APIProtocol@@EEBAXH@Z ; SC2APIProtocol::DebugKillUnit::SetCachedSize
PUBLIC	?InternalSwap@DebugKillUnit@SC2APIProtocol@@AEAAXPEAV12@@Z ; SC2APIProtocol::DebugKillUnit::InternalSwap
PUBLIC	??0DebugKillUnit@SC2APIProtocol@@IEAA@PEAVArena@protobuf@google@@_N@Z ; SC2APIProtocol::DebugKillUnit::DebugKillUnit
PUBLIC	?GetClassData@DebugKillUnit@SC2APIProtocol@@UEBAPEBUClassData@Message@protobuf@google@@XZ ; SC2APIProtocol::DebugKillUnit::GetClassData
PUBLIC	?GetMetadata@DebugKillUnit@SC2APIProtocol@@UEBA?AUMetadata@protobuf@google@@XZ ; SC2APIProtocol::DebugKillUnit::GetMetadata
PUBLIC	?_internal_tag_size@DebugKillUnit@SC2APIProtocol@@AEBAHXZ ; SC2APIProtocol::DebugKillUnit::_internal_tag_size
PUBLIC	?_internal_tag@DebugKillUnit@SC2APIProtocol@@AEBA_KH@Z ; SC2APIProtocol::DebugKillUnit::_internal_tag
PUBLIC	?_internal_add_tag@DebugKillUnit@SC2APIProtocol@@AEAAX_K@Z ; SC2APIProtocol::DebugKillUnit::_internal_add_tag
PUBLIC	?_internal_mutable_tag@DebugKillUnit@SC2APIProtocol@@AEAAPEAV?$RepeatedField@_K@protobuf@google@@XZ ; SC2APIProtocol::DebugKillUnit::_internal_mutable_tag
PUBLIC	??_GDebugKillUnit@SC2APIProtocol@@UEAAPEAXI@Z	; SC2APIProtocol::DebugKillUnit::`scalar deleting destructor'
PUBLIC	??$CreateMaybeMessage@VDebugKillUnit@SC2APIProtocol@@@MessageLite@protobuf@google@@KAPEAVDebugKillUnit@SC2APIProtocol@@PEAVArena@12@@Z ; google::protobuf::MessageLite::CreateMaybeMessage<SC2APIProtocol::DebugKillUnit>
PUBLIC	??1DebugTestProcess@SC2APIProtocol@@UEAA@XZ	; SC2APIProtocol::DebugTestProcess::~DebugTestProcess
PUBLIC	??0DebugTestProcess@SC2APIProtocol@@QEAA@AEBV01@@Z ; SC2APIProtocol::DebugTestProcess::DebugTestProcess
PUBLIC	?mutable_unknown_fields@DebugTestProcess@SC2APIProtocol@@QEAAPEAVUnknownFieldSet@protobuf@google@@XZ ; SC2APIProtocol::DebugTestProcess::mutable_unknown_fields
PUBLIC	?CopyFrom@DebugTestProcess@SC2APIProtocol@@QEAAXAEBV12@@Z ; SC2APIProtocol::DebugTestProcess::CopyFrom
PUBLIC	?MergeFrom@DebugTestProcess@SC2APIProtocol@@QEAAXAEBV12@@Z ; SC2APIProtocol::DebugTestProcess::MergeFrom
PUBLIC	?SharedCtor@DebugTestProcess@SC2APIProtocol@@AEAAXPEAVArena@protobuf@google@@_N@Z ; SC2APIProtocol::DebugTestProcess::SharedCtor
PUBLIC	?SharedDtor@DebugTestProcess@SC2APIProtocol@@AEAAXXZ ; SC2APIProtocol::DebugTestProcess::SharedDtor
PUBLIC	?InternalSwap@DebugTestProcess@SC2APIProtocol@@AEAAXPEAV12@@Z ; SC2APIProtocol::DebugTestProcess::InternalSwap
PUBLIC	??0DebugTestProcess@SC2APIProtocol@@IEAA@PEAVArena@protobuf@google@@_N@Z ; SC2APIProtocol::DebugTestProcess::DebugTestProcess
PUBLIC	?_internal_delay_ms@DebugTestProcess@SC2APIProtocol@@AEBAHXZ ; SC2APIProtocol::DebugTestProcess::_internal_delay_ms
PUBLIC	?_internal_test@DebugTestProcess@SC2APIProtocol@@AEBA?AW4DebugTestProcess_Test@2@XZ ; SC2APIProtocol::DebugTestProcess::_internal_test
PUBLIC	?_internal_set_test@DebugTestProcess@SC2APIProtocol@@AEAAXW4DebugTestProcess_Test@2@@Z ; SC2APIProtocol::DebugTestProcess::_internal_set_test
PUBLIC	??$CreateMaybeMessage@VDebugTestProcess@SC2APIProtocol@@@MessageLite@protobuf@google@@KAPEAVDebugTestProcess@SC2APIProtocol@@PEAVArena@12@@Z ; google::protobuf::MessageLite::CreateMaybeMessage<SC2APIProtocol::DebugTestProcess>
PUBLIC	??1DebugSetScore@SC2APIProtocol@@UEAA@XZ	; SC2APIProtocol::DebugSetScore::~DebugSetScore
PUBLIC	??0DebugSetScore@SC2APIProtocol@@QEAA@AEBV01@@Z	; SC2APIProtocol::DebugSetScore::DebugSetScore
PUBLIC	?CopyFrom@DebugSetScore@SC2APIProtocol@@QEAAXAEBV12@@Z ; SC2APIProtocol::DebugSetScore::CopyFrom
PUBLIC	?MergeFrom@DebugSetScore@SC2APIProtocol@@QEAAXAEBV12@@Z ; SC2APIProtocol::DebugSetScore::MergeFrom
PUBLIC	?SharedCtor@DebugSetScore@SC2APIProtocol@@AEAAXPEAVArena@protobuf@google@@_N@Z ; SC2APIProtocol::DebugSetScore::SharedCtor
PUBLIC	?SharedDtor@DebugSetScore@SC2APIProtocol@@AEAAXXZ ; SC2APIProtocol::DebugSetScore::SharedDtor
PUBLIC	?InternalSwap@DebugSetScore@SC2APIProtocol@@AEAAXPEAV12@@Z ; SC2APIProtocol::DebugSetScore::InternalSwap
PUBLIC	??0DebugSetScore@SC2APIProtocol@@IEAA@PEAVArena@protobuf@google@@_N@Z ; SC2APIProtocol::DebugSetScore::DebugSetScore
PUBLIC	?_internal_has_score@DebugSetScore@SC2APIProtocol@@AEBA_NXZ ; SC2APIProtocol::DebugSetScore::_internal_has_score
PUBLIC	?_internal_score@DebugSetScore@SC2APIProtocol@@AEBAMXZ ; SC2APIProtocol::DebugSetScore::_internal_score
PUBLIC	?_internal_set_score@DebugSetScore@SC2APIProtocol@@AEAAXM@Z ; SC2APIProtocol::DebugSetScore::_internal_set_score
PUBLIC	??$CreateMaybeMessage@VDebugSetScore@SC2APIProtocol@@@MessageLite@protobuf@google@@KAPEAVDebugSetScore@SC2APIProtocol@@PEAVArena@12@@Z ; google::protobuf::MessageLite::CreateMaybeMessage<SC2APIProtocol::DebugSetScore>
PUBLIC	??1DebugEndGame@SC2APIProtocol@@UEAA@XZ		; SC2APIProtocol::DebugEndGame::~DebugEndGame
PUBLIC	??0DebugEndGame@SC2APIProtocol@@QEAA@AEBV01@@Z	; SC2APIProtocol::DebugEndGame::DebugEndGame
PUBLIC	?mutable_unknown_fields@DebugEndGame@SC2APIProtocol@@QEAAPEAVUnknownFieldSet@protobuf@google@@XZ ; SC2APIProtocol::DebugEndGame::mutable_unknown_fields
PUBLIC	?CopyFrom@DebugEndGame@SC2APIProtocol@@QEAAXAEBV12@@Z ; SC2APIProtocol::DebugEndGame::CopyFrom
PUBLIC	?MergeFrom@DebugEndGame@SC2APIProtocol@@QEAAXAEBV12@@Z ; SC2APIProtocol::DebugEndGame::MergeFrom
PUBLIC	?SharedCtor@DebugEndGame@SC2APIProtocol@@AEAAXPEAVArena@protobuf@google@@_N@Z ; SC2APIProtocol::DebugEndGame::SharedCtor
PUBLIC	?SharedDtor@DebugEndGame@SC2APIProtocol@@AEAAXXZ ; SC2APIProtocol::DebugEndGame::SharedDtor
PUBLIC	?InternalSwap@DebugEndGame@SC2APIProtocol@@AEAAXPEAV12@@Z ; SC2APIProtocol::DebugEndGame::InternalSwap
PUBLIC	??0DebugEndGame@SC2APIProtocol@@IEAA@PEAVArena@protobuf@google@@_N@Z ; SC2APIProtocol::DebugEndGame::DebugEndGame
PUBLIC	?_internal_has_end_result@DebugEndGame@SC2APIProtocol@@AEBA_NXZ ; SC2APIProtocol::DebugEndGame::_internal_has_end_result
PUBLIC	?_internal_end_result@DebugEndGame@SC2APIProtocol@@AEBA?AW4DebugEndGame_EndResult@2@XZ ; SC2APIProtocol::DebugEndGame::_internal_end_result
PUBLIC	?_internal_set_end_result@DebugEndGame@SC2APIProtocol@@AEAAXW4DebugEndGame_EndResult@2@@Z ; SC2APIProtocol::DebugEndGame::_internal_set_end_result
PUBLIC	??$CreateMaybeMessage@VDebugEndGame@SC2APIProtocol@@@MessageLite@protobuf@google@@KAPEAVDebugEndGame@SC2APIProtocol@@PEAVArena@12@@Z ; google::protobuf::MessageLite::CreateMaybeMessage<SC2APIProtocol::DebugEndGame>
PUBLIC	??1DebugSetUnitValue@SC2APIProtocol@@UEAA@XZ	; SC2APIProtocol::DebugSetUnitValue::~DebugSetUnitValue
PUBLIC	??0DebugSetUnitValue@SC2APIProtocol@@QEAA@AEBV01@@Z ; SC2APIProtocol::DebugSetUnitValue::DebugSetUnitValue
PUBLIC	?mutable_unknown_fields@DebugSetUnitValue@SC2APIProtocol@@QEAAPEAVUnknownFieldSet@protobuf@google@@XZ ; SC2APIProtocol::DebugSetUnitValue::mutable_unknown_fields
PUBLIC	?CopyFrom@DebugSetUnitValue@SC2APIProtocol@@QEAAXAEBV12@@Z ; SC2APIProtocol::DebugSetUnitValue::CopyFrom
PUBLIC	?MergeFrom@DebugSetUnitValue@SC2APIProtocol@@QEAAXAEBV12@@Z ; SC2APIProtocol::DebugSetUnitValue::MergeFrom
PUBLIC	?SharedCtor@DebugSetUnitValue@SC2APIProtocol@@AEAAXPEAVArena@protobuf@google@@_N@Z ; SC2APIProtocol::DebugSetUnitValue::SharedCtor
PUBLIC	?SharedDtor@DebugSetUnitValue@SC2APIProtocol@@AEAAXXZ ; SC2APIProtocol::DebugSetUnitValue::SharedDtor
PUBLIC	?InternalSwap@DebugSetUnitValue@SC2APIProtocol@@AEAAXPEAV12@@Z ; SC2APIProtocol::DebugSetUnitValue::InternalSwap
PUBLIC	??0DebugSetUnitValue@SC2APIProtocol@@IEAA@PEAVArena@protobuf@google@@_N@Z ; SC2APIProtocol::DebugSetUnitValue::DebugSetUnitValue
PUBLIC	?_internal_unit_tag@DebugSetUnitValue@SC2APIProtocol@@AEBA_KXZ ; SC2APIProtocol::DebugSetUnitValue::_internal_unit_tag
PUBLIC	?_internal_value@DebugSetUnitValue@SC2APIProtocol@@AEBAMXZ ; SC2APIProtocol::DebugSetUnitValue::_internal_value
PUBLIC	?_internal_unit_value@DebugSetUnitValue@SC2APIProtocol@@AEBA?AW4DebugSetUnitValue_UnitValue@2@XZ ; SC2APIProtocol::DebugSetUnitValue::_internal_unit_value
PUBLIC	?_internal_set_unit_value@DebugSetUnitValue@SC2APIProtocol@@AEAAXW4DebugSetUnitValue_UnitValue@2@@Z ; SC2APIProtocol::DebugSetUnitValue::_internal_set_unit_value
PUBLIC	??$CreateMaybeMessage@VDebugSetUnitValue@SC2APIProtocol@@@MessageLite@protobuf@google@@KAPEAVDebugSetUnitValue@SC2APIProtocol@@PEAVArena@12@@Z ; google::protobuf::MessageLite::CreateMaybeMessage<SC2APIProtocol::DebugSetUnitValue>
PUBLIC	?VerifyUTF8StringNamedField@WireFormat@internal@protobuf@google@@SAXPEBDHW4Operation@1234@0@Z ; google::protobuf::internal::WireFormat::VerifyUTF8StringNamedField
PUBLIC	??1DebugCommandDefaultTypeInternal@SC2APIProtocol@@QEAA@XZ ; SC2APIProtocol::DebugCommandDefaultTypeInternal::~DebugCommandDefaultTypeInternal
PUBLIC	??0DebugDrawDefaultTypeInternal@SC2APIProtocol@@QEAA@XZ ; SC2APIProtocol::DebugDrawDefaultTypeInternal::DebugDrawDefaultTypeInternal
PUBLIC	??1DebugDrawDefaultTypeInternal@SC2APIProtocol@@QEAA@XZ ; SC2APIProtocol::DebugDrawDefaultTypeInternal::~DebugDrawDefaultTypeInternal
PUBLIC	??1LineDefaultTypeInternal@SC2APIProtocol@@QEAA@XZ ; SC2APIProtocol::LineDefaultTypeInternal::~LineDefaultTypeInternal
PUBLIC	??1ColorDefaultTypeInternal@SC2APIProtocol@@QEAA@XZ ; SC2APIProtocol::ColorDefaultTypeInternal::~ColorDefaultTypeInternal
PUBLIC	??1DebugTextDefaultTypeInternal@SC2APIProtocol@@QEAA@XZ ; SC2APIProtocol::DebugTextDefaultTypeInternal::~DebugTextDefaultTypeInternal
PUBLIC	??1DebugLineDefaultTypeInternal@SC2APIProtocol@@QEAA@XZ ; SC2APIProtocol::DebugLineDefaultTypeInternal::~DebugLineDefaultTypeInternal
PUBLIC	??1DebugBoxDefaultTypeInternal@SC2APIProtocol@@QEAA@XZ ; SC2APIProtocol::DebugBoxDefaultTypeInternal::~DebugBoxDefaultTypeInternal
PUBLIC	??1DebugSphereDefaultTypeInternal@SC2APIProtocol@@QEAA@XZ ; SC2APIProtocol::DebugSphereDefaultTypeInternal::~DebugSphereDefaultTypeInternal
PUBLIC	??1DebugCreateUnitDefaultTypeInternal@SC2APIProtocol@@QEAA@XZ ; SC2APIProtocol::DebugCreateUnitDefaultTypeInternal::~DebugCreateUnitDefaultTypeInternal
PUBLIC	??0DebugKillUnitDefaultTypeInternal@SC2APIProtocol@@QEAA@XZ ; SC2APIProtocol::DebugKillUnitDefaultTypeInternal::DebugKillUnitDefaultTypeInternal
PUBLIC	??1DebugKillUnitDefaultTypeInternal@SC2APIProtocol@@QEAA@XZ ; SC2APIProtocol::DebugKillUnitDefaultTypeInternal::~DebugKillUnitDefaultTypeInternal
PUBLIC	??1DebugTestProcessDefaultTypeInternal@SC2APIProtocol@@QEAA@XZ ; SC2APIProtocol::DebugTestProcessDefaultTypeInternal::~DebugTestProcessDefaultTypeInternal
PUBLIC	??1DebugSetScoreDefaultTypeInternal@SC2APIProtocol@@QEAA@XZ ; SC2APIProtocol::DebugSetScoreDefaultTypeInternal::~DebugSetScoreDefaultTypeInternal
PUBLIC	??1DebugEndGameDefaultTypeInternal@SC2APIProtocol@@QEAA@XZ ; SC2APIProtocol::DebugEndGameDefaultTypeInternal::~DebugEndGameDefaultTypeInternal
PUBLIC	??1DebugSetUnitValueDefaultTypeInternal@SC2APIProtocol@@QEAA@XZ ; SC2APIProtocol::DebugSetUnitValueDefaultTypeInternal::~DebugSetUnitValueDefaultTypeInternal
PUBLIC	?descriptor_table_s2clientprotocol_2fdebug_2eproto_getter@@YAPEBUDescriptorTable@internal@protobuf@google@@XZ ; descriptor_table_s2clientprotocol_2fdebug_2eproto_getter
PUBLIC	?draw@_Internal@DebugCommand@SC2APIProtocol@@SAAEBVDebugDraw@3@PEBV23@@Z ; SC2APIProtocol::DebugCommand::_Internal::draw
PUBLIC	?create_unit@_Internal@DebugCommand@SC2APIProtocol@@SAAEBVDebugCreateUnit@3@PEBV23@@Z ; SC2APIProtocol::DebugCommand::_Internal::create_unit
PUBLIC	?kill_unit@_Internal@DebugCommand@SC2APIProtocol@@SAAEBVDebugKillUnit@3@PEBV23@@Z ; SC2APIProtocol::DebugCommand::_Internal::kill_unit
PUBLIC	?test_process@_Internal@DebugCommand@SC2APIProtocol@@SAAEBVDebugTestProcess@3@PEBV23@@Z ; SC2APIProtocol::DebugCommand::_Internal::test_process
PUBLIC	?score@_Internal@DebugCommand@SC2APIProtocol@@SAAEBVDebugSetScore@3@PEBV23@@Z ; SC2APIProtocol::DebugCommand::_Internal::score
PUBLIC	?end_game@_Internal@DebugCommand@SC2APIProtocol@@SAAEBVDebugEndGame@3@PEBV23@@Z ; SC2APIProtocol::DebugCommand::_Internal::end_game
PUBLIC	?unit_value@_Internal@DebugCommand@SC2APIProtocol@@SAAEBVDebugSetUnitValue@3@PEBV23@@Z ; SC2APIProtocol::DebugCommand::_Internal::unit_value
PUBLIC	??$InternalGetOwningArena@VDebugDraw@SC2APIProtocol@@@Arena@protobuf@google@@SAPEAV012@PEBVDebugDraw@SC2APIProtocol@@@Z ; google::protobuf::Arena::InternalGetOwningArena<SC2APIProtocol::DebugDraw>
PUBLIC	??$GetOwnedMessage@VDebugDraw@SC2APIProtocol@@@internal@protobuf@google@@YAPEAVDebugDraw@SC2APIProtocol@@PEAVArena@12@PEAV34@0@Z ; google::protobuf::internal::GetOwnedMessage<SC2APIProtocol::DebugDraw>
PUBLIC	??$InternalGetOwningArena@VDebugCreateUnit@SC2APIProtocol@@@Arena@protobuf@google@@SAPEAV012@PEBVDebugCreateUnit@SC2APIProtocol@@@Z ; google::protobuf::Arena::InternalGetOwningArena<SC2APIProtocol::DebugCreateUnit>
PUBLIC	??$GetOwnedMessage@VDebugCreateUnit@SC2APIProtocol@@@internal@protobuf@google@@YAPEAVDebugCreateUnit@SC2APIProtocol@@PEAVArena@12@PEAV34@0@Z ; google::protobuf::internal::GetOwnedMessage<SC2APIProtocol::DebugCreateUnit>
PUBLIC	??$InternalGetOwningArena@VDebugKillUnit@SC2APIProtocol@@@Arena@protobuf@google@@SAPEAV012@PEBVDebugKillUnit@SC2APIProtocol@@@Z ; google::protobuf::Arena::InternalGetOwningArena<SC2APIProtocol::DebugKillUnit>
PUBLIC	??$GetOwnedMessage@VDebugKillUnit@SC2APIProtocol@@@internal@protobuf@google@@YAPEAVDebugKillUnit@SC2APIProtocol@@PEAVArena@12@PEAV34@0@Z ; google::protobuf::internal::GetOwnedMessage<SC2APIProtocol::DebugKillUnit>
PUBLIC	??$InternalGetOwningArena@VDebugTestProcess@SC2APIProtocol@@@Arena@protobuf@google@@SAPEAV012@PEBVDebugTestProcess@SC2APIProtocol@@@Z ; google::protobuf::Arena::InternalGetOwningArena<SC2APIProtocol::DebugTestProcess>
PUBLIC	??$GetOwnedMessage@VDebugTestProcess@SC2APIProtocol@@@internal@protobuf@google@@YAPEAVDebugTestProcess@SC2APIProtocol@@PEAVArena@12@PEAV34@0@Z ; google::protobuf::internal::GetOwnedMessage<SC2APIProtocol::DebugTestProcess>
PUBLIC	??$InternalGetOwningArena@VDebugSetScore@SC2APIProtocol@@@Arena@protobuf@google@@SAPEAV012@PEBVDebugSetScore@SC2APIProtocol@@@Z ; google::protobuf::Arena::InternalGetOwningArena<SC2APIProtocol::DebugSetScore>
PUBLIC	??$GetOwnedMessage@VDebugSetScore@SC2APIProtocol@@@internal@protobuf@google@@YAPEAVDebugSetScore@SC2APIProtocol@@PEAVArena@12@PEAV34@0@Z ; google::protobuf::internal::GetOwnedMessage<SC2APIProtocol::DebugSetScore>
PUBLIC	??$InternalGetOwningArena@VDebugEndGame@SC2APIProtocol@@@Arena@protobuf@google@@SAPEAV012@PEBVDebugEndGame@SC2APIProtocol@@@Z ; google::protobuf::Arena::InternalGetOwningArena<SC2APIProtocol::DebugEndGame>
PUBLIC	??$GetOwnedMessage@VDebugEndGame@SC2APIProtocol@@@internal@protobuf@google@@YAPEAVDebugEndGame@SC2APIProtocol@@PEAVArena@12@PEAV34@0@Z ; google::protobuf::internal::GetOwnedMessage<SC2APIProtocol::DebugEndGame>
PUBLIC	??$InternalGetOwningArena@VDebugSetUnitValue@SC2APIProtocol@@@Arena@protobuf@google@@SAPEAV012@PEBVDebugSetUnitValue@SC2APIProtocol@@@Z ; google::protobuf::Arena::InternalGetOwningArena<SC2APIProtocol::DebugSetUnitValue>
PUBLIC	??$GetOwnedMessage@VDebugSetUnitValue@SC2APIProtocol@@@internal@protobuf@google@@YAPEAVDebugSetUnitValue@SC2APIProtocol@@PEAVArena@12@PEAV34@0@Z ; google::protobuf::internal::GetOwnedMessage<SC2APIProtocol::DebugSetUnitValue>
PUBLIC	??$MergeFrom@VUnknownFieldSet@protobuf@google@@@InternalMetadata@internal@protobuf@google@@QEAAXAEBV0123@@Z ; google::protobuf::internal::InternalMetadata::MergeFrom<google::protobuf::UnknownFieldSet>
PUBLIC	??$DeleteReturnArena@VUnknownFieldSet@protobuf@google@@@InternalMetadata@internal@protobuf@google@@QEAAPEAVArena@23@XZ ; google::protobuf::internal::InternalMetadata::DeleteReturnArena<google::protobuf::UnknownFieldSet>
PUBLIC	??$Clear@VUnknownFieldSet@protobuf@google@@@InternalMetadata@internal@protobuf@google@@QEAAXXZ ; google::protobuf::internal::InternalMetadata::Clear<google::protobuf::UnknownFieldSet>
PUBLIC	??$MessageSize@VDebugDraw@SC2APIProtocol@@@WireFormatLite@internal@protobuf@google@@SA_KAEBVDebugDraw@SC2APIProtocol@@@Z ; google::protobuf::internal::WireFormatLite::MessageSize<SC2APIProtocol::DebugDraw>
PUBLIC	??$MessageSize@VDebugCreateUnit@SC2APIProtocol@@@WireFormatLite@internal@protobuf@google@@SA_KAEBVDebugCreateUnit@SC2APIProtocol@@@Z ; google::protobuf::internal::WireFormatLite::MessageSize<SC2APIProtocol::DebugCreateUnit>
PUBLIC	??$MessageSize@VDebugKillUnit@SC2APIProtocol@@@WireFormatLite@internal@protobuf@google@@SA_KAEBVDebugKillUnit@SC2APIProtocol@@@Z ; google::protobuf::internal::WireFormatLite::MessageSize<SC2APIProtocol::DebugKillUnit>
PUBLIC	??$MessageSize@VDebugTestProcess@SC2APIProtocol@@@WireFormatLite@internal@protobuf@google@@SA_KAEBVDebugTestProcess@SC2APIProtocol@@@Z ; google::protobuf::internal::WireFormatLite::MessageSize<SC2APIProtocol::DebugTestProcess>
PUBLIC	??$MessageSize@VDebugSetScore@SC2APIProtocol@@@WireFormatLite@internal@protobuf@google@@SA_KAEBVDebugSetScore@SC2APIProtocol@@@Z ; google::protobuf::internal::WireFormatLite::MessageSize<SC2APIProtocol::DebugSetScore>
PUBLIC	??$MessageSize@VDebugEndGame@SC2APIProtocol@@@WireFormatLite@internal@protobuf@google@@SA_KAEBVDebugEndGame@SC2APIProtocol@@@Z ; google::protobuf::internal::WireFormatLite::MessageSize<SC2APIProtocol::DebugEndGame>
PUBLIC	??$MessageSize@VDebugSetUnitValue@SC2APIProtocol@@@WireFormatLite@internal@protobuf@google@@SA_KAEBVDebugSetUnitValue@SC2APIProtocol@@@Z ; google::protobuf::internal::WireFormatLite::MessageSize<SC2APIProtocol::DebugSetUnitValue>
PUBLIC	??$swap@TCommandUnion@Impl_@DebugCommand@SC2APIProtocol@@$0A@@std@@YAXAEATCommandUnion@Impl_@DebugCommand@SC2APIProtocol@@0@Z ; std::swap<SC2APIProtocol::DebugCommand::Impl_::CommandUnion,0>
PUBLIC	??$swap@I$0A@@std@@YAXAEAI0@Z			; std::swap<unsigned int,0>
PUBLIC	??$ExpectTag@$09@internal@protobuf@google@@YA_NPEBD@Z ; google::protobuf::internal::ExpectTag<10>
PUBLIC	??$ExpectTag@$0BC@@internal@protobuf@google@@YA_NPEBD@Z ; google::protobuf::internal::ExpectTag<18>
PUBLIC	??$ExpectTag@$0BK@@internal@protobuf@google@@YA_NPEBD@Z ; google::protobuf::internal::ExpectTag<26>
PUBLIC	??$ExpectTag@$0CC@@internal@protobuf@google@@YA_NPEBD@Z ; google::protobuf::internal::ExpectTag<34>
PUBLIC	??D?$RepeatedPtrIterator@$$CBVDebugText@SC2APIProtocol@@@internal@protobuf@google@@QEBAAEBVDebugText@SC2APIProtocol@@XZ ; google::protobuf::internal::RepeatedPtrIterator<SC2APIProtocol::DebugText const >::operator*
PUBLIC	??E?$RepeatedPtrIterator@$$CBVDebugText@SC2APIProtocol@@@internal@protobuf@google@@QEAAAEAV0123@XZ ; google::protobuf::internal::RepeatedPtrIterator<SC2APIProtocol::DebugText const >::operator++
PUBLIC	??9internal@protobuf@google@@YA_NAEBV?$RepeatedPtrIterator@$$CBVDebugText@SC2APIProtocol@@@012@0@Z ; google::protobuf::internal::operator!=
PUBLIC	??$MessageSize@VDebugText@SC2APIProtocol@@@WireFormatLite@internal@protobuf@google@@SA_KAEBVDebugText@SC2APIProtocol@@@Z ; google::protobuf::internal::WireFormatLite::MessageSize<SC2APIProtocol::DebugText>
PUBLIC	??D?$RepeatedPtrIterator@$$CBVDebugLine@SC2APIProtocol@@@internal@protobuf@google@@QEBAAEBVDebugLine@SC2APIProtocol@@XZ ; google::protobuf::internal::RepeatedPtrIterator<SC2APIProtocol::DebugLine const >::operator*
PUBLIC	??E?$RepeatedPtrIterator@$$CBVDebugLine@SC2APIProtocol@@@internal@protobuf@google@@QEAAAEAV0123@XZ ; google::protobuf::internal::RepeatedPtrIterator<SC2APIProtocol::DebugLine const >::operator++
PUBLIC	??9internal@protobuf@google@@YA_NAEBV?$RepeatedPtrIterator@$$CBVDebugLine@SC2APIProtocol@@@012@0@Z ; google::protobuf::internal::operator!=
PUBLIC	??$MessageSize@VDebugLine@SC2APIProtocol@@@WireFormatLite@internal@protobuf@google@@SA_KAEBVDebugLine@SC2APIProtocol@@@Z ; google::protobuf::internal::WireFormatLite::MessageSize<SC2APIProtocol::DebugLine>
PUBLIC	??D?$RepeatedPtrIterator@$$CBVDebugBox@SC2APIProtocol@@@internal@protobuf@google@@QEBAAEBVDebugBox@SC2APIProtocol@@XZ ; google::protobuf::internal::RepeatedPtrIterator<SC2APIProtocol::DebugBox const >::operator*
PUBLIC	??E?$RepeatedPtrIterator@$$CBVDebugBox@SC2APIProtocol@@@internal@protobuf@google@@QEAAAEAV0123@XZ ; google::protobuf::internal::RepeatedPtrIterator<SC2APIProtocol::DebugBox const >::operator++
PUBLIC	??9internal@protobuf@google@@YA_NAEBV?$RepeatedPtrIterator@$$CBVDebugBox@SC2APIProtocol@@@012@0@Z ; google::protobuf::internal::operator!=
PUBLIC	??$MessageSize@VDebugBox@SC2APIProtocol@@@WireFormatLite@internal@protobuf@google@@SA_KAEBVDebugBox@SC2APIProtocol@@@Z ; google::protobuf::internal::WireFormatLite::MessageSize<SC2APIProtocol::DebugBox>
PUBLIC	??D?$RepeatedPtrIterator@$$CBVDebugSphere@SC2APIProtocol@@@internal@protobuf@google@@QEBAAEBVDebugSphere@SC2APIProtocol@@XZ ; google::protobuf::internal::RepeatedPtrIterator<SC2APIProtocol::DebugSphere const >::operator*
PUBLIC	??E?$RepeatedPtrIterator@$$CBVDebugSphere@SC2APIProtocol@@@internal@protobuf@google@@QEAAAEAV0123@XZ ; google::protobuf::internal::RepeatedPtrIterator<SC2APIProtocol::DebugSphere const >::operator++
PUBLIC	??9internal@protobuf@google@@YA_NAEBV?$RepeatedPtrIterator@$$CBVDebugSphere@SC2APIProtocol@@@012@0@Z ; google::protobuf::internal::operator!=
PUBLIC	??$MessageSize@VDebugSphere@SC2APIProtocol@@@WireFormatLite@internal@protobuf@google@@SA_KAEBVDebugSphere@SC2APIProtocol@@@Z ; google::protobuf::internal::WireFormatLite::MessageSize<SC2APIProtocol::DebugSphere>
PUBLIC	?p0@_Internal@Line@SC2APIProtocol@@SAAEBVPoint@3@PEBV23@@Z ; SC2APIProtocol::Line::_Internal::p0
PUBLIC	?p1@_Internal@Line@SC2APIProtocol@@SAAEBVPoint@3@PEBV23@@Z ; SC2APIProtocol::Line::_Internal::p1
PUBLIC	??$MessageSize@VPoint@SC2APIProtocol@@@WireFormatLite@internal@protobuf@google@@SA_KAEBVPoint@SC2APIProtocol@@@Z ; google::protobuf::internal::WireFormatLite::MessageSize<SC2APIProtocol::Point>
PUBLIC	??$memswap@$0BA@@internal@protobuf@google@@YAXPEAD0@Z ; google::protobuf::internal::memswap<16>
PUBLIC	?set_has_r@_Internal@Color@SC2APIProtocol@@SAXPEAV?$HasBits@$00@internal@protobuf@google@@@Z ; SC2APIProtocol::Color::_Internal::set_has_r
PUBLIC	?set_has_g@_Internal@Color@SC2APIProtocol@@SAXPEAV?$HasBits@$00@internal@protobuf@google@@@Z ; SC2APIProtocol::Color::_Internal::set_has_g
PUBLIC	?set_has_b@_Internal@Color@SC2APIProtocol@@SAXPEAV?$HasBits@$00@internal@protobuf@google@@@Z ; SC2APIProtocol::Color::_Internal::set_has_b
PUBLIC	??$memswap@$0M@@internal@protobuf@google@@YAXPEAD0@Z ; google::protobuf::internal::memswap<12>
PUBLIC	?color@_Internal@DebugText@SC2APIProtocol@@SAAEBVColor@3@PEBV23@@Z ; SC2APIProtocol::DebugText::_Internal::color
PUBLIC	?virtual_pos@_Internal@DebugText@SC2APIProtocol@@SAAEBVPoint@3@PEBV23@@Z ; SC2APIProtocol::DebugText::_Internal::virtual_pos
PUBLIC	?world_pos@_Internal@DebugText@SC2APIProtocol@@SAAEBVPoint@3@PEBV23@@Z ; SC2APIProtocol::DebugText::_Internal::world_pos
PUBLIC	?set_has_size@_Internal@DebugText@SC2APIProtocol@@SAXPEAV?$HasBits@$00@internal@protobuf@google@@@Z ; SC2APIProtocol::DebugText::_Internal::set_has_size
PUBLIC	??$MessageSize@VColor@SC2APIProtocol@@@WireFormatLite@internal@protobuf@google@@SA_KAEBVColor@SC2APIProtocol@@@Z ; google::protobuf::internal::WireFormatLite::MessageSize<SC2APIProtocol::Color>
PUBLIC	??$memswap@$0BM@@internal@protobuf@google@@YAXPEAD0@Z ; google::protobuf::internal::memswap<28>
PUBLIC	?color@_Internal@DebugLine@SC2APIProtocol@@SAAEBVColor@3@PEBV23@@Z ; SC2APIProtocol::DebugLine::_Internal::color
PUBLIC	?line@_Internal@DebugLine@SC2APIProtocol@@SAAEBVLine@3@PEBV23@@Z ; SC2APIProtocol::DebugLine::_Internal::line
PUBLIC	??$MessageSize@VLine@SC2APIProtocol@@@WireFormatLite@internal@protobuf@google@@SA_KAEBVLine@SC2APIProtocol@@@Z ; google::protobuf::internal::WireFormatLite::MessageSize<SC2APIProtocol::Line>
PUBLIC	?color@_Internal@DebugBox@SC2APIProtocol@@SAAEBVColor@3@PEBV23@@Z ; SC2APIProtocol::DebugBox::_Internal::color
PUBLIC	?min@_Internal@DebugBox@SC2APIProtocol@@SAAEBVPoint@3@PEBV23@@Z ; SC2APIProtocol::DebugBox::_Internal::min
PUBLIC	?max@_Internal@DebugBox@SC2APIProtocol@@SAAEBVPoint@3@PEBV23@@Z ; SC2APIProtocol::DebugBox::_Internal::max
PUBLIC	??$memswap@$0BI@@internal@protobuf@google@@YAXPEAD0@Z ; google::protobuf::internal::memswap<24>
PUBLIC	?color@_Internal@DebugSphere@SC2APIProtocol@@SAAEBVColor@3@PEBV23@@Z ; SC2APIProtocol::DebugSphere::_Internal::color
PUBLIC	?p@_Internal@DebugSphere@SC2APIProtocol@@SAAEBVPoint@3@PEBV23@@Z ; SC2APIProtocol::DebugSphere::_Internal::p
PUBLIC	?set_has_r@_Internal@DebugSphere@SC2APIProtocol@@SAXPEAV?$HasBits@$00@internal@protobuf@google@@@Z ; SC2APIProtocol::DebugSphere::_Internal::set_has_r
PUBLIC	??$UnalignedLoad@M@internal@protobuf@google@@YAMPEBD@Z ; google::protobuf::internal::UnalignedLoad<float>
PUBLIC	??$memswap@$0BE@@internal@protobuf@google@@YAXPEAD0@Z ; google::protobuf::internal::memswap<20>
PUBLIC	?set_has_unit_type@_Internal@DebugCreateUnit@SC2APIProtocol@@SAXPEAV?$HasBits@$00@internal@protobuf@google@@@Z ; SC2APIProtocol::DebugCreateUnit::_Internal::set_has_unit_type
PUBLIC	?set_has_owner@_Internal@DebugCreateUnit@SC2APIProtocol@@SAXPEAV?$HasBits@$00@internal@protobuf@google@@@Z ; SC2APIProtocol::DebugCreateUnit::_Internal::set_has_owner
PUBLIC	?pos@_Internal@DebugCreateUnit@SC2APIProtocol@@SAAEBVPoint2D@3@PEBV23@@Z ; SC2APIProtocol::DebugCreateUnit::_Internal::pos
PUBLIC	?set_has_quantity@_Internal@DebugCreateUnit@SC2APIProtocol@@SAXPEAV?$HasBits@$00@internal@protobuf@google@@@Z ; SC2APIProtocol::DebugCreateUnit::_Internal::set_has_quantity
PUBLIC	??$MessageSize@VPoint2D@SC2APIProtocol@@@WireFormatLite@internal@protobuf@google@@SA_KAEBVPoint2D@SC2APIProtocol@@@Z ; google::protobuf::internal::WireFormatLite::MessageSize<SC2APIProtocol::Point2D>
PUBLIC	??$ExpectTag@$07@internal@protobuf@google@@YA_NPEBD@Z ; google::protobuf::internal::ExpectTag<8>
PUBLIC	?set_has_delay_ms@_Internal@DebugTestProcess@SC2APIProtocol@@SAXPEAV?$HasBits@$00@internal@protobuf@google@@@Z ; SC2APIProtocol::DebugTestProcess::_Internal::set_has_delay_ms
PUBLIC	?set_has_score@_Internal@DebugSetScore@SC2APIProtocol@@SAXPEAV?$HasBits@$00@internal@protobuf@google@@@Z ; SC2APIProtocol::DebugSetScore::_Internal::set_has_score
PUBLIC	??$swap@M$0A@@std@@YAXAEAM0@Z			; std::swap<float,0>
PUBLIC	?set_has_value@_Internal@DebugSetUnitValue@SC2APIProtocol@@SAXPEAV?$HasBits@$00@internal@protobuf@google@@@Z ; SC2APIProtocol::DebugSetUnitValue::_Internal::set_has_value
PUBLIC	?set_has_unit_tag@_Internal@DebugSetUnitValue@SC2APIProtocol@@SAXPEAV?$HasBits@$00@internal@protobuf@google@@@Z ; SC2APIProtocol::DebugSetUnitValue::_Internal::set_has_unit_tag
PUBLIC	??$CreateMessageInternal@VDebugCommand@SC2APIProtocol@@@Arena@protobuf@google@@CAPEAVDebugCommand@SC2APIProtocol@@PEAV012@@Z ; google::protobuf::Arena::CreateMessageInternal<SC2APIProtocol::DebugCommand>
PUBLIC	??$CreateMessageInternal@VDebugDraw@SC2APIProtocol@@@Arena@protobuf@google@@CAPEAVDebugDraw@SC2APIProtocol@@PEAV012@@Z ; google::protobuf::Arena::CreateMessageInternal<SC2APIProtocol::DebugDraw>
PUBLIC	??$CreateMessageInternal@VLine@SC2APIProtocol@@@Arena@protobuf@google@@CAPEAVLine@SC2APIProtocol@@PEAV012@@Z ; google::protobuf::Arena::CreateMessageInternal<SC2APIProtocol::Line>
PUBLIC	??$CreateMessageInternal@VColor@SC2APIProtocol@@@Arena@protobuf@google@@CAPEAVColor@SC2APIProtocol@@PEAV012@@Z ; google::protobuf::Arena::CreateMessageInternal<SC2APIProtocol::Color>
PUBLIC	??$CreateMessageInternal@VDebugText@SC2APIProtocol@@@Arena@protobuf@google@@CAPEAVDebugText@SC2APIProtocol@@PEAV012@@Z ; google::protobuf::Arena::CreateMessageInternal<SC2APIProtocol::DebugText>
PUBLIC	??$CreateMessageInternal@VDebugLine@SC2APIProtocol@@@Arena@protobuf@google@@CAPEAVDebugLine@SC2APIProtocol@@PEAV012@@Z ; google::protobuf::Arena::CreateMessageInternal<SC2APIProtocol::DebugLine>
PUBLIC	??$CreateMessageInternal@VDebugBox@SC2APIProtocol@@@Arena@protobuf@google@@CAPEAVDebugBox@SC2APIProtocol@@PEAV012@@Z ; google::protobuf::Arena::CreateMessageInternal<SC2APIProtocol::DebugBox>
PUBLIC	??$CreateMessageInternal@VDebugSphere@SC2APIProtocol@@@Arena@protobuf@google@@CAPEAVDebugSphere@SC2APIProtocol@@PEAV012@@Z ; google::protobuf::Arena::CreateMessageInternal<SC2APIProtocol::DebugSphere>
PUBLIC	??$CreateMessageInternal@VDebugCreateUnit@SC2APIProtocol@@@Arena@protobuf@google@@CAPEAVDebugCreateUnit@SC2APIProtocol@@PEAV012@@Z ; google::protobuf::Arena::CreateMessageInternal<SC2APIProtocol::DebugCreateUnit>
PUBLIC	??$CreateMessageInternal@VDebugKillUnit@SC2APIProtocol@@@Arena@protobuf@google@@CAPEAVDebugKillUnit@SC2APIProtocol@@PEAV012@@Z ; google::protobuf::Arena::CreateMessageInternal<SC2APIProtocol::DebugKillUnit>
PUBLIC	??$CreateMessageInternal@VDebugTestProcess@SC2APIProtocol@@@Arena@protobuf@google@@CAPEAVDebugTestProcess@SC2APIProtocol@@PEAV012@@Z ; google::protobuf::Arena::CreateMessageInternal<SC2APIProtocol::DebugTestProcess>
PUBLIC	??$CreateMessageInternal@VDebugSetScore@SC2APIProtocol@@@Arena@protobuf@google@@CAPEAVDebugSetScore@SC2APIProtocol@@PEAV012@@Z ; google::protobuf::Arena::CreateMessageInternal<SC2APIProtocol::DebugSetScore>
PUBLIC	??$CreateMessageInternal@VDebugEndGame@SC2APIProtocol@@@Arena@protobuf@google@@CAPEAVDebugEndGame@SC2APIProtocol@@PEAV012@@Z ; google::protobuf::Arena::CreateMessageInternal<SC2APIProtocol::DebugEndGame>
PUBLIC	??$CreateMessageInternal@VDebugSetUnitValue@SC2APIProtocol@@@Arena@protobuf@google@@CAPEAVDebugSetUnitValue@SC2APIProtocol@@PEAV012@@Z ; google::protobuf::Arena::CreateMessageInternal<SC2APIProtocol::DebugSetUnitValue>
PUBLIC	?deallocate@?$allocator@U_Container_proxy@std@@@std@@QEAAXQEAU_Container_proxy@2@_K@Z ; std::allocator<std::_Container_proxy>::deallocate
PUBLIC	?allocate@?$allocator@U_Container_proxy@std@@@std@@QEAAPEAU_Container_proxy@2@_K@Z ; std::allocator<std::_Container_proxy>::allocate
PUBLIC	??$?0VUnknownField@protobuf@google@@@?$allocator@U_Container_proxy@std@@@std@@QEAA@AEBV?$allocator@VUnknownField@protobuf@google@@@1@@Z ; std::allocator<std::_Container_proxy>::allocator<std::_Container_proxy><google::protobuf::UnknownField>
PUBLIC	??$exchange@PEAU_Container_proxy@std@@$$T@std@@YAPEAU_Container_proxy@0@AEAPEAU10@$$QEA$$T@Z ; std::exchange<std::_Container_proxy *,std::nullptr_t>
PUBLIC	??$_Delete_plain_internal@V?$allocator@U_Container_proxy@std@@@std@@@std@@YAXAEAV?$allocator@U_Container_proxy@std@@@0@QEAU_Container_proxy@0@@Z ; std::_Delete_plain_internal<std::allocator<std::_Container_proxy> >
PUBLIC	??$?0$$V@?$_Compressed_pair@V?$allocator@VUnknownField@protobuf@google@@@std@@V?$_Vector_val@U?$_Simple_types@VUnknownField@protobuf@google@@@std@@@2@$00@std@@QEAA@U_Zero_then_variadic_args_t@1@@Z ; std::_Compressed_pair<std::allocator<google::protobuf::UnknownField>,std::_Vector_val<std::_Simple_types<google::protobuf::UnknownField> >,1>::_Compressed_pair<std::allocator<google::protobuf::UnknownField>,std::_Vector_val<std::_Simple_types<google::protobuf::UnknownField> >,1><>
PUBLIC	??$_Alloc_proxy@V?$allocator@U_Container_proxy@std@@@std@@@_Container_base12@std@@QEAAX$$QEAV?$allocator@U_Container_proxy@std@@@1@@Z ; std::_Container_base12::_Alloc_proxy<std::allocator<std::_Container_proxy> >
PUBLIC	??$_Atomic_address_as@HU?$_Atomic_padded@H@std@@@std@@YAPEDHAEBU?$_Atomic_padded@H@0@@Z ; std::_Atomic_address_as<int,std::_Atomic_padded<int> >
PUBLIC	??$_Atomic_address_as@HU?$_Atomic_padded@H@std@@@std@@YAPECHAEAU?$_Atomic_padded@H@0@@Z ; std::_Atomic_address_as<int,std::_Atomic_padded<int> >
PUBLIC	??$_Atomic_reinterpret_as@HH@std@@YAHAEBH@Z	; std::_Atomic_reinterpret_as<int,int>
PUBLIC	??$_Destroy_range@V?$allocator@VUnknownField@protobuf@google@@@std@@@std@@YAXPEAVUnknownField@protobuf@google@@QEAV123@AEAV?$allocator@VUnknownField@protobuf@google@@@0@@Z ; std::_Destroy_range<std::allocator<google::protobuf::UnknownField> >
PUBLIC	??$_Unfancy@D@std@@YAPEADPEAD@Z			; std::_Unfancy<char>
PUBLIC	??$_Deallocate@$0BA@$0A@@std@@YAXPEAX_K@Z	; std::_Deallocate<16,0>
PUBLIC	??$addressof@D@std@@YAPEADAEAD@Z		; std::addressof<char>
PUBLIC	??$construct_at@DAEBD$0A@@std@@YAPEADQEADAEBD@Z	; std::construct_at<char,char const &,0>
PUBLIC	??$_Voidify_iter@PEAD@std@@YAPEAXPEAD@Z		; std::_Voidify_iter<char *>
PUBLIC	??$forward@AEBD@std@@YAAEBDAEBD@Z		; std::forward<char const &>
PUBLIC	??$addressof@U_Container_proxy@std@@@std@@YAPEAU_Container_proxy@0@AEAU10@@Z ; std::addressof<std::_Container_proxy>
PUBLIC	??$_Voidify_iter@PEAU_Container_proxy@std@@@std@@YAPEAXPEAU_Container_proxy@0@@Z ; std::_Voidify_iter<std::_Container_proxy *>
PUBLIC	??$forward@PEAU_Container_base12@std@@@std@@YA$$QEAPEAU_Container_base12@0@AEAPEAU10@@Z ; std::forward<std::_Container_base12 *>
PUBLIC	??$construct_at@U_Container_proxy@std@@PEAU_Container_base12@2@$0A@@std@@YAPEAU_Container_proxy@0@QEAU10@$$QEAPEAU_Container_base12@0@@Z ; std::construct_at<std::_Container_proxy,std::_Container_base12 *,0>
PUBLIC	??$move@AEAH@std@@YA$$QEAHAEAH@Z		; std::move<int &>
PUBLIC	??$move@AEA_J@std@@YA$$QEA_JAEA_J@Z		; std::move<__int64 &>
PUBLIC	??$move@AEAVTaggedStringPtr@internal@protobuf@google@@@std@@YA$$QEAVTaggedStringPtr@internal@protobuf@google@@AEAV1234@@Z ; std::move<google::protobuf::internal::TaggedStringPtr &>
PUBLIC	??$forward@AEAPEAVArena@protobuf@google@@@std@@YAAEAPEAVArena@protobuf@google@@AEAPEAV123@@Z ; std::forward<google::protobuf::Arena * &>
PUBLIC	??$forward@AEAH@std@@YAAEAHAEAH@Z		; std::forward<int &>
PUBLIC	??$forward@AEAPEAURep@RepeatedPtrFieldBase@internal@protobuf@google@@@std@@YAAEAPEAURep@RepeatedPtrFieldBase@internal@protobuf@google@@AEAPEAU12345@@Z ; std::forward<google::protobuf::internal::RepeatedPtrFieldBase::Rep * &>
PUBLIC	??$?0AEAPEAVArena@protobuf@google@@AEAHAEAHAEAPEAURep@RepeatedPtrFieldBase@internal@12@$0A@@?$tuple@PEAVArena@protobuf@google@@HHPEAURep@RepeatedPtrFieldBase@internal@23@@std@@QEAA@AEAPEAVArena@protobuf@google@@AEAH1AEAPEAURep@RepeatedPtrFieldBase@internal@34@@Z ; std::tuple<google::protobuf::Arena *,int,int,google::protobuf::internal::RepeatedPtrFieldBase::Rep *>::tuple<google::protobuf::Arena *,int,int,google::protobuf::internal::RepeatedPtrFieldBase::Rep *><google::protobuf::Arena * &,int &,int &,google::protobuf::internal::RepeatedPtrFieldBase::Rep * &,0>
PUBLIC	??$?0AEAPEAVArena@protobuf@google@@$0A@@?$tuple@AEAPEAVArena@protobuf@google@@AEAHAEAHAEAPEAURep@RepeatedPtrFieldBase@internal@23@@std@@QEAA@AEAPEAVArena@protobuf@google@@AEAH1AEAPEAURep@RepeatedPtrFieldBase@internal@34@@Z ; std::tuple<google::protobuf::Arena * &,int &,int &,google::protobuf::internal::RepeatedPtrFieldBase::Rep * &>::tuple<google::protobuf::Arena * &,int &,int &,google::protobuf::internal::RepeatedPtrFieldBase::Rep * &><google::protobuf::Arena * &,0>
PUBLIC	??$forward@PEAVArena@protobuf@google@@@std@@YA$$QEAPEAVArena@protobuf@google@@AEAPEAV123@@Z ; std::forward<google::protobuf::Arena *>
PUBLIC	??$forward@V?$tuple@HHPEAURep@RepeatedPtrFieldBase@internal@protobuf@google@@@std@@@std@@YA$$QEAV?$tuple@HHPEAURep@RepeatedPtrFieldBase@internal@protobuf@google@@@0@AEAV10@@Z ; std::forward<std::tuple<int,int,google::protobuf::internal::RepeatedPtrFieldBase::Rep *> >
PUBLIC	??$?4HHPEAURep@RepeatedPtrFieldBase@internal@protobuf@google@@$0A@@?$tuple@AEAHAEAHAEAPEAURep@RepeatedPtrFieldBase@internal@protobuf@google@@@std@@QEAAAEAV01@$$QEAV?$tuple@HHPEAURep@RepeatedPtrFieldBase@internal@protobuf@google@@@1@@Z ; std::tuple<int &,int &,google::protobuf::internal::RepeatedPtrFieldBase::Rep * &>::operator=<int,int,google::protobuf::internal::RepeatedPtrFieldBase::Rep *,0>
PUBLIC	??$?4HHPEAURep@RepeatedPtrFieldBase@internal@protobuf@google@@$0A@@?$tuple@AEAHAEAHAEAPEAURep@RepeatedPtrFieldBase@internal@protobuf@google@@@std@@QEAAAEAV01@AEBV?$tuple@HHPEAURep@RepeatedPtrFieldBase@internal@protobuf@google@@@1@@Z ; std::tuple<int &,int &,google::protobuf::internal::RepeatedPtrFieldBase::Rep * &>::operator=<int,int,google::protobuf::internal::RepeatedPtrFieldBase::Rep *,0>
PUBLIC	??$PtrValue@U?$Container@VUnknownFieldSet@protobuf@google@@@InternalMetadata@internal@protobuf@google@@@InternalMetadata@internal@protobuf@google@@AEBAPEAU?$Container@VUnknownFieldSet@protobuf@google@@@0123@XZ ; google::protobuf::internal::InternalMetadata::PtrValue<google::protobuf::internal::InternalMetadata::Container<google::protobuf::UnknownFieldSet> >
PUBLIC	??0?$Container@VUnknownFieldSet@protobuf@google@@@InternalMetadata@internal@protobuf@google@@QEAA@XZ ; google::protobuf::internal::InternalMetadata::Container<google::protobuf::UnknownFieldSet>::Container<google::protobuf::UnknownFieldSet>
PUBLIC	??1?$Container@VUnknownFieldSet@protobuf@google@@@InternalMetadata@internal@protobuf@google@@QEAA@XZ ; google::protobuf::internal::InternalMetadata::Container<google::protobuf::UnknownFieldSet>::~Container<google::protobuf::UnknownFieldSet>
PUBLIC	??_G?$Container@VUnknownFieldSet@protobuf@google@@@InternalMetadata@internal@protobuf@google@@QEAAPEAXI@Z ; google::protobuf::internal::InternalMetadata::Container<google::protobuf::UnknownFieldSet>::`scalar deleting destructor'
PUBLIC	??$mutable_unknown_fields_slow@VUnknownFieldSet@protobuf@google@@@InternalMetadata@internal@protobuf@google@@AEAAPEAVUnknownFieldSet@23@XZ ; google::protobuf::internal::InternalMetadata::mutable_unknown_fields_slow<google::protobuf::UnknownFieldSet>
PUBLIC	?New@?$GenericTypeHandler@VDebugText@SC2APIProtocol@@@internal@protobuf@google@@SAPEAVDebugText@SC2APIProtocol@@PEAVArena@34@@Z ; google::protobuf::internal::GenericTypeHandler<SC2APIProtocol::DebugText>::New
PUBLIC	?NewFromPrototype@?$GenericTypeHandler@VDebugText@SC2APIProtocol@@@internal@protobuf@google@@SAPEAVDebugText@SC2APIProtocol@@PEBV56@PEAVArena@34@@Z ; google::protobuf::internal::GenericTypeHandler<SC2APIProtocol::DebugText>::NewFromPrototype
PUBLIC	?Clear@?$GenericTypeHandler@VDebugText@SC2APIProtocol@@@internal@protobuf@google@@SAXPEAVDebugText@SC2APIProtocol@@@Z ; google::protobuf::internal::GenericTypeHandler<SC2APIProtocol::DebugText>::Clear
PUBLIC	?Merge@?$GenericTypeHandler@VDebugText@SC2APIProtocol@@@internal@protobuf@google@@SAXAEBVDebugText@SC2APIProtocol@@PEAV56@@Z ; google::protobuf::internal::GenericTypeHandler<SC2APIProtocol::DebugText>::Merge
PUBLIC	??$Get@VTypeHandler@?$RepeatedPtrField@VDebugText@SC2APIProtocol@@@protobuf@google@@@RepeatedPtrFieldBase@internal@protobuf@google@@QEBAAEBVDebugText@SC2APIProtocol@@H@Z ; google::protobuf::internal::RepeatedPtrFieldBase::Get<google::protobuf::RepeatedPtrField<SC2APIProtocol::DebugText>::TypeHandler>
PUBLIC	??$Add@VTypeHandler@?$RepeatedPtrField@VDebugText@SC2APIProtocol@@@protobuf@google@@@RepeatedPtrFieldBase@internal@protobuf@google@@IEAAPEAVDebugText@SC2APIProtocol@@PEBV45@@Z ; google::protobuf::internal::RepeatedPtrFieldBase::Add<google::protobuf::RepeatedPtrField<SC2APIProtocol::DebugText>::TypeHandler>
PUBLIC	??$Clear@VTypeHandler@?$RepeatedPtrField@VDebugText@SC2APIProtocol@@@protobuf@google@@@RepeatedPtrFieldBase@internal@protobuf@google@@QEAAXXZ ; google::protobuf::internal::RepeatedPtrFieldBase::Clear<google::protobuf::RepeatedPtrField<SC2APIProtocol::DebugText>::TypeHandler>
PUBLIC	??$MergeFrom@VTypeHandler@?$RepeatedPtrField@VDebugText@SC2APIProtocol@@@protobuf@google@@@RepeatedPtrFieldBase@internal@protobuf@google@@QEAAXAEBV0123@@Z ; google::protobuf::internal::RepeatedPtrFieldBase::MergeFrom<google::protobuf::RepeatedPtrField<SC2APIProtocol::DebugText>::TypeHandler>
PUBLIC	??0?$RepeatedPtrIterator@VDebugText@SC2APIProtocol@@@internal@protobuf@google@@QEAA@PEBQEAX@Z ; google::protobuf::internal::RepeatedPtrIterator<SC2APIProtocol::DebugText>::RepeatedPtrIterator<SC2APIProtocol::DebugText>
PUBLIC	??$?0VDebugText@SC2APIProtocol@@$0A@@?$RepeatedPtrIterator@$$CBVDebugText@SC2APIProtocol@@@internal@protobuf@google@@QEAA@AEBV?$RepeatedPtrIterator@VDebugText@SC2APIProtocol@@@123@@Z ; google::protobuf::internal::RepeatedPtrIterator<SC2APIProtocol::DebugText const >::RepeatedPtrIterator<SC2APIProtocol::DebugText const ><SC2APIProtocol::DebugText,0>
PUBLIC	?New@?$GenericTypeHandler@VDebugLine@SC2APIProtocol@@@internal@protobuf@google@@SAPEAVDebugLine@SC2APIProtocol@@PEAVArena@34@@Z ; google::protobuf::internal::GenericTypeHandler<SC2APIProtocol::DebugLine>::New
PUBLIC	?NewFromPrototype@?$GenericTypeHandler@VDebugLine@SC2APIProtocol@@@internal@protobuf@google@@SAPEAVDebugLine@SC2APIProtocol@@PEBV56@PEAVArena@34@@Z ; google::protobuf::internal::GenericTypeHandler<SC2APIProtocol::DebugLine>::NewFromPrototype
PUBLIC	?Clear@?$GenericTypeHandler@VDebugLine@SC2APIProtocol@@@internal@protobuf@google@@SAXPEAVDebugLine@SC2APIProtocol@@@Z ; google::protobuf::internal::GenericTypeHandler<SC2APIProtocol::DebugLine>::Clear
PUBLIC	?Merge@?$GenericTypeHandler@VDebugLine@SC2APIProtocol@@@internal@protobuf@google@@SAXAEBVDebugLine@SC2APIProtocol@@PEAV56@@Z ; google::protobuf::internal::GenericTypeHandler<SC2APIProtocol::DebugLine>::Merge
PUBLIC	??$Get@VTypeHandler@?$RepeatedPtrField@VDebugLine@SC2APIProtocol@@@protobuf@google@@@RepeatedPtrFieldBase@internal@protobuf@google@@QEBAAEBVDebugLine@SC2APIProtocol@@H@Z ; google::protobuf::internal::RepeatedPtrFieldBase::Get<google::protobuf::RepeatedPtrField<SC2APIProtocol::DebugLine>::TypeHandler>
PUBLIC	??$Add@VTypeHandler@?$RepeatedPtrField@VDebugLine@SC2APIProtocol@@@protobuf@google@@@RepeatedPtrFieldBase@internal@protobuf@google@@IEAAPEAVDebugLine@SC2APIProtocol@@PEBV45@@Z ; google::protobuf::internal::RepeatedPtrFieldBase::Add<google::protobuf::RepeatedPtrField<SC2APIProtocol::DebugLine>::TypeHandler>
PUBLIC	??$Clear@VTypeHandler@?$RepeatedPtrField@VDebugLine@SC2APIProtocol@@@protobuf@google@@@RepeatedPtrFieldBase@internal@protobuf@google@@QEAAXXZ ; google::protobuf::internal::RepeatedPtrFieldBase::Clear<google::protobuf::RepeatedPtrField<SC2APIProtocol::DebugLine>::TypeHandler>
PUBLIC	??$MergeFrom@VTypeHandler@?$RepeatedPtrField@VDebugLine@SC2APIProtocol@@@protobuf@google@@@RepeatedPtrFieldBase@internal@protobuf@google@@QEAAXAEBV0123@@Z ; google::protobuf::internal::RepeatedPtrFieldBase::MergeFrom<google::protobuf::RepeatedPtrField<SC2APIProtocol::DebugLine>::TypeHandler>
PUBLIC	??0?$RepeatedPtrIterator@VDebugLine@SC2APIProtocol@@@internal@protobuf@google@@QEAA@PEBQEAX@Z ; google::protobuf::internal::RepeatedPtrIterator<SC2APIProtocol::DebugLine>::RepeatedPtrIterator<SC2APIProtocol::DebugLine>
PUBLIC	??$?0VDebugLine@SC2APIProtocol@@$0A@@?$RepeatedPtrIterator@$$CBVDebugLine@SC2APIProtocol@@@internal@protobuf@google@@QEAA@AEBV?$RepeatedPtrIterator@VDebugLine@SC2APIProtocol@@@123@@Z ; google::protobuf::internal::RepeatedPtrIterator<SC2APIProtocol::DebugLine const >::RepeatedPtrIterator<SC2APIProtocol::DebugLine const ><SC2APIProtocol::DebugLine,0>
PUBLIC	?New@?$GenericTypeHandler@VDebugBox@SC2APIProtocol@@@internal@protobuf@google@@SAPEAVDebugBox@SC2APIProtocol@@PEAVArena@34@@Z ; google::protobuf::internal::GenericTypeHandler<SC2APIProtocol::DebugBox>::New
PUBLIC	?NewFromPrototype@?$GenericTypeHandler@VDebugBox@SC2APIProtocol@@@internal@protobuf@google@@SAPEAVDebugBox@SC2APIProtocol@@PEBV56@PEAVArena@34@@Z ; google::protobuf::internal::GenericTypeHandler<SC2APIProtocol::DebugBox>::NewFromPrototype
PUBLIC	?Clear@?$GenericTypeHandler@VDebugBox@SC2APIProtocol@@@internal@protobuf@google@@SAXPEAVDebugBox@SC2APIProtocol@@@Z ; google::protobuf::internal::GenericTypeHandler<SC2APIProtocol::DebugBox>::Clear
PUBLIC	?Merge@?$GenericTypeHandler@VDebugBox@SC2APIProtocol@@@internal@protobuf@google@@SAXAEBVDebugBox@SC2APIProtocol@@PEAV56@@Z ; google::protobuf::internal::GenericTypeHandler<SC2APIProtocol::DebugBox>::Merge
PUBLIC	??$Get@VTypeHandler@?$RepeatedPtrField@VDebugBox@SC2APIProtocol@@@protobuf@google@@@RepeatedPtrFieldBase@internal@protobuf@google@@QEBAAEBVDebugBox@SC2APIProtocol@@H@Z ; google::protobuf::internal::RepeatedPtrFieldBase::Get<google::protobuf::RepeatedPtrField<SC2APIProtocol::DebugBox>::TypeHandler>
PUBLIC	??$Add@VTypeHandler@?$RepeatedPtrField@VDebugBox@SC2APIProtocol@@@protobuf@google@@@RepeatedPtrFieldBase@internal@protobuf@google@@IEAAPEAVDebugBox@SC2APIProtocol@@PEBV45@@Z ; google::protobuf::internal::RepeatedPtrFieldBase::Add<google::protobuf::RepeatedPtrField<SC2APIProtocol::DebugBox>::TypeHandler>
PUBLIC	??$Clear@VTypeHandler@?$RepeatedPtrField@VDebugBox@SC2APIProtocol@@@protobuf@google@@@RepeatedPtrFieldBase@internal@protobuf@google@@QEAAXXZ ; google::protobuf::internal::RepeatedPtrFieldBase::Clear<google::protobuf::RepeatedPtrField<SC2APIProtocol::DebugBox>::TypeHandler>
PUBLIC	??$MergeFrom@VTypeHandler@?$RepeatedPtrField@VDebugBox@SC2APIProtocol@@@protobuf@google@@@RepeatedPtrFieldBase@internal@protobuf@google@@QEAAXAEBV0123@@Z ; google::protobuf::internal::RepeatedPtrFieldBase::MergeFrom<google::protobuf::RepeatedPtrField<SC2APIProtocol::DebugBox>::TypeHandler>
PUBLIC	??0?$RepeatedPtrIterator@VDebugBox@SC2APIProtocol@@@internal@protobuf@google@@QEAA@PEBQEAX@Z ; google::protobuf::internal::RepeatedPtrIterator<SC2APIProtocol::DebugBox>::RepeatedPtrIterator<SC2APIProtocol::DebugBox>
PUBLIC	??$?0VDebugBox@SC2APIProtocol@@$0A@@?$RepeatedPtrIterator@$$CBVDebugBox@SC2APIProtocol@@@internal@protobuf@google@@QEAA@AEBV?$RepeatedPtrIterator@VDebugBox@SC2APIProtocol@@@123@@Z ; google::protobuf::internal::RepeatedPtrIterator<SC2APIProtocol::DebugBox const >::RepeatedPtrIterator<SC2APIProtocol::DebugBox const ><SC2APIProtocol::DebugBox,0>
PUBLIC	?New@?$GenericTypeHandler@VDebugSphere@SC2APIProtocol@@@internal@protobuf@google@@SAPEAVDebugSphere@SC2APIProtocol@@PEAVArena@34@@Z ; google::protobuf::internal::GenericTypeHandler<SC2APIProtocol::DebugSphere>::New
PUBLIC	?NewFromPrototype@?$GenericTypeHandler@VDebugSphere@SC2APIProtocol@@@internal@protobuf@google@@SAPEAVDebugSphere@SC2APIProtocol@@PEBV56@PEAVArena@34@@Z ; google::protobuf::internal::GenericTypeHandler<SC2APIProtocol::DebugSphere>::NewFromPrototype
PUBLIC	?Clear@?$GenericTypeHandler@VDebugSphere@SC2APIProtocol@@@internal@protobuf@google@@SAXPEAVDebugSphere@SC2APIProtocol@@@Z ; google::protobuf::internal::GenericTypeHandler<SC2APIProtocol::DebugSphere>::Clear
PUBLIC	?Merge@?$GenericTypeHandler@VDebugSphere@SC2APIProtocol@@@internal@protobuf@google@@SAXAEBVDebugSphere@SC2APIProtocol@@PEAV56@@Z ; google::protobuf::internal::GenericTypeHandler<SC2APIProtocol::DebugSphere>::Merge
PUBLIC	??$Get@VTypeHandler@?$RepeatedPtrField@VDebugSphere@SC2APIProtocol@@@protobuf@google@@@RepeatedPtrFieldBase@internal@protobuf@google@@QEBAAEBVDebugSphere@SC2APIProtocol@@H@Z ; google::protobuf::internal::RepeatedPtrFieldBase::Get<google::protobuf::RepeatedPtrField<SC2APIProtocol::DebugSphere>::TypeHandler>
PUBLIC	??$Add@VTypeHandler@?$RepeatedPtrField@VDebugSphere@SC2APIProtocol@@@protobuf@google@@@RepeatedPtrFieldBase@internal@protobuf@google@@IEAAPEAVDebugSphere@SC2APIProtocol@@PEBV45@@Z ; google::protobuf::internal::RepeatedPtrFieldBase::Add<google::protobuf::RepeatedPtrField<SC2APIProtocol::DebugSphere>::TypeHandler>
PUBLIC	??$Clear@VTypeHandler@?$RepeatedPtrField@VDebugSphere@SC2APIProtocol@@@protobuf@google@@@RepeatedPtrFieldBase@internal@protobuf@google@@QEAAXXZ ; google::protobuf::internal::RepeatedPtrFieldBase::Clear<google::protobuf::RepeatedPtrField<SC2APIProtocol::DebugSphere>::TypeHandler>
PUBLIC	??$MergeFrom@VTypeHandler@?$RepeatedPtrField@VDebugSphere@SC2APIProtocol@@@protobuf@google@@@RepeatedPtrFieldBase@internal@protobuf@google@@QEAAXAEBV0123@@Z ; google::protobuf::internal::RepeatedPtrFieldBase::MergeFrom<google::protobuf::RepeatedPtrField<SC2APIProtocol::DebugSphere>::TypeHandler>
PUBLIC	??0?$RepeatedPtrIterator@VDebugSphere@SC2APIProtocol@@@internal@protobuf@google@@QEAA@PEBQEAX@Z ; google::protobuf::internal::RepeatedPtrIterator<SC2APIProtocol::DebugSphere>::RepeatedPtrIterator<SC2APIProtocol::DebugSphere>
PUBLIC	??$?0VDebugSphere@SC2APIProtocol@@$0A@@?$RepeatedPtrIterator@$$CBVDebugSphere@SC2APIProtocol@@@internal@protobuf@google@@QEAA@AEBV?$RepeatedPtrIterator@VDebugSphere@SC2APIProtocol@@@123@@Z ; google::protobuf::internal::RepeatedPtrIterator<SC2APIProtocol::DebugSphere const >::RepeatedPtrIterator<SC2APIProtocol::DebugSphere const ><SC2APIProtocol::DebugSphere,0>
PUBLIC	?New@?$InternalHelper@VColor@SC2APIProtocol@@@Arena@protobuf@google@@CAPEAVColor@SC2APIProtocol@@XZ ; google::protobuf::Arena::InternalHelper<SC2APIProtocol::Color>::New
PUBLIC	?New@?$InternalHelper@VLine@SC2APIProtocol@@@Arena@protobuf@google@@CAPEAVLine@SC2APIProtocol@@XZ ; google::protobuf::Arena::InternalHelper<SC2APIProtocol::Line>::New
PUBLIC	?GetOwningArena@?$InternalHelper@VDebugDraw@SC2APIProtocol@@@Arena@protobuf@google@@CAPEAV234@PEBVDebugDraw@SC2APIProtocol@@@Z ; google::protobuf::Arena::InternalHelper<SC2APIProtocol::DebugDraw>::GetOwningArena
PUBLIC	?New@?$InternalHelper@VDebugDraw@SC2APIProtocol@@@Arena@protobuf@google@@CAPEAVDebugDraw@SC2APIProtocol@@XZ ; google::protobuf::Arena::InternalHelper<SC2APIProtocol::DebugDraw>::New
PUBLIC	?GetOwningArena@?$InternalHelper@VDebugCreateUnit@SC2APIProtocol@@@Arena@protobuf@google@@CAPEAV234@PEBVDebugCreateUnit@SC2APIProtocol@@@Z ; google::protobuf::Arena::InternalHelper<SC2APIProtocol::DebugCreateUnit>::GetOwningArena
PUBLIC	?New@?$InternalHelper@VDebugCreateUnit@SC2APIProtocol@@@Arena@protobuf@google@@CAPEAVDebugCreateUnit@SC2APIProtocol@@XZ ; google::protobuf::Arena::InternalHelper<SC2APIProtocol::DebugCreateUnit>::New
PUBLIC	?GetOwningArena@?$InternalHelper@VDebugKillUnit@SC2APIProtocol@@@Arena@protobuf@google@@CAPEAV234@PEBVDebugKillUnit@SC2APIProtocol@@@Z ; google::protobuf::Arena::InternalHelper<SC2APIProtocol::DebugKillUnit>::GetOwningArena
PUBLIC	?New@?$InternalHelper@VDebugKillUnit@SC2APIProtocol@@@Arena@protobuf@google@@CAPEAVDebugKillUnit@SC2APIProtocol@@XZ ; google::protobuf::Arena::InternalHelper<SC2APIProtocol::DebugKillUnit>::New
PUBLIC	?GetOwningArena@?$InternalHelper@VDebugTestProcess@SC2APIProtocol@@@Arena@protobuf@google@@CAPEAV234@PEBVDebugTestProcess@SC2APIProtocol@@@Z ; google::protobuf::Arena::InternalHelper<SC2APIProtocol::DebugTestProcess>::GetOwningArena
PUBLIC	?New@?$InternalHelper@VDebugTestProcess@SC2APIProtocol@@@Arena@protobuf@google@@CAPEAVDebugTestProcess@SC2APIProtocol@@XZ ; google::protobuf::Arena::InternalHelper<SC2APIProtocol::DebugTestProcess>::New
PUBLIC	?GetOwningArena@?$InternalHelper@VDebugSetScore@SC2APIProtocol@@@Arena@protobuf@google@@CAPEAV234@PEBVDebugSetScore@SC2APIProtocol@@@Z ; google::protobuf::Arena::InternalHelper<SC2APIProtocol::DebugSetScore>::GetOwningArena
PUBLIC	?New@?$InternalHelper@VDebugSetScore@SC2APIProtocol@@@Arena@protobuf@google@@CAPEAVDebugSetScore@SC2APIProtocol@@XZ ; google::protobuf::Arena::InternalHelper<SC2APIProtocol::DebugSetScore>::New
PUBLIC	?GetOwningArena@?$InternalHelper@VDebugEndGame@SC2APIProtocol@@@Arena@protobuf@google@@CAPEAV234@PEBVDebugEndGame@SC2APIProtocol@@@Z ; google::protobuf::Arena::InternalHelper<SC2APIProtocol::DebugEndGame>::GetOwningArena
PUBLIC	?New@?$InternalHelper@VDebugEndGame@SC2APIProtocol@@@Arena@protobuf@google@@CAPEAVDebugEndGame@SC2APIProtocol@@XZ ; google::protobuf::Arena::InternalHelper<SC2APIProtocol::DebugEndGame>::New
PUBLIC	?GetOwningArena@?$InternalHelper@VDebugSetUnitValue@SC2APIProtocol@@@Arena@protobuf@google@@CAPEAV234@PEBVDebugSetUnitValue@SC2APIProtocol@@@Z ; google::protobuf::Arena::InternalHelper<SC2APIProtocol::DebugSetUnitValue>::GetOwningArena
PUBLIC	?New@?$InternalHelper@VDebugSetUnitValue@SC2APIProtocol@@@Arena@protobuf@google@@CAPEAVDebugSetUnitValue@SC2APIProtocol@@XZ ; google::protobuf::Arena::InternalHelper<SC2APIProtocol::DebugSetUnitValue>::New
PUBLIC	??$DoMergeFrom@VUnknownFieldSet@protobuf@google@@@InternalMetadata@internal@protobuf@google@@AEAAXAEBVUnknownFieldSet@23@@Z ; google::protobuf::internal::InternalMetadata::DoMergeFrom<google::protobuf::UnknownFieldSet>
PUBLIC	??$DeleteOutOfLineHelper@VUnknownFieldSet@protobuf@google@@@InternalMetadata@internal@protobuf@google@@AEAAPEAVArena@23@XZ ; google::protobuf::internal::InternalMetadata::DeleteOutOfLineHelper<google::protobuf::UnknownFieldSet>
PUBLIC	??$DoClear@VUnknownFieldSet@protobuf@google@@@InternalMetadata@internal@protobuf@google@@AEAAXXZ ; google::protobuf::internal::InternalMetadata::DoClear<google::protobuf::UnknownFieldSet>
PUBLIC	??$move@AEATCommandUnion@Impl_@DebugCommand@SC2APIProtocol@@@std@@YA$$QEATCommandUnion@Impl_@DebugCommand@SC2APIProtocol@@AEAT1234@@Z ; std::move<SC2APIProtocol::DebugCommand::Impl_::CommandUnion &>
PUBLIC	??$move@AEAI@std@@YA$$QEAIAEAI@Z		; std::move<unsigned int &>
PUBLIC	??$SwapBlock@_K@internal@protobuf@google@@YAXPEAD0@Z ; google::protobuf::internal::SwapBlock<unsigned __int64>
PUBLIC	??$memswap@$07@internal@protobuf@google@@YAXPEAD0@Z ; google::protobuf::internal::memswap<8>
PUBLIC	??$memswap@$03@internal@protobuf@google@@YAXPEAD0@Z ; google::protobuf::internal::memswap<4>
PUBLIC	??$move@AEAM@std@@YA$$QEAMAEAM@Z		; std::move<float &>
PUBLIC	?New@?$InternalHelper@VDebugCommand@SC2APIProtocol@@@Arena@protobuf@google@@CAPEAVDebugCommand@SC2APIProtocol@@XZ ; google::protobuf::Arena::InternalHelper<SC2APIProtocol::DebugCommand>::New
PUBLIC	??$DoCreateMessage@VDebugCommand@SC2APIProtocol@@$$V@Arena@protobuf@google@@AEAAPEAVDebugCommand@SC2APIProtocol@@XZ ; google::protobuf::Arena::DoCreateMessage<SC2APIProtocol::DebugCommand>
PUBLIC	??$DoCreateMessage@VDebugDraw@SC2APIProtocol@@$$V@Arena@protobuf@google@@AEAAPEAVDebugDraw@SC2APIProtocol@@XZ ; google::protobuf::Arena::DoCreateMessage<SC2APIProtocol::DebugDraw>
PUBLIC	??$DoCreateMessage@VLine@SC2APIProtocol@@$$V@Arena@protobuf@google@@AEAAPEAVLine@SC2APIProtocol@@XZ ; google::protobuf::Arena::DoCreateMessage<SC2APIProtocol::Line>
PUBLIC	??$DoCreateMessage@VColor@SC2APIProtocol@@$$V@Arena@protobuf@google@@AEAAPEAVColor@SC2APIProtocol@@XZ ; google::protobuf::Arena::DoCreateMessage<SC2APIProtocol::Color>
PUBLIC	?New@?$InternalHelper@VDebugText@SC2APIProtocol@@@Arena@protobuf@google@@CAPEAVDebugText@SC2APIProtocol@@XZ ; google::protobuf::Arena::InternalHelper<SC2APIProtocol::DebugText>::New
PUBLIC	??$DoCreateMessage@VDebugText@SC2APIProtocol@@$$V@Arena@protobuf@google@@AEAAPEAVDebugText@SC2APIProtocol@@XZ ; google::protobuf::Arena::DoCreateMessage<SC2APIProtocol::DebugText>
PUBLIC	?New@?$InternalHelper@VDebugLine@SC2APIProtocol@@@Arena@protobuf@google@@CAPEAVDebugLine@SC2APIProtocol@@XZ ; google::protobuf::Arena::InternalHelper<SC2APIProtocol::DebugLine>::New
PUBLIC	??$DoCreateMessage@VDebugLine@SC2APIProtocol@@$$V@Arena@protobuf@google@@AEAAPEAVDebugLine@SC2APIProtocol@@XZ ; google::protobuf::Arena::DoCreateMessage<SC2APIProtocol::DebugLine>
PUBLIC	?New@?$InternalHelper@VDebugBox@SC2APIProtocol@@@Arena@protobuf@google@@CAPEAVDebugBox@SC2APIProtocol@@XZ ; google::protobuf::Arena::InternalHelper<SC2APIProtocol::DebugBox>::New
PUBLIC	??$DoCreateMessage@VDebugBox@SC2APIProtocol@@$$V@Arena@protobuf@google@@AEAAPEAVDebugBox@SC2APIProtocol@@XZ ; google::protobuf::Arena::DoCreateMessage<SC2APIProtocol::DebugBox>
PUBLIC	?New@?$InternalHelper@VDebugSphere@SC2APIProtocol@@@Arena@protobuf@google@@CAPEAVDebugSphere@SC2APIProtocol@@XZ ; google::protobuf::Arena::InternalHelper<SC2APIProtocol::DebugSphere>::New
PUBLIC	??$DoCreateMessage@VDebugSphere@SC2APIProtocol@@$$V@Arena@protobuf@google@@AEAAPEAVDebugSphere@SC2APIProtocol@@XZ ; google::protobuf::Arena::DoCreateMessage<SC2APIProtocol::DebugSphere>
PUBLIC	??$DoCreateMessage@VDebugCreateUnit@SC2APIProtocol@@$$V@Arena@protobuf@google@@AEAAPEAVDebugCreateUnit@SC2APIProtocol@@XZ ; google::protobuf::Arena::DoCreateMessage<SC2APIProtocol::DebugCreateUnit>
PUBLIC	??$DoCreateMessage@VDebugKillUnit@SC2APIProtocol@@$$V@Arena@protobuf@google@@AEAAPEAVDebugKillUnit@SC2APIProtocol@@XZ ; google::protobuf::Arena::DoCreateMessage<SC2APIProtocol::DebugKillUnit>
PUBLIC	??$DoCreateMessage@VDebugTestProcess@SC2APIProtocol@@$$V@Arena@protobuf@google@@AEAAPEAVDebugTestProcess@SC2APIProtocol@@XZ ; google::protobuf::Arena::DoCreateMessage<SC2APIProtocol::DebugTestProcess>
PUBLIC	??$DoCreateMessage@VDebugSetScore@SC2APIProtocol@@$$V@Arena@protobuf@google@@AEAAPEAVDebugSetScore@SC2APIProtocol@@XZ ; google::protobuf::Arena::DoCreateMessage<SC2APIProtocol::DebugSetScore>
PUBLIC	??$DoCreateMessage@VDebugEndGame@SC2APIProtocol@@$$V@Arena@protobuf@google@@AEAAPEAVDebugEndGame@SC2APIProtocol@@XZ ; google::protobuf::Arena::DoCreateMessage<SC2APIProtocol::DebugEndGame>
PUBLIC	??$DoCreateMessage@VDebugSetUnitValue@SC2APIProtocol@@$$V@Arena@protobuf@google@@AEAAPEAVDebugSetUnitValue@SC2APIProtocol@@XZ ; google::protobuf::Arena::DoCreateMessage<SC2APIProtocol::DebugSetUnitValue>
PUBLIC	??$_Deallocate_plain@V?$allocator@U_Container_proxy@std@@@std@@@std@@YAXAEAV?$allocator@U_Container_proxy@std@@@0@QEAU_Container_proxy@0@@Z ; std::_Deallocate_plain<std::allocator<std::_Container_proxy> >
PUBLIC	??$_Unfancy@U_Container_proxy@std@@@std@@YAPEAU_Container_proxy@0@PEAU10@@Z ; std::_Unfancy<std::_Container_proxy>
PUBLIC	??$_Get_size_of_n@$0BA@@std@@YA_K_K@Z		; std::_Get_size_of_n<16>
PUBLIC	??$_Allocate@$0BA@U_Default_allocate_traits@std@@$0A@@std@@YAPEAX_K@Z ; std::_Allocate<16,std::_Default_allocate_traits,0>
PUBLIC	??$?0U_Exact_args_t@std@@AEAPEAVArena@protobuf@google@@AEAHAEAHAEAPEAURep@RepeatedPtrFieldBase@internal@34@$0A@@?$tuple@PEAVArena@protobuf@google@@HHPEAURep@RepeatedPtrFieldBase@internal@23@@std@@QEAA@U_Exact_args_t@1@AEAPEAVArena@protobuf@google@@AEAH2AEAPEAURep@RepeatedPtrFieldBase@internal@45@@Z ; std::tuple<google::protobuf::Arena *,int,int,google::protobuf::internal::RepeatedPtrFieldBase::Rep *>::tuple<google::protobuf::Arena *,int,int,google::protobuf::internal::RepeatedPtrFieldBase::Rep *><std::_Exact_args_t,google::protobuf::Arena * &,int &,int &,google::protobuf::internal::RepeatedPtrFieldBase::Rep * &,0>
PUBLIC	??$?0U_Exact_args_t@std@@AEAPEAVArena@protobuf@google@@AEAHAEAHAEAPEAURep@RepeatedPtrFieldBase@internal@34@$0A@@?$tuple@AEAPEAVArena@protobuf@google@@AEAHAEAHAEAPEAURep@RepeatedPtrFieldBase@internal@23@@std@@QEAA@U_Exact_args_t@1@AEAPEAVArena@protobuf@google@@AEAH2AEAPEAURep@RepeatedPtrFieldBase@internal@45@@Z ; std::tuple<google::protobuf::Arena * &,int &,int &,google::protobuf::internal::RepeatedPtrFieldBase::Rep * &>::tuple<google::protobuf::Arena * &,int &,int &,google::protobuf::internal::RepeatedPtrFieldBase::Rep * &><std::_Exact_args_t,google::protobuf::Arena * &,int &,int &,google::protobuf::internal::RepeatedPtrFieldBase::Rep * &,0>
PUBLIC	??$forward@H@std@@YA$$QEAHAEAH@Z		; std::forward<int>
PUBLIC	??$forward@V?$tuple@HPEAURep@RepeatedPtrFieldBase@internal@protobuf@google@@@std@@@std@@YA$$QEAV?$tuple@HPEAURep@RepeatedPtrFieldBase@internal@protobuf@google@@@0@AEAV10@@Z ; std::forward<std::tuple<int,google::protobuf::internal::RepeatedPtrFieldBase::Rep *> >
PUBLIC	??$?4HPEAURep@RepeatedPtrFieldBase@internal@protobuf@google@@$0A@@?$tuple@AEAHAEAPEAURep@RepeatedPtrFieldBase@internal@protobuf@google@@@std@@QEAAAEAV01@$$QEAV?$tuple@HPEAURep@RepeatedPtrFieldBase@internal@protobuf@google@@@1@@Z ; std::tuple<int &,google::protobuf::internal::RepeatedPtrFieldBase::Rep * &>::operator=<int,google::protobuf::internal::RepeatedPtrFieldBase::Rep *,0>
PUBLIC	??$?4HPEAURep@RepeatedPtrFieldBase@internal@protobuf@google@@$0A@@?$tuple@AEAHAEAPEAURep@RepeatedPtrFieldBase@internal@protobuf@google@@@std@@QEAAAEAV01@AEBV?$tuple@HPEAURep@RepeatedPtrFieldBase@internal@protobuf@google@@@1@@Z ; std::tuple<int &,google::protobuf::internal::RepeatedPtrFieldBase::Rep * &>::operator=<int,google::protobuf::internal::RepeatedPtrFieldBase::Rep *,0>
PUBLIC	??$Create@U?$Container@VUnknownFieldSet@protobuf@google@@@InternalMetadata@internal@protobuf@google@@$$V@Arena@protobuf@google@@SAPEAU?$Container@VUnknownFieldSet@protobuf@google@@@InternalMetadata@internal@12@PEAV012@@Z ; google::protobuf::Arena::Create<google::protobuf::internal::InternalMetadata::Container<google::protobuf::UnknownFieldSet> >
PUBLIC	??$cast@VTypeHandler@?$RepeatedPtrField@VDebugText@SC2APIProtocol@@@protobuf@google@@@RepeatedPtrFieldBase@internal@protobuf@google@@CAPEAVDebugText@SC2APIProtocol@@PEAX@Z ; google::protobuf::internal::RepeatedPtrFieldBase::cast<google::protobuf::RepeatedPtrField<SC2APIProtocol::DebugText>::TypeHandler>
PUBLIC	??$MergeFromInnerLoop@VTypeHandler@?$RepeatedPtrField@VDebugText@SC2APIProtocol@@@protobuf@google@@@RepeatedPtrFieldBase@internal@protobuf@google@@AEAAXPEAPEAX0HH@Z ; google::protobuf::internal::RepeatedPtrFieldBase::MergeFromInnerLoop<google::protobuf::RepeatedPtrField<SC2APIProtocol::DebugText>::TypeHandler>
PUBLIC	??$cast@VTypeHandler@?$RepeatedPtrField@VDebugLine@SC2APIProtocol@@@protobuf@google@@@RepeatedPtrFieldBase@internal@protobuf@google@@CAPEAVDebugLine@SC2APIProtocol@@PEAX@Z ; google::protobuf::internal::RepeatedPtrFieldBase::cast<google::protobuf::RepeatedPtrField<SC2APIProtocol::DebugLine>::TypeHandler>
PUBLIC	??$MergeFromInnerLoop@VTypeHandler@?$RepeatedPtrField@VDebugLine@SC2APIProtocol@@@protobuf@google@@@RepeatedPtrFieldBase@internal@protobuf@google@@AEAAXPEAPEAX0HH@Z ; google::protobuf::internal::RepeatedPtrFieldBase::MergeFromInnerLoop<google::protobuf::RepeatedPtrField<SC2APIProtocol::DebugLine>::TypeHandler>
PUBLIC	??$cast@VTypeHandler@?$RepeatedPtrField@VDebugBox@SC2APIProtocol@@@protobuf@google@@@RepeatedPtrFieldBase@internal@protobuf@google@@CAPEAVDebugBox@SC2APIProtocol@@PEAX@Z ; google::protobuf::internal::RepeatedPtrFieldBase::cast<google::protobuf::RepeatedPtrField<SC2APIProtocol::DebugBox>::TypeHandler>
PUBLIC	??$MergeFromInnerLoop@VTypeHandler@?$RepeatedPtrField@VDebugBox@SC2APIProtocol@@@protobuf@google@@@RepeatedPtrFieldBase@internal@protobuf@google@@AEAAXPEAPEAX0HH@Z ; google::protobuf::internal::RepeatedPtrFieldBase::MergeFromInnerLoop<google::protobuf::RepeatedPtrField<SC2APIProtocol::DebugBox>::TypeHandler>
PUBLIC	??$cast@VTypeHandler@?$RepeatedPtrField@VDebugSphere@SC2APIProtocol@@@protobuf@google@@@RepeatedPtrFieldBase@internal@protobuf@google@@CAPEAVDebugSphere@SC2APIProtocol@@PEAX@Z ; google::protobuf::internal::RepeatedPtrFieldBase::cast<google::protobuf::RepeatedPtrField<SC2APIProtocol::DebugSphere>::TypeHandler>
PUBLIC	??$MergeFromInnerLoop@VTypeHandler@?$RepeatedPtrField@VDebugSphere@SC2APIProtocol@@@protobuf@google@@@RepeatedPtrFieldBase@internal@protobuf@google@@AEAAXPEAPEAX0HH@Z ; google::protobuf::internal::RepeatedPtrFieldBase::MergeFromInnerLoop<google::protobuf::RepeatedPtrField<SC2APIProtocol::DebugSphere>::TypeHandler>
PUBLIC	??$memswap@$0A@@internal@protobuf@google@@YAXPEAD0@Z ; google::protobuf::internal::memswap<0>
PUBLIC	??$SwapBlock@I@internal@protobuf@google@@YAXPEAD0@Z ; google::protobuf::internal::SwapBlock<unsigned int>
PUBLIC	??$Construct@PEAVArena@protobuf@google@@@?$InternalHelper@VDebugCommand@SC2APIProtocol@@@Arena@protobuf@google@@CAPEAVDebugCommand@SC2APIProtocol@@PEAX$$QEAPEAV123@@Z ; google::protobuf::Arena::InternalHelper<SC2APIProtocol::DebugCommand>::Construct<google::protobuf::Arena *>
PUBLIC	??$Construct@PEAVArena@protobuf@google@@@?$InternalHelper@VDebugDraw@SC2APIProtocol@@@Arena@protobuf@google@@CAPEAVDebugDraw@SC2APIProtocol@@PEAX$$QEAPEAV123@@Z ; google::protobuf::Arena::InternalHelper<SC2APIProtocol::DebugDraw>::Construct<google::protobuf::Arena *>
PUBLIC	??$Construct@PEAVArena@protobuf@google@@@?$InternalHelper@VLine@SC2APIProtocol@@@Arena@protobuf@google@@CAPEAVLine@SC2APIProtocol@@PEAX$$QEAPEAV123@@Z ; google::protobuf::Arena::InternalHelper<SC2APIProtocol::Line>::Construct<google::protobuf::Arena *>
PUBLIC	??$Construct@PEAVArena@protobuf@google@@@?$InternalHelper@VColor@SC2APIProtocol@@@Arena@protobuf@google@@CAPEAVColor@SC2APIProtocol@@PEAX$$QEAPEAV123@@Z ; google::protobuf::Arena::InternalHelper<SC2APIProtocol::Color>::Construct<google::protobuf::Arena *>
PUBLIC	??$Construct@PEAVArena@protobuf@google@@@?$InternalHelper@VDebugText@SC2APIProtocol@@@Arena@protobuf@google@@CAPEAVDebugText@SC2APIProtocol@@PEAX$$QEAPEAV123@@Z ; google::protobuf::Arena::InternalHelper<SC2APIProtocol::DebugText>::Construct<google::protobuf::Arena *>
PUBLIC	??$Construct@PEAVArena@protobuf@google@@@?$InternalHelper@VDebugLine@SC2APIProtocol@@@Arena@protobuf@google@@CAPEAVDebugLine@SC2APIProtocol@@PEAX$$QEAPEAV123@@Z ; google::protobuf::Arena::InternalHelper<SC2APIProtocol::DebugLine>::Construct<google::protobuf::Arena *>
PUBLIC	??$Construct@PEAVArena@protobuf@google@@@?$InternalHelper@VDebugBox@SC2APIProtocol@@@Arena@protobuf@google@@CAPEAVDebugBox@SC2APIProtocol@@PEAX$$QEAPEAV123@@Z ; google::protobuf::Arena::InternalHelper<SC2APIProtocol::DebugBox>::Construct<google::protobuf::Arena *>
PUBLIC	??$Construct@PEAVArena@protobuf@google@@@?$InternalHelper@VDebugSphere@SC2APIProtocol@@@Arena@protobuf@google@@CAPEAVDebugSphere@SC2APIProtocol@@PEAX$$QEAPEAV123@@Z ; google::protobuf::Arena::InternalHelper<SC2APIProtocol::DebugSphere>::Construct<google::protobuf::Arena *>
PUBLIC	??$Construct@PEAVArena@protobuf@google@@@?$InternalHelper@VDebugCreateUnit@SC2APIProtocol@@@Arena@protobuf@google@@CAPEAVDebugCreateUnit@SC2APIProtocol@@PEAX$$QEAPEAV123@@Z ; google::protobuf::Arena::InternalHelper<SC2APIProtocol::DebugCreateUnit>::Construct<google::protobuf::Arena *>
PUBLIC	??$Construct@PEAVArena@protobuf@google@@@?$InternalHelper@VDebugKillUnit@SC2APIProtocol@@@Arena@protobuf@google@@CAPEAVDebugKillUnit@SC2APIProtocol@@PEAX$$QEAPEAV123@@Z ; google::protobuf::Arena::InternalHelper<SC2APIProtocol::DebugKillUnit>::Construct<google::protobuf::Arena *>
PUBLIC	??$Construct@PEAVArena@protobuf@google@@@?$InternalHelper@VDebugTestProcess@SC2APIProtocol@@@Arena@protobuf@google@@CAPEAVDebugTestProcess@SC2APIProtocol@@PEAX$$QEAPEAV123@@Z ; google::protobuf::Arena::InternalHelper<SC2APIProtocol::DebugTestProcess>::Construct<google::protobuf::Arena *>
PUBLIC	??$Construct@PEAVArena@protobuf@google@@@?$InternalHelper@VDebugSetScore@SC2APIProtocol@@@Arena@protobuf@google@@CAPEAVDebugSetScore@SC2APIProtocol@@PEAX$$QEAPEAV123@@Z ; google::protobuf::Arena::InternalHelper<SC2APIProtocol::DebugSetScore>::Construct<google::protobuf::Arena *>
PUBLIC	??$Construct@PEAVArena@protobuf@google@@@?$InternalHelper@VDebugEndGame@SC2APIProtocol@@@Arena@protobuf@google@@CAPEAVDebugEndGame@SC2APIProtocol@@PEAX$$QEAPEAV123@@Z ; google::protobuf::Arena::InternalHelper<SC2APIProtocol::DebugEndGame>::Construct<google::protobuf::Arena *>
PUBLIC	??$Construct@PEAVArena@protobuf@google@@@?$InternalHelper@VDebugSetUnitValue@SC2APIProtocol@@@Arena@protobuf@google@@CAPEAVDebugSetUnitValue@SC2APIProtocol@@PEAX$$QEAPEAV123@@Z ; google::protobuf::Arena::InternalHelper<SC2APIProtocol::DebugSetUnitValue>::Construct<google::protobuf::Arena *>
PUBLIC	?deallocate@?$_Default_allocator_traits@V?$allocator@U_Container_proxy@std@@@std@@@std@@SAXAEAV?$allocator@U_Container_proxy@std@@@2@QEAU_Container_proxy@2@_K@Z ; std::_Default_allocator_traits<std::allocator<std::_Container_proxy> >::deallocate
PUBLIC	??$_Allocate_manually_vector_aligned@U_Default_allocate_traits@std@@@std@@YAPEAX_K@Z ; std::_Allocate_manually_vector_aligned<std::_Default_allocate_traits>
PUBLIC	??$?0U_Exact_args_t@std@@AEAHAEAHAEAPEAURep@RepeatedPtrFieldBase@internal@protobuf@google@@$0A@@?$tuple@HHPEAURep@RepeatedPtrFieldBase@internal@protobuf@google@@@std@@QEAA@U_Exact_args_t@1@AEAH1AEAPEAURep@RepeatedPtrFieldBase@internal@protobuf@google@@@Z ; std::tuple<int,int,google::protobuf::internal::RepeatedPtrFieldBase::Rep *>::tuple<int,int,google::protobuf::internal::RepeatedPtrFieldBase::Rep *><std::_Exact_args_t,int &,int &,google::protobuf::internal::RepeatedPtrFieldBase::Rep * &,0>
PUBLIC	??$?0AEAPEAVArena@protobuf@google@@@?$_Tuple_val@PEAVArena@protobuf@google@@@std@@QEAA@AEAPEAVArena@protobuf@google@@@Z ; std::_Tuple_val<google::protobuf::Arena *>::_Tuple_val<google::protobuf::Arena *><google::protobuf::Arena * &>
PUBLIC	??$?0U_Exact_args_t@std@@AEAHAEAHAEAPEAURep@RepeatedPtrFieldBase@internal@protobuf@google@@$0A@@?$tuple@AEAHAEAHAEAPEAURep@RepeatedPtrFieldBase@internal@protobuf@google@@@std@@QEAA@U_Exact_args_t@1@AEAH1AEAPEAURep@RepeatedPtrFieldBase@internal@protobuf@google@@@Z ; std::tuple<int &,int &,google::protobuf::internal::RepeatedPtrFieldBase::Rep * &>::tuple<int &,int &,google::protobuf::internal::RepeatedPtrFieldBase::Rep * &><std::_Exact_args_t,int &,int &,google::protobuf::internal::RepeatedPtrFieldBase::Rep * &,0>
PUBLIC	??$?0AEAPEAVArena@protobuf@google@@@?$_Tuple_val@AEAPEAVArena@protobuf@google@@@std@@QEAA@AEAPEAVArena@protobuf@google@@@Z ; std::_Tuple_val<google::protobuf::Arena * &>::_Tuple_val<google::protobuf::Arena * &><google::protobuf::Arena * &>
PUBLIC	??$forward@V?$tuple@PEAURep@RepeatedPtrFieldBase@internal@protobuf@google@@@std@@@std@@YA$$QEAV?$tuple@PEAURep@RepeatedPtrFieldBase@internal@protobuf@google@@@0@AEAV10@@Z ; std::forward<std::tuple<google::protobuf::internal::RepeatedPtrFieldBase::Rep *> >
PUBLIC	??$?4PEAURep@RepeatedPtrFieldBase@internal@protobuf@google@@$0A@@?$tuple@AEAPEAURep@RepeatedPtrFieldBase@internal@protobuf@google@@@std@@QEAAAEAV01@$$QEAV?$tuple@PEAURep@RepeatedPtrFieldBase@internal@protobuf@google@@@1@@Z ; std::tuple<google::protobuf::internal::RepeatedPtrFieldBase::Rep * &>::operator=<google::protobuf::internal::RepeatedPtrFieldBase::Rep *,0>
PUBLIC	??$?4PEAURep@RepeatedPtrFieldBase@internal@protobuf@google@@$0A@@?$tuple@AEAPEAURep@RepeatedPtrFieldBase@internal@protobuf@google@@@std@@QEAAAEAV01@AEBV?$tuple@PEAURep@RepeatedPtrFieldBase@internal@protobuf@google@@@1@@Z ; std::tuple<google::protobuf::internal::RepeatedPtrFieldBase::Rep * &>::operator=<google::protobuf::internal::RepeatedPtrFieldBase::Rep *,0>
PUBLIC	??$CreateInternal@U?$Container@VUnknownFieldSet@protobuf@google@@@InternalMetadata@internal@protobuf@google@@$$V@Arena@protobuf@google@@CAPEAU?$Container@VUnknownFieldSet@protobuf@google@@@InternalMetadata@internal@12@PEAV012@U?$integral_constant@_N$0A@@std@@@Z ; google::protobuf::Arena::CreateInternal<google::protobuf::internal::InternalMetadata::Container<google::protobuf::UnknownFieldSet> >
PUBLIC	??$?0U_Exact_args_t@std@@AEAHAEAPEAURep@RepeatedPtrFieldBase@internal@protobuf@google@@$0A@@?$tuple@HPEAURep@RepeatedPtrFieldBase@internal@protobuf@google@@@std@@QEAA@U_Exact_args_t@1@AEAHAEAPEAURep@RepeatedPtrFieldBase@internal@protobuf@google@@@Z ; std::tuple<int,google::protobuf::internal::RepeatedPtrFieldBase::Rep *>::tuple<int,google::protobuf::internal::RepeatedPtrFieldBase::Rep *><std::_Exact_args_t,int &,google::protobuf::internal::RepeatedPtrFieldBase::Rep * &,0>
PUBLIC	??$?0AEAH@?$_Tuple_val@H@std@@QEAA@AEAH@Z	; std::_Tuple_val<int>::_Tuple_val<int><int &>
PUBLIC	??$?0U_Exact_args_t@std@@AEAHAEAPEAURep@RepeatedPtrFieldBase@internal@protobuf@google@@$0A@@?$tuple@AEAHAEAPEAURep@RepeatedPtrFieldBase@internal@protobuf@google@@@std@@QEAA@U_Exact_args_t@1@AEAHAEAPEAURep@RepeatedPtrFieldBase@internal@protobuf@google@@@Z ; std::tuple<int &,google::protobuf::internal::RepeatedPtrFieldBase::Rep * &>::tuple<int &,google::protobuf::internal::RepeatedPtrFieldBase::Rep * &><std::_Exact_args_t,int &,google::protobuf::internal::RepeatedPtrFieldBase::Rep * &,0>
PUBLIC	??$?0AEAH@?$_Tuple_val@AEAH@std@@QEAA@AEAH@Z	; std::_Tuple_val<int &>::_Tuple_val<int &><int &>
PUBLIC	??$forward@PEAURep@RepeatedPtrFieldBase@internal@protobuf@google@@@std@@YA$$QEAPEAURep@RepeatedPtrFieldBase@internal@protobuf@google@@AEAPEAU12345@@Z ; std::forward<google::protobuf::internal::RepeatedPtrFieldBase::Rep *>
PUBLIC	??$forward@V?$tuple@$$V@std@@@std@@YA$$QEAV?$tuple@$$V@0@AEAV10@@Z ; std::forward<std::tuple<> >
PUBLIC	??$arena_destruct_object@U?$Container@VUnknownFieldSet@protobuf@google@@@InternalMetadata@internal@protobuf@google@@@internal@protobuf@google@@YAXPEAX@Z ; google::protobuf::internal::arena_destruct_object<google::protobuf::internal::InternalMetadata::Container<google::protobuf::UnknownFieldSet> >
PUBLIC	??$?0U_Exact_args_t@std@@AEAPEAURep@RepeatedPtrFieldBase@internal@protobuf@google@@$$V$0A@@?$tuple@PEAURep@RepeatedPtrFieldBase@internal@protobuf@google@@@std@@QEAA@U_Exact_args_t@1@AEAPEAURep@RepeatedPtrFieldBase@internal@protobuf@google@@@Z ; std::tuple<google::protobuf::internal::RepeatedPtrFieldBase::Rep *>::tuple<google::protobuf::internal::RepeatedPtrFieldBase::Rep *><std::_Exact_args_t,google::protobuf::internal::RepeatedPtrFieldBase::Rep * &,0>
PUBLIC	??$?0U_Exact_args_t@std@@AEAPEAURep@RepeatedPtrFieldBase@internal@protobuf@google@@$$V$0A@@?$tuple@AEAPEAURep@RepeatedPtrFieldBase@internal@protobuf@google@@@std@@QEAA@U_Exact_args_t@1@AEAPEAURep@RepeatedPtrFieldBase@internal@protobuf@google@@@Z ; std::tuple<google::protobuf::internal::RepeatedPtrFieldBase::Rep * &>::tuple<google::protobuf::internal::RepeatedPtrFieldBase::Rep * &><std::_Exact_args_t,google::protobuf::internal::RepeatedPtrFieldBase::Rep * &,0>
PUBLIC	??$?0U_Exact_args_t@std@@$0A@@?$tuple@$$V@std@@QEAA@U_Exact_args_t@1@@Z ; std::tuple<>::tuple<><std::_Exact_args_t,0>
PUBLIC	??$?0AEAPEAURep@RepeatedPtrFieldBase@internal@protobuf@google@@@?$_Tuple_val@PEAURep@RepeatedPtrFieldBase@internal@protobuf@google@@@std@@QEAA@AEAPEAURep@RepeatedPtrFieldBase@internal@protobuf@google@@@Z ; std::_Tuple_val<google::protobuf::internal::RepeatedPtrFieldBase::Rep *>::_Tuple_val<google::protobuf::internal::RepeatedPtrFieldBase::Rep *><google::protobuf::internal::RepeatedPtrFieldBase::Rep * &>
PUBLIC	??$?0AEAPEAURep@RepeatedPtrFieldBase@internal@protobuf@google@@@?$_Tuple_val@AEAPEAURep@RepeatedPtrFieldBase@internal@protobuf@google@@@std@@QEAA@AEAPEAURep@RepeatedPtrFieldBase@internal@protobuf@google@@@Z ; std::_Tuple_val<google::protobuf::internal::RepeatedPtrFieldBase::Rep * &>::_Tuple_val<google::protobuf::internal::RepeatedPtrFieldBase::Rep * &><google::protobuf::internal::RepeatedPtrFieldBase::Rep * &>
PUBLIC	??_7exception@std@@6B@				; std::exception::`vftable'
PUBLIC	??_C@_0BC@EOODALEL@Unknown?5exception@		; `string'
PUBLIC	??_7bad_alloc@std@@6B@				; std::bad_alloc::`vftable'
PUBLIC	??_7bad_array_new_length@std@@6B@		; std::bad_array_new_length::`vftable'
PUBLIC	??_C@_0BF@KINCDENJ@bad?5array?5new?5length@	; `string'
PUBLIC	_TI3?AVbad_array_new_length@std@@
PUBLIC	_CTA3?AVbad_array_new_length@std@@
PUBLIC	??_R0?AVbad_array_new_length@std@@@8		; std::bad_array_new_length `RTTI Type Descriptor'
PUBLIC	_CT??_R0?AVbad_array_new_length@std@@@8??0bad_array_new_length@std@@QEAA@AEBV01@@Z24
PUBLIC	??_R0?AVbad_alloc@std@@@8			; std::bad_alloc `RTTI Type Descriptor'
PUBLIC	_CT??_R0?AVbad_alloc@std@@@8??0bad_alloc@std@@QEAA@AEBV01@@Z24
PUBLIC	??_R0?AVexception@std@@@8			; std::exception `RTTI Type Descriptor'
PUBLIC	_CT??_R0?AVexception@std@@@8??0exception@std@@QEAA@AEBV01@@Z24
PUBLIC	??_C@_0BB@FCMFBGOM@invalid?5argument@		; `string'
PUBLIC	??_C@_02DKCKIIND@?$CFs@				; `string'
PUBLIC	??_C@_0GC@CCEOIIJI@D?3?2Program?5Files?2Microsoft?5Visu@ ; `string'
PUBLIC	??_C@_1ME@NKGGGHPH@?$AAD?$AA?3?$AA?2?$AAP?$AAr?$AAo?$AAg?$AAr?$AAa?$AAm?$AA?5?$AAF?$AAi?$AAl?$AAe@ ; `string'
PUBLIC	??_C@_11LOCGONAA@@				; `string'
PUBLIC	??_C@_1CG@JNLFBNGN@?$AA?$CC?$AAi?$AAn?$AAv?$AAa?$AAl?$AAi?$AAd?$AA?5?$AAa?$AAr?$AAg?$AAu?$AAm?$AAe@ ; `string'
PUBLIC	??_C@_0BF@FBDAHHJI@Invalid?5memory?5order@	; `string'
PUBLIC	??_C@_0GB@KODMCFGD@D?3?2Program?5Files?2Microsoft?5Visu@ ; `string'
PUBLIC	??_C@_1MC@OHOEOBJF@?$AAD?$AA?3?$AA?2?$AAP?$AAr?$AAo?$AAg?$AAr?$AAa?$AAm?$AA?5?$AAF?$AAi?$AAl?$AAe@ ; `string'
PUBLIC	??_C@_1CO@JOMFDNFG@?$AA?$CC?$AAI?$AAn?$AAv?$AAa?$AAl?$AAi?$AAd?$AA?5?$AAm?$AAe?$AAm?$AAo?$AAr?$AAy@ ; `string'
PUBLIC	??_C@_0BP@JNHFIMCO@string?5length?5exceeds?5max?5size@ ; `string'
PUBLIC	??_C@_0EO@CLKFGFPJ@W?3?2cpp?2void?2alistar?2tests?2vendo@ ; `string'
PUBLIC	??_C@_0DG@IMBCBPAN@CHECK?5failed?3?5?$CBis_message_owned@ ; `string'
PUBLIC	??_7MessageLite@protobuf@google@@6B@		; google::protobuf::MessageLite::`vftable'
PUBLIC	??_C@_0FD@LNPCBKPF@W?3?2cpp?2void?2alistar?2tests?2vendo@ ; `string'
PUBLIC	??_C@_0BM@BDNKEFOF@CHECK?5failed?3?5this?5?$CB?$DN?5rhs?3?5@ ; `string'
PUBLIC	??_C@_0EO@MJOFNFMG@W?3?2cpp?2void?2alistar?2tests?2vendo@ ; `string'
PUBLIC	??_C@_0BF@DKGAPMDF@CHECK?5failed?3?5?$CKptr?3?5@ ; `string'
PUBLIC	??_C@_0CK@IMDPJFDF@CHECK?5failed?3?5?$CIoverrun?$CJ?5?$DM?$DN?5?$CIkSl@ ; `string'
PUBLIC	??_7Message@protobuf@google@@6B@		; google::protobuf::Message::`vftable'
PUBLIC	??_C@_0DA@LFKOEDKA@CHECK?5failed?3?5?$CBvalue?5?$HM?$HM?5_impl_?4@ ; `string'
PUBLIC	??_C@_0DA@BLMGNCDB@CHECK?5failed?3?5?$CBvalue?5?$HM?$HM?5_impl_?4@ ; `string'
PUBLIC	?_Color_default_instance_@SC2APIProtocol@@3UColorDefaultTypeInternal@1@A ; SC2APIProtocol::_Color_default_instance_
PUBLIC	?_DebugBox_default_instance_@SC2APIProtocol@@3UDebugBoxDefaultTypeInternal@1@A ; SC2APIProtocol::_DebugBox_default_instance_
PUBLIC	?_DebugCommand_default_instance_@SC2APIProtocol@@3UDebugCommandDefaultTypeInternal@1@A ; SC2APIProtocol::_DebugCommand_default_instance_
PUBLIC	?_DebugCreateUnit_default_instance_@SC2APIProtocol@@3UDebugCreateUnitDefaultTypeInternal@1@A ; SC2APIProtocol::_DebugCreateUnit_default_instance_
PUBLIC	?_DebugDraw_default_instance_@SC2APIProtocol@@3UDebugDrawDefaultTypeInternal@1@A ; SC2APIProtocol::_DebugDraw_default_instance_
PUBLIC	?_DebugEndGame_default_instance_@SC2APIProtocol@@3UDebugEndGameDefaultTypeInternal@1@A ; SC2APIProtocol::_DebugEndGame_default_instance_
PUBLIC	?_DebugKillUnit_default_instance_@SC2APIProtocol@@3UDebugKillUnitDefaultTypeInternal@1@A ; SC2APIProtocol::_DebugKillUnit_default_instance_
PUBLIC	?_DebugLine_default_instance_@SC2APIProtocol@@3UDebugLineDefaultTypeInternal@1@A ; SC2APIProtocol::_DebugLine_default_instance_
PUBLIC	?_DebugSetScore_default_instance_@SC2APIProtocol@@3UDebugSetScoreDefaultTypeInternal@1@A ; SC2APIProtocol::_DebugSetScore_default_instance_
PUBLIC	?_DebugSetUnitValue_default_instance_@SC2APIProtocol@@3UDebugSetUnitValueDefaultTypeInternal@1@A ; SC2APIProtocol::_DebugSetUnitValue_default_instance_
PUBLIC	?_DebugSphere_default_instance_@SC2APIProtocol@@3UDebugSphereDefaultTypeInternal@1@A ; SC2APIProtocol::_DebugSphere_default_instance_
PUBLIC	?_DebugTestProcess_default_instance_@SC2APIProtocol@@3UDebugTestProcessDefaultTypeInternal@1@A ; SC2APIProtocol::_DebugTestProcess_default_instance_
PUBLIC	?_DebugText_default_instance_@SC2APIProtocol@@3UDebugTextDefaultTypeInternal@1@A ; SC2APIProtocol::_DebugText_default_instance_
PUBLIC	?_Line_default_instance_@SC2APIProtocol@@3ULineDefaultTypeInternal@1@A ; SC2APIProtocol::_Line_default_instance_
PUBLIC	??_C@_0FG@PHDJILDK@W?3?2cpp?2void?2alistar?2tests?2vendo@ ; `string'
PUBLIC	??_7DebugDraw@SC2APIProtocol@@6B@		; SC2APIProtocol::DebugDraw::`vftable'
PUBLIC	??_7DebugKillUnit@SC2APIProtocol@@6B@		; SC2APIProtocol::DebugKillUnit::`vftable'
PUBLIC	??_C@_1KM@GDJMLDJG@?$AAW?$AA?3?$AA?2?$AAc?$AAp?$AAp?$AA?2?$AAv?$AAo?$AAi?$AAd?$AA?2?$AAa?$AAl?$AAi@ ; `string'
PUBLIC	??_C@_1GA@FHNMII@?$AA?3?$AA?3?$AAS?$AAC?$AA2?$AAA?$AAP?$AAI?$AAP?$AAr?$AAo?$AAt?$AAo?$AAc?$AAo@ ; `string'
PUBLIC	??_C@_0DD@NAHFLFEF@CHECK?5failed?3?5?$CBvalue?5?$HM?$HM?5_impl_?4@ ; `string'
PUBLIC	??_C@_0DJ@BEINOEF@CHECK?5failed?3?5?$CBvalue?5?$HM?$HM?5_impl_?4@ ; `string'
PUBLIC	??_C@_0DH@EGFEFKAD@CHECK?5failed?3?5?$CBvalue?5?$HM?$HM?5_impl_?4@ ; `string'
PUBLIC	??_C@_0DC@JNDOPFHI@CHECK?5failed?3?5?$CBvalue?5?$HM?$HM?5_impl_?4@ ; `string'
PUBLIC	??_C@_0DB@DJECLGAM@CHECK?5failed?3?5?$CBvalue?5?$HM?$HM?5_impl_?4@ ; `string'
PUBLIC	??_C@_0DB@GKOEKOOI@CHECK?5failed?3?5?$CBvalue?5?$HM?$HM?5_impl_?4@ ; `string'
PUBLIC	??_C@_0CP@PJAABMGM@CHECK?5failed?3?5?$CBvalue?5?$HM?$HM?5_impl_?4@ ; `string'
PUBLIC	??_C@_0DB@KMBDOODA@CHECK?5failed?3?5?$CBvalue?5?$HM?$HM?5_impl_?4@ ; `string'
PUBLIC	??_C@_1GO@ENHPMHJB@?$AA?3?$AA?3?$AAS?$AAC?$AA2?$AAA?$AAP?$AAI?$AAP?$AAr?$AAo?$AAt?$AAo?$AAc?$AAo@ ; `string'
PUBLIC	??_C@_1HA@PPNLPEDH@?$AA?3?$AA?3?$AAS?$AAC?$AA2?$AAA?$AAP?$AAI?$AAP?$AAr?$AAo?$AAt?$AAo?$AAc?$AAo@ ; `string'
PUBLIC	??_C@_1HK@BEHJHMCH@?$AA?3?$AA?3?$AAS?$AAC?$AA2?$AAA?$AAP?$AAI?$AAP?$AAr?$AAo?$AAt?$AAo?$AAc?$AAo@ ; `string'
PUBLIC	??_C@_0DN@PKNBENOA@vendor?2s2clientprotocol?2include@ ; `string'
PUBLIC	??_C@_0DD@HMMAHKLJ@CHECK?5failed?3?5GetArenaForAlloca@ ; `string'
PUBLIC	??_C@_0DG@KGHKKGBC@null?5pointer?5cannot?5point?5to?5a?5@ ; `string'
PUBLIC	??_C@_1HA@FACCKGGH@?$AA?$CC?$AAn?$AAu?$AAl?$AAl?$AA?5?$AAp?$AAo?$AAi?$AAn?$AAt?$AAe?$AAr?$AA?5?$AAc@ ; `string'
PUBLIC	??_C@_0BP@MKIGJFJI@CHECK?5failed?3?5?$CIindex?$CJ?5?$DO?$DN?5?$CI0?$CJ?3?5@ ; `string'
PUBLIC	??_C@_0CK@HHGADLGG@CHECK?5failed?3?5?$CIindex?$CJ?5?$DM?5?$CIcurren@ ; `string'
PUBLIC	??_C@_0BL@BOGECGBP@CHECK?5failed?3?5?$CIn?$CJ?5?$DO?$DN?5?$CI0?$CJ?3?5@ ; `string'
PUBLIC	??_C@_0CD@INNKJBDJ@CHECK?5failed?3?5?$CI?$CGother?$CJ?5?$CB?$DN?5?$CIthis@ ; `string'
PUBLIC	??_R0?AVDebugDraw@SC2APIProtocol@@@8		; SC2APIProtocol::DebugDraw `RTTI Type Descriptor'
PUBLIC	??_R0?AVDebugKillUnit@SC2APIProtocol@@@8	; SC2APIProtocol::DebugKillUnit `RTTI Type Descriptor'
PUBLIC	?destructor@?$ObjectDestructor@$0A@U?$Container@VUnknownFieldSet@protobuf@google@@@InternalMetadata@internal@protobuf@google@@@internal@protobuf@google@@2Q6AXPEAX@ZEA ; google::protobuf::internal::ObjectDestructor<0,google::protobuf::internal::InternalMetadata::Container<google::protobuf::UnknownFieldSet> >::destructor
PUBLIC	??_R0?AU?$Container@VUnknownFieldSet@protobuf@google@@@InternalMetadata@internal@protobuf@google@@@8 ; google::protobuf::internal::InternalMetadata::Container<google::protobuf::UnknownFieldSet> `RTTI Type Descriptor'
PUBLIC	??_R4exception@std@@6B@				; std::exception::`RTTI Complete Object Locator'
PUBLIC	??_R3exception@std@@8				; std::exception::`RTTI Class Hierarchy Descriptor'
PUBLIC	??_R2exception@std@@8				; std::exception::`RTTI Base Class Array'
PUBLIC	??_R1A@?0A@EA@exception@std@@8			; std::exception::`RTTI Base Class Descriptor at (0,-1,0,64)'
PUBLIC	??_R4bad_alloc@std@@6B@				; std::bad_alloc::`RTTI Complete Object Locator'
PUBLIC	??_R3bad_alloc@std@@8				; std::bad_alloc::`RTTI Class Hierarchy Descriptor'
PUBLIC	??_R2bad_alloc@std@@8				; std::bad_alloc::`RTTI Base Class Array'
PUBLIC	??_R1A@?0A@EA@bad_alloc@std@@8			; std::bad_alloc::`RTTI Base Class Descriptor at (0,-1,0,64)'
PUBLIC	??_R4bad_array_new_length@std@@6B@		; std::bad_array_new_length::`RTTI Complete Object Locator'
PUBLIC	??_R3bad_array_new_length@std@@8		; std::bad_array_new_length::`RTTI Class Hierarchy Descriptor'
PUBLIC	??_R2bad_array_new_length@std@@8		; std::bad_array_new_length::`RTTI Base Class Array'
PUBLIC	??_R1A@?0A@EA@bad_array_new_length@std@@8	; std::bad_array_new_length::`RTTI Base Class Descriptor at (0,-1,0,64)'
PUBLIC	??_R4Message@protobuf@google@@6B@		; google::protobuf::Message::`RTTI Complete Object Locator'
PUBLIC	??_R4MessageLite@protobuf@google@@6B@		; google::protobuf::MessageLite::`RTTI Complete Object Locator'
PUBLIC	??_R4DebugDraw@SC2APIProtocol@@6B@		; SC2APIProtocol::DebugDraw::`RTTI Complete Object Locator'
PUBLIC	??_R3DebugDraw@SC2APIProtocol@@8		; SC2APIProtocol::DebugDraw::`RTTI Class Hierarchy Descriptor'
PUBLIC	??_R2DebugDraw@SC2APIProtocol@@8		; SC2APIProtocol::DebugDraw::`RTTI Base Class Array'
PUBLIC	??_R1A@?0A@EA@DebugDraw@SC2APIProtocol@@8	; SC2APIProtocol::DebugDraw::`RTTI Base Class Descriptor at (0,-1,0,64)'
PUBLIC	??_R4DebugKillUnit@SC2APIProtocol@@6B@		; SC2APIProtocol::DebugKillUnit::`RTTI Complete Object Locator'
PUBLIC	??_R3DebugKillUnit@SC2APIProtocol@@8		; SC2APIProtocol::DebugKillUnit::`RTTI Class Hierarchy Descriptor'
PUBLIC	??_R2DebugKillUnit@SC2APIProtocol@@8		; SC2APIProtocol::DebugKillUnit::`RTTI Base Class Array'
PUBLIC	??_R1A@?0A@EA@DebugKillUnit@SC2APIProtocol@@8	; SC2APIProtocol::DebugKillUnit::`RTTI Base Class Descriptor at (0,-1,0,64)'
EXTRN	_purecall:PROC
EXTRN	??2@YAPEAX_K@Z:PROC				; operator new
EXTRN	??3@YAXPEAX@Z:PROC				; operator delete
EXTRN	??3@YAXPEAX_K@Z:PROC				; operator delete
EXTRN	atexit:PROC
EXTRN	_invalid_parameter:PROC
EXTRN	memcmp:PROC
EXTRN	memcpy:PROC
EXTRN	memset:PROC
EXTRN	_CrtDbgReport:PROC
EXTRN	??0_Lockit@std@@QEAA@H@Z:PROC			; std::_Lockit::_Lockit
EXTRN	??1_Lockit@std@@QEAA@XZ:PROC			; std::_Lockit::~_Lockit
EXTRN	__std_exception_copy:PROC
EXTRN	__std_exception_destroy:PROC
EXTRN	??_Eexception@std@@UEAAPEAXI@Z:PROC		; std::exception::`vector deleting destructor'
EXTRN	??_Ebad_alloc@std@@UEAAPEAXI@Z:PROC		; std::bad_alloc::`vector deleting destructor'
EXTRN	??_Ebad_array_new_length@std@@UEAAPEAXI@Z:PROC	; std::bad_array_new_length::`vector deleting destructor'
EXTRN	_wassert:PROC
EXTRN	?LogFatalSizeTooBig@StringPiece@stringpiece_internal@protobuf@google@@CAX_KPEBD@Z:PROC ; google::protobuf::stringpiece_internal::StringPiece::LogFatalSizeTooBig
EXTRN	??0LogMessage@internal@protobuf@google@@QEAA@W4LogLevel@23@PEBDH@Z:PROC ; google::protobuf::internal::LogMessage::LogMessage
EXTRN	??1LogMessage@internal@protobuf@google@@QEAA@XZ:PROC ; google::protobuf::internal::LogMessage::~LogMessage
EXTRN	??6LogMessage@internal@protobuf@google@@QEAAAEAV0123@PEBD@Z:PROC ; google::protobuf::internal::LogMessage::operator<<
EXTRN	??4LogFinisher@internal@protobuf@google@@QEAAXAEAVLogMessage@123@@Z:PROC ; google::protobuf::internal::LogFinisher::operator=
EXTRN	?EnsureSpaceFallback@EpsCopyOutputStream@io@protobuf@google@@AEAAPEAEPEAE@Z:PROC ; google::protobuf::io::EpsCopyOutputStream::EnsureSpaceFallback
EXTRN	?WriteStringMaybeAliasedOutline@EpsCopyOutputStream@io@protobuf@google@@AEAAPEAEIAEBV?$basic_string@DU?$char_traits@D@std@@V?$allocator@D@2@@std@@PEAE@Z:PROC ; google::protobuf::io::EpsCopyOutputStream::WriteStringMaybeAliasedOutline
