; Listing generated by Microsoft (R) Optimizing Compiler Version 19.34.31937.0 

include listing.inc

INCLUDELIB LIBCMTD
INCLUDELIB OLDNAMES

PUBLIC	?offsets@TableStruct_s2clientprotocol_2ferror_2eproto@@2QBIB ; TableStruct_s2clientprotocol_2ferror_2eproto::offsets
PUBLIC	?descriptor_table_s2clientprotocol_2ferror_2eproto@@3UDescriptorTable@internal@protobuf@google@@B ; descriptor_table_s2clientprotocol_2ferror_2eproto
_BSS	SEGMENT
?file_level_enum_descriptors_s2clientprotocol_2ferror_2eproto@@3PAPEBVEnumDescriptor@protobuf@google@@A DQ 01H DUP (?) ; file_level_enum_descriptors_s2clientprotocol_2ferror_2eproto
?descriptor_table_s2clientprotocol_2ferror_2eproto_once@@3Uonce_flag@std@@A DQ 01H DUP (?) ; descriptor_table_s2clientprotocol_2ferror_2eproto_once
_BSS	ENDS
_DATA	SEGMENT
?descriptor_table_s2clientprotocol_2ferror_2eproto@@3UDescriptorTable@internal@protobuf@google@@B DB 00H ; descriptor_table_s2clientprotocol_2ferror_2eproto
	DB	00H
	ORG $+2
	DD	016d9H
	DQ	FLAT:?descriptor_table_protodef_s2clientprotocol_2ferror_2eproto@@3QBDB
	DQ	FLAT:$SG123165
	DQ	FLAT:?descriptor_table_s2clientprotocol_2ferror_2eproto_once@@3Uonce_flag@std@@A
	DQ	0000000000000000H
	DD	00H
	DD	00H
	DQ	0000000000000000H
	DQ	0000000000000000H
	DQ	FLAT:?offsets@TableStruct_s2clientprotocol_2ferror_2eproto@@2QBIB
	DQ	0000000000000000H
	DQ	FLAT:?file_level_enum_descriptors_s2clientprotocol_2ferror_2eproto@@3PAPEBVEnumDescriptor@protobuf@google@@A
	DQ	0000000000000000H
_DATA	ENDS
CONST	SEGMENT
?descriptor_table_protodef_s2clientprotocol_2ferror_2eproto@@3QBDB DB 0aH
	DB	01cH, 's2clientprotocol/error.proto', 012H, 0eH, 'SC2APIProtoc'
	DB	'ol*', 0a8H, '-', 0aH, 0cH, 'ActionResult', 012H, 0bH, 0aH, 07H
	DB	'Success', 010H, 01H, 012H, 010H, 0aH, 0cH, 'NotSupported', 010H
	DB	02H, 012H, 09H, 0aH, 05H, 'Error', 010H, 03H, 012H, 016H, 0aH, 012H
	DB	'CantQueueThatOrder', 010H, 04H, 012H, 09H, 0aH, 05H, 'Retry', 010H
	DB	05H, 012H, 0cH, 0aH, 08H, 'Cooldown', 010H, 06H, 012H, 0fH, 0aH
	DB	0bH, 'QueueIsFull', 010H, 07H, 012H, 014H, 0aH, 010H, 'RallyQu'
	DB	'eueIsFull', 010H, 08H, 012H, 015H, 0aH, 011H, 'NotEnoughMiner'
	DB	'als', 010H, 09H, 012H, 014H, 0aH, 010H, 'NotEnoughVespene', 010H
	DB	0aH, 012H, 016H, 0aH, 012H, 'NotEnoughTerrazine', 010H, 0bH, 012H
	DB	013H, 0aH, 0fH, 'NotEnoughCustom', 010H, 0cH, 012H, 011H, 0aH, 0dH
	DB	'NotEnoughFood', 010H, 0dH, 012H, 017H, 0aH, 013H, 'FoodUsageI'
	DB	'mpossible', 010H, 0eH, 012H, 011H, 0aH, 0dH, 'NotEnoughLife', 010H
	DB	0fH, 012H, 014H, 0aH, 010H, 'NotEnoughShields', 010H, 010H, 012H
	DB	013H, 0aH, 0fH, 'NotEnoughEnergy', 010H, 011H, 012H, 012H, 0aH
	DB	0eH, 'LifeSuppressed', 010H, 012H, 012H, 015H, 0aH, 011H, 'Shi'
	DB	'eldsSuppressed', 010H, 013H, 012H, 014H, 0aH, 010H, 'EnergySu'
	DB	'ppressed', 010H, 014H, 012H, 014H, 0aH, 010H, 'NotEnoughCharg'
	DB	'es', 010H, 015H, 012H, 016H, 0aH, 012H, 'CantAddMoreCharges', 010H
	DB	016H, 012H, 013H, 0aH, 0fH, 'TooMuchMinerals', 010H, 017H, 012H
	DB	012H, 0aH, 0eH, 'TooMuchVespene', 010H, 018H, 012H, 014H, 0aH, 010H
	DB	'TooMuchTerrazine', 010H, 019H, 012H, 011H, 0aH, 0dH, 'TooMuch'
	DB	'Custom', 010H, 01aH, 012H, 0fH, 0aH, 0bH, 'TooMuchFood', 010H
	DB	01bH, 012H, 0fH, 0aH, 0bH, 'TooMuchLife', 010H, 01cH, 012H, 012H
	DB	0aH, 0eH, 'TooMuchShields', 010H, 01dH, 012H, 011H, 0aH, 0dH, 'T'
	DB	'ooMuchEnergy', 010H, 01eH, 012H, 01aH, 0aH, 016H, 'MustTarget'
	DB	'UnitWithLife', 010H, 01fH, 012H, 01dH, 0aH, 019H, 'MustTarget'
	DB	'UnitWithShields', 010H, ' ', 012H, 01cH, 0aH, 018H, 'MustTarg'
	DB	'etUnitWithEnergy', 010H, '!', 012H, 0dH, 0aH, 09H, 'CantTrade'
	DB	010H, '"', 012H, 0dH, 0aH, 09H, 'CantSpend', 010H, '#', 012H, 016H
	DB	0aH, 012H, 'CantTargetThatUnit', 010H, '$', 012H, 017H, 0aH, 013H
	DB	'CouldntAllocateUnit', 010H, '%', 012H, 010H, 0aH, 0cH, 'UnitC'
	DB	'antMove', 010H, '&', 012H, 01eH, 0aH, 01aH, 'TransportIsHoldi'
	DB	'ngPosition', 010H, '''', 012H, 01fH, 0aH, 01bH, 'BuildTechReq'
	DB	'uirementsNotMet', 010H, '(', 012H, 01dH, 0aH, 019H, 'CantFind'
	DB	'PlacementLocation', 010H, ')', 012H, 013H, 0aH, 0fH, 'CantBui'
	DB	'ldOnThat', 010H, '*', 012H, 01eH, 0aH, 01aH, 'CantBuildTooClo'
	DB	'seToDropOff', 010H, '+', 012H, 01cH, 0aH, 018H, 'CantBuildLoc'
	DB	'ationInvalid', 010H, ',', 012H, 018H, 0aH, 014H, 'CantSeeBuil'
	DB	'dLocation', 010H, '-', 012H, '"', 0aH, 01eH, 'CantBuildTooClo'
	DB	'seToCreepSource', 010H, '.', 012H, ' ', 0aH, 01cH, 'CantBuild'
	DB	'TooCloseToResources', 010H, '/', 012H, 01cH, 0aH, 018H, 'Cant'
	DB	'BuildTooFarFromWater', 010H, '0', 012H, '"', 0aH, 01eH, 'Cant'
	DB	'BuildTooFarFromCreepSource', 010H, '1', 012H, '''', 0aH, '#Ca'
	DB	'ntBuildTooFarFromBuildPowerSource', 010H, '2', 012H, 01bH, 0aH
	DB	017H, 'CantBuildOnDenseTerrain', 010H, '3', 012H, '''', 0aH, '#'
	DB	'CantTrainTooFarFromTrainPowerSource', 010H, '4', 012H, 01bH, 0aH
	DB	017H, 'CantLandLocationInvalid', 010H, '5', 012H, 017H, 0aH, 013H
	DB	'CantSeeLandLocation', 010H, '6', 012H, '!', 0aH, 01dH, 'CantL'
	DB	'andTooCloseToCreepSource', 010H, '7', 012H, 01fH, 0aH, 01bH, 'C'
	DB	'antLandTooCloseToResources', 010H, '8', 012H, 01bH, 0aH, 017H
	DB	'CantLandTooFarFromWater', 010H, '9', 012H, '!', 0aH, 01dH, 'C'
	DB	'antLandTooFarFromCreepSource', 010H, ':', 012H, '&', 0aH, '"C'
	DB	'antLandTooFarFromBuildPowerSource', 010H, ';', 012H, '&', 0aH
	DB	'"CantLandTooFarFromTrainPowerSource', 010H, '<', 012H, 01aH, 0aH
	DB	016H, 'CantLandOnDenseTerrain', 010H, '=', 012H, 01bH, 0aH, 017H
	DB	'AddOnTooFarFromBuilding', 010H, '>', 012H, 01aH, 0aH, 016H, 'M'
	DB	'ustBuildRefineryFirst', 010H, '?', 012H, 01fH, 0aH, 01bH, 'Bu'
	DB	'ildingIsUnderConstruction', 010H, '@', 012H, 013H, 0aH, 0fH, 'C'
	DB	'antFindDropOff', 010H, 'A', 012H, 01dH, 0aH, 019H, 'CantLoadO'
	DB	'therPlayersUnits', 010H, 'B', 012H, 01bH, 0aH, 017H, 'NotEnou'
	DB	'ghRoomToLoadUnit', 010H, 'C', 012H, 018H, 0aH, 014H, 'CantUnl'
	DB	'oadUnitsThere', 010H, 'D', 012H, 018H, 0aH, 014H, 'CantWarpIn'
	DB	'UnitsThere', 010H, 'E', 012H, 019H, 0aH, 015H, 'CantLoadImmob'
	DB	'ileUnits', 010H, 'F', 012H, 01dH, 0aH, 019H, 'CantRechargeImm'
	DB	'obileUnits', 010H, 'G', 012H, '&', 0aH, '"CantRechargeUnderCo'
	DB	'nstructionUnits', 010H, 'H', 012H, 014H, 0aH, 010H, 'CantLoad'
	DB	'ThatUnit', 010H, 'I', 012H, 013H, 0aH, 0fH, 'NoCargoToUnload', 010H
	DB	'J', 012H, 019H, 0aH, 015H, 'LoadAllNoTargetsFound', 010H, 'K', 012H
	DB	014H, 0aH, 010H, 'NotWhileOccupied', 010H, 'L', 012H, 019H, 0aH
	DB	015H, 'CantAttackWithoutAmmo', 010H, 'M', 012H, 017H, 0aH, 013H
	DB	'CantHoldAnyMoreAmmo', 010H, 'N', 012H, 01aH, 0aH, 016H, 'Tech'
	DB	'RequirementsNotMet', 010H, 'O', 012H, 019H, 0aH, 015H, 'MustL'
	DB	'ockdownUnitFirst', 010H, 'P', 012H, 012H, 0aH, 0eH, 'MustTarg'
	DB	'etUnit', 010H, 'Q', 012H, 017H, 0aH, 013H, 'MustTargetInvento'
	DB	'ry', 010H, 'R', 012H, 019H, 0aH, 015H, 'MustTargetVisibleUnit'
	DB	010H, 'S', 012H, 01dH, 0aH, 019H, 'MustTargetVisibleLocation', 010H
	DB	'T', 012H, 01eH, 0aH, 01aH, 'MustTargetWalkableLocation', 010H
	DB	'U', 012H, 01aH, 0aH, 016H, 'MustTargetPawnableUnit', 010H, 'V'
	DB	012H, 01aH, 0aH, 016H, 'YouCantControlThatUnit', 010H, 'W', 012H
	DB	'"', 0aH, 01eH, 'YouCantIssueCommandsToThatUnit', 010H, 'X', 012H
	DB	017H, 0aH, 013H, 'MustTargetResources', 010H, 'Y', 012H, 016H, 0aH
	DB	012H, 'RequiresHealTarget', 010H, 'Z', 012H, 018H, 0aH, 014H, 'R'
	DB	'equiresRepairTarget', 010H, '[', 012H, 011H, 0aH, 0dH, 'NoIte'
	DB	'msToDrop', 010H, '\', 012H, 018H, 0aH, 014H, 'CantHoldAnyMore'
	DB	'Items', 010H, ']', 012H, 010H, 0aH, 0cH, 'CantHoldThat', 010H
	DB	'^', 012H, 018H, 0aH, 014H, 'TargetHasNoInventory', 010H, '_', 012H
	DB	014H, 0aH, 010H, 'CantDropThisItem', 010H, '`', 012H, 014H, 0aH
	DB	010H, 'CantMoveThisItem', 010H, 'a', 012H, 014H, 0aH, 010H, 'C'
	DB	'antPawnThisUnit', 010H, 'b', 012H, 014H, 0aH, 010H, 'MustTarg'
	DB	'etCaster', 010H, 'c', 012H, 014H, 0aH, 010H, 'CantTargetCaste'
	DB	'r', 010H, 'd', 012H, 013H, 0aH, 0fH, 'MustTargetOuter', 010H, 'e'
	DB	012H, 013H, 0aH, 0fH, 'CantTargetOuter', 010H, 'f', 012H, 01aH
	DB	0aH, 016H, 'MustTargetYourOwnUnits', 010H, 'g', 012H, 01aH, 0aH
	DB	016H, 'CantTargetYourOwnUnits', 010H, 'h', 012H, 01bH, 0aH, 017H
	DB	'MustTargetFriendlyUnits', 010H, 'i', 012H, 01bH, 0aH, 017H, 'C'
	DB	'antTargetFriendlyUnits', 010H, 'j', 012H, 01aH, 0aH, 016H, 'M'
	DB	'ustTargetNeutralUnits', 010H, 'k', 012H, 01aH, 0aH, 016H, 'Ca'
	DB	'ntTargetNeutralUnits', 010H, 'l', 012H, 018H, 0aH, 014H, 'Mus'
	DB	'tTargetEnemyUnits', 010H, 'm', 012H, 018H, 0aH, 014H, 'CantTa'
	DB	'rgetEnemyUnits', 010H, 'n', 012H, 016H, 0aH, 012H, 'MustTarge'
	DB	'tAirUnits', 010H, 'o', 012H, 016H, 0aH, 012H, 'CantTargetAirU'
	DB	'nits', 010H, 'p', 012H, 019H, 0aH, 015H, 'MustTargetGroundUni'
	DB	'ts', 010H, 'q', 012H, 019H, 0aH, 015H, 'CantTargetGroundUnits'
	DB	010H, 'r', 012H, 018H, 0aH, 014H, 'MustTargetStructures', 010H
	DB	's', 012H, 018H, 0aH, 014H, 'CantTargetStructures', 010H, 't', 012H
	DB	018H, 0aH, 014H, 'MustTargetLightUnits', 010H, 'u', 012H, 018H
	DB	0aH, 014H, 'CantTargetLightUnits', 010H, 'v', 012H, 01aH, 0aH, 016H
	DB	'MustTargetArmoredUnits', 010H, 'w', 012H, 01aH, 0aH, 016H, 'C'
	DB	'antTargetArmoredUnits', 010H, 'x', 012H, 01dH, 0aH, 019H, 'Mu'
	DB	'stTargetBiologicalUnits', 010H, 'y', 012H, 01dH, 0aH, 019H, 'C'
	DB	'antTargetBiologicalUnits', 010H, 'z', 012H, 019H, 0aH, 015H, 'M'
	DB	'ustTargetHeroicUnits', 010H, '{', 012H, 019H, 0aH, 015H, 'Can'
	DB	'tTargetHeroicUnits', 010H, '|', 012H, 01aH, 0aH, 016H, 'MustT'
	DB	'argetRoboticUnits', 010H, '}', 012H, 01aH, 0aH, 016H, 'CantTa'
	DB	'rgetRoboticUnits', 010H, '~', 012H, 01dH, 0aH, 019H, 'MustTar'
	DB	'getMechanicalUnits', 010H, 07fH, 012H, 01eH, 0aH, 019H, 'Cant'
	DB	'TargetMechanicalUnits', 010H, 080H, 01H, 012H, 01bH, 0aH, 016H
	DB	'MustTargetPsionicUnits', 010H, 081H, 01H, 012H, 01bH, 0aH, 016H
	DB	'CantTargetPsionicUnits', 010H, 082H, 01H, 012H, 01bH, 0aH, 016H
	DB	'MustTargetMassiveUnits', 010H, 083H, 01H, 012H, 01bH, 0aH, 016H
	DB	'CantTargetMassiveUnits', 010H, 084H, 01H, 012H, 016H, 0aH, 011H
	DB	'MustTargetMissile', 010H, 085H, 01H, 012H, 016H, 0aH, 011H, 'C'
	DB	'antTargetMissile', 010H, 086H, 01H, 012H, 01aH, 0aH, 015H, 'M'
	DB	'ustTargetWorkerUnits', 010H, 087H, 01H, 012H, 01aH, 0aH, 015H
	DB	'CantTargetWorkerUnits', 010H, 088H, 01H, 012H, '!', 0aH, 01cH
	DB	'MustTargetEnergyCapableUnits', 010H, 089H, 01H, 012H, '!', 0aH
	DB	01cH, 'CantTargetEnergyCapableUnits', 010H, 08aH, 01H, 012H, '!'
	DB	0aH, 01cH, 'MustTargetShieldCapableUnits', 010H, 08bH, 01H, 012H
	DB	'!', 0aH, 01cH, 'CantTargetShieldCapableUnits', 010H, 08cH, 01H
	DB	012H, 015H, 0aH, 010H, 'MustTargetFlyers', 010H, 08dH, 01H, 012H
	DB	015H, 0aH, 010H, 'CantTargetFlyers', 010H, 08eH, 01H, 012H, 01aH
	DB	0aH, 015H, 'MustTargetBuriedUnits', 010H, 08fH, 01H, 012H, 01aH
	DB	0aH, 015H, 'CantTargetBuriedUnits', 010H, 090H, 01H, 012H, 01bH
	DB	0aH, 016H, 'MustTargetCloakedUnits', 010H, 091H, 01H, 012H, 01bH
	DB	0aH, 016H, 'CantTargetCloakedUnits', 010H, 092H, 01H, 012H, '"'
	DB	0aH, 01dH, 'MustTargetUnitsInAStasisField', 010H, 093H, 01H, 012H
	DB	'"', 0aH, 01dH, 'CantTargetUnitsInAStasisField', 010H, 094H, 01H
	DB	012H, '%', 0aH, ' MustTargetUnderConstructionUnits', 010H, 095H
	DB	01H, 012H, '%', 0aH, ' CantTargetUnderConstructionUnits', 010H
	DB	096H, 01H, 012H, 018H, 0aH, 013H, 'MustTargetDeadUnits', 010H, 097H
	DB	01H, 012H, 018H, 0aH, 013H, 'CantTargetDeadUnits', 010H, 098H, 01H
	DB	012H, 01dH, 0aH, 018H, 'MustTargetRevivableUnits', 010H, 099H, 01H
	DB	012H, 01dH, 0aH, 018H, 'CantTargetRevivableUnits', 010H, 09aH, 01H
	DB	012H, 01aH, 0aH, 015H, 'MustTargetHiddenUnits', 010H, 09bH, 01H
	DB	012H, 01aH, 0aH, 015H, 'CantTargetHiddenUnits', 010H, 09cH, 01H
	DB	012H, '"', 0aH, 01dH, 'CantRechargeOtherPlayersUnits', 010H, 09dH
	DB	01H, 012H, 01dH, 0aH, 018H, 'MustTargetHallucinations', 010H, 09eH
	DB	01H, 012H, 01dH, 0aH, 018H, 'CantTargetHallucinations', 010H, 09fH
	DB	01H, 012H, ' ', 0aH, 01bH, 'MustTargetInvulnerableUnits', 010H
	DB	0a0H, 01H, 012H, ' ', 0aH, 01bH, 'CantTargetInvulnerableUnits', 010H
	DB	0a1H, 01H, 012H, 01cH, 0aH, 017H, 'MustTargetDetectedUnits', 010H
	DB	0a2H, 01H, 012H, 01cH, 0aH, 017H, 'CantTargetDetectedUnits', 010H
	DB	0a3H, 01H, 012H, 01dH, 0aH, 018H, 'CantTargetUnitWithEnergy', 010H
	DB	0a4H, 01H, 012H, 01eH, 0aH, 019H, 'CantTargetUnitWithShields', 010H
	DB	0a5H, 01H, 012H, '!', 0aH, 01cH, 'MustTargetUncommandableUnits'
	DB	010H, 0a6H, 01H, 012H, '!', 0aH, 01cH, 'CantTargetUncommandabl'
	DB	'eUnits', 010H, 0a7H, 01H, 012H, '!', 0aH, 01cH, 'MustTargetPr'
	DB	'eventDefeatUnits', 010H, 0a8H, 01H, 012H, '!', 0aH, 01cH, 'Ca'
	DB	'ntTargetPreventDefeatUnits', 010H, 0a9H, 01H, 012H, '!', 0aH, 01cH
	DB	'MustTargetPreventRevealUnits', 010H, 0aaH, 01H, 012H, '!', 0aH
	DB	01cH, 'CantTargetPreventRevealUnits', 010H, 0abH, 01H, 012H, 01bH
	DB	0aH, 016H, 'MustTargetPassiveUnits', 010H, 0acH, 01H, 012H, 01bH
	DB	0aH, 016H, 'CantTargetPassiveUnits', 010H, 0adH, 01H, 012H, 01bH
	DB	0aH, 016H, 'MustTargetStunnedUnits', 010H, 0aeH, 01H, 012H, 01bH
	DB	0aH, 016H, 'CantTargetStunnedUnits', 010H, 0afH, 01H, 012H, 01cH
	DB	0aH, 017H, 'MustTargetSummonedUnits', 010H, 0b0H, 01H, 012H, 01cH
	DB	0aH, 017H, 'CantTargetSummonedUnits', 010H, 0b1H, 01H, 012H, 014H
	DB	0aH, 0fH, 'MustTargetUser1', 010H, 0b2H, 01H, 012H, 014H, 0aH, 0fH
	DB	'CantTargetUser1', 010H, 0b3H, 01H, 012H, 01fH, 0aH, 01aH, 'Mu'
	DB	'stTargetUnstoppableUnits', 010H, 0b4H, 01H, 012H, 01fH, 0aH, 01aH
	DB	'CantTargetUnstoppableUnits', 010H, 0b5H, 01H, 012H, 01dH, 0aH
	DB	018H, 'MustTargetResistantUnits', 010H, 0b6H, 01H, 012H, 01dH, 0aH
	DB	018H, 'CantTargetResistantUnits', 010H, 0b7H, 01H, 012H, 019H, 0aH
	DB	014H, 'MustTargetDazedUnits', 010H, 0b8H, 01H, 012H, 019H, 0aH
	DB	014H, 'CantTargetDazedUnits', 010H, 0b9H, 01H, 012H, 011H, 0aH
	DB	0cH, 'CantLockdown', 010H, 0baH, 01H, 012H, 014H, 0aH, 0fH, 'C'
	DB	'antMindControl', 010H, 0bbH, 01H, 012H, 01cH, 0aH, 017H, 'Mus'
	DB	'tTargetDestructibles', 010H, 0bcH, 01H, 012H, 01cH, 0aH, 017H
	DB	'CantTargetDestructibles', 010H, 0bdH, 01H, 012H, 014H, 0aH, 0fH
	DB	'MustTargetItems', 010H, 0beH, 01H, 012H, 014H, 0aH, 0fH, 'Can'
	DB	'tTargetItems', 010H, 0bfH, 01H, 012H, 018H, 0aH, 013H, 'NoCal'
	DB	'ldownAvailable', 010H, 0c0H, 01H, 012H, 015H, 0aH, 010H, 'Way'
	DB	'pointListFull', 010H, 0c1H, 01H, 012H, 013H, 0aH, 0eH, 'MustT'
	DB	'argetRace', 010H, 0c2H, 01H, 012H, 013H, 0aH, 0eH, 'CantTarge'
	DB	'tRace', 010H, 0c3H, 01H, 012H, 01bH, 0aH, 016H, 'MustTargetSi'
	DB	'milarUnits', 010H, 0c4H, 01H, 012H, 01bH, 0aH, 016H, 'CantTar'
	DB	'getSimilarUnits', 010H, 0c5H, 01H, 012H, 01aH, 0aH, 015H, 'Ca'
	DB	'ntFindEnoughTargets', 010H, 0c6H, 01H, 012H, 019H, 0aH, 014H, 'A'
	DB	'lreadySpawningLarva', 010H, 0c7H, 01H, 012H, '!', 0aH, 01cH, 'C'
	DB	'antTargetExhaustedResources', 010H, 0c8H, 01H, 012H, 013H, 0aH
	DB	0eH, 'CantUseMinimap', 010H, 0c9H, 01H, 012H, 015H, 0aH, 010H, 'C'
	DB	'antUseInfoPanel', 010H, 0caH, 01H, 012H, 015H, 0aH, 010H, 'Or'
	DB	'derQueueIsFull', 010H, 0cbH, 01H, 012H, 01cH, 0aH, 017H, 'Can'
	DB	'tHarvestThatResource', 010H, 0ccH, 01H, 012H, 01aH, 0aH, 015H
	DB	'HarvestersNotRequired', 010H, 0cdH, 01H, 012H, 014H, 0aH, 0fH
	DB	'AlreadyTargeted', 010H, 0ceH, 01H, 012H, 01eH, 0aH, 019H, 'Ca'
	DB	'ntAttackWeaponsDisabled', 010H, 0cfH, 01H, 012H, 017H, 0aH, 012H
	DB	'CouldntReachTarget', 010H, 0d0H, 01H, 012H, 017H, 0aH, 012H, 'T'
	DB	'argetIsOutOfRange', 010H, 0d1H, 01H, 012H, 015H, 0aH, 010H, 'T'
	DB	'argetIsTooClose', 010H, 0d2H, 01H, 012H, 015H, 0aH, 010H, 'Ta'
	DB	'rgetIsOutOfArc', 010H, 0d3H, 01H, 012H, 01dH, 0aH, 018H, 'Can'
	DB	'tFindTeleportLocation', 010H, 0d4H, 01H, 012H, 015H, 0aH, 010H
	DB	'InvalidItemClass', 010H, 0d5H, 01H, 012H, 018H, 0aH, 013H, 'C'
	DB	'antFindCancelOrder', 010H, 0d6H, 01H, 00H	; descriptor_table_protodef_s2clientprotocol_2ferror_2eproto
	ORG $+6
$SG123165 DB	's2clientprotocol/error.proto', 00H
	ORG $+3
?offsets@TableStruct_s2clientprotocol_2ferror_2eproto@@2QBIB	ORG $+4 ; TableStruct_s2clientprotocol_2ferror_2eproto::offsets
$SG134493 DB	'%s', 00H
	ORG $+1
$SG134492 DB	'invalid argument', 00H
	ORG $+7
$SG134494 DB	'D:\Program Files\Microsoft Visual Studio\2022\Community\'
	DB	'VC\Tools\MSVC\14.34.31933\include\xmemory', 00H
	ORG $+2
$SG134496 DB	00H, 00H
	ORG $+2
$SG134497 DB	'"', 00H, 'i', 00H, 'n', 00H, 'v', 00H, 'a', 00H, 'l', 00H
	DB	'i', 00H, 'd', 00H, ' ', 00H, 'a', 00H, 'r', 00H, 'g', 00H, 'u'
	DB	00H, 'm', 00H, 'e', 00H, 'n', 00H, 't', 00H, '"', 00H, 00H, 00H
	ORG $+2
$SG134495 DB	'D', 00H, ':', 00H, '\', 00H, 'P', 00H, 'r', 00H, 'o', 00H
	DB	'g', 00H, 'r', 00H, 'a', 00H, 'm', 00H, ' ', 00H, 'F', 00H, 'i'
	DB	00H, 'l', 00H, 'e', 00H, 's', 00H, '\', 00H, 'M', 00H, 'i', 00H
	DB	'c', 00H, 'r', 00H, 'o', 00H, 's', 00H, 'o', 00H, 'f', 00H, 't'
	DB	00H, ' ', 00H, 'V', 00H, 'i', 00H, 's', 00H, 'u', 00H, 'a', 00H
	DB	'l', 00H, ' ', 00H, 'S', 00H, 't', 00H, 'u', 00H, 'd', 00H, 'i'
	DB	00H, 'o', 00H, '\', 00H, '2', 00H, '0', 00H, '2', 00H, '2', 00H
	DB	'\', 00H, 'C', 00H, 'o', 00H, 'm', 00H, 'm', 00H, 'u', 00H, 'n'
	DB	00H, 'i', 00H, 't', 00H, 'y', 00H, '\', 00H, 'V', 00H, 'C', 00H
	DB	'\', 00H, 'T', 00H, 'o', 00H, 'o', 00H, 'l', 00H, 's', 00H, '\'
	DB	00H, 'M', 00H, 'S', 00H, 'V', 00H, 'C', 00H, '\', 00H, '1', 00H
	DB	'4', 00H, '.', 00H, '3', 00H, '4', 00H, '.', 00H, '3', 00H, '1'
	DB	00H, '9', 00H, '3', 00H, '3', 00H, '\', 00H, 'i', 00H, 'n', 00H
	DB	'c', 00H, 'l', 00H, 'u', 00H, 'd', 00H, 'e', 00H, '\', 00H, 'x'
	DB	00H, 'm', 00H, 'e', 00H, 'm', 00H, 'o', 00H, 'r', 00H, 'y', 00H
	DB	00H, 00H
	ORG $+12
$SG129641 DB	'W:\cpp\void\alistar\tests\vendor\protobuf\src\google/pro'
	DB	'tobuf/wire_format_lite.h', 00H
	ORG $+15
$SG129642 DB	'CHECK failed: (UInt32Size(tag)) == (static_cast<size_t>('
	DB	'tag_size)): ', 00H
	ORG $+11
$SG129665 DB	'W:\cpp\void\alistar\tests\vendor\protobuf\src\google/pro'
	DB	'tobuf/wire_format_lite.h', 00H
	ORG $+15
$SG129666 DB	'CHECK failed: (UInt32Size(tag)) == (static_cast<size_t>('
	DB	'tag_size)): ', 00H
	ORG $+11
$SG129689 DB	'W:\cpp\void\alistar\tests\vendor\protobuf\src\google/pro'
	DB	'tobuf/wire_format_lite.h', 00H
	ORG $+15
$SG129690 DB	'CHECK failed: (UInt32Size(tag)) == (static_cast<size_t>('
	DB	'tag_size)): ', 00H
	ORG $+11
$SG129713 DB	'W:\cpp\void\alistar\tests\vendor\protobuf\src\google/pro'
	DB	'tobuf/wire_format_lite.h', 00H
	ORG $+15
$SG129714 DB	'CHECK failed: (UInt32Size(tag)) == (static_cast<size_t>('
	DB	'tag_size)): ', 00H
	ORG $+11
$SG129737 DB	'W:\cpp\void\alistar\tests\vendor\protobuf\src\google/pro'
	DB	'tobuf/wire_format_lite.h', 00H
	ORG $+15
$SG129738 DB	'CHECK failed: (UInt32Size(tag)) == (static_cast<size_t>('
	DB	'tag_size)): ', 00H
	ORG $+11
$SG129761 DB	'W:\cpp\void\alistar\tests\vendor\protobuf\src\google/pro'
	DB	'tobuf/wire_format_lite.h', 00H
	ORG $+15
$SG129762 DB	'CHECK failed: (UInt32Size(tag)) == (static_cast<size_t>('
	DB	'tag_size)): ', 00H
	ORG $+11
$SG129950 DB	'W:\cpp\void\alistar\tests\vendor\protobuf\src\google/pro'
	DB	'tobuf/wire_format_lite.h', 00H
	ORG $+7
$SG129951 DB	'CHECK failed: (n) > (0): ', 00H
	ORG $+14
$SG129962 DB	'W:\cpp\void\alistar\tests\vendor\protobuf\src\google/pro'
	DB	'tobuf/wire_format_lite.h', 00H
	ORG $+7
$SG129963 DB	'CHECK failed: (n) > (0): ', 00H
	ORG $+14
$SG129974 DB	'W:\cpp\void\alistar\tests\vendor\protobuf\src\google/pro'
	DB	'tobuf/wire_format_lite.h', 00H
	ORG $+7
$SG129975 DB	'CHECK failed: (n) > (0): ', 00H
	ORG $+14
$SG129986 DB	'W:\cpp\void\alistar\tests\vendor\protobuf\src\google/pro'
	DB	'tobuf/wire_format_lite.h', 00H
	ORG $+7
$SG129987 DB	'CHECK failed: (n) > (0): ', 00H
	ORG $+14
$SG129998 DB	'W:\cpp\void\alistar\tests\vendor\protobuf\src\google/pro'
	DB	'tobuf/wire_format_lite.h', 00H
	ORG $+7
$SG129999 DB	'CHECK failed: (n) > (0): ', 00H
	ORG $+14
$SG130010 DB	'W:\cpp\void\alistar\tests\vendor\protobuf\src\google/pro'
	DB	'tobuf/wire_format_lite.h', 00H
	ORG $+7
$SG130011 DB	'CHECK failed: (n) > (0): ', 00H
	ORG $+14
$SG130022 DB	'W:\cpp\void\alistar\tests\vendor\protobuf\src\google/pro'
	DB	'tobuf/wire_format_lite.h', 00H
	ORG $+7
$SG130023 DB	'CHECK failed: (n) > (0): ', 00H
	ORG $+14
$SG130034 DB	'W:\cpp\void\alistar\tests\vendor\protobuf\src\google/pro'
	DB	'tobuf/wire_format_lite.h', 00H
	ORG $+7
$SG130035 DB	'CHECK failed: (n) > (0): ', 00H
	ORG $+14
$SG130046 DB	'W:\cpp\void\alistar\tests\vendor\protobuf\src\google/pro'
	DB	'tobuf/wire_format_lite.h', 00H
	ORG $+7
$SG130047 DB	'CHECK failed: (n) > (0): ', 00H
	ORG $+14
$SG130058 DB	'W:\cpp\void\alistar\tests\vendor\protobuf\src\google/pro'
	DB	'tobuf/wire_format_lite.h', 00H
	ORG $+7
$SG130059 DB	'CHECK failed: (n) > (0): ', 00H
	ORG $+14
$SG130070 DB	'W:\cpp\void\alistar\tests\vendor\protobuf\src\google/pro'
	DB	'tobuf/wire_format_lite.h', 00H
	ORG $+7
$SG130071 DB	'CHECK failed: (n) > (0): ', 00H
CONST	ENDS
PUBLIC	?__empty_global_delete@@YAXPEAX@Z		; __empty_global_delete
PUBLIC	?__empty_global_delete@@YAXPEAX_K@Z		; __empty_global_delete
PUBLIC	?__empty_global_delete@@YAXPEAXW4align_val_t@std@@@Z ; __empty_global_delete
PUBLIC	?__empty_global_delete@@YAXPEAX_KW4align_val_t@std@@@Z ; __empty_global_delete
PUBLIC	?ActionResult_IsValid@SC2APIProtocol@@YA_NH@Z	; SC2APIProtocol::ActionResult_IsValid
PUBLIC	?ActionResult_descriptor@SC2APIProtocol@@YAPEBVEnumDescriptor@protobuf@google@@XZ ; SC2APIProtocol::ActionResult_descriptor
PUBLIC	?descriptor_table_s2clientprotocol_2ferror_2eproto_getter@@YAPEBUDescriptorTable@internal@protobuf@google@@XZ ; descriptor_table_s2clientprotocol_2ferror_2eproto_getter
EXTRN	?AssignDescriptors@internal@protobuf@google@@YAXPEBUDescriptorTable@123@_N@Z:PROC ; google::protobuf::internal::AssignDescriptors
EXTRN	??0AddDescriptorsRunner@internal@protobuf@google@@QEAA@PEBUDescriptorTable@123@@Z:PROC ; google::protobuf::internal::AddDescriptorsRunner::AddDescriptorsRunner
EXTRN	__ImageBase:BYTE
_BSS	SEGMENT
?dynamic_init_dummy_s2clientprotocol_2ferror_2eproto@@3UAddDescriptorsRunner@internal@protobuf@google@@A DB 01H DUP (?) ; dynamic_init_dummy_s2clientprotocol_2ferror_2eproto
_BSS	ENDS
pdata	SEGMENT
$pdata$?ActionResult_IsValid@SC2APIProtocol@@YA_NH@Z DD imagerel $LN221
	DD	imagerel $LN221+924
	DD	imagerel $unwind$?ActionResult_IsValid@SC2APIProtocol@@YA_NH@Z
$pdata$?ActionResult_descriptor@SC2APIProtocol@@YAPEBVEnumDescriptor@protobuf@google@@XZ DD imagerel $LN3
	DD	imagerel $LN3+43
	DD	imagerel $unwind$?ActionResult_descriptor@SC2APIProtocol@@YAPEBVEnumDescriptor@protobuf@google@@XZ
pdata	ENDS
;	COMDAT pdata
pdata	SEGMENT
$pdata$??__Edynamic_init_dummy_s2clientprotocol_2ferror_2eproto@@YAXXZ DD imagerel ??__Edynamic_init_dummy_s2clientprotocol_2ferror_2eproto@@YAXXZ
	DD	imagerel ??__Edynamic_init_dummy_s2clientprotocol_2ferror_2eproto@@YAXXZ+28
	DD	imagerel $unwind$??__Edynamic_init_dummy_s2clientprotocol_2ferror_2eproto@@YAXXZ
pdata	ENDS
CRT$XCL	SEGMENT
?dynamic_init_dummy_s2clientprotocol_2ferror_2eproto$initializer$@@3P6AXXZEA DQ FLAT:??__Edynamic_init_dummy_s2clientprotocol_2ferror_2eproto@@YAXXZ ; dynamic_init_dummy_s2clientprotocol_2ferror_2eproto$initializer$
CRT$XCL	ENDS
;	COMDAT xdata
xdata	SEGMENT
$unwind$??__Edynamic_init_dummy_s2clientprotocol_2ferror_2eproto@@YAXXZ DD 010401H
	DD	04204H
xdata	ENDS
xdata	SEGMENT
$unwind$?ActionResult_IsValid@SC2APIProtocol@@YA_NH@Z DD 010801H
	DD	02208H
$unwind$?ActionResult_descriptor@SC2APIProtocol@@YAPEBVEnumDescriptor@protobuf@google@@XZ DD 010401H
	DD	04204H
xdata	ENDS
; Function compile flags: /Odtp
;	COMDAT ??__Edynamic_init_dummy_s2clientprotocol_2ferror_2eproto@@YAXXZ
text$di	SEGMENT
??__Edynamic_init_dummy_s2clientprotocol_2ferror_2eproto@@YAXXZ PROC ; `dynamic initializer for 'dynamic_init_dummy_s2clientprotocol_2ferror_2eproto'', COMDAT
; File W:\cpp\void\alistar\tests\vendor\s2clientprotocol\include\s2clientprotocol\error.pb.cc
; Line 194
	sub	rsp, 40					; 00000028H
	lea	rdx, OFFSET FLAT:?descriptor_table_s2clientprotocol_2ferror_2eproto@@3UDescriptorTable@internal@protobuf@google@@B ; descriptor_table_s2clientprotocol_2ferror_2eproto
	lea	rcx, OFFSET FLAT:?dynamic_init_dummy_s2clientprotocol_2ferror_2eproto@@3UAddDescriptorsRunner@internal@protobuf@google@@A
	call	??0AddDescriptorsRunner@internal@protobuf@google@@QEAA@PEBUDescriptorTable@123@@Z ; google::protobuf::internal::AddDescriptorsRunner::AddDescriptorsRunner
	add	rsp, 40					; 00000028H
	ret	0
??__Edynamic_init_dummy_s2clientprotocol_2ferror_2eproto@@YAXXZ ENDP ; `dynamic initializer for 'dynamic_init_dummy_s2clientprotocol_2ferror_2eproto''
text$di	ENDS
; Function compile flags: /Odtp
_TEXT	SEGMENT
?descriptor_table_s2clientprotocol_2ferror_2eproto_getter@@YAPEBUDescriptorTable@internal@protobuf@google@@XZ PROC ; descriptor_table_s2clientprotocol_2ferror_2eproto_getter
; File W:\cpp\void\alistar\tests\vendor\s2clientprotocol\include\s2clientprotocol\error.pb.cc
; Line 190
	lea	rax, OFFSET FLAT:?descriptor_table_s2clientprotocol_2ferror_2eproto@@3UDescriptorTable@internal@protobuf@google@@B ; descriptor_table_s2clientprotocol_2ferror_2eproto
; Line 191
	ret	0
?descriptor_table_s2clientprotocol_2ferror_2eproto_getter@@YAPEBUDescriptorTable@internal@protobuf@google@@XZ ENDP ; descriptor_table_s2clientprotocol_2ferror_2eproto_getter
_TEXT	ENDS
; Function compile flags: /Odtp
_TEXT	SEGMENT
?ActionResult_descriptor@SC2APIProtocol@@YAPEBVEnumDescriptor@protobuf@google@@XZ PROC ; SC2APIProtocol::ActionResult_descriptor
; File W:\cpp\void\alistar\tests\vendor\s2clientprotocol\include\s2clientprotocol\error.pb.cc
; Line 196
$LN3:
	sub	rsp, 40					; 00000028H
; Line 197
	xor	edx, edx
	lea	rcx, OFFSET FLAT:?descriptor_table_s2clientprotocol_2ferror_2eproto@@3UDescriptorTable@internal@protobuf@google@@B ; descriptor_table_s2clientprotocol_2ferror_2eproto
	call	?AssignDescriptors@internal@protobuf@google@@YAXPEBUDescriptorTable@123@_N@Z ; google::protobuf::internal::AssignDescriptors
; Line 198
	mov	eax, 8
	imul	rax, rax, 0
	lea	rcx, OFFSET FLAT:?file_level_enum_descriptors_s2clientprotocol_2ferror_2eproto@@3PAPEBVEnumDescriptor@protobuf@google@@A
	mov	rax, QWORD PTR [rcx+rax]
; Line 199
	add	rsp, 40					; 00000028H
	ret	0
?ActionResult_descriptor@SC2APIProtocol@@YAPEBVEnumDescriptor@protobuf@google@@XZ ENDP ; SC2APIProtocol::ActionResult_descriptor
_TEXT	ENDS
; Function compile flags: /Odtp
_TEXT	SEGMENT
tv64 = 0
value$ = 32
?ActionResult_IsValid@SC2APIProtocol@@YA_NH@Z PROC	; SC2APIProtocol::ActionResult_IsValid
; File W:\cpp\void\alistar\tests\vendor\s2clientprotocol\include\s2clientprotocol\error.pb.cc
; Line 200
$LN221:
	mov	DWORD PTR [rsp+8], ecx
	sub	rsp, 24
; Line 201
	mov	eax, DWORD PTR value$[rsp]
	mov	DWORD PTR tv64[rsp], eax
	mov	eax, DWORD PTR tv64[rsp]
	dec	eax
	mov	DWORD PTR tv64[rsp], eax
	cmp	DWORD PTR tv64[rsp], 213		; 000000d5H
	ja	SHORT $LN218@ActionResu
	movsxd	rax, DWORD PTR tv64[rsp]
	lea	rcx, OFFSET FLAT:__ImageBase
	mov	eax, DWORD PTR $LN220@ActionResu[rcx+rax*4]
	add	rax, rcx
	jmp	rax
$LN4@ActionResu:
$LN5@ActionResu:
$LN6@ActionResu:
$LN7@ActionResu:
$LN8@ActionResu:
$LN9@ActionResu:
$LN10@ActionResu:
$LN11@ActionResu:
$LN12@ActionResu:
$LN13@ActionResu:
$LN14@ActionResu:
$LN15@ActionResu:
$LN16@ActionResu:
$LN17@ActionResu:
$LN18@ActionResu:
$LN19@ActionResu:
$LN20@ActionResu:
$LN21@ActionResu:
$LN22@ActionResu:
$LN23@ActionResu:
$LN24@ActionResu:
$LN25@ActionResu:
$LN26@ActionResu:
$LN27@ActionResu:
$LN28@ActionResu:
$LN29@ActionResu:
$LN30@ActionResu:
$LN31@ActionResu:
$LN32@ActionResu:
$LN33@ActionResu:
$LN34@ActionResu:
$LN35@ActionResu:
$LN36@ActionResu:
$LN37@ActionResu:
$LN38@ActionResu:
$LN39@ActionResu:
$LN40@ActionResu:
$LN41@ActionResu:
$LN42@ActionResu:
$LN43@ActionResu:
$LN44@ActionResu:
$LN45@ActionResu:
$LN46@ActionResu:
$LN47@ActionResu:
$LN48@ActionResu:
$LN49@ActionResu:
$LN50@ActionResu:
$LN51@ActionResu:
$LN52@ActionResu:
$LN53@ActionResu:
$LN54@ActionResu:
$LN55@ActionResu:
$LN56@ActionResu:
$LN57@ActionResu:
$LN58@ActionResu:
$LN59@ActionResu:
$LN60@ActionResu:
$LN61@ActionResu:
$LN62@ActionResu:
$LN63@ActionResu:
$LN64@ActionResu:
$LN65@ActionResu:
$LN66@ActionResu:
$LN67@ActionResu:
$LN68@ActionResu:
$LN69@ActionResu:
$LN70@ActionResu:
$LN71@ActionResu:
$LN72@ActionResu:
$LN73@ActionResu:
$LN74@ActionResu:
$LN75@ActionResu:
$LN76@ActionResu:
$LN77@ActionResu:
$LN78@ActionResu:
$LN79@ActionResu:
$LN80@ActionResu:
$LN81@ActionResu:
$LN82@ActionResu:
$LN83@ActionResu:
$LN84@ActionResu:
$LN85@ActionResu:
$LN86@ActionResu:
$LN87@ActionResu:
$LN88@ActionResu:
$LN89@ActionResu:
$LN90@ActionResu:
$LN91@ActionResu:
$LN92@ActionResu:
$LN93@ActionResu:
$LN94@ActionResu:
$LN95@ActionResu:
$LN96@ActionResu:
$LN97@ActionResu:
$LN98@ActionResu:
$LN99@ActionResu:
$LN100@ActionResu:
$LN101@ActionResu:
$LN102@ActionResu:
$LN103@ActionResu:
$LN104@ActionResu:
$LN105@ActionResu:
$LN106@ActionResu:
$LN107@ActionResu:
$LN108@ActionResu:
$LN109@ActionResu:
$LN110@ActionResu:
$LN111@ActionResu:
$LN112@ActionResu:
$LN113@ActionResu:
$LN114@ActionResu:
$LN115@ActionResu:
$LN116@ActionResu:
$LN117@ActionResu:
$LN118@ActionResu:
$LN119@ActionResu:
$LN120@ActionResu:
$LN121@ActionResu:
$LN122@ActionResu:
$LN123@ActionResu:
$LN124@ActionResu:
$LN125@ActionResu:
$LN126@ActionResu:
$LN127@ActionResu:
$LN128@ActionResu:
$LN129@ActionResu:
$LN130@ActionResu:
$LN131@ActionResu:
$LN132@ActionResu:
$LN133@ActionResu:
$LN134@ActionResu:
$LN135@ActionResu:
$LN136@ActionResu:
$LN137@ActionResu:
$LN138@ActionResu:
$LN139@ActionResu:
$LN140@ActionResu:
$LN141@ActionResu:
$LN142@ActionResu:
$LN143@ActionResu:
$LN144@ActionResu:
$LN145@ActionResu:
$LN146@ActionResu:
$LN147@ActionResu:
$LN148@ActionResu:
$LN149@ActionResu:
$LN150@ActionResu:
$LN151@ActionResu:
$LN152@ActionResu:
$LN153@ActionResu:
$LN154@ActionResu:
$LN155@ActionResu:
$LN156@ActionResu:
$LN157@ActionResu:
$LN158@ActionResu:
$LN159@ActionResu:
$LN160@ActionResu:
$LN161@ActionResu:
$LN162@ActionResu:
$LN163@ActionResu:
$LN164@ActionResu:
$LN165@ActionResu:
$LN166@ActionResu:
$LN167@ActionResu:
$LN168@ActionResu:
$LN169@ActionResu:
$LN170@ActionResu:
$LN171@ActionResu:
$LN172@ActionResu:
$LN173@ActionResu:
$LN174@ActionResu:
$LN175@ActionResu:
$LN176@ActionResu:
$LN177@ActionResu:
$LN178@ActionResu:
$LN179@ActionResu:
$LN180@ActionResu:
$LN181@ActionResu:
$LN182@ActionResu:
$LN183@ActionResu:
$LN184@ActionResu:
$LN185@ActionResu:
$LN186@ActionResu:
$LN187@ActionResu:
$LN188@ActionResu:
$LN189@ActionResu:
$LN190@ActionResu:
$LN191@ActionResu:
$LN192@ActionResu:
$LN193@ActionResu:
$LN194@ActionResu:
$LN195@ActionResu:
$LN196@ActionResu:
$LN197@ActionResu:
$LN198@ActionResu:
$LN199@ActionResu:
$LN200@ActionResu:
$LN201@ActionResu:
$LN202@ActionResu:
$LN203@ActionResu:
$LN204@ActionResu:
$LN205@ActionResu:
$LN206@ActionResu:
$LN207@ActionResu:
$LN208@ActionResu:
$LN209@ActionResu:
$LN210@ActionResu:
$LN211@ActionResu:
$LN212@ActionResu:
$LN213@ActionResu:
$LN214@ActionResu:
$LN215@ActionResu:
$LN216@ActionResu:
$LN217@ActionResu:
; Line 416
	mov	al, 1
	jmp	SHORT $LN1@ActionResu
$LN218@ActionResu:
; Line 418
	xor	al, al
$LN1@ActionResu:
; Line 420
	add	rsp, 24
	ret	0
	npad	2
$LN220@ActionResu:
	DD	$LN4@ActionResu
	DD	$LN5@ActionResu
	DD	$LN6@ActionResu
	DD	$LN7@ActionResu
	DD	$LN8@ActionResu
	DD	$LN9@ActionResu
	DD	$LN10@ActionResu
	DD	$LN11@ActionResu
	DD	$LN12@ActionResu
	DD	$LN13@ActionResu
	DD	$LN14@ActionResu
	DD	$LN15@ActionResu
	DD	$LN16@ActionResu
	DD	$LN17@ActionResu
	DD	$LN18@ActionResu
	DD	$LN19@ActionResu
	DD	$LN20@ActionResu
	DD	$LN21@ActionResu
	DD	$LN22@ActionResu
	DD	$LN23@ActionResu
	DD	$LN24@ActionResu
	DD	$LN25@ActionResu
	DD	$LN26@ActionResu
	DD	$LN27@ActionResu
	DD	$LN28@ActionResu
	DD	$LN29@ActionResu
	DD	$LN30@ActionResu
	DD	$LN31@ActionResu
	DD	$LN32@ActionResu
	DD	$LN33@ActionResu
	DD	$LN34@ActionResu
	DD	$LN35@ActionResu
	DD	$LN36@ActionResu
	DD	$LN37@ActionResu
	DD	$LN38@ActionResu
	DD	$LN39@ActionResu
	DD	$LN40@ActionResu
	DD	$LN41@ActionResu
	DD	$LN42@ActionResu
	DD	$LN43@ActionResu
	DD	$LN44@ActionResu
	DD	$LN45@ActionResu
	DD	$LN46@ActionResu
	DD	$LN47@ActionResu
	DD	$LN48@ActionResu
	DD	$LN49@ActionResu
	DD	$LN50@ActionResu
	DD	$LN51@ActionResu
	DD	$LN52@ActionResu
	DD	$LN53@ActionResu
	DD	$LN54@ActionResu
	DD	$LN55@ActionResu
	DD	$LN56@ActionResu
	DD	$LN57@ActionResu
	DD	$LN58@ActionResu
	DD	$LN59@ActionResu
	DD	$LN60@ActionResu
	DD	$LN61@ActionResu
	DD	$LN62@ActionResu
	DD	$LN63@ActionResu
	DD	$LN64@ActionResu
	DD	$LN65@ActionResu
	DD	$LN66@ActionResu
	DD	$LN67@ActionResu
	DD	$LN68@ActionResu
	DD	$LN69@ActionResu
	DD	$LN70@ActionResu
	DD	$LN71@ActionResu
	DD	$LN72@ActionResu
	DD	$LN73@ActionResu
	DD	$LN74@ActionResu
	DD	$LN75@ActionResu
	DD	$LN76@ActionResu
	DD	$LN77@ActionResu
	DD	$LN78@ActionResu
	DD	$LN79@ActionResu
	DD	$LN80@ActionResu
	DD	$LN81@ActionResu
	DD	$LN82@ActionResu
	DD	$LN83@ActionResu
	DD	$LN84@ActionResu
	DD	$LN85@ActionResu
	DD	$LN86@ActionResu
	DD	$LN87@ActionResu
	DD	$LN88@ActionResu
	DD	$LN89@ActionResu
	DD	$LN90@ActionResu
	DD	$LN91@ActionResu
	DD	$LN92@ActionResu
	DD	$LN93@ActionResu
	DD	$LN94@ActionResu
	DD	$LN95@ActionResu
	DD	$LN96@ActionResu
	DD	$LN97@ActionResu
	DD	$LN98@ActionResu
	DD	$LN99@ActionResu
	DD	$LN100@ActionResu
	DD	$LN101@ActionResu
	DD	$LN102@ActionResu
	DD	$LN103@ActionResu
	DD	$LN104@ActionResu
	DD	$LN105@ActionResu
	DD	$LN106@ActionResu
	DD	$LN107@ActionResu
	DD	$LN108@ActionResu
	DD	$LN109@ActionResu
	DD	$LN110@ActionResu
	DD	$LN111@ActionResu
	DD	$LN112@ActionResu
	DD	$LN113@ActionResu
	DD	$LN114@ActionResu
	DD	$LN115@ActionResu
	DD	$LN116@ActionResu
	DD	$LN117@ActionResu
	DD	$LN118@ActionResu
	DD	$LN119@ActionResu
	DD	$LN120@ActionResu
	DD	$LN121@ActionResu
	DD	$LN122@ActionResu
	DD	$LN123@ActionResu
	DD	$LN124@ActionResu
	DD	$LN125@ActionResu
	DD	$LN126@ActionResu
	DD	$LN127@ActionResu
	DD	$LN128@ActionResu
	DD	$LN129@ActionResu
	DD	$LN130@ActionResu
	DD	$LN131@ActionResu
	DD	$LN132@ActionResu
	DD	$LN133@ActionResu
	DD	$LN134@ActionResu
	DD	$LN135@ActionResu
	DD	$LN136@ActionResu
	DD	$LN137@ActionResu
	DD	$LN138@ActionResu
	DD	$LN139@ActionResu
	DD	$LN140@ActionResu
	DD	$LN141@ActionResu
	DD	$LN142@ActionResu
	DD	$LN143@ActionResu
	DD	$LN144@ActionResu
	DD	$LN145@ActionResu
	DD	$LN146@ActionResu
	DD	$LN147@ActionResu
	DD	$LN148@ActionResu
	DD	$LN149@ActionResu
	DD	$LN150@ActionResu
	DD	$LN151@ActionResu
	DD	$LN152@ActionResu
	DD	$LN153@ActionResu
	DD	$LN154@ActionResu
	DD	$LN155@ActionResu
	DD	$LN156@ActionResu
	DD	$LN157@ActionResu
	DD	$LN158@ActionResu
	DD	$LN159@ActionResu
	DD	$LN160@ActionResu
	DD	$LN161@ActionResu
	DD	$LN162@ActionResu
	DD	$LN163@ActionResu
	DD	$LN164@ActionResu
	DD	$LN165@ActionResu
	DD	$LN166@ActionResu
	DD	$LN167@ActionResu
	DD	$LN168@ActionResu
	DD	$LN169@ActionResu
	DD	$LN170@ActionResu
	DD	$LN171@ActionResu
	DD	$LN172@ActionResu
	DD	$LN173@ActionResu
	DD	$LN174@ActionResu
	DD	$LN175@ActionResu
	DD	$LN176@ActionResu
	DD	$LN177@ActionResu
	DD	$LN178@ActionResu
	DD	$LN179@ActionResu
	DD	$LN180@ActionResu
	DD	$LN181@ActionResu
	DD	$LN182@ActionResu
	DD	$LN183@ActionResu
	DD	$LN184@ActionResu
	DD	$LN185@ActionResu
	DD	$LN186@ActionResu
	DD	$LN187@ActionResu
	DD	$LN188@ActionResu
	DD	$LN189@ActionResu
	DD	$LN190@ActionResu
	DD	$LN191@ActionResu
	DD	$LN192@ActionResu
	DD	$LN193@ActionResu
	DD	$LN194@ActionResu
	DD	$LN195@ActionResu
	DD	$LN196@ActionResu
	DD	$LN197@ActionResu
	DD	$LN198@ActionResu
	DD	$LN199@ActionResu
	DD	$LN200@ActionResu
	DD	$LN201@ActionResu
	DD	$LN202@ActionResu
	DD	$LN203@ActionResu
	DD	$LN204@ActionResu
	DD	$LN205@ActionResu
	DD	$LN206@ActionResu
	DD	$LN207@ActionResu
	DD	$LN208@ActionResu
	DD	$LN209@ActionResu
	DD	$LN210@ActionResu
	DD	$LN211@ActionResu
	DD	$LN212@ActionResu
	DD	$LN213@ActionResu
	DD	$LN214@ActionResu
	DD	$LN215@ActionResu
	DD	$LN216@ActionResu
	DD	$LN217@ActionResu
?ActionResult_IsValid@SC2APIProtocol@@YA_NH@Z ENDP	; SC2APIProtocol::ActionResult_IsValid
_TEXT	ENDS
; Function compile flags: /Odtp
;	COMDAT ?__empty_global_delete@@YAXPEAX_KW4align_val_t@std@@@Z
_TEXT	SEGMENT
__formal$ = 8
__formal$ = 16
__formal$ = 24
?__empty_global_delete@@YAXPEAX_KW4align_val_t@std@@@Z PROC ; __empty_global_delete, COMDAT
; File W:\cpp\void\alistar\tests\vendor\s2clientprotocol\include\s2clientprotocol\error.pb.cc
; Line 430
	mov	QWORD PTR [rsp+24], r8
	mov	QWORD PTR [rsp+16], rdx
	mov	QWORD PTR [rsp+8], rcx
	ret	0
?__empty_global_delete@@YAXPEAX_KW4align_val_t@std@@@Z ENDP ; __empty_global_delete
_TEXT	ENDS
; Function compile flags: /Odtp
;	COMDAT ?__empty_global_delete@@YAXPEAXW4align_val_t@std@@@Z
_TEXT	SEGMENT
__formal$ = 8
__formal$ = 16
?__empty_global_delete@@YAXPEAXW4align_val_t@std@@@Z PROC ; __empty_global_delete, COMDAT
; File W:\cpp\void\alistar\tests\vendor\s2clientprotocol\include\s2clientprotocol\error.pb.cc
; Line 430
	mov	QWORD PTR [rsp+16], rdx
	mov	QWORD PTR [rsp+8], rcx
	ret	0
?__empty_global_delete@@YAXPEAXW4align_val_t@std@@@Z ENDP ; __empty_global_delete
_TEXT	ENDS
; Function compile flags: /Odtp
;	COMDAT ?__empty_global_delete@@YAXPEAX_K@Z
_TEXT	SEGMENT
__formal$ = 8
__formal$ = 16
?__empty_global_delete@@YAXPEAX_K@Z PROC		; __empty_global_delete, COMDAT
; File W:\cpp\void\alistar\tests\vendor\s2clientprotocol\include\s2clientprotocol\error.pb.cc
; Line 430
	mov	QWORD PTR [rsp+16], rdx
	mov	QWORD PTR [rsp+8], rcx
	ret	0
?__empty_global_delete@@YAXPEAX_K@Z ENDP		; __empty_global_delete
_TEXT	ENDS
; Function compile flags: /Odtp
;	COMDAT ?__empty_global_delete@@YAXPEAX@Z
_TEXT	SEGMENT
__formal$ = 8
?__empty_global_delete@@YAXPEAX@Z PROC			; __empty_global_delete, COMDAT
; File W:\cpp\void\alistar\tests\vendor\s2clientprotocol\include\s2clientprotocol\error.pb.cc
; Line 430
	mov	QWORD PTR [rsp+8], rcx
	ret	0
?__empty_global_delete@@YAXPEAX@Z ENDP			; __empty_global_delete
_TEXT	ENDS
END
