; Listing generated by Microsoft (R) Optimizing Compiler Version 19.34.31937.0 

include listing.inc

INCLUDELIB LIBCMTD
INCLUDELIB OLDNAMES

PUBLIC	?offsets@TableStruct_s2clientprotocol_2fraw_2eproto@@2QBIB ; TableStruct_s2clientprotocol_2fraw_2eproto::offsets
PUBLIC	?descriptor_table_s2clientprotocol_2fraw_2eproto@@3UDescriptorTable@internal@protobuf@google@@B ; descriptor_table_s2clientprotocol_2fraw_2eproto
PUBLIC	?MergeImpl@StartRaw@SC2APIProtocol@@CAXAEAVMessage@protobuf@google@@AEBV345@@Z ; SC2APIProtocol::StartRaw::MergeImpl
PUBLIC	?_class_data_@StartRaw@SC2APIProtocol@@2UClassData@Message@protobuf@google@@B ; SC2APIProtocol::StartRaw::_class_data_
PUBLIC	??_R0?AVMessage@protobuf@google@@@8		; google::protobuf::Message `RTTI Type Descriptor'
PUBLIC	??_R3Message@protobuf@google@@8			; google::protobuf::Message::`RTTI Class Hierarchy Descriptor'
PUBLIC	??_R2Message@protobuf@google@@8			; google::protobuf::Message::`RTTI Base Class Array'
PUBLIC	??_R1A@?0A@EA@Message@protobuf@google@@8	; google::protobuf::Message::`RTTI Base Class Descriptor at (0,-1,0,64)'
PUBLIC	??_R1A@?0A@EA@MessageLite@protobuf@google@@8	; google::protobuf::MessageLite::`RTTI Base Class Descriptor at (0,-1,0,64)'
PUBLIC	??_R0?AVMessageLite@protobuf@google@@@8		; google::protobuf::MessageLite `RTTI Type Descriptor'
PUBLIC	??_R3MessageLite@protobuf@google@@8		; google::protobuf::MessageLite::`RTTI Class Hierarchy Descriptor'
PUBLIC	??_R2MessageLite@protobuf@google@@8		; google::protobuf::MessageLite::`RTTI Base Class Array'
PUBLIC	??_R4ActionRaw@SC2APIProtocol@@6B@		; SC2APIProtocol::ActionRaw::`RTTI Complete Object Locator'
PUBLIC	??_R3ActionRaw@SC2APIProtocol@@8		; SC2APIProtocol::ActionRaw::`RTTI Class Hierarchy Descriptor'
PUBLIC	??_R2ActionRaw@SC2APIProtocol@@8		; SC2APIProtocol::ActionRaw::`RTTI Base Class Array'
PUBLIC	??_R1A@?0A@EA@ActionRaw@SC2APIProtocol@@8	; SC2APIProtocol::ActionRaw::`RTTI Base Class Descriptor at (0,-1,0,64)'
PUBLIC	??_R4ActionRawCameraMove@SC2APIProtocol@@6B@	; SC2APIProtocol::ActionRawCameraMove::`RTTI Complete Object Locator'
PUBLIC	??_R3ActionRawCameraMove@SC2APIProtocol@@8	; SC2APIProtocol::ActionRawCameraMove::`RTTI Class Hierarchy Descriptor'
PUBLIC	??_R2ActionRawCameraMove@SC2APIProtocol@@8	; SC2APIProtocol::ActionRawCameraMove::`RTTI Base Class Array'
PUBLIC	??_R1A@?0A@EA@ActionRawCameraMove@SC2APIProtocol@@8 ; SC2APIProtocol::ActionRawCameraMove::`RTTI Base Class Descriptor at (0,-1,0,64)'
PUBLIC	??_R4MapState@SC2APIProtocol@@6B@		; SC2APIProtocol::MapState::`RTTI Complete Object Locator'
PUBLIC	??_R3MapState@SC2APIProtocol@@8			; SC2APIProtocol::MapState::`RTTI Class Hierarchy Descriptor'
PUBLIC	??_R2MapState@SC2APIProtocol@@8			; SC2APIProtocol::MapState::`RTTI Base Class Array'
PUBLIC	??_R1A@?0A@EA@MapState@SC2APIProtocol@@8	; SC2APIProtocol::MapState::`RTTI Base Class Descriptor at (0,-1,0,64)'
PUBLIC	??_R4PassengerUnit@SC2APIProtocol@@6B@		; SC2APIProtocol::PassengerUnit::`RTTI Complete Object Locator'
PUBLIC	??_R3PassengerUnit@SC2APIProtocol@@8		; SC2APIProtocol::PassengerUnit::`RTTI Class Hierarchy Descriptor'
PUBLIC	??_R2PassengerUnit@SC2APIProtocol@@8		; SC2APIProtocol::PassengerUnit::`RTTI Base Class Array'
PUBLIC	??_R1A@?0A@EA@PassengerUnit@SC2APIProtocol@@8	; SC2APIProtocol::PassengerUnit::`RTTI Base Class Descriptor at (0,-1,0,64)'
PUBLIC	??_R4PowerSource@SC2APIProtocol@@6B@		; SC2APIProtocol::PowerSource::`RTTI Complete Object Locator'
PUBLIC	??_R3PowerSource@SC2APIProtocol@@8		; SC2APIProtocol::PowerSource::`RTTI Class Hierarchy Descriptor'
PUBLIC	??_R2PowerSource@SC2APIProtocol@@8		; SC2APIProtocol::PowerSource::`RTTI Base Class Array'
PUBLIC	??_R1A@?0A@EA@PowerSource@SC2APIProtocol@@8	; SC2APIProtocol::PowerSource::`RTTI Base Class Descriptor at (0,-1,0,64)'
PUBLIC	??_R4RadarRing@SC2APIProtocol@@6B@		; SC2APIProtocol::RadarRing::`RTTI Complete Object Locator'
PUBLIC	??_R3RadarRing@SC2APIProtocol@@8		; SC2APIProtocol::RadarRing::`RTTI Class Hierarchy Descriptor'
PUBLIC	??_R2RadarRing@SC2APIProtocol@@8		; SC2APIProtocol::RadarRing::`RTTI Base Class Array'
PUBLIC	??_R1A@?0A@EA@RadarRing@SC2APIProtocol@@8	; SC2APIProtocol::RadarRing::`RTTI Base Class Descriptor at (0,-1,0,64)'
PUBLIC	??_R4RallyTarget@SC2APIProtocol@@6B@		; SC2APIProtocol::RallyTarget::`RTTI Complete Object Locator'
PUBLIC	??_R3RallyTarget@SC2APIProtocol@@8		; SC2APIProtocol::RallyTarget::`RTTI Class Hierarchy Descriptor'
PUBLIC	??_R2RallyTarget@SC2APIProtocol@@8		; SC2APIProtocol::RallyTarget::`RTTI Base Class Array'
PUBLIC	??_R1A@?0A@EA@RallyTarget@SC2APIProtocol@@8	; SC2APIProtocol::RallyTarget::`RTTI Base Class Descriptor at (0,-1,0,64)'
PUBLIC	?MergeImpl@ObservationRaw@SC2APIProtocol@@CAXAEAVMessage@protobuf@google@@AEBV345@@Z ; SC2APIProtocol::ObservationRaw::MergeImpl
PUBLIC	??_R4UnitOrder@SC2APIProtocol@@6B@		; SC2APIProtocol::UnitOrder::`RTTI Complete Object Locator'
PUBLIC	??_R3UnitOrder@SC2APIProtocol@@8		; SC2APIProtocol::UnitOrder::`RTTI Class Hierarchy Descriptor'
PUBLIC	??_R2UnitOrder@SC2APIProtocol@@8		; SC2APIProtocol::UnitOrder::`RTTI Base Class Array'
PUBLIC	??_R1A@?0A@EA@UnitOrder@SC2APIProtocol@@8	; SC2APIProtocol::UnitOrder::`RTTI Base Class Descriptor at (0,-1,0,64)'
PUBLIC	?_class_data_@ObservationRaw@SC2APIProtocol@@2UClassData@Message@protobuf@google@@B ; SC2APIProtocol::ObservationRaw::_class_data_
PUBLIC	?New@RadarRing@SC2APIProtocol@@UEBAPEAV12@PEAVArena@protobuf@google@@@Z ; SC2APIProtocol::RadarRing::New
PUBLIC	?MergeImpl@RadarRing@SC2APIProtocol@@CAXAEAVMessage@protobuf@google@@AEBV345@@Z ; SC2APIProtocol::RadarRing::MergeImpl
PUBLIC	?Clear@RadarRing@SC2APIProtocol@@UEAAXXZ	; SC2APIProtocol::RadarRing::Clear
PUBLIC	?IsInitialized@RadarRing@SC2APIProtocol@@UEBA_NXZ ; SC2APIProtocol::RadarRing::IsInitialized
PUBLIC	?ByteSizeLong@RadarRing@SC2APIProtocol@@UEBA_KXZ ; SC2APIProtocol::RadarRing::ByteSizeLong
PUBLIC	?_InternalParse@RadarRing@SC2APIProtocol@@UEAAPEBDPEBDPEAVParseContext@internal@protobuf@google@@@Z ; SC2APIProtocol::RadarRing::_InternalParse
PUBLIC	?_InternalSerialize@RadarRing@SC2APIProtocol@@UEBAPEAEPEAEPEAVEpsCopyOutputStream@io@protobuf@google@@@Z ; SC2APIProtocol::RadarRing::_InternalSerialize
PUBLIC	?GetCachedSize@RadarRing@SC2APIProtocol@@UEBAHXZ ; SC2APIProtocol::RadarRing::GetCachedSize
PUBLIC	?SetCachedSize@RadarRing@SC2APIProtocol@@EEBAXH@Z ; SC2APIProtocol::RadarRing::SetCachedSize
PUBLIC	?_class_data_@RadarRing@SC2APIProtocol@@2UClassData@Message@protobuf@google@@B ; SC2APIProtocol::RadarRing::_class_data_
PUBLIC	?GetClassData@RadarRing@SC2APIProtocol@@UEBAPEBUClassData@Message@protobuf@google@@XZ ; SC2APIProtocol::RadarRing::GetClassData
PUBLIC	?GetMetadata@RadarRing@SC2APIProtocol@@UEBA?AUMetadata@protobuf@google@@XZ ; SC2APIProtocol::RadarRing::GetMetadata
PUBLIC	??_7RadarRing@SC2APIProtocol@@6B@		; SC2APIProtocol::RadarRing::`vftable'
PUBLIC	??_GRadarRing@SC2APIProtocol@@UEAAPEAXI@Z	; SC2APIProtocol::RadarRing::`scalar deleting destructor'
PUBLIC	?New@PowerSource@SC2APIProtocol@@UEBAPEAV12@PEAVArena@protobuf@google@@@Z ; SC2APIProtocol::PowerSource::New
PUBLIC	?MergeImpl@PowerSource@SC2APIProtocol@@CAXAEAVMessage@protobuf@google@@AEBV345@@Z ; SC2APIProtocol::PowerSource::MergeImpl
PUBLIC	?Clear@PowerSource@SC2APIProtocol@@UEAAXXZ	; SC2APIProtocol::PowerSource::Clear
PUBLIC	?IsInitialized@PowerSource@SC2APIProtocol@@UEBA_NXZ ; SC2APIProtocol::PowerSource::IsInitialized
PUBLIC	?ByteSizeLong@PowerSource@SC2APIProtocol@@UEBA_KXZ ; SC2APIProtocol::PowerSource::ByteSizeLong
PUBLIC	?_InternalParse@PowerSource@SC2APIProtocol@@UEAAPEBDPEBDPEAVParseContext@internal@protobuf@google@@@Z ; SC2APIProtocol::PowerSource::_InternalParse
PUBLIC	?_InternalSerialize@PowerSource@SC2APIProtocol@@UEBAPEAEPEAEPEAVEpsCopyOutputStream@io@protobuf@google@@@Z ; SC2APIProtocol::PowerSource::_InternalSerialize
PUBLIC	?GetCachedSize@PowerSource@SC2APIProtocol@@UEBAHXZ ; SC2APIProtocol::PowerSource::GetCachedSize
PUBLIC	?SetCachedSize@PowerSource@SC2APIProtocol@@EEBAXH@Z ; SC2APIProtocol::PowerSource::SetCachedSize
PUBLIC	?_class_data_@PowerSource@SC2APIProtocol@@2UClassData@Message@protobuf@google@@B ; SC2APIProtocol::PowerSource::_class_data_
PUBLIC	?GetClassData@PowerSource@SC2APIProtocol@@UEBAPEBUClassData@Message@protobuf@google@@XZ ; SC2APIProtocol::PowerSource::GetClassData
PUBLIC	?GetMetadata@PowerSource@SC2APIProtocol@@UEBA?AUMetadata@protobuf@google@@XZ ; SC2APIProtocol::PowerSource::GetMetadata
PUBLIC	??_7PowerSource@SC2APIProtocol@@6B@		; SC2APIProtocol::PowerSource::`vftable'
PUBLIC	??_GPowerSource@SC2APIProtocol@@UEAAPEAXI@Z	; SC2APIProtocol::PowerSource::`scalar deleting destructor'
PUBLIC	?MergeImpl@PlayerRaw@SC2APIProtocol@@CAXAEAVMessage@protobuf@google@@AEBV345@@Z ; SC2APIProtocol::PlayerRaw::MergeImpl
PUBLIC	?_class_data_@PlayerRaw@SC2APIProtocol@@2UClassData@Message@protobuf@google@@B ; SC2APIProtocol::PlayerRaw::_class_data_
PUBLIC	?New@UnitOrder@SC2APIProtocol@@UEBAPEAV12@PEAVArena@protobuf@google@@@Z ; SC2APIProtocol::UnitOrder::New
PUBLIC	?MergeImpl@UnitOrder@SC2APIProtocol@@CAXAEAVMessage@protobuf@google@@AEBV345@@Z ; SC2APIProtocol::UnitOrder::MergeImpl
PUBLIC	?Clear@UnitOrder@SC2APIProtocol@@UEAAXXZ	; SC2APIProtocol::UnitOrder::Clear
PUBLIC	?IsInitialized@UnitOrder@SC2APIProtocol@@UEBA_NXZ ; SC2APIProtocol::UnitOrder::IsInitialized
PUBLIC	?ByteSizeLong@UnitOrder@SC2APIProtocol@@UEBA_KXZ ; SC2APIProtocol::UnitOrder::ByteSizeLong
PUBLIC	?_InternalParse@UnitOrder@SC2APIProtocol@@UEAAPEBDPEBDPEAVParseContext@internal@protobuf@google@@@Z ; SC2APIProtocol::UnitOrder::_InternalParse
PUBLIC	?_InternalSerialize@UnitOrder@SC2APIProtocol@@UEBAPEAEPEAEPEAVEpsCopyOutputStream@io@protobuf@google@@@Z ; SC2APIProtocol::UnitOrder::_InternalSerialize
PUBLIC	?GetCachedSize@UnitOrder@SC2APIProtocol@@UEBAHXZ ; SC2APIProtocol::UnitOrder::GetCachedSize
PUBLIC	?SetCachedSize@UnitOrder@SC2APIProtocol@@EEBAXH@Z ; SC2APIProtocol::UnitOrder::SetCachedSize
PUBLIC	?_class_data_@UnitOrder@SC2APIProtocol@@2UClassData@Message@protobuf@google@@B ; SC2APIProtocol::UnitOrder::_class_data_
PUBLIC	?GetClassData@UnitOrder@SC2APIProtocol@@UEBAPEBUClassData@Message@protobuf@google@@XZ ; SC2APIProtocol::UnitOrder::GetClassData
PUBLIC	?GetMetadata@UnitOrder@SC2APIProtocol@@UEBA?AUMetadata@protobuf@google@@XZ ; SC2APIProtocol::UnitOrder::GetMetadata
PUBLIC	??_7UnitOrder@SC2APIProtocol@@6B@		; SC2APIProtocol::UnitOrder::`vftable'
PUBLIC	??_GUnitOrder@SC2APIProtocol@@UEAAPEAXI@Z	; SC2APIProtocol::UnitOrder::`scalar deleting destructor'
PUBLIC	?New@PassengerUnit@SC2APIProtocol@@UEBAPEAV12@PEAVArena@protobuf@google@@@Z ; SC2APIProtocol::PassengerUnit::New
PUBLIC	?MergeImpl@PassengerUnit@SC2APIProtocol@@CAXAEAVMessage@protobuf@google@@AEBV345@@Z ; SC2APIProtocol::PassengerUnit::MergeImpl
PUBLIC	?Clear@PassengerUnit@SC2APIProtocol@@UEAAXXZ	; SC2APIProtocol::PassengerUnit::Clear
PUBLIC	?IsInitialized@PassengerUnit@SC2APIProtocol@@UEBA_NXZ ; SC2APIProtocol::PassengerUnit::IsInitialized
PUBLIC	?ByteSizeLong@PassengerUnit@SC2APIProtocol@@UEBA_KXZ ; SC2APIProtocol::PassengerUnit::ByteSizeLong
PUBLIC	?_InternalParse@PassengerUnit@SC2APIProtocol@@UEAAPEBDPEBDPEAVParseContext@internal@protobuf@google@@@Z ; SC2APIProtocol::PassengerUnit::_InternalParse
PUBLIC	?_InternalSerialize@PassengerUnit@SC2APIProtocol@@UEBAPEAEPEAEPEAVEpsCopyOutputStream@io@protobuf@google@@@Z ; SC2APIProtocol::PassengerUnit::_InternalSerialize
PUBLIC	?GetCachedSize@PassengerUnit@SC2APIProtocol@@UEBAHXZ ; SC2APIProtocol::PassengerUnit::GetCachedSize
PUBLIC	?SetCachedSize@PassengerUnit@SC2APIProtocol@@EEBAXH@Z ; SC2APIProtocol::PassengerUnit::SetCachedSize
PUBLIC	?_class_data_@PassengerUnit@SC2APIProtocol@@2UClassData@Message@protobuf@google@@B ; SC2APIProtocol::PassengerUnit::_class_data_
PUBLIC	?GetClassData@PassengerUnit@SC2APIProtocol@@UEBAPEBUClassData@Message@protobuf@google@@XZ ; SC2APIProtocol::PassengerUnit::GetClassData
PUBLIC	?GetMetadata@PassengerUnit@SC2APIProtocol@@UEBA?AUMetadata@protobuf@google@@XZ ; SC2APIProtocol::PassengerUnit::GetMetadata
PUBLIC	??_7PassengerUnit@SC2APIProtocol@@6B@		; SC2APIProtocol::PassengerUnit::`vftable'
PUBLIC	??_GPassengerUnit@SC2APIProtocol@@UEAAPEAXI@Z	; SC2APIProtocol::PassengerUnit::`scalar deleting destructor'
PUBLIC	?New@RallyTarget@SC2APIProtocol@@UEBAPEAV12@PEAVArena@protobuf@google@@@Z ; SC2APIProtocol::RallyTarget::New
PUBLIC	?MergeImpl@RallyTarget@SC2APIProtocol@@CAXAEAVMessage@protobuf@google@@AEBV345@@Z ; SC2APIProtocol::RallyTarget::MergeImpl
PUBLIC	?Clear@RallyTarget@SC2APIProtocol@@UEAAXXZ	; SC2APIProtocol::RallyTarget::Clear
PUBLIC	?IsInitialized@RallyTarget@SC2APIProtocol@@UEBA_NXZ ; SC2APIProtocol::RallyTarget::IsInitialized
PUBLIC	?ByteSizeLong@RallyTarget@SC2APIProtocol@@UEBA_KXZ ; SC2APIProtocol::RallyTarget::ByteSizeLong
PUBLIC	?_InternalParse@RallyTarget@SC2APIProtocol@@UEAAPEBDPEBDPEAVParseContext@internal@protobuf@google@@@Z ; SC2APIProtocol::RallyTarget::_InternalParse
PUBLIC	?_InternalSerialize@RallyTarget@SC2APIProtocol@@UEBAPEAEPEAEPEAVEpsCopyOutputStream@io@protobuf@google@@@Z ; SC2APIProtocol::RallyTarget::_InternalSerialize
PUBLIC	?GetCachedSize@RallyTarget@SC2APIProtocol@@UEBAHXZ ; SC2APIProtocol::RallyTarget::GetCachedSize
PUBLIC	?SetCachedSize@RallyTarget@SC2APIProtocol@@EEBAXH@Z ; SC2APIProtocol::RallyTarget::SetCachedSize
PUBLIC	?_class_data_@RallyTarget@SC2APIProtocol@@2UClassData@Message@protobuf@google@@B ; SC2APIProtocol::RallyTarget::_class_data_
PUBLIC	?GetClassData@RallyTarget@SC2APIProtocol@@UEBAPEBUClassData@Message@protobuf@google@@XZ ; SC2APIProtocol::RallyTarget::GetClassData
PUBLIC	?GetMetadata@RallyTarget@SC2APIProtocol@@UEBA?AUMetadata@protobuf@google@@XZ ; SC2APIProtocol::RallyTarget::GetMetadata
PUBLIC	??_7RallyTarget@SC2APIProtocol@@6B@		; SC2APIProtocol::RallyTarget::`vftable'
PUBLIC	??_GRallyTarget@SC2APIProtocol@@UEAAPEAXI@Z	; SC2APIProtocol::RallyTarget::`scalar deleting destructor'
PUBLIC	?MergeImpl@Unit@SC2APIProtocol@@CAXAEAVMessage@protobuf@google@@AEBV345@@Z ; SC2APIProtocol::Unit::MergeImpl
PUBLIC	?_class_data_@Unit@SC2APIProtocol@@2UClassData@Message@protobuf@google@@B ; SC2APIProtocol::Unit::_class_data_
PUBLIC	?New@MapState@SC2APIProtocol@@UEBAPEAV12@PEAVArena@protobuf@google@@@Z ; SC2APIProtocol::MapState::New
PUBLIC	?MergeImpl@MapState@SC2APIProtocol@@CAXAEAVMessage@protobuf@google@@AEBV345@@Z ; SC2APIProtocol::MapState::MergeImpl
PUBLIC	?Clear@MapState@SC2APIProtocol@@UEAAXXZ		; SC2APIProtocol::MapState::Clear
PUBLIC	?IsInitialized@MapState@SC2APIProtocol@@UEBA_NXZ ; SC2APIProtocol::MapState::IsInitialized
PUBLIC	?ByteSizeLong@MapState@SC2APIProtocol@@UEBA_KXZ	; SC2APIProtocol::MapState::ByteSizeLong
PUBLIC	?_InternalParse@MapState@SC2APIProtocol@@UEAAPEBDPEBDPEAVParseContext@internal@protobuf@google@@@Z ; SC2APIProtocol::MapState::_InternalParse
PUBLIC	?_InternalSerialize@MapState@SC2APIProtocol@@UEBAPEAEPEAEPEAVEpsCopyOutputStream@io@protobuf@google@@@Z ; SC2APIProtocol::MapState::_InternalSerialize
PUBLIC	?GetCachedSize@MapState@SC2APIProtocol@@UEBAHXZ	; SC2APIProtocol::MapState::GetCachedSize
PUBLIC	?SetCachedSize@MapState@SC2APIProtocol@@EEBAXH@Z ; SC2APIProtocol::MapState::SetCachedSize
PUBLIC	?_class_data_@MapState@SC2APIProtocol@@2UClassData@Message@protobuf@google@@B ; SC2APIProtocol::MapState::_class_data_
PUBLIC	?GetClassData@MapState@SC2APIProtocol@@UEBAPEBUClassData@Message@protobuf@google@@XZ ; SC2APIProtocol::MapState::GetClassData
PUBLIC	?GetMetadata@MapState@SC2APIProtocol@@UEBA?AUMetadata@protobuf@google@@XZ ; SC2APIProtocol::MapState::GetMetadata
PUBLIC	??_7MapState@SC2APIProtocol@@6B@		; SC2APIProtocol::MapState::`vftable'
PUBLIC	??_GMapState@SC2APIProtocol@@UEAAPEAXI@Z	; SC2APIProtocol::MapState::`scalar deleting destructor'
PUBLIC	?MergeImpl@Event@SC2APIProtocol@@CAXAEAVMessage@protobuf@google@@AEBV345@@Z ; SC2APIProtocol::Event::MergeImpl
PUBLIC	?_class_data_@Event@SC2APIProtocol@@2UClassData@Message@protobuf@google@@B ; SC2APIProtocol::Event::_class_data_
PUBLIC	?MergeImpl@Effect@SC2APIProtocol@@CAXAEAVMessage@protobuf@google@@AEBV345@@Z ; SC2APIProtocol::Effect::MergeImpl
PUBLIC	?_class_data_@Effect@SC2APIProtocol@@2UClassData@Message@protobuf@google@@B ; SC2APIProtocol::Effect::_class_data_
PUBLIC	?New@ActionRaw@SC2APIProtocol@@UEBAPEAV12@PEAVArena@protobuf@google@@@Z ; SC2APIProtocol::ActionRaw::New
PUBLIC	?MergeImpl@ActionRaw@SC2APIProtocol@@CAXAEAVMessage@protobuf@google@@AEBV345@@Z ; SC2APIProtocol::ActionRaw::MergeImpl
PUBLIC	?Clear@ActionRaw@SC2APIProtocol@@UEAAXXZ	; SC2APIProtocol::ActionRaw::Clear
PUBLIC	?IsInitialized@ActionRaw@SC2APIProtocol@@UEBA_NXZ ; SC2APIProtocol::ActionRaw::IsInitialized
PUBLIC	?ByteSizeLong@ActionRaw@SC2APIProtocol@@UEBA_KXZ ; SC2APIProtocol::ActionRaw::ByteSizeLong
PUBLIC	?_InternalParse@ActionRaw@SC2APIProtocol@@UEAAPEBDPEBDPEAVParseContext@internal@protobuf@google@@@Z ; SC2APIProtocol::ActionRaw::_InternalParse
PUBLIC	?_InternalSerialize@ActionRaw@SC2APIProtocol@@UEBAPEAEPEAEPEAVEpsCopyOutputStream@io@protobuf@google@@@Z ; SC2APIProtocol::ActionRaw::_InternalSerialize
PUBLIC	?GetCachedSize@ActionRaw@SC2APIProtocol@@UEBAHXZ ; SC2APIProtocol::ActionRaw::GetCachedSize
PUBLIC	?SetCachedSize@ActionRaw@SC2APIProtocol@@EEBAXH@Z ; SC2APIProtocol::ActionRaw::SetCachedSize
PUBLIC	?_class_data_@ActionRaw@SC2APIProtocol@@2UClassData@Message@protobuf@google@@B ; SC2APIProtocol::ActionRaw::_class_data_
PUBLIC	?GetClassData@ActionRaw@SC2APIProtocol@@UEBAPEBUClassData@Message@protobuf@google@@XZ ; SC2APIProtocol::ActionRaw::GetClassData
PUBLIC	?GetMetadata@ActionRaw@SC2APIProtocol@@UEBA?AUMetadata@protobuf@google@@XZ ; SC2APIProtocol::ActionRaw::GetMetadata
PUBLIC	??_7ActionRaw@SC2APIProtocol@@6B@		; SC2APIProtocol::ActionRaw::`vftable'
PUBLIC	??_GActionRaw@SC2APIProtocol@@UEAAPEAXI@Z	; SC2APIProtocol::ActionRaw::`scalar deleting destructor'
PUBLIC	?MergeImpl@ActionRawUnitCommand@SC2APIProtocol@@CAXAEAVMessage@protobuf@google@@AEBV345@@Z ; SC2APIProtocol::ActionRawUnitCommand::MergeImpl
PUBLIC	?_class_data_@ActionRawUnitCommand@SC2APIProtocol@@2UClassData@Message@protobuf@google@@B ; SC2APIProtocol::ActionRawUnitCommand::_class_data_
PUBLIC	?New@ActionRawCameraMove@SC2APIProtocol@@UEBAPEAV12@PEAVArena@protobuf@google@@@Z ; SC2APIProtocol::ActionRawCameraMove::New
PUBLIC	?MergeImpl@ActionRawCameraMove@SC2APIProtocol@@CAXAEAVMessage@protobuf@google@@AEBV345@@Z ; SC2APIProtocol::ActionRawCameraMove::MergeImpl
PUBLIC	?Clear@ActionRawCameraMove@SC2APIProtocol@@UEAAXXZ ; SC2APIProtocol::ActionRawCameraMove::Clear
PUBLIC	?IsInitialized@ActionRawCameraMove@SC2APIProtocol@@UEBA_NXZ ; SC2APIProtocol::ActionRawCameraMove::IsInitialized
PUBLIC	?ByteSizeLong@ActionRawCameraMove@SC2APIProtocol@@UEBA_KXZ ; SC2APIProtocol::ActionRawCameraMove::ByteSizeLong
PUBLIC	?_InternalParse@ActionRawCameraMove@SC2APIProtocol@@UEAAPEBDPEBDPEAVParseContext@internal@protobuf@google@@@Z ; SC2APIProtocol::ActionRawCameraMove::_InternalParse
PUBLIC	?_InternalSerialize@ActionRawCameraMove@SC2APIProtocol@@UEBAPEAEPEAEPEAVEpsCopyOutputStream@io@protobuf@google@@@Z ; SC2APIProtocol::ActionRawCameraMove::_InternalSerialize
PUBLIC	?GetCachedSize@ActionRawCameraMove@SC2APIProtocol@@UEBAHXZ ; SC2APIProtocol::ActionRawCameraMove::GetCachedSize
PUBLIC	?SetCachedSize@ActionRawCameraMove@SC2APIProtocol@@EEBAXH@Z ; SC2APIProtocol::ActionRawCameraMove::SetCachedSize
PUBLIC	?_class_data_@ActionRawCameraMove@SC2APIProtocol@@2UClassData@Message@protobuf@google@@B ; SC2APIProtocol::ActionRawCameraMove::_class_data_
PUBLIC	?GetClassData@ActionRawCameraMove@SC2APIProtocol@@UEBAPEBUClassData@Message@protobuf@google@@XZ ; SC2APIProtocol::ActionRawCameraMove::GetClassData
PUBLIC	?GetMetadata@ActionRawCameraMove@SC2APIProtocol@@UEBA?AUMetadata@protobuf@google@@XZ ; SC2APIProtocol::ActionRawCameraMove::GetMetadata
PUBLIC	??_7ActionRawCameraMove@SC2APIProtocol@@6B@	; SC2APIProtocol::ActionRawCameraMove::`vftable'
PUBLIC	??_GActionRawCameraMove@SC2APIProtocol@@UEAAPEAXI@Z ; SC2APIProtocol::ActionRawCameraMove::`scalar deleting destructor'
PUBLIC	?MergeImpl@ActionRawToggleAutocast@SC2APIProtocol@@CAXAEAVMessage@protobuf@google@@AEBV345@@Z ; SC2APIProtocol::ActionRawToggleAutocast::MergeImpl
PUBLIC	?_class_data_@ActionRawToggleAutocast@SC2APIProtocol@@2UClassData@Message@protobuf@google@@B ; SC2APIProtocol::ActionRawToggleAutocast::_class_data_
PUBLIC	??_R0?AVRadarRing@SC2APIProtocol@@@8		; SC2APIProtocol::RadarRing `RTTI Type Descriptor'
PUBLIC	?OnDemandRegisterArenaDtor@MessageLite@protobuf@google@@UEAAXPEAVArena@23@@Z ; google::protobuf::MessageLite::OnDemandRegisterArenaDtor
PUBLIC	??_R0?AVPowerSource@SC2APIProtocol@@@8		; SC2APIProtocol::PowerSource `RTTI Type Descriptor'
PUBLIC	??_R0?AVUnitOrder@SC2APIProtocol@@@8		; SC2APIProtocol::UnitOrder `RTTI Type Descriptor'
PUBLIC	??_R0?AVPassengerUnit@SC2APIProtocol@@@8	; SC2APIProtocol::PassengerUnit `RTTI Type Descriptor'
PUBLIC	??_R0?AVRallyTarget@SC2APIProtocol@@@8		; SC2APIProtocol::RallyTarget `RTTI Type Descriptor'
PUBLIC	??_R0?AVMapState@SC2APIProtocol@@@8		; SC2APIProtocol::MapState `RTTI Type Descriptor'
PUBLIC	??_R0?AVActionRaw@SC2APIProtocol@@@8		; SC2APIProtocol::ActionRaw `RTTI Type Descriptor'
PUBLIC	??_R0?AVActionRawCameraMove@SC2APIProtocol@@@8	; SC2APIProtocol::ActionRawCameraMove `RTTI Type Descriptor'
EXTRN	??_ERadarRing@SC2APIProtocol@@UEAAPEAXI@Z:PROC	; SC2APIProtocol::RadarRing::`vector deleting destructor'
EXTRN	??_EPowerSource@SC2APIProtocol@@UEAAPEAXI@Z:PROC ; SC2APIProtocol::PowerSource::`vector deleting destructor'
EXTRN	??_EUnitOrder@SC2APIProtocol@@UEAAPEAXI@Z:PROC	; SC2APIProtocol::UnitOrder::`vector deleting destructor'
EXTRN	?MergeFrom@Message@protobuf@google@@UEAAXAEBV123@@Z:PROC ; google::protobuf::Message::MergeFrom
EXTRN	?InitializationErrorString@Message@protobuf@google@@UEBA?AV?$basic_string@DU?$char_traits@D@std@@V?$allocator@D@2@@std@@XZ:PROC ; google::protobuf::Message::InitializationErrorString
EXTRN	?SpaceUsedLong@Message@protobuf@google@@UEBA_KXZ:PROC ; google::protobuf::Message::SpaceUsedLong
EXTRN	?GetTypeName@Message@protobuf@google@@UEBA?AV?$basic_string@DU?$char_traits@D@std@@V?$allocator@D@2@@std@@XZ:PROC ; google::protobuf::Message::GetTypeName
EXTRN	?CheckTypeAndMergeFrom@Message@protobuf@google@@UEAAXAEBVMessageLite@23@@Z:PROC ; google::protobuf::Message::CheckTypeAndMergeFrom
EXTRN	?CopyWithSourceCheck@Message@protobuf@google@@KAXAEAV123@AEBV123@@Z:PROC ; google::protobuf::Message::CopyWithSourceCheck
EXTRN	??_EPassengerUnit@SC2APIProtocol@@UEAAPEAXI@Z:PROC ; SC2APIProtocol::PassengerUnit::`vector deleting destructor'
EXTRN	??_ERallyTarget@SC2APIProtocol@@UEAAPEAXI@Z:PROC ; SC2APIProtocol::RallyTarget::`vector deleting destructor'
EXTRN	??_7type_info@@6B@:BYTE				; type_info::`vftable'
EXTRN	??_EMapState@SC2APIProtocol@@UEAAPEAXI@Z:PROC	; SC2APIProtocol::MapState::`vector deleting destructor'
EXTRN	??_EActionRaw@SC2APIProtocol@@UEAAPEAXI@Z:PROC	; SC2APIProtocol::ActionRaw::`vector deleting destructor'
EXTRN	??_EActionRawCameraMove@SC2APIProtocol@@UEAAPEAXI@Z:PROC ; SC2APIProtocol::ActionRawCameraMove::`vector deleting destructor'
EXTRN	?descriptor_table_s2clientprotocol_2fcommon_2eproto@@3UDescriptorTable@internal@protobuf@google@@B:BYTE ; descriptor_table_s2clientprotocol_2fcommon_2eproto
_BSS	SEGMENT
?file_level_metadata_s2clientprotocol_2fraw_2eproto@@3PAUMetadata@protobuf@google@@A DB 0100H DUP (?) ; file_level_metadata_s2clientprotocol_2fraw_2eproto
?file_level_enum_descriptors_s2clientprotocol_2fraw_2eproto@@3PAPEBVEnumDescriptor@protobuf@google@@A DQ 03H DUP (?) ; file_level_enum_descriptors_s2clientprotocol_2fraw_2eproto
?descriptor_table_s2clientprotocol_2fraw_2eproto_once@@3Uonce_flag@std@@A DQ 01H DUP (?) ; descriptor_table_s2clientprotocol_2fraw_2eproto_once
_BSS	ENDS
;	COMDAT ??_R0?AVActionRawCameraMove@SC2APIProtocol@@@8
data$r	SEGMENT
??_R0?AVActionRawCameraMove@SC2APIProtocol@@@8 DQ FLAT:??_7type_info@@6B@ ; SC2APIProtocol::ActionRawCameraMove `RTTI Type Descriptor'
	DQ	0000000000000000H
	DB	'.?AVActionRawCameraMove@SC2APIProtocol@@', 00H
data$r	ENDS
;	COMDAT ??_R0?AVActionRaw@SC2APIProtocol@@@8
data$r	SEGMENT
??_R0?AVActionRaw@SC2APIProtocol@@@8 DQ FLAT:??_7type_info@@6B@ ; SC2APIProtocol::ActionRaw `RTTI Type Descriptor'
	DQ	0000000000000000H
	DB	'.?AVActionRaw@SC2APIProtocol@@', 00H
data$r	ENDS
;	COMDAT ??_R0?AVMapState@SC2APIProtocol@@@8
data$r	SEGMENT
??_R0?AVMapState@SC2APIProtocol@@@8 DQ FLAT:??_7type_info@@6B@ ; SC2APIProtocol::MapState `RTTI Type Descriptor'
	DQ	0000000000000000H
	DB	'.?AVMapState@SC2APIProtocol@@', 00H
data$r	ENDS
;	COMDAT ??_R0?AVRallyTarget@SC2APIProtocol@@@8
data$r	SEGMENT
??_R0?AVRallyTarget@SC2APIProtocol@@@8 DQ FLAT:??_7type_info@@6B@ ; SC2APIProtocol::RallyTarget `RTTI Type Descriptor'
	DQ	0000000000000000H
	DB	'.?AVRallyTarget@SC2APIProtocol@@', 00H
data$r	ENDS
;	COMDAT ??_R0?AVPassengerUnit@SC2APIProtocol@@@8
data$r	SEGMENT
??_R0?AVPassengerUnit@SC2APIProtocol@@@8 DQ FLAT:??_7type_info@@6B@ ; SC2APIProtocol::PassengerUnit `RTTI Type Descriptor'
	DQ	0000000000000000H
	DB	'.?AVPassengerUnit@SC2APIProtocol@@', 00H
data$r	ENDS
;	COMDAT ??_R0?AVUnitOrder@SC2APIProtocol@@@8
data$r	SEGMENT
??_R0?AVUnitOrder@SC2APIProtocol@@@8 DQ FLAT:??_7type_info@@6B@ ; SC2APIProtocol::UnitOrder `RTTI Type Descriptor'
	DQ	0000000000000000H
	DB	'.?AVUnitOrder@SC2APIProtocol@@', 00H
data$r	ENDS
;	COMDAT ??_R0?AVPowerSource@SC2APIProtocol@@@8
data$r	SEGMENT
??_R0?AVPowerSource@SC2APIProtocol@@@8 DQ FLAT:??_7type_info@@6B@ ; SC2APIProtocol::PowerSource `RTTI Type Descriptor'
	DQ	0000000000000000H
	DB	'.?AVPowerSource@SC2APIProtocol@@', 00H
data$r	ENDS
;	COMDAT ??_R0?AVRadarRing@SC2APIProtocol@@@8
data$r	SEGMENT
??_R0?AVRadarRing@SC2APIProtocol@@@8 DQ FLAT:??_7type_info@@6B@ ; SC2APIProtocol::RadarRing `RTTI Type Descriptor'
	DQ	0000000000000000H
	DB	'.?AVRadarRing@SC2APIProtocol@@', 00H
data$r	ENDS
;	COMDAT ??_7ActionRawCameraMove@SC2APIProtocol@@6B@
CONST	SEGMENT
??_7ActionRawCameraMove@SC2APIProtocol@@6B@ DQ FLAT:??_R4ActionRawCameraMove@SC2APIProtocol@@6B@ ; SC2APIProtocol::ActionRawCameraMove::`vftable'
	DQ	FLAT:??_EActionRawCameraMove@SC2APIProtocol@@UEAAPEAXI@Z
	DQ	FLAT:?GetTypeName@Message@protobuf@google@@UEBA?AV?$basic_string@DU?$char_traits@D@std@@V?$allocator@D@2@@std@@XZ
	DQ	FLAT:?New@ActionRawCameraMove@SC2APIProtocol@@UEBAPEAV12@PEAVArena@protobuf@google@@@Z
	DQ	FLAT:?Clear@ActionRawCameraMove@SC2APIProtocol@@UEAAXXZ
	DQ	FLAT:?IsInitialized@ActionRawCameraMove@SC2APIProtocol@@UEBA_NXZ
	DQ	FLAT:?InitializationErrorString@Message@protobuf@google@@UEBA?AV?$basic_string@DU?$char_traits@D@std@@V?$allocator@D@2@@std@@XZ
	DQ	FLAT:?CheckTypeAndMergeFrom@Message@protobuf@google@@UEAAXAEBVMessageLite@23@@Z
	DQ	FLAT:?ByteSizeLong@ActionRawCameraMove@SC2APIProtocol@@UEBA_KXZ
	DQ	FLAT:?GetCachedSize@ActionRawCameraMove@SC2APIProtocol@@UEBAHXZ
	DQ	FLAT:?_InternalParse@ActionRawCameraMove@SC2APIProtocol@@UEAAPEBDPEBDPEAVParseContext@internal@protobuf@google@@@Z
	DQ	FLAT:?OnDemandRegisterArenaDtor@MessageLite@protobuf@google@@UEAAXPEAVArena@23@@Z
	DQ	FLAT:?_InternalSerialize@ActionRawCameraMove@SC2APIProtocol@@UEBAPEAEPEAEPEAVEpsCopyOutputStream@io@protobuf@google@@@Z
	DQ	FLAT:?MergeFrom@Message@protobuf@google@@UEAAXAEBV123@@Z
	DQ	FLAT:?SpaceUsedLong@Message@protobuf@google@@UEBA_KXZ
	DQ	FLAT:?SetCachedSize@ActionRawCameraMove@SC2APIProtocol@@EEBAXH@Z
	DQ	FLAT:?GetMetadata@ActionRawCameraMove@SC2APIProtocol@@UEBA?AUMetadata@protobuf@google@@XZ
	DQ	FLAT:?GetClassData@ActionRawCameraMove@SC2APIProtocol@@UEBAPEBUClassData@Message@protobuf@google@@XZ
CONST	ENDS
;	COMDAT ??_7ActionRaw@SC2APIProtocol@@6B@
CONST	SEGMENT
??_7ActionRaw@SC2APIProtocol@@6B@ DQ FLAT:??_R4ActionRaw@SC2APIProtocol@@6B@ ; SC2APIProtocol::ActionRaw::`vftable'
	DQ	FLAT:??_EActionRaw@SC2APIProtocol@@UEAAPEAXI@Z
	DQ	FLAT:?GetTypeName@Message@protobuf@google@@UEBA?AV?$basic_string@DU?$char_traits@D@std@@V?$allocator@D@2@@std@@XZ
	DQ	FLAT:?New@ActionRaw@SC2APIProtocol@@UEBAPEAV12@PEAVArena@protobuf@google@@@Z
	DQ	FLAT:?Clear@ActionRaw@SC2APIProtocol@@UEAAXXZ
	DQ	FLAT:?IsInitialized@ActionRaw@SC2APIProtocol@@UEBA_NXZ
	DQ	FLAT:?InitializationErrorString@Message@protobuf@google@@UEBA?AV?$basic_string@DU?$char_traits@D@std@@V?$allocator@D@2@@std@@XZ
	DQ	FLAT:?CheckTypeAndMergeFrom@Message@protobuf@google@@UEAAXAEBVMessageLite@23@@Z
	DQ	FLAT:?ByteSizeLong@ActionRaw@SC2APIProtocol@@UEBA_KXZ
	DQ	FLAT:?GetCachedSize@ActionRaw@SC2APIProtocol@@UEBAHXZ
	DQ	FLAT:?_InternalParse@ActionRaw@SC2APIProtocol@@UEAAPEBDPEBDPEAVParseContext@internal@protobuf@google@@@Z
	DQ	FLAT:?OnDemandRegisterArenaDtor@MessageLite@protobuf@google@@UEAAXPEAVArena@23@@Z
	DQ	FLAT:?_InternalSerialize@ActionRaw@SC2APIProtocol@@UEBAPEAEPEAEPEAVEpsCopyOutputStream@io@protobuf@google@@@Z
	DQ	FLAT:?MergeFrom@Message@protobuf@google@@UEAAXAEBV123@@Z
	DQ	FLAT:?SpaceUsedLong@Message@protobuf@google@@UEBA_KXZ
	DQ	FLAT:?SetCachedSize@ActionRaw@SC2APIProtocol@@EEBAXH@Z
	DQ	FLAT:?GetMetadata@ActionRaw@SC2APIProtocol@@UEBA?AUMetadata@protobuf@google@@XZ
	DQ	FLAT:?GetClassData@ActionRaw@SC2APIProtocol@@UEBAPEBUClassData@Message@protobuf@google@@XZ
CONST	ENDS
;	COMDAT ??_7MapState@SC2APIProtocol@@6B@
CONST	SEGMENT
??_7MapState@SC2APIProtocol@@6B@ DQ FLAT:??_R4MapState@SC2APIProtocol@@6B@ ; SC2APIProtocol::MapState::`vftable'
	DQ	FLAT:??_EMapState@SC2APIProtocol@@UEAAPEAXI@Z
	DQ	FLAT:?GetTypeName@Message@protobuf@google@@UEBA?AV?$basic_string@DU?$char_traits@D@std@@V?$allocator@D@2@@std@@XZ
	DQ	FLAT:?New@MapState@SC2APIProtocol@@UEBAPEAV12@PEAVArena@protobuf@google@@@Z
	DQ	FLAT:?Clear@MapState@SC2APIProtocol@@UEAAXXZ
	DQ	FLAT:?IsInitialized@MapState@SC2APIProtocol@@UEBA_NXZ
	DQ	FLAT:?InitializationErrorString@Message@protobuf@google@@UEBA?AV?$basic_string@DU?$char_traits@D@std@@V?$allocator@D@2@@std@@XZ
	DQ	FLAT:?CheckTypeAndMergeFrom@Message@protobuf@google@@UEAAXAEBVMessageLite@23@@Z
	DQ	FLAT:?ByteSizeLong@MapState@SC2APIProtocol@@UEBA_KXZ
	DQ	FLAT:?GetCachedSize@MapState@SC2APIProtocol@@UEBAHXZ
	DQ	FLAT:?_InternalParse@MapState@SC2APIProtocol@@UEAAPEBDPEBDPEAVParseContext@internal@protobuf@google@@@Z
	DQ	FLAT:?OnDemandRegisterArenaDtor@MessageLite@protobuf@google@@UEAAXPEAVArena@23@@Z
	DQ	FLAT:?_InternalSerialize@MapState@SC2APIProtocol@@UEBAPEAEPEAEPEAVEpsCopyOutputStream@io@protobuf@google@@@Z
	DQ	FLAT:?MergeFrom@Message@protobuf@google@@UEAAXAEBV123@@Z
	DQ	FLAT:?SpaceUsedLong@Message@protobuf@google@@UEBA_KXZ
	DQ	FLAT:?SetCachedSize@MapState@SC2APIProtocol@@EEBAXH@Z
	DQ	FLAT:?GetMetadata@MapState@SC2APIProtocol@@UEBA?AUMetadata@protobuf@google@@XZ
	DQ	FLAT:?GetClassData@MapState@SC2APIProtocol@@UEBAPEBUClassData@Message@protobuf@google@@XZ
CONST	ENDS
;	COMDAT ??_7RallyTarget@SC2APIProtocol@@6B@
CONST	SEGMENT
??_7RallyTarget@SC2APIProtocol@@6B@ DQ FLAT:??_R4RallyTarget@SC2APIProtocol@@6B@ ; SC2APIProtocol::RallyTarget::`vftable'
	DQ	FLAT:??_ERallyTarget@SC2APIProtocol@@UEAAPEAXI@Z
	DQ	FLAT:?GetTypeName@Message@protobuf@google@@UEBA?AV?$basic_string@DU?$char_traits@D@std@@V?$allocator@D@2@@std@@XZ
	DQ	FLAT:?New@RallyTarget@SC2APIProtocol@@UEBAPEAV12@PEAVArena@protobuf@google@@@Z
	DQ	FLAT:?Clear@RallyTarget@SC2APIProtocol@@UEAAXXZ
	DQ	FLAT:?IsInitialized@RallyTarget@SC2APIProtocol@@UEBA_NXZ
	DQ	FLAT:?InitializationErrorString@Message@protobuf@google@@UEBA?AV?$basic_string@DU?$char_traits@D@std@@V?$allocator@D@2@@std@@XZ
	DQ	FLAT:?CheckTypeAndMergeFrom@Message@protobuf@google@@UEAAXAEBVMessageLite@23@@Z
	DQ	FLAT:?ByteSizeLong@RallyTarget@SC2APIProtocol@@UEBA_KXZ
	DQ	FLAT:?GetCachedSize@RallyTarget@SC2APIProtocol@@UEBAHXZ
	DQ	FLAT:?_InternalParse@RallyTarget@SC2APIProtocol@@UEAAPEBDPEBDPEAVParseContext@internal@protobuf@google@@@Z
	DQ	FLAT:?OnDemandRegisterArenaDtor@MessageLite@protobuf@google@@UEAAXPEAVArena@23@@Z
	DQ	FLAT:?_InternalSerialize@RallyTarget@SC2APIProtocol@@UEBAPEAEPEAEPEAVEpsCopyOutputStream@io@protobuf@google@@@Z
	DQ	FLAT:?MergeFrom@Message@protobuf@google@@UEAAXAEBV123@@Z
	DQ	FLAT:?SpaceUsedLong@Message@protobuf@google@@UEBA_KXZ
	DQ	FLAT:?SetCachedSize@RallyTarget@SC2APIProtocol@@EEBAXH@Z
	DQ	FLAT:?GetMetadata@RallyTarget@SC2APIProtocol@@UEBA?AUMetadata@protobuf@google@@XZ
	DQ	FLAT:?GetClassData@RallyTarget@SC2APIProtocol@@UEBAPEBUClassData@Message@protobuf@google@@XZ
CONST	ENDS
;	COMDAT ??_7PassengerUnit@SC2APIProtocol@@6B@
CONST	SEGMENT
??_7PassengerUnit@SC2APIProtocol@@6B@ DQ FLAT:??_R4PassengerUnit@SC2APIProtocol@@6B@ ; SC2APIProtocol::PassengerUnit::`vftable'
	DQ	FLAT:??_EPassengerUnit@SC2APIProtocol@@UEAAPEAXI@Z
	DQ	FLAT:?GetTypeName@Message@protobuf@google@@UEBA?AV?$basic_string@DU?$char_traits@D@std@@V?$allocator@D@2@@std@@XZ
	DQ	FLAT:?New@PassengerUnit@SC2APIProtocol@@UEBAPEAV12@PEAVArena@protobuf@google@@@Z
	DQ	FLAT:?Clear@PassengerUnit@SC2APIProtocol@@UEAAXXZ
	DQ	FLAT:?IsInitialized@PassengerUnit@SC2APIProtocol@@UEBA_NXZ
	DQ	FLAT:?InitializationErrorString@Message@protobuf@google@@UEBA?AV?$basic_string@DU?$char_traits@D@std@@V?$allocator@D@2@@std@@XZ
	DQ	FLAT:?CheckTypeAndMergeFrom@Message@protobuf@google@@UEAAXAEBVMessageLite@23@@Z
	DQ	FLAT:?ByteSizeLong@PassengerUnit@SC2APIProtocol@@UEBA_KXZ
	DQ	FLAT:?GetCachedSize@PassengerUnit@SC2APIProtocol@@UEBAHXZ
	DQ	FLAT:?_InternalParse@PassengerUnit@SC2APIProtocol@@UEAAPEBDPEBDPEAVParseContext@internal@protobuf@google@@@Z
	DQ	FLAT:?OnDemandRegisterArenaDtor@MessageLite@protobuf@google@@UEAAXPEAVArena@23@@Z
	DQ	FLAT:?_InternalSerialize@PassengerUnit@SC2APIProtocol@@UEBAPEAEPEAEPEAVEpsCopyOutputStream@io@protobuf@google@@@Z
	DQ	FLAT:?MergeFrom@Message@protobuf@google@@UEAAXAEBV123@@Z
	DQ	FLAT:?SpaceUsedLong@Message@protobuf@google@@UEBA_KXZ
	DQ	FLAT:?SetCachedSize@PassengerUnit@SC2APIProtocol@@EEBAXH@Z
	DQ	FLAT:?GetMetadata@PassengerUnit@SC2APIProtocol@@UEBA?AUMetadata@protobuf@google@@XZ
	DQ	FLAT:?GetClassData@PassengerUnit@SC2APIProtocol@@UEBAPEBUClassData@Message@protobuf@google@@XZ
CONST	ENDS
;	COMDAT ??_7UnitOrder@SC2APIProtocol@@6B@
CONST	SEGMENT
??_7UnitOrder@SC2APIProtocol@@6B@ DQ FLAT:??_R4UnitOrder@SC2APIProtocol@@6B@ ; SC2APIProtocol::UnitOrder::`vftable'
	DQ	FLAT:??_EUnitOrder@SC2APIProtocol@@UEAAPEAXI@Z
	DQ	FLAT:?GetTypeName@Message@protobuf@google@@UEBA?AV?$basic_string@DU?$char_traits@D@std@@V?$allocator@D@2@@std@@XZ
	DQ	FLAT:?New@UnitOrder@SC2APIProtocol@@UEBAPEAV12@PEAVArena@protobuf@google@@@Z
	DQ	FLAT:?Clear@UnitOrder@SC2APIProtocol@@UEAAXXZ
	DQ	FLAT:?IsInitialized@UnitOrder@SC2APIProtocol@@UEBA_NXZ
	DQ	FLAT:?InitializationErrorString@Message@protobuf@google@@UEBA?AV?$basic_string@DU?$char_traits@D@std@@V?$allocator@D@2@@std@@XZ
	DQ	FLAT:?CheckTypeAndMergeFrom@Message@protobuf@google@@UEAAXAEBVMessageLite@23@@Z
	DQ	FLAT:?ByteSizeLong@UnitOrder@SC2APIProtocol@@UEBA_KXZ
	DQ	FLAT:?GetCachedSize@UnitOrder@SC2APIProtocol@@UEBAHXZ
	DQ	FLAT:?_InternalParse@UnitOrder@SC2APIProtocol@@UEAAPEBDPEBDPEAVParseContext@internal@protobuf@google@@@Z
	DQ	FLAT:?OnDemandRegisterArenaDtor@MessageLite@protobuf@google@@UEAAXPEAVArena@23@@Z
	DQ	FLAT:?_InternalSerialize@UnitOrder@SC2APIProtocol@@UEBAPEAEPEAEPEAVEpsCopyOutputStream@io@protobuf@google@@@Z
	DQ	FLAT:?MergeFrom@Message@protobuf@google@@UEAAXAEBV123@@Z
	DQ	FLAT:?SpaceUsedLong@Message@protobuf@google@@UEBA_KXZ
	DQ	FLAT:?SetCachedSize@UnitOrder@SC2APIProtocol@@EEBAXH@Z
	DQ	FLAT:?GetMetadata@UnitOrder@SC2APIProtocol@@UEBA?AUMetadata@protobuf@google@@XZ
	DQ	FLAT:?GetClassData@UnitOrder@SC2APIProtocol@@UEBAPEBUClassData@Message@protobuf@google@@XZ
CONST	ENDS
;	COMDAT ??_7PowerSource@SC2APIProtocol@@6B@
CONST	SEGMENT
??_7PowerSource@SC2APIProtocol@@6B@ DQ FLAT:??_R4PowerSource@SC2APIProtocol@@6B@ ; SC2APIProtocol::PowerSource::`vftable'
	DQ	FLAT:??_EPowerSource@SC2APIProtocol@@UEAAPEAXI@Z
	DQ	FLAT:?GetTypeName@Message@protobuf@google@@UEBA?AV?$basic_string@DU?$char_traits@D@std@@V?$allocator@D@2@@std@@XZ
	DQ	FLAT:?New@PowerSource@SC2APIProtocol@@UEBAPEAV12@PEAVArena@protobuf@google@@@Z
	DQ	FLAT:?Clear@PowerSource@SC2APIProtocol@@UEAAXXZ
	DQ	FLAT:?IsInitialized@PowerSource@SC2APIProtocol@@UEBA_NXZ
	DQ	FLAT:?InitializationErrorString@Message@protobuf@google@@UEBA?AV?$basic_string@DU?$char_traits@D@std@@V?$allocator@D@2@@std@@XZ
	DQ	FLAT:?CheckTypeAndMergeFrom@Message@protobuf@google@@UEAAXAEBVMessageLite@23@@Z
	DQ	FLAT:?ByteSizeLong@PowerSource@SC2APIProtocol@@UEBA_KXZ
	DQ	FLAT:?GetCachedSize@PowerSource@SC2APIProtocol@@UEBAHXZ
	DQ	FLAT:?_InternalParse@PowerSource@SC2APIProtocol@@UEAAPEBDPEBDPEAVParseContext@internal@protobuf@google@@@Z
	DQ	FLAT:?OnDemandRegisterArenaDtor@MessageLite@protobuf@google@@UEAAXPEAVArena@23@@Z
	DQ	FLAT:?_InternalSerialize@PowerSource@SC2APIProtocol@@UEBAPEAEPEAEPEAVEpsCopyOutputStream@io@protobuf@google@@@Z
	DQ	FLAT:?MergeFrom@Message@protobuf@google@@UEAAXAEBV123@@Z
	DQ	FLAT:?SpaceUsedLong@Message@protobuf@google@@UEBA_KXZ
	DQ	FLAT:?SetCachedSize@PowerSource@SC2APIProtocol@@EEBAXH@Z
	DQ	FLAT:?GetMetadata@PowerSource@SC2APIProtocol@@UEBA?AUMetadata@protobuf@google@@XZ
	DQ	FLAT:?GetClassData@PowerSource@SC2APIProtocol@@UEBAPEBUClassData@Message@protobuf@google@@XZ
CONST	ENDS
;	COMDAT ??_7RadarRing@SC2APIProtocol@@6B@
CONST	SEGMENT
??_7RadarRing@SC2APIProtocol@@6B@ DQ FLAT:??_R4RadarRing@SC2APIProtocol@@6B@ ; SC2APIProtocol::RadarRing::`vftable'
	DQ	FLAT:??_ERadarRing@SC2APIProtocol@@UEAAPEAXI@Z
	DQ	FLAT:?GetTypeName@Message@protobuf@google@@UEBA?AV?$basic_string@DU?$char_traits@D@std@@V?$allocator@D@2@@std@@XZ
	DQ	FLAT:?New@RadarRing@SC2APIProtocol@@UEBAPEAV12@PEAVArena@protobuf@google@@@Z
	DQ	FLAT:?Clear@RadarRing@SC2APIProtocol@@UEAAXXZ
	DQ	FLAT:?IsInitialized@RadarRing@SC2APIProtocol@@UEBA_NXZ
	DQ	FLAT:?InitializationErrorString@Message@protobuf@google@@UEBA?AV?$basic_string@DU?$char_traits@D@std@@V?$allocator@D@2@@std@@XZ
	DQ	FLAT:?CheckTypeAndMergeFrom@Message@protobuf@google@@UEAAXAEBVMessageLite@23@@Z
	DQ	FLAT:?ByteSizeLong@RadarRing@SC2APIProtocol@@UEBA_KXZ
	DQ	FLAT:?GetCachedSize@RadarRing@SC2APIProtocol@@UEBAHXZ
	DQ	FLAT:?_InternalParse@RadarRing@SC2APIProtocol@@UEAAPEBDPEBDPEAVParseContext@internal@protobuf@google@@@Z
	DQ	FLAT:?OnDemandRegisterArenaDtor@MessageLite@protobuf@google@@UEAAXPEAVArena@23@@Z
	DQ	FLAT:?_InternalSerialize@RadarRing@SC2APIProtocol@@UEBAPEAEPEAEPEAVEpsCopyOutputStream@io@protobuf@google@@@Z
	DQ	FLAT:?MergeFrom@Message@protobuf@google@@UEAAXAEBV123@@Z
	DQ	FLAT:?SpaceUsedLong@Message@protobuf@google@@UEBA_KXZ
	DQ	FLAT:?SetCachedSize@RadarRing@SC2APIProtocol@@EEBAXH@Z
	DQ	FLAT:?GetMetadata@RadarRing@SC2APIProtocol@@UEBA?AUMetadata@protobuf@google@@XZ
	DQ	FLAT:?GetClassData@RadarRing@SC2APIProtocol@@UEBAPEBUClassData@Message@protobuf@google@@XZ
CONST	ENDS
;	COMDAT ??_R1A@?0A@EA@UnitOrder@SC2APIProtocol@@8
rdata$r	SEGMENT
??_R1A@?0A@EA@UnitOrder@SC2APIProtocol@@8 DD imagerel ??_R0?AVUnitOrder@SC2APIProtocol@@@8 ; SC2APIProtocol::UnitOrder::`RTTI Base Class Descriptor at (0,-1,0,64)'
	DD	02H
	DD	00H
	DD	0ffffffffH
	DD	00H
	DD	040H
	DD	imagerel ??_R3UnitOrder@SC2APIProtocol@@8
rdata$r	ENDS
;	COMDAT ??_R2UnitOrder@SC2APIProtocol@@8
rdata$r	SEGMENT
??_R2UnitOrder@SC2APIProtocol@@8 DD imagerel ??_R1A@?0A@EA@UnitOrder@SC2APIProtocol@@8 ; SC2APIProtocol::UnitOrder::`RTTI Base Class Array'
	DD	imagerel ??_R1A@?0A@EA@Message@protobuf@google@@8
	DD	imagerel ??_R1A@?0A@EA@MessageLite@protobuf@google@@8
	ORG $+3
rdata$r	ENDS
;	COMDAT ??_R3UnitOrder@SC2APIProtocol@@8
rdata$r	SEGMENT
??_R3UnitOrder@SC2APIProtocol@@8 DD 00H			; SC2APIProtocol::UnitOrder::`RTTI Class Hierarchy Descriptor'
	DD	00H
	DD	03H
	DD	imagerel ??_R2UnitOrder@SC2APIProtocol@@8
rdata$r	ENDS
;	COMDAT ??_R4UnitOrder@SC2APIProtocol@@6B@
rdata$r	SEGMENT
??_R4UnitOrder@SC2APIProtocol@@6B@ DD 01H		; SC2APIProtocol::UnitOrder::`RTTI Complete Object Locator'
	DD	00H
	DD	00H
	DD	imagerel ??_R0?AVUnitOrder@SC2APIProtocol@@@8
	DD	imagerel ??_R3UnitOrder@SC2APIProtocol@@8
	DD	imagerel ??_R4UnitOrder@SC2APIProtocol@@6B@
rdata$r	ENDS
;	COMDAT ??_R1A@?0A@EA@RallyTarget@SC2APIProtocol@@8
rdata$r	SEGMENT
??_R1A@?0A@EA@RallyTarget@SC2APIProtocol@@8 DD imagerel ??_R0?AVRallyTarget@SC2APIProtocol@@@8 ; SC2APIProtocol::RallyTarget::`RTTI Base Class Descriptor at (0,-1,0,64)'
	DD	02H
	DD	00H
	DD	0ffffffffH
	DD	00H
	DD	040H
	DD	imagerel ??_R3RallyTarget@SC2APIProtocol@@8
rdata$r	ENDS
;	COMDAT ??_R2RallyTarget@SC2APIProtocol@@8
rdata$r	SEGMENT
??_R2RallyTarget@SC2APIProtocol@@8 DD imagerel ??_R1A@?0A@EA@RallyTarget@SC2APIProtocol@@8 ; SC2APIProtocol::RallyTarget::`RTTI Base Class Array'
	DD	imagerel ??_R1A@?0A@EA@Message@protobuf@google@@8
	DD	imagerel ??_R1A@?0A@EA@MessageLite@protobuf@google@@8
	ORG $+3
rdata$r	ENDS
;	COMDAT ??_R3RallyTarget@SC2APIProtocol@@8
rdata$r	SEGMENT
??_R3RallyTarget@SC2APIProtocol@@8 DD 00H		; SC2APIProtocol::RallyTarget::`RTTI Class Hierarchy Descriptor'
	DD	00H
	DD	03H
	DD	imagerel ??_R2RallyTarget@SC2APIProtocol@@8
rdata$r	ENDS
;	COMDAT ??_R4RallyTarget@SC2APIProtocol@@6B@
rdata$r	SEGMENT
??_R4RallyTarget@SC2APIProtocol@@6B@ DD 01H		; SC2APIProtocol::RallyTarget::`RTTI Complete Object Locator'
	DD	00H
	DD	00H
	DD	imagerel ??_R0?AVRallyTarget@SC2APIProtocol@@@8
	DD	imagerel ??_R3RallyTarget@SC2APIProtocol@@8
	DD	imagerel ??_R4RallyTarget@SC2APIProtocol@@6B@
rdata$r	ENDS
;	COMDAT ??_R1A@?0A@EA@RadarRing@SC2APIProtocol@@8
rdata$r	SEGMENT
??_R1A@?0A@EA@RadarRing@SC2APIProtocol@@8 DD imagerel ??_R0?AVRadarRing@SC2APIProtocol@@@8 ; SC2APIProtocol::RadarRing::`RTTI Base Class Descriptor at (0,-1,0,64)'
	DD	02H
	DD	00H
	DD	0ffffffffH
	DD	00H
	DD	040H
	DD	imagerel ??_R3RadarRing@SC2APIProtocol@@8
rdata$r	ENDS
;	COMDAT ??_R2RadarRing@SC2APIProtocol@@8
rdata$r	SEGMENT
??_R2RadarRing@SC2APIProtocol@@8 DD imagerel ??_R1A@?0A@EA@RadarRing@SC2APIProtocol@@8 ; SC2APIProtocol::RadarRing::`RTTI Base Class Array'
	DD	imagerel ??_R1A@?0A@EA@Message@protobuf@google@@8
	DD	imagerel ??_R1A@?0A@EA@MessageLite@protobuf@google@@8
	ORG $+3
rdata$r	ENDS
;	COMDAT ??_R3RadarRing@SC2APIProtocol@@8
rdata$r	SEGMENT
??_R3RadarRing@SC2APIProtocol@@8 DD 00H			; SC2APIProtocol::RadarRing::`RTTI Class Hierarchy Descriptor'
	DD	00H
	DD	03H
	DD	imagerel ??_R2RadarRing@SC2APIProtocol@@8
rdata$r	ENDS
;	COMDAT ??_R4RadarRing@SC2APIProtocol@@6B@
rdata$r	SEGMENT
??_R4RadarRing@SC2APIProtocol@@6B@ DD 01H		; SC2APIProtocol::RadarRing::`RTTI Complete Object Locator'
	DD	00H
	DD	00H
	DD	imagerel ??_R0?AVRadarRing@SC2APIProtocol@@@8
	DD	imagerel ??_R3RadarRing@SC2APIProtocol@@8
	DD	imagerel ??_R4RadarRing@SC2APIProtocol@@6B@
rdata$r	ENDS
;	COMDAT ??_R1A@?0A@EA@PowerSource@SC2APIProtocol@@8
rdata$r	SEGMENT
??_R1A@?0A@EA@PowerSource@SC2APIProtocol@@8 DD imagerel ??_R0?AVPowerSource@SC2APIProtocol@@@8 ; SC2APIProtocol::PowerSource::`RTTI Base Class Descriptor at (0,-1,0,64)'
	DD	02H
	DD	00H
	DD	0ffffffffH
	DD	00H
	DD	040H
	DD	imagerel ??_R3PowerSource@SC2APIProtocol@@8
rdata$r	ENDS
;	COMDAT ??_R2PowerSource@SC2APIProtocol@@8
rdata$r	SEGMENT
??_R2PowerSource@SC2APIProtocol@@8 DD imagerel ??_R1A@?0A@EA@PowerSource@SC2APIProtocol@@8 ; SC2APIProtocol::PowerSource::`RTTI Base Class Array'
	DD	imagerel ??_R1A@?0A@EA@Message@protobuf@google@@8
	DD	imagerel ??_R1A@?0A@EA@MessageLite@protobuf@google@@8
	ORG $+3
rdata$r	ENDS
;	COMDAT ??_R3PowerSource@SC2APIProtocol@@8
rdata$r	SEGMENT
??_R3PowerSource@SC2APIProtocol@@8 DD 00H		; SC2APIProtocol::PowerSource::`RTTI Class Hierarchy Descriptor'
	DD	00H
	DD	03H
	DD	imagerel ??_R2PowerSource@SC2APIProtocol@@8
rdata$r	ENDS
;	COMDAT ??_R4PowerSource@SC2APIProtocol@@6B@
rdata$r	SEGMENT
??_R4PowerSource@SC2APIProtocol@@6B@ DD 01H		; SC2APIProtocol::PowerSource::`RTTI Complete Object Locator'
	DD	00H
	DD	00H
	DD	imagerel ??_R0?AVPowerSource@SC2APIProtocol@@@8
	DD	imagerel ??_R3PowerSource@SC2APIProtocol@@8
	DD	imagerel ??_R4PowerSource@SC2APIProtocol@@6B@
rdata$r	ENDS
;	COMDAT ??_R1A@?0A@EA@PassengerUnit@SC2APIProtocol@@8
rdata$r	SEGMENT
??_R1A@?0A@EA@PassengerUnit@SC2APIProtocol@@8 DD imagerel ??_R0?AVPassengerUnit@SC2APIProtocol@@@8 ; SC2APIProtocol::PassengerUnit::`RTTI Base Class Descriptor at (0,-1,0,64)'
	DD	02H
	DD	00H
	DD	0ffffffffH
	DD	00H
	DD	040H
	DD	imagerel ??_R3PassengerUnit@SC2APIProtocol@@8
rdata$r	ENDS
;	COMDAT ??_R2PassengerUnit@SC2APIProtocol@@8
rdata$r	SEGMENT
??_R2PassengerUnit@SC2APIProtocol@@8 DD imagerel ??_R1A@?0A@EA@PassengerUnit@SC2APIProtocol@@8 ; SC2APIProtocol::PassengerUnit::`RTTI Base Class Array'
	DD	imagerel ??_R1A@?0A@EA@Message@protobuf@google@@8
	DD	imagerel ??_R1A@?0A@EA@MessageLite@protobuf@google@@8
	ORG $+3
rdata$r	ENDS
;	COMDAT ??_R3PassengerUnit@SC2APIProtocol@@8
rdata$r	SEGMENT
??_R3PassengerUnit@SC2APIProtocol@@8 DD 00H		; SC2APIProtocol::PassengerUnit::`RTTI Class Hierarchy Descriptor'
	DD	00H
	DD	03H
	DD	imagerel ??_R2PassengerUnit@SC2APIProtocol@@8
rdata$r	ENDS
;	COMDAT ??_R4PassengerUnit@SC2APIProtocol@@6B@
rdata$r	SEGMENT
??_R4PassengerUnit@SC2APIProtocol@@6B@ DD 01H		; SC2APIProtocol::PassengerUnit::`RTTI Complete Object Locator'
	DD	00H
	DD	00H
	DD	imagerel ??_R0?AVPassengerUnit@SC2APIProtocol@@@8
	DD	imagerel ??_R3PassengerUnit@SC2APIProtocol@@8
	DD	imagerel ??_R4PassengerUnit@SC2APIProtocol@@6B@
rdata$r	ENDS
;	COMDAT ??_R1A@?0A@EA@MapState@SC2APIProtocol@@8
rdata$r	SEGMENT
??_R1A@?0A@EA@MapState@SC2APIProtocol@@8 DD imagerel ??_R0?AVMapState@SC2APIProtocol@@@8 ; SC2APIProtocol::MapState::`RTTI Base Class Descriptor at (0,-1,0,64)'
	DD	02H
	DD	00H
	DD	0ffffffffH
	DD	00H
	DD	040H
	DD	imagerel ??_R3MapState@SC2APIProtocol@@8
rdata$r	ENDS
;	COMDAT ??_R2MapState@SC2APIProtocol@@8
rdata$r	SEGMENT
??_R2MapState@SC2APIProtocol@@8 DD imagerel ??_R1A@?0A@EA@MapState@SC2APIProtocol@@8 ; SC2APIProtocol::MapState::`RTTI Base Class Array'
	DD	imagerel ??_R1A@?0A@EA@Message@protobuf@google@@8
	DD	imagerel ??_R1A@?0A@EA@MessageLite@protobuf@google@@8
	ORG $+3
rdata$r	ENDS
;	COMDAT ??_R3MapState@SC2APIProtocol@@8
rdata$r	SEGMENT
??_R3MapState@SC2APIProtocol@@8 DD 00H			; SC2APIProtocol::MapState::`RTTI Class Hierarchy Descriptor'
	DD	00H
	DD	03H
	DD	imagerel ??_R2MapState@SC2APIProtocol@@8
rdata$r	ENDS
;	COMDAT ??_R4MapState@SC2APIProtocol@@6B@
rdata$r	SEGMENT
??_R4MapState@SC2APIProtocol@@6B@ DD 01H		; SC2APIProtocol::MapState::`RTTI Complete Object Locator'
	DD	00H
	DD	00H
	DD	imagerel ??_R0?AVMapState@SC2APIProtocol@@@8
	DD	imagerel ??_R3MapState@SC2APIProtocol@@8
	DD	imagerel ??_R4MapState@SC2APIProtocol@@6B@
rdata$r	ENDS
;	COMDAT ??_R1A@?0A@EA@ActionRawCameraMove@SC2APIProtocol@@8
rdata$r	SEGMENT
??_R1A@?0A@EA@ActionRawCameraMove@SC2APIProtocol@@8 DD imagerel ??_R0?AVActionRawCameraMove@SC2APIProtocol@@@8 ; SC2APIProtocol::ActionRawCameraMove::`RTTI Base Class Descriptor at (0,-1,0,64)'
	DD	02H
	DD	00H
	DD	0ffffffffH
	DD	00H
	DD	040H
	DD	imagerel ??_R3ActionRawCameraMove@SC2APIProtocol@@8
rdata$r	ENDS
;	COMDAT ??_R2ActionRawCameraMove@SC2APIProtocol@@8
rdata$r	SEGMENT
??_R2ActionRawCameraMove@SC2APIProtocol@@8 DD imagerel ??_R1A@?0A@EA@ActionRawCameraMove@SC2APIProtocol@@8 ; SC2APIProtocol::ActionRawCameraMove::`RTTI Base Class Array'
	DD	imagerel ??_R1A@?0A@EA@Message@protobuf@google@@8
	DD	imagerel ??_R1A@?0A@EA@MessageLite@protobuf@google@@8
	ORG $+3
rdata$r	ENDS
;	COMDAT ??_R3ActionRawCameraMove@SC2APIProtocol@@8
rdata$r	SEGMENT
??_R3ActionRawCameraMove@SC2APIProtocol@@8 DD 00H	; SC2APIProtocol::ActionRawCameraMove::`RTTI Class Hierarchy Descriptor'
	DD	00H
	DD	03H
	DD	imagerel ??_R2ActionRawCameraMove@SC2APIProtocol@@8
rdata$r	ENDS
;	COMDAT ??_R4ActionRawCameraMove@SC2APIProtocol@@6B@
rdata$r	SEGMENT
??_R4ActionRawCameraMove@SC2APIProtocol@@6B@ DD 01H	; SC2APIProtocol::ActionRawCameraMove::`RTTI Complete Object Locator'
	DD	00H
	DD	00H
	DD	imagerel ??_R0?AVActionRawCameraMove@SC2APIProtocol@@@8
	DD	imagerel ??_R3ActionRawCameraMove@SC2APIProtocol@@8
	DD	imagerel ??_R4ActionRawCameraMove@SC2APIProtocol@@6B@
rdata$r	ENDS
;	COMDAT ??_R1A@?0A@EA@ActionRaw@SC2APIProtocol@@8
rdata$r	SEGMENT
??_R1A@?0A@EA@ActionRaw@SC2APIProtocol@@8 DD imagerel ??_R0?AVActionRaw@SC2APIProtocol@@@8 ; SC2APIProtocol::ActionRaw::`RTTI Base Class Descriptor at (0,-1,0,64)'
	DD	02H
	DD	00H
	DD	0ffffffffH
	DD	00H
	DD	040H
	DD	imagerel ??_R3ActionRaw@SC2APIProtocol@@8
rdata$r	ENDS
;	COMDAT ??_R2ActionRaw@SC2APIProtocol@@8
rdata$r	SEGMENT
??_R2ActionRaw@SC2APIProtocol@@8 DD imagerel ??_R1A@?0A@EA@ActionRaw@SC2APIProtocol@@8 ; SC2APIProtocol::ActionRaw::`RTTI Base Class Array'
	DD	imagerel ??_R1A@?0A@EA@Message@protobuf@google@@8
	DD	imagerel ??_R1A@?0A@EA@MessageLite@protobuf@google@@8
	ORG $+3
rdata$r	ENDS
;	COMDAT ??_R3ActionRaw@SC2APIProtocol@@8
rdata$r	SEGMENT
??_R3ActionRaw@SC2APIProtocol@@8 DD 00H			; SC2APIProtocol::ActionRaw::`RTTI Class Hierarchy Descriptor'
	DD	00H
	DD	03H
	DD	imagerel ??_R2ActionRaw@SC2APIProtocol@@8
rdata$r	ENDS
;	COMDAT ??_R4ActionRaw@SC2APIProtocol@@6B@
rdata$r	SEGMENT
??_R4ActionRaw@SC2APIProtocol@@6B@ DD 01H		; SC2APIProtocol::ActionRaw::`RTTI Complete Object Locator'
	DD	00H
	DD	00H
	DD	imagerel ??_R0?AVActionRaw@SC2APIProtocol@@@8
	DD	imagerel ??_R3ActionRaw@SC2APIProtocol@@8
	DD	imagerel ??_R4ActionRaw@SC2APIProtocol@@6B@
rdata$r	ENDS
;	COMDAT ??_R2MessageLite@protobuf@google@@8
rdata$r	SEGMENT
??_R2MessageLite@protobuf@google@@8 DD imagerel ??_R1A@?0A@EA@MessageLite@protobuf@google@@8 ; google::protobuf::MessageLite::`RTTI Base Class Array'
	ORG $+3
rdata$r	ENDS
;	COMDAT ??_R3MessageLite@protobuf@google@@8
rdata$r	SEGMENT
??_R3MessageLite@protobuf@google@@8 DD 00H		; google::protobuf::MessageLite::`RTTI Class Hierarchy Descriptor'
	DD	00H
	DD	01H
	DD	imagerel ??_R2MessageLite@protobuf@google@@8
rdata$r	ENDS
;	COMDAT ??_R0?AVMessageLite@protobuf@google@@@8
data$rs	SEGMENT
??_R0?AVMessageLite@protobuf@google@@@8 DQ FLAT:??_7type_info@@6B@ ; google::protobuf::MessageLite `RTTI Type Descriptor'
	DQ	0000000000000000H
	DB	'.?AVMessageLite@protobuf@google@@', 00H
data$rs	ENDS
;	COMDAT ??_R1A@?0A@EA@MessageLite@protobuf@google@@8
rdata$r	SEGMENT
??_R1A@?0A@EA@MessageLite@protobuf@google@@8 DD imagerel ??_R0?AVMessageLite@protobuf@google@@@8 ; google::protobuf::MessageLite::`RTTI Base Class Descriptor at (0,-1,0,64)'
	DD	00H
	DD	00H
	DD	0ffffffffH
	DD	00H
	DD	040H
	DD	imagerel ??_R3MessageLite@protobuf@google@@8
rdata$r	ENDS
;	COMDAT ??_R1A@?0A@EA@Message@protobuf@google@@8
rdata$r	SEGMENT
??_R1A@?0A@EA@Message@protobuf@google@@8 DD imagerel ??_R0?AVMessage@protobuf@google@@@8 ; google::protobuf::Message::`RTTI Base Class Descriptor at (0,-1,0,64)'
	DD	01H
	DD	00H
	DD	0ffffffffH
	DD	00H
	DD	040H
	DD	imagerel ??_R3Message@protobuf@google@@8
rdata$r	ENDS
;	COMDAT ??_R2Message@protobuf@google@@8
rdata$r	SEGMENT
??_R2Message@protobuf@google@@8 DD imagerel ??_R1A@?0A@EA@Message@protobuf@google@@8 ; google::protobuf::Message::`RTTI Base Class Array'
	DD	imagerel ??_R1A@?0A@EA@MessageLite@protobuf@google@@8
	ORG $+3
rdata$r	ENDS
;	COMDAT ??_R3Message@protobuf@google@@8
rdata$r	SEGMENT
??_R3Message@protobuf@google@@8 DD 00H			; google::protobuf::Message::`RTTI Class Hierarchy Descriptor'
	DD	00H
	DD	02H
	DD	imagerel ??_R2Message@protobuf@google@@8
rdata$r	ENDS
;	COMDAT ??_R0?AVMessage@protobuf@google@@@8
data$rs	SEGMENT
??_R0?AVMessage@protobuf@google@@@8 DQ FLAT:??_7type_info@@6B@ ; google::protobuf::Message `RTTI Type Descriptor'
	DQ	0000000000000000H
	DB	'.?AVMessage@protobuf@google@@', 00H
data$rs	ENDS
_DATA	SEGMENT
?descriptor_table_s2clientprotocol_2fraw_2eproto@@3UDescriptorTable@internal@protobuf@google@@B DB 00H ; descriptor_table_s2clientprotocol_2fraw_2eproto
	DB	00H
	ORG $+2
	DD	0d90H
	DQ	FLAT:?descriptor_table_protodef_s2clientprotocol_2fraw_2eproto@@3QBDB
	DQ	FLAT:$SG134621
	DQ	FLAT:?descriptor_table_s2clientprotocol_2fraw_2eproto_once@@3Uonce_flag@std@@A
	DQ	FLAT:?descriptor_table_s2clientprotocol_2fraw_2eproto_deps@@3QBQEBUDescriptorTable@internal@protobuf@google@@B
	DD	01H
	DD	010H
	DQ	FLAT:?schemas@@3QBUMigrationSchema@internal@protobuf@google@@B
	DQ	FLAT:?file_default_instances@@3QBQEBVMessage@protobuf@google@@B
	DQ	FLAT:?offsets@TableStruct_s2clientprotocol_2fraw_2eproto@@2QBIB
	DQ	FLAT:?file_level_metadata_s2clientprotocol_2fraw_2eproto@@3PAUMetadata@protobuf@google@@A
	DQ	FLAT:?file_level_enum_descriptors_s2clientprotocol_2fraw_2eproto@@3PAPEBVEnumDescriptor@protobuf@google@@A
	DQ	0000000000000000H
_DATA	ENDS
CONST	SEGMENT
$SG139447 DB	'vendor\s2clientprotocol\include\s2clientprotocol\raw.pb.'
	DB	'cc', 00H
	ORG $+5
$SG139448 DB	'CHECK failed: (&from) != (_this): ', 00H
	ORG $+1
$SG156820 DB	'%s', 00H
	ORG $+1
$SG139735 DB	'vendor\s2clientprotocol\include\s2clientprotocol\raw.pb.'
	DB	'cc', 00H
	ORG $+1
$SG156823 DB	00H, 00H
	ORG $+2
$SG139736 DB	'CHECK failed: (&from) != (_this): ', 00H
	ORG $+5
$SG139877 DB	'vendor\s2clientprotocol\include\s2clientprotocol\raw.pb.'
	DB	'cc', 00H
	ORG $+5
$SG139878 DB	'CHECK failed: _impl_.center_world_space_ != nullptr: ', 00H
	ORG $+2
$SG139942 DB	'vendor\s2clientprotocol\include\s2clientprotocol\raw.pb.'
	DB	'cc', 00H
	ORG $+5
$SG139943 DB	'CHECK failed: (&from) != (_this): ', 00H
	ORG $+5
$SG140121 DB	'vendor\s2clientprotocol\include\s2clientprotocol\raw.pb.'
	DB	'cc', 00H
	ORG $+5
$SG140122 DB	'CHECK failed: (&from) != (_this): ', 00H
	ORG $+5
$SG156819 DB	'invalid argument', 00H
	ORG $+7
$SG156821 DB	'D:\Program Files\Microsoft Visual Studio\2022\Community\'
	DB	'VC\Tools\MSVC\14.34.31933\include\xmemory', 00H
	ORG $+6
$SG156824 DB	'"', 00H, 'i', 00H, 'n', 00H, 'v', 00H, 'a', 00H, 'l', 00H
	DB	'i', 00H, 'd', 00H, ' ', 00H, 'a', 00H, 'r', 00H, 'g', 00H, 'u'
	DB	00H, 'm', 00H, 'e', 00H, 'n', 00H, 't', 00H, '"', 00H, 00H, 00H
	ORG $+2
$SG156822 DB	'D', 00H, ':', 00H, '\', 00H, 'P', 00H, 'r', 00H, 'o', 00H
	DB	'g', 00H, 'r', 00H, 'a', 00H, 'm', 00H, ' ', 00H, 'F', 00H, 'i'
	DB	00H, 'l', 00H, 'e', 00H, 's', 00H, '\', 00H, 'M', 00H, 'i', 00H
	DB	'c', 00H, 'r', 00H, 'o', 00H, 's', 00H, 'o', 00H, 'f', 00H, 't'
	DB	00H, ' ', 00H, 'V', 00H, 'i', 00H, 's', 00H, 'u', 00H, 'a', 00H
	DB	'l', 00H, ' ', 00H, 'S', 00H, 't', 00H, 'u', 00H, 'd', 00H, 'i'
	DB	00H, 'o', 00H, '\', 00H, '2', 00H, '0', 00H, '2', 00H, '2', 00H
	DB	'\', 00H, 'C', 00H, 'o', 00H, 'm', 00H, 'm', 00H, 'u', 00H, 'n'
	DB	00H, 'i', 00H, 't', 00H, 'y', 00H, '\', 00H, 'V', 00H, 'C', 00H
	DB	'\', 00H, 'T', 00H, 'o', 00H, 'o', 00H, 'l', 00H, 's', 00H, '\'
	DB	00H, 'M', 00H, 'S', 00H, 'V', 00H, 'C', 00H, '\', 00H, '1', 00H
	DB	'4', 00H, '.', 00H, '3', 00H, '4', 00H, '.', 00H, '3', 00H, '1'
	DB	00H, '9', 00H, '3', 00H, '3', 00H, '\', 00H, 'i', 00H, 'n', 00H
	DB	'c', 00H, 'l', 00H, 'u', 00H, 'd', 00H, 'e', 00H, '\', 00H, 'x'
	DB	00H, 'm', 00H, 'e', 00H, 'm', 00H, 'o', 00H, 'r', 00H, 'y', 00H
	DB	00H, 00H
	ORG $+4
?_class_data_@StartRaw@SC2APIProtocol@@2UClassData@Message@protobuf@google@@B DQ FLAT:?CopyWithSourceCheck@Message@protobuf@google@@KAXAEAV123@AEBV123@@Z ; SC2APIProtocol::StartRaw::_class_data_
	DQ	FLAT:?MergeImpl@StartRaw@SC2APIProtocol@@CAXAEAVMessage@protobuf@google@@AEBV345@@Z
?descriptor_table_s2clientprotocol_2fraw_2eproto_deps@@3QBQEBUDescriptorTable@internal@protobuf@google@@B DQ FLAT:?descriptor_table_s2clientprotocol_2fcommon_2eproto@@3UDescriptorTable@internal@protobuf@google@@B ; descriptor_table_s2clientprotocol_2fraw_2eproto_deps
?offsets@TableStruct_s2clientprotocol_2fraw_2eproto@@2QBIB DD 010H ; TableStruct_s2clientprotocol_2fraw_2eproto::offsets
	DD	08H
	DD	0ffffffffH
	DD	0ffffffffH
	DD	0ffffffffH
	DD	0ffffffffH
	DD	030H
	DD	038H
	DD	040H
	DD	048H
	DD	050H
	DD	018H
	DD	00H
	DD	01H
	DD	02H
	DD	03H
	DD	04H
	DD	0ffffffffH
	DD	010H
	DD	08H
	DD	0ffffffffH
	DD	0ffffffffH
	DD	0ffffffffH
	DD	0ffffffffH
	DD	060H
	DD	018H
	DD	068H
	DD	070H
	DD	030H
	DD	048H
	DD	00H
	DD	0ffffffffH
	DD	01H
	DD	02H
	DD	0ffffffffH
	DD	0ffffffffH
	DD	010H
	DD	08H
	DD	0ffffffffH
	DD	0ffffffffH
	DD	0ffffffffH
	DD	0ffffffffH
	DD	018H
	DD	020H
	DD	00H
	DD	01H
	DD	010H
	DD	08H
	DD	0ffffffffH
	DD	0ffffffffH
	DD	0ffffffffH
	DD	0ffffffffH
	DD	018H
	DD	028H
	DD	020H
	DD	00H
	DD	02H
	DD	01H
	DD	010H
	DD	08H
	DD	0ffffffffH
	DD	0ffffffffH
	DD	0ffffffffH
	DD	0ffffffffH
	DD	018H
	DD	040H
	DD	030H
	DD	0ffffffffH
	DD	00H
	DD	0ffffffffH
	DD	010H
	DD	08H
	DD	0ffffffffH
	DD	028H
	DD	0ffffffffH
	DD	0ffffffffH
	DD	018H
	DD	040000000H
	DD	040000000H
	DD	01cH
	DD	020H
	DD	00H
	DD	0ffffffffH
	DD	0ffffffffH
	DD	01H
	DD	010H
	DD	08H
	DD	0ffffffffH
	DD	0ffffffffH
	DD	0ffffffffH
	DD	0ffffffffH
	DD	018H
	DD	020H
	DD	024H
	DD	028H
	DD	034H
	DD	02cH
	DD	038H
	DD	030H
	DD	00H
	DD	01H
	DD	02H
	DD	03H
	DD	06H
	DD	04H
	DD	07H
	DD	05H
	DD	010H
	DD	08H
	DD	0ffffffffH
	DD	0ffffffffH
	DD	0ffffffffH
	DD	0ffffffffH
	DD	018H
	DD	020H
	DD	00H
	DD	01H
	DD	010H
	DD	08H
	DD	0ffffffffH
	DD	0ffffffffH
	DD	0ffffffffH
	DD	0ffffffffH
	DD	0108H
	DD	010cH
	DD	080H
	DD	088H
	DD	08cH
	DD	078H
	DD	090H
	DD	094H
	DD	098H
	DD	09cH
	DD	050H
	DD	0dcH
	DD	0e8H
	DD	0b0H
	DD	0b1H
	DD	0b2H
	DD	0b3H
	DD	0d4H
	DD	0f4H
	DD	0f8H
	DD	0fcH
	DD	0a0H
	DD	0a4H
	DD	0a8H
	DD	0ecH
	DD	0acH
	DD	0f0H
	DD	0b4H
	DD	0b8H
	DD	0d5H
	DD	0d6H
	DD	0d7H
	DD	020H
	DD	0c0H
	DD	038H
	DD	0bcH
	DD	0c8H
	DD	0ccH
	DD	0d0H
	DD	0d8H
	DD	0e0H
	DD	0100H
	DD	0104H
	DD	060H
	DD	026H
	DD	027H
	DD	01H
	DD	02H
	DD	03H
	DD	00H
	DD	04H
	DD	05H
	DD	06H
	DD	07H
	DD	0ffffffffH
	DD	01cH
	DD	01eH
	DD	0cH
	DD	0dH
	DD	0eH
	DD	0fH
	DD	017H
	DD	021H
	DD	022H
	DD	023H
	DD	08H
	DD	09H
	DD	0aH
	DD	01fH
	DD	0bH
	DD	020H
	DD	010H
	DD	011H
	DD	018H
	DD	019H
	DD	01aH
	DD	0ffffffffH
	DD	013H
	DD	0ffffffffH
	DD	012H
	DD	014H
	DD	015H
	DD	016H
	DD	01bH
	DD	01dH
	DD	024H
	DD	025H
	DD	0ffffffffH
	DD	010H
	DD	08H
	DD	0ffffffffH
	DD	0ffffffffH
	DD	0ffffffffH
	DD	0ffffffffH
	DD	018H
	DD	020H
	DD	00H
	DD	01H
	DD	0ffffffffH
	DD	08H
	DD	0ffffffffH
	DD	0ffffffffH
	DD	0ffffffffH
	DD	0ffffffffH
	DD	010H
	DD	010H
	DD	08H
	DD	0ffffffffH
	DD	0ffffffffH
	DD	0ffffffffH
	DD	0ffffffffH
	DD	030H
	DD	018H
	DD	03cH
	DD	034H
	DD	038H
	DD	00H
	DD	0ffffffffH
	DD	03H
	DD	01H
	DD	02H
	DD	0ffffffffH
	DD	08H
	DD	0ffffffffH
	DD	01cH
	DD	0ffffffffH
	DD	0ffffffffH
	DD	040000000H
	DD	040000000H
	DD	040000000H
	DD	010H
	DD	010H
	DD	08H
	DD	0ffffffffH
	DD	038H
	DD	0ffffffffH
	DD	0ffffffffH
	DD	028H
	DD	040000000H
	DD	040000000H
	DD	018H
	DD	02cH
	DD	030H
	DD	00H
	DD	0ffffffffH
	DD	0ffffffffH
	DD	0ffffffffH
	DD	01H
	DD	010H
	DD	08H
	DD	0ffffffffH
	DD	0ffffffffH
	DD	0ffffffffH
	DD	0ffffffffH
	DD	018H
	DD	00H
	DD	010H
	DD	08H
	DD	0ffffffffH
	DD	0ffffffffH
	DD	0ffffffffH
	DD	0ffffffffH
	DD	028H
	DD	018H
	DD	00H
	DD	0ffffffffH
	ORG $+4
?_class_data_@ObservationRaw@SC2APIProtocol@@2UClassData@Message@protobuf@google@@B DQ FLAT:?CopyWithSourceCheck@Message@protobuf@google@@KAXAEAV123@AEBV123@@Z ; SC2APIProtocol::ObservationRaw::_class_data_
	DQ	FLAT:?MergeImpl@ObservationRaw@SC2APIProtocol@@CAXAEAVMessage@protobuf@google@@AEBV345@@Z
?_class_data_@RadarRing@SC2APIProtocol@@2UClassData@Message@protobuf@google@@B DQ FLAT:?CopyWithSourceCheck@Message@protobuf@google@@KAXAEAV123@AEBV123@@Z ; SC2APIProtocol::RadarRing::_class_data_
	DQ	FLAT:?MergeImpl@RadarRing@SC2APIProtocol@@CAXAEAVMessage@protobuf@google@@AEBV345@@Z
?_class_data_@PowerSource@SC2APIProtocol@@2UClassData@Message@protobuf@google@@B DQ FLAT:?CopyWithSourceCheck@Message@protobuf@google@@KAXAEAV123@AEBV123@@Z ; SC2APIProtocol::PowerSource::_class_data_
	DQ	FLAT:?MergeImpl@PowerSource@SC2APIProtocol@@CAXAEAVMessage@protobuf@google@@AEBV345@@Z
?_class_data_@PlayerRaw@SC2APIProtocol@@2UClassData@Message@protobuf@google@@B DQ FLAT:?CopyWithSourceCheck@Message@protobuf@google@@KAXAEAV123@AEBV123@@Z ; SC2APIProtocol::PlayerRaw::_class_data_
	DQ	FLAT:?MergeImpl@PlayerRaw@SC2APIProtocol@@CAXAEAVMessage@protobuf@google@@AEBV345@@Z
$SG134869 DB	'CHECK failed: _impl_.terrain_height_ != nullptr: ', 00H
	ORG $+6
?schemas@@3QBUMigrationSchema@internal@protobuf@google@@B DD 00H ; schemas
	DD	0cH
	DD	0ffffffffH
	DD	058H
	DD	012H
	DD	01eH
	DD	0ffffffffH
	DD	078H
	DD	024H
	DD	02cH
	DD	0ffffffffH
	DD	028H
	DD	02eH
	DD	037H
	DD	0ffffffffH
	DD	030H
	DD	03aH
	DD	043H
	DD	0ffffffffH
	DD	048H
	DD	046H
	DD	051H
	DD	0ffffffffH
	DD	030H
	DD	055H
	DD	063H
	DD	0ffffffffH
	DD	040H
	DD	06bH
	DD	073H
	DD	0ffffffffH
	DD	028H
	DD	075H
	DD	0a7H
	DD	0ffffffffH
	DD	0110H
	DD	0d3H
	DD	0dbH
	DD	0ffffffffH
	DD	028H
	DD	0ddH
	DD	0ffffffffH
	DD	0ffffffffH
	DD	028H
	DD	0e4H
	DD	0efH
	DD	0ffffffffH
	DD	040H
	DD	0f4H
	DD	0ffffffffH
	DD	0ffffffffH
	DD	020H
	DD	0feH
	DD	010aH
	DD	0ffffffffH
	DD	040H
	DD	010fH
	DD	0116H
	DD	0ffffffffH
	DD	020H
	DD	0117H
	DD	011fH
	DD	0ffffffffH
	DD	030H
?file_default_instances@@3QBQEBVMessage@protobuf@google@@B DQ FLAT:?_StartRaw_default_instance_@SC2APIProtocol@@3UStartRawDefaultTypeInternal@1@A ; file_default_instances
	DQ	FLAT:?_ObservationRaw_default_instance_@SC2APIProtocol@@3UObservationRawDefaultTypeInternal@1@A
	DQ	FLAT:?_RadarRing_default_instance_@SC2APIProtocol@@3URadarRingDefaultTypeInternal@1@A
	DQ	FLAT:?_PowerSource_default_instance_@SC2APIProtocol@@3UPowerSourceDefaultTypeInternal@1@A
	DQ	FLAT:?_PlayerRaw_default_instance_@SC2APIProtocol@@3UPlayerRawDefaultTypeInternal@1@A
	DQ	FLAT:?_UnitOrder_default_instance_@SC2APIProtocol@@3UUnitOrderDefaultTypeInternal@1@A
	DQ	FLAT:?_PassengerUnit_default_instance_@SC2APIProtocol@@3UPassengerUnitDefaultTypeInternal@1@A
	DQ	FLAT:?_RallyTarget_default_instance_@SC2APIProtocol@@3URallyTargetDefaultTypeInternal@1@A
	DQ	FLAT:?_Unit_default_instance_@SC2APIProtocol@@3UUnitDefaultTypeInternal@1@A
	DQ	FLAT:?_MapState_default_instance_@SC2APIProtocol@@3UMapStateDefaultTypeInternal@1@A
	DQ	FLAT:?_Event_default_instance_@SC2APIProtocol@@3UEventDefaultTypeInternal@1@A
	DQ	FLAT:?_Effect_default_instance_@SC2APIProtocol@@3UEffectDefaultTypeInternal@1@A
	DQ	FLAT:?_ActionRaw_default_instance_@SC2APIProtocol@@3UActionRawDefaultTypeInternal@1@A
	DQ	FLAT:?_ActionRawUnitCommand_default_instance_@SC2APIProtocol@@3UActionRawUnitCommandDefaultTypeInternal@1@A
	DQ	FLAT:?_ActionRawCameraMove_default_instance_@SC2APIProtocol@@3UActionRawCameraMoveDefaultTypeInternal@1@A
	DQ	FLAT:?_ActionRawToggleAutocast_default_instance_@SC2APIProtocol@@3UActionRawToggleAutocastDefaultTypeInternal@1@A
?descriptor_table_protodef_s2clientprotocol_2fraw_2eproto@@3QBDB DB 0aH, 01aH
	DB	's2clientprotocol/raw.proto', 012H, 0eH, 'SC2APIProtocol', 01aH
	DB	01dH, 's2clientprotocol/common.proto"', 0b1H, 02H, 0aH, 08H, 'S'
	DB	'tartRaw', 012H, ')', 0aH, 08H, 'map_size', 018H, 01H, ' ', 01H
	DB	'(', 0bH, '2', 017H, '.SC2APIProtocol.Size2DI', 012H, '/', 0aH
	DB	0cH, 'pathing_grid', 018H, 02H, ' ', 01H, '(', 0bH, '2', 019H, '.'
	DB	'SC2APIProtocol.ImageData', 012H, '1', 0aH, 0eH, 'terrain_heig'
	DB	'ht', 018H, 03H, ' ', 01H, '(', 0bH, '2', 019H, '.SC2APIProtoc'
	DB	'ol.ImageData', 012H, '1', 0aH, 0eH, 'placement_grid', 018H, 04H
	DB	' ', 01H, '(', 0bH, '2', 019H, '.SC2APIProtocol.ImageData', 012H
	DB	'1', 0aH, 0dH, 'playable_area', 018H, 05H, ' ', 01H, '(', 0bH, '2'
	DB	01aH, '.SC2APIProtocol.RectangleI', 012H, '0', 0aH, 0fH, 'star'
	DB	't_locations', 018H, 06H, ' ', 03H, '(', 0bH, '2', 017H, '.SC2'
	DB	'APIProtocol.Point2D"', 086H, 02H, 0aH, 0eH, 'ObservationRaw', 012H
	DB	')', 0aH, 06H, 'player', 018H, 01H, ' ', 01H, '(', 0bH, '2', 019H
	DB	'.SC2APIProtocol.PlayerRaw', 012H, '#', 0aH, 05H, 'units', 018H
	DB	02H, ' ', 03H, '(', 0bH, '2', 014H, '.SC2APIProtocol.Unit', 012H
	DB	'+', 0aH, 09H, 'map_state', 018H, 03H, ' ', 01H, '(', 0bH, '2', 018H
	DB	'.SC2APIProtocol.MapState', 012H, '$', 0aH, 05H, 'event', 018H
	DB	04H, ' ', 01H, '(', 0bH, '2', 015H, '.SC2APIProtocol.Event', 012H
	DB	'''', 0aH, 07H, 'effects', 018H, 05H, ' ', 03H, '(', 0bH, '2', 016H
	DB	'.SC2APIProtocol.Effect', 012H, '(', 0aH, 05H, 'radar', 018H, 06H
	DB	' ', 03H, '(', 0bH, '2', 019H, '.SC2APIProtocol.RadarRing"?', 0aH
	DB	09H, 'RadarRing', 012H, '"', 0aH, 03H, 'pos', 018H, 01H, ' ', 01H
	DB	'(', 0bH, '2', 015H, '.SC2APIProtocol.Point', 012H, 0eH, 0aH, 06H
	DB	'radius', 018H, 02H, ' ', 01H, '(', 02H, '"N', 0aH, 0bH, 'Powe'
	DB	'rSource', 012H, '"', 0aH, 03H, 'pos', 018H, 01H, ' ', 01H, '('
	DB	0bH, '2', 015H, '.SC2APIProtocol.Point', 012H, 0eH, 0aH, 06H, 'r'
	DB	'adius', 018H, 02H, ' ', 01H, '(', 02H, 012H, 0bH, 0aH, 03H, 't'
	DB	'ag', 018H, 03H, ' ', 01H, '(', 04H, '"{', 0aH, 09H, 'PlayerRa'
	DB	'w', 012H, '2', 0aH, 0dH, 'power_sources', 018H, 01H, ' ', 03H
	DB	'(', 0bH, '2', 01bH, '.SC2APIProtocol.PowerSource', 012H, '%', 0aH
	DB	06H, 'camera', 018H, 02H, ' ', 01H, '(', 0bH, '2', 015H, '.SC2'
	DB	'APIProtocol.Point', 012H, 013H, 0aH, 0bH, 'upgrade_ids', 018H
	DB	03H, ' ', 03H, '(', 0dH, '"', 08fH, 01H, 0aH, 09H, 'UnitOrder', 012H
	DB	012H, 0aH, 0aH, 'ability_id', 018H, 01H, ' ', 01H, '(', 0dH, 012H
	DB	'7', 0aH, 016H, 'target_world_space_pos', 018H, 02H, ' ', 01H, '('
	DB	0bH, '2', 015H, '.SC2APIProtocol.PointH', 00H, 012H, 019H, 0aH
	DB	0fH, 'target_unit_tag', 018H, 03H, ' ', 01H, '(', 04H, 'H', 00H
	DB	012H, 010H, 0aH, 08H, 'progress', 018H, 04H, ' ', 01H, '(', 02H
	DB	'B', 08H, 0aH, 06H, 'target"', 09bH, 01H, 0aH, 0dH, 'Passenger'
	DB	'Unit', 012H, 0bH, 0aH, 03H, 'tag', 018H, 01H, ' ', 01H, '(', 04H
	DB	012H, 0eH, 0aH, 06H, 'health', 018H, 02H, ' ', 01H, '(', 02H, 012H
	DB	012H, 0aH, 0aH, 'health_max', 018H, 03H, ' ', 01H, '(', 02H, 012H
	DB	0eH, 0aH, 06H, 'shield', 018H, 04H, ' ', 01H, '(', 02H, 012H, 012H
	DB	0aH, 0aH, 'shield_max', 018H, 07H, ' ', 01H, '(', 02H, 012H, 0eH
	DB	0aH, 06H, 'energy', 018H, 05H, ' ', 01H, '(', 02H, 012H, 012H, 0aH
	DB	0aH, 'energy_max', 018H, 08H, ' ', 01H, '(', 02H, 012H, 011H, 0aH
	DB	09H, 'unit_type', 018H, 06H, ' ', 01H, '(', 0dH, '"@', 0aH, 0bH
	DB	'RallyTarget', 012H, '$', 0aH, 05H, 'point', 018H, 01H, ' ', 01H
	DB	'(', 0bH, '2', 015H, '.SC2APIProtocol.Point', 012H, 0bH, 0aH, 03H
	DB	'tag', 018H, 02H, ' ', 01H, '(', 04H, '"', 0f5H, 08H, 0aH, 04H
	DB	'Unit', 012H, '1', 0aH, 0cH, 'display_type', 018H, 01H, ' ', 01H
	DB	'(', 0eH, '2', 01bH, '.SC2APIProtocol.DisplayType', 012H, '*', 0aH
	DB	08H, 'alliance', 018H, 02H, ' ', 01H, '(', 0eH, '2', 018H, '.S'
	DB	'C2APIProtocol.Alliance', 012H, 0bH, 0aH, 03H, 'tag', 018H, 03H
	DB	' ', 01H, '(', 04H, 012H, 011H, 0aH, 09H, 'unit_type', 018H, 04H
	DB	' ', 01H, '(', 0dH, 012H, 0dH, 0aH, 05H, 'owner', 018H, 05H, ' '
	DB	01H, '(', 05H, 012H, '"', 0aH, 03H, 'pos', 018H, 06H, ' ', 01H
	DB	'(', 0bH, '2', 015H, '.SC2APIProtocol.Point', 012H, 0eH, 0aH, 06H
	DB	'facing', 018H, 07H, ' ', 01H, '(', 02H, 012H, 0eH, 0aH, 06H, 'r'
	DB	'adius', 018H, 08H, ' ', 01H, '(', 02H, 012H, 016H, 0aH, 0eH, 'b'
	DB	'uild_progress', 018H, 09H, ' ', 01H, '(', 02H, 012H, ')', 0aH
	DB	05H, 'cloak', 018H, 0aH, ' ', 01H, '(', 0eH, '2', 01aH, '.SC2A'
	DB	'PIProtocol.CloakState', 012H, 010H, 0aH, 08H, 'buff_ids', 018H
	DB	01bH, ' ', 03H, '(', 0dH, 012H, 014H, 0aH, 0cH, 'detect_range', 018H
	DB	01fH, ' ', 01H, '(', 02H, 012H, 013H, 0aH, 0bH, 'radar_range', 018H
	DB	'  ', 01H, '(', 02H, 012H, 013H, 0aH, 0bH, 'is_selected', 018H
	DB	0bH, ' ', 01H, '(', 08H, 012H, 014H, 0aH, 0cH, 'is_on_screen', 018H
	DB	0cH, ' ', 01H, '(', 08H, 012H, 0fH, 0aH, 07H, 'is_blip', 018H, 0dH
	DB	' ', 01H, '(', 08H, 012H, 012H, 0aH, 0aH, 'is_powered', 018H, '#'
	DB	' ', 01H, '(', 08H, 012H, 011H, 0aH, 09H, 'is_active', 018H, ''''
	DB	' ', 01H, '(', 08H, 012H, 01cH, 0aH, 014H, 'attack_upgrade_lev'
	DB	'el', 018H, '( ', 01H, '(', 05H, 012H, 01bH, 0aH, 013H, 'armor'
	DB	'_upgrade_level', 018H, ') ', 01H, '(', 05H, 012H, 01cH, 0aH, 014H
	DB	'shield_upgrade_level', 018H, '* ', 01H, '(', 05H, 012H, 0eH, 0aH
	DB	06H, 'health', 018H, 0eH, ' ', 01H, '(', 02H, 012H, 012H, 0aH, 0aH
	DB	'health_max', 018H, 0fH, ' ', 01H, '(', 02H, 012H, 0eH, 0aH, 06H
	DB	'shield', 018H, 010H, ' ', 01H, '(', 02H, 012H, 012H, 0aH, 0aH
	DB	'shield_max', 018H, '$ ', 01H, '(', 02H, 012H, 0eH, 0aH, 06H, 'e'
	DB	'nergy', 018H, 011H, ' ', 01H, '(', 02H, 012H, 012H, 0aH, 0aH, 'e'
	DB	'nergy_max', 018H, '% ', 01H, '(', 02H, 012H, 018H, 0aH, 010H, 'm'
	DB	'ineral_contents', 018H, 012H, ' ', 01H, '(', 05H, 012H, 018H, 0aH
	DB	010H, 'vespene_contents', 018H, 013H, ' ', 01H, '(', 05H, 012H
	DB	011H, 0aH, 09H, 'is_flying', 018H, 014H, ' ', 01H, '(', 08H, 012H
	DB	013H, 0aH, 0bH, 'is_burrowed', 018H, 015H, ' ', 01H, '(', 08H, 012H
	DB	018H, 0aH, 010H, 'is_hallucination', 018H, '& ', 01H, '(', 08H
	DB	012H, ')', 0aH, 06H, 'orders', 018H, 016H, ' ', 03H, '(', 0bH, '2'
	DB	019H, '.SC2APIProtocol.UnitOrder', 012H, 012H, 0aH, 0aH, 'add_'
	DB	'on_tag', 018H, 017H, ' ', 01H, '(', 04H, 012H, '1', 0aH, 0aH, 'p'
	DB	'assengers', 018H, 018H, ' ', 03H, '(', 0bH, '2', 01dH, '.SC2A'
	DB	'PIProtocol.PassengerUnit', 012H, 019H, 0aH, 011H, 'cargo_spac'
	DB	'e_taken', 018H, 019H, ' ', 01H, '(', 05H, 012H, 017H, 0aH, 0fH
	DB	'cargo_space_max', 018H, 01aH, ' ', 01H, '(', 05H, 012H, 01bH, 0aH
	DB	013H, 'assigned_harvesters', 018H, 01cH, ' ', 01H, '(', 05H, 012H
	DB	018H, 0aH, 010H, 'ideal_harvesters', 018H, 01dH, ' ', 01H, '(', 05H
	DB	012H, 017H, 0aH, 0fH, 'weapon_cooldown', 018H, 01eH, ' ', 01H, '('
	DB	02H, 012H, 01aH, 0aH, 012H, 'engaged_target_tag', 018H, '" ', 01H
	DB	'(', 04H, 012H, 01cH, 0aH, 014H, 'buff_duration_remain', 018H, '+'
	DB	' ', 01H, '(', 05H, 012H, 019H, 0aH, 011H, 'buff_duration_max', 018H
	DB	', ', 01H, '(', 05H, 012H, '2', 0aH, 0dH, 'rally_targets', 018H
	DB	'- ', 03H, '(', 0bH, '2', 01bH, '.SC2APIProtocol.RallyTarget"c'
	DB	0aH, 08H, 'MapState', 012H, '-', 0aH, 0aH, 'visibility', 018H, 01H
	DB	' ', 01H, '(', 0bH, '2', 019H, '.SC2APIProtocol.ImageData', 012H
	DB	'(', 0aH, 05H, 'creep', 018H, 02H, ' ', 01H, '(', 0bH, '2', 019H
	DB	'.SC2APIProtocol.ImageData"', 01bH, 0aH, 05H, 'Event', 012H, 012H
	DB	0aH, 0aH, 'dead_units', 018H, 01H, ' ', 03H, '(', 04H, '"', 08cH
	DB	01H, 0aH, 06H, 'Effect', 012H, 011H, 0aH, 09H, 'effect_id', 018H
	DB	01H, ' ', 01H, '(', 0dH, 012H, '$', 0aH, 03H, 'pos', 018H, 02H
	DB	' ', 03H, '(', 0bH, '2', 017H, '.SC2APIProtocol.Point2D', 012H
	DB	'*', 0aH, 08H, 'alliance', 018H, 03H, ' ', 01H, '(', 0eH, '2', 018H
	DB	'.SC2APIProtocol.Alliance', 012H, 0dH, 0aH, 05H, 'owner', 018H
	DB	04H, ' ', 01H, '(', 05H, 012H, 0eH, 0aH, 06H, 'radius', 018H, 05H
	DB	' ', 01H, '(', 02H, '"', 0d3H, 01H, 0aH, 09H, 'ActionRaw', 012H
	DB	'<', 0aH, 0cH, 'unit_command', 018H, 01H, ' ', 01H, '(', 0bH, '2'
	DB	'$.SC2APIProtocol.ActionRawUnitCommandH', 00H, 012H, ':', 0aH, 0bH
	DB	'camera_move', 018H, 02H, ' ', 01H, '(', 0bH, '2#.SC2APIProtoc'
	DB	'ol.ActionRawCameraMoveH', 00H, 012H, 'B', 0aH, 0fH, 'toggle_a'
	DB	'utocast', 018H, 03H, ' ', 01H, '(', 0bH, '2''.SC2APIProtocol.'
	DB	'ActionRawToggleAutocastH', 00H, 'B', 08H, 0aH, 06H, 'action"', 0b4H
	DB	01H, 0aH, 014H, 'ActionRawUnitCommand', 012H, 012H, 0aH, 0aH, 'a'
	DB	'bility_id', 018H, 01H, ' ', 01H, '(', 05H, 012H, '9', 0aH, 016H
	DB	'target_world_space_pos', 018H, 02H, ' ', 01H, '(', 0bH, '2', 017H
	DB	'.SC2APIProtocol.Point2DH', 00H, 012H, 019H, 0aH, 0fH, 'target'
	DB	'_unit_tag', 018H, 03H, ' ', 01H, '(', 04H, 'H', 00H, 012H, 011H
	DB	0aH, 09H, 'unit_tags', 018H, 04H, ' ', 03H, '(', 04H, 012H, 015H
	DB	0aH, 0dH, 'queue_command', 018H, 05H, ' ', 01H, '(', 08H, 'B', 08H
	DB	0aH, 06H, 'target"H', 0aH, 013H, 'ActionRawCameraMove', 012H, '1'
	DB	0aH, 012H, 'center_world_space', 018H, 01H, ' ', 01H, '(', 0bH
	DB	'2', 015H, '.SC2APIProtocol.Point"@', 0aH, 017H, 'ActionRawTog'
	DB	'gleAutocast', 012H, 012H, 0aH, 0aH, 'ability_id', 018H, 01H, ' '
	DB	01H, '(', 05H, 012H, 011H, 0aH, 09H, 'unit_tags', 018H, 02H, ' '
	DB	03H, '(', 04H, '*E', 0aH, 0bH, 'DisplayType', 012H, 0bH, 0aH, 07H
	DB	'Visible', 010H, 01H, 012H, 0cH, 0aH, 08H, 'Snapshot', 010H, 02H
	DB	012H, 0aH, 0aH, 06H, 'Hidden', 010H, 03H, 012H, 0fH, 0aH, 0bH, 'P'
	DB	'laceholder', 010H, 04H, '*6', 0aH, 08H, 'Alliance', 012H, 08H
	DB	0aH, 04H, 'Self', 010H, 01H, 012H, 08H, 0aH, 04H, 'Ally', 010H
	DB	02H, 012H, 0bH, 0aH, 07H, 'Neutral', 010H, 03H, 012H, 09H, 0aH
	DB	05H, 'Enemy', 010H, 04H, '*e', 0aH, 0aH, 'CloakState', 012H, 012H
	DB	0aH, 0eH, 'CloakedUnknown', 010H, 00H, 012H, 0bH, 0aH, 07H, 'C'
	DB	'loaked', 010H, 01H, 012H, 013H, 0aH, 0fH, 'CloakedDetected', 010H
	DB	02H, 012H, 0eH, 0aH, 0aH, 'NotCloaked', 010H, 03H, 012H, 011H, 0aH
	DB	0dH, 'CloakedAllied', 010H, 04H, 00H		; descriptor_table_protodef_s2clientprotocol_2fraw_2eproto
	ORG $+7
$SG134621 DB	's2clientprotocol/raw.proto', 00H
	ORG $+5
?_class_data_@UnitOrder@SC2APIProtocol@@2UClassData@Message@protobuf@google@@B DQ FLAT:?CopyWithSourceCheck@Message@protobuf@google@@KAXAEAV123@AEBV123@@Z ; SC2APIProtocol::UnitOrder::_class_data_
	DQ	FLAT:?MergeImpl@UnitOrder@SC2APIProtocol@@CAXAEAVMessage@protobuf@google@@AEBV345@@Z
$SG134862 DB	'vendor\s2clientprotocol\include\s2clientprotocol\raw.pb.'
	DB	'cc', 00H
	ORG $+5
$SG134863 DB	'CHECK failed: _impl_.map_size_ != nullptr: ', 00H
	ORG $+4
$SG134865 DB	'vendor\s2clientprotocol\include\s2clientprotocol\raw.pb.'
	DB	'cc', 00H
	ORG $+5
$SG134866 DB	'CHECK failed: _impl_.pathing_grid_ != nullptr: ', 00H
$SG134868 DB	'vendor\s2clientprotocol\include\s2clientprotocol\raw.pb.'
	DB	'cc', 00H
	ORG $+5
$SG134871 DB	'vendor\s2clientprotocol\include\s2clientprotocol\raw.pb.'
	DB	'cc', 00H
	ORG $+5
$SG134872 DB	'CHECK failed: _impl_.placement_grid_ != nullptr: ', 00H
	ORG $+6
$SG134874 DB	'vendor\s2clientprotocol\include\s2clientprotocol\raw.pb.'
	DB	'cc', 00H
	ORG $+5
$SG134875 DB	'CHECK failed: _impl_.playable_area_ != nullptr: ', 00H
	ORG $+7
?_class_data_@PassengerUnit@SC2APIProtocol@@2UClassData@Message@protobuf@google@@B DQ FLAT:?CopyWithSourceCheck@Message@protobuf@google@@KAXAEAV123@AEBV123@@Z ; SC2APIProtocol::PassengerUnit::_class_data_
	DQ	FLAT:?MergeImpl@PassengerUnit@SC2APIProtocol@@CAXAEAVMessage@protobuf@google@@AEBV345@@Z
$SG135126 DB	'vendor\s2clientprotocol\include\s2clientprotocol\raw.pb.'
	DB	'cc', 00H
	ORG $+5
$SG135127 DB	'CHECK failed: (&from) != (_this): ', 00H
	ORG $+5
?_class_data_@RallyTarget@SC2APIProtocol@@2UClassData@Message@protobuf@google@@B DQ FLAT:?CopyWithSourceCheck@Message@protobuf@google@@KAXAEAV123@AEBV123@@Z ; SC2APIProtocol::RallyTarget::_class_data_
	DQ	FLAT:?MergeImpl@RallyTarget@SC2APIProtocol@@CAXAEAVMessage@protobuf@google@@AEBV345@@Z
$SG135321 DB	'vendor\s2clientprotocol\include\s2clientprotocol\raw.pb.'
	DB	'cc', 00H
	ORG $+5
$SG135322 DB	'CHECK failed: _impl_.player_ != nullptr: ', 00H
	ORG $+6
$SG135324 DB	'vendor\s2clientprotocol\include\s2clientprotocol\raw.pb.'
	DB	'cc', 00H
	ORG $+5
$SG135325 DB	'CHECK failed: _impl_.map_state_ != nullptr: ', 00H
	ORG $+3
$SG135327 DB	'vendor\s2clientprotocol\include\s2clientprotocol\raw.pb.'
	DB	'cc', 00H
	ORG $+5
$SG135328 DB	'CHECK failed: _impl_.event_ != nullptr: ', 00H
	ORG $+7
?_class_data_@Unit@SC2APIProtocol@@2UClassData@Message@protobuf@google@@B DQ FLAT:?CopyWithSourceCheck@Message@protobuf@google@@KAXAEAV123@AEBV123@@Z ; SC2APIProtocol::Unit::_class_data_
	DQ	FLAT:?MergeImpl@Unit@SC2APIProtocol@@CAXAEAVMessage@protobuf@google@@AEBV345@@Z
$SG135830 DB	'vendor\s2clientprotocol\include\s2clientprotocol\raw.pb.'
	DB	'cc', 00H
	ORG $+5
$SG135831 DB	'CHECK failed: (&from) != (_this): ', 00H
	ORG $+5
$SG135963 DB	'vendor\s2clientprotocol\include\s2clientprotocol\raw.pb.'
	DB	'cc', 00H
	ORG $+5
$SG135964 DB	'CHECK failed: _impl_.pos_ != nullptr: ', 00H
	ORG $+1
$SG136045 DB	'vendor\s2clientprotocol\include\s2clientprotocol\raw.pb.'
	DB	'cc', 00H
	ORG $+5
$SG136046 DB	'CHECK failed: (&from) != (_this): ', 00H
	ORG $+5
$SG136182 DB	'vendor\s2clientprotocol\include\s2clientprotocol\raw.pb.'
	DB	'cc', 00H
	ORG $+5
$SG136183 DB	'CHECK failed: _impl_.pos_ != nullptr: ', 00H
	ORG $+1
$SG136266 DB	'vendor\s2clientprotocol\include\s2clientprotocol\raw.pb.'
	DB	'cc', 00H
	ORG $+5
$SG136267 DB	'CHECK failed: (&from) != (_this): ', 00H
	ORG $+5
$SG136400 DB	'vendor\s2clientprotocol\include\s2clientprotocol\raw.pb.'
	DB	'cc', 00H
	ORG $+5
$SG136401 DB	'CHECK failed: _impl_.camera_ != nullptr: ', 00H
	ORG $+6
?_class_data_@MapState@SC2APIProtocol@@2UClassData@Message@protobuf@google@@B DQ FLAT:?CopyWithSourceCheck@Message@protobuf@google@@KAXAEAV123@AEBV123@@Z ; SC2APIProtocol::MapState::_class_data_
	DQ	FLAT:?MergeImpl@MapState@SC2APIProtocol@@CAXAEAVMessage@protobuf@google@@AEBV345@@Z
$SG136630 DB	'vendor\s2clientprotocol\include\s2clientprotocol\raw.pb.'
	DB	'cc', 00H
	ORG $+5
$SG136631 DB	'CHECK failed: (&from) != (_this): ', 00H
	ORG $+5
?_class_data_@Event@SC2APIProtocol@@2UClassData@Message@protobuf@google@@B DQ FLAT:?CopyWithSourceCheck@Message@protobuf@google@@KAXAEAV123@AEBV123@@Z ; SC2APIProtocol::Event::_class_data_
	DQ	FLAT:?MergeImpl@Event@SC2APIProtocol@@CAXAEAVMessage@protobuf@google@@AEBV345@@Z
?_class_data_@Effect@SC2APIProtocol@@2UClassData@Message@protobuf@google@@B DQ FLAT:?CopyWithSourceCheck@Message@protobuf@google@@KAXAEAV123@AEBV123@@Z ; SC2APIProtocol::Effect::_class_data_
	DQ	FLAT:?MergeImpl@Effect@SC2APIProtocol@@CAXAEAVMessage@protobuf@google@@AEBV345@@Z
$SG136876 DB	'vendor\s2clientprotocol\include\s2clientprotocol\raw.pb.'
	DB	'cc', 00H
	ORG $+5
$SG136877 DB	'CHECK failed: (&from) != (_this): ', 00H
	ORG $+5
?_class_data_@ActionRaw@SC2APIProtocol@@2UClassData@Message@protobuf@google@@B DQ FLAT:?CopyWithSourceCheck@Message@protobuf@google@@KAXAEAV123@AEBV123@@Z ; SC2APIProtocol::ActionRaw::_class_data_
	DQ	FLAT:?MergeImpl@ActionRaw@SC2APIProtocol@@CAXAEAVMessage@protobuf@google@@AEBV345@@Z
$SG137148 DB	'vendor\s2clientprotocol\include\s2clientprotocol\raw.pb.'
	DB	'cc', 00H
	ORG $+5
$SG137149 DB	'CHECK failed: (&from) != (_this): ', 00H
	ORG $+5
$SG137282 DB	'vendor\s2clientprotocol\include\s2clientprotocol\raw.pb.'
	DB	'cc', 00H
	ORG $+5
$SG137283 DB	'CHECK failed: _impl_.point_ != nullptr: ', 00H
	ORG $+7
?_class_data_@ActionRawUnitCommand@SC2APIProtocol@@2UClassData@Message@protobuf@google@@B DQ FLAT:?CopyWithSourceCheck@Message@protobuf@google@@KAXAEAV123@AEBV123@@Z ; SC2APIProtocol::ActionRawUnitCommand::_class_data_
	DQ	FLAT:?MergeImpl@ActionRawUnitCommand@SC2APIProtocol@@CAXAEAVMessage@protobuf@google@@AEBV345@@Z
$SG137357 DB	'vendor\s2clientprotocol\include\s2clientprotocol\raw.pb.'
	DB	'cc', 00H
	ORG $+5
$SG137358 DB	'CHECK failed: (&from) != (_this): ', 00H
	ORG $+5
?_class_data_@ActionRawCameraMove@SC2APIProtocol@@2UClassData@Message@protobuf@google@@B DQ FLAT:?CopyWithSourceCheck@Message@protobuf@google@@KAXAEAV123@AEBV123@@Z ; SC2APIProtocol::ActionRawCameraMove::_class_data_
	DQ	FLAT:?MergeImpl@ActionRawCameraMove@SC2APIProtocol@@CAXAEAVMessage@protobuf@google@@AEBV345@@Z
$SG137629 DB	'vendor\s2clientprotocol\include\s2clientprotocol\raw.pb.'
	DB	'cc', 00H
	ORG $+5
$SG137630 DB	'CHECK failed: _impl_.pos_ != nullptr: ', 00H
	ORG $+1
?_class_data_@ActionRawToggleAutocast@SC2APIProtocol@@2UClassData@Message@protobuf@google@@B DQ FLAT:?CopyWithSourceCheck@Message@protobuf@google@@KAXAEAV123@AEBV123@@Z ; SC2APIProtocol::ActionRawToggleAutocast::_class_data_
	DQ	FLAT:?MergeImpl@ActionRawToggleAutocast@SC2APIProtocol@@CAXAEAVMessage@protobuf@google@@AEBV345@@Z
$SG146620 DB	'W:\cpp\void\alistar\tests\vendor\protobuf\src\google/pro'
	DB	'tobuf/wire_format_lite.h', 00H
	ORG $+7
$SG138493 DB	'vendor\s2clientprotocol\include\s2clientprotocol\raw.pb.'
	DB	'cc', 00H
	ORG $+5
$SG138494 DB	'CHECK failed: (&from) != (_this): ', 00H
	ORG $+5
$SG146621 DB	'CHECK failed: (UInt32Size(tag)) == (static_cast<size_t>('
	DB	'tag_size)): ', 00H
	ORG $+3
$SG138683 DB	'CHECK failed: _impl_.visibility_ != nullptr: ', 00H
	ORG $+2
$SG138761 DB	'CHECK failed: (&from) != (_this): ', 00H
	ORG $+5
$SG146644 DB	'W:\cpp\void\alistar\tests\vendor\protobuf\src\google/pro'
	DB	'tobuf/wire_format_lite.h', 00H
	ORG $+7
$SG138682 DB	'vendor\s2clientprotocol\include\s2clientprotocol\raw.pb.'
	DB	'cc', 00H
	ORG $+5
$SG138937 DB	'CHECK failed: (&from) != (_this): ', 00H
	ORG $+5
$SG146645 DB	'CHECK failed: (UInt32Size(tag)) == (static_cast<size_t>('
	DB	'tag_size)): ', 00H
	ORG $+3
$SG139167 DB	'CHECK failed: (&from) != (_this): ', 00H
	ORG $+5
$SG146668 DB	'W:\cpp\void\alistar\tests\vendor\protobuf\src\google/pro'
	DB	'tobuf/wire_format_lite.h', 00H
	ORG $+7
$SG138685 DB	'vendor\s2clientprotocol\include\s2clientprotocol\raw.pb.'
	DB	'cc', 00H
	ORG $+13
$SG146669 DB	'CHECK failed: (UInt32Size(tag)) == (static_cast<size_t>('
	DB	'tag_size)): ', 00H
	ORG $+11
$SG146692 DB	'W:\cpp\void\alistar\tests\vendor\protobuf\src\google/pro'
	DB	'tobuf/wire_format_lite.h', 00H
	ORG $+15
$SG146693 DB	'CHECK failed: (UInt32Size(tag)) == (static_cast<size_t>('
	DB	'tag_size)): ', 00H
	ORG $+11
$SG146716 DB	'W:\cpp\void\alistar\tests\vendor\protobuf\src\google/pro'
	DB	'tobuf/wire_format_lite.h', 00H
	ORG $+15
$SG146717 DB	'CHECK failed: (UInt32Size(tag)) == (static_cast<size_t>('
	DB	'tag_size)): ', 00H
	ORG $+11
$SG146740 DB	'W:\cpp\void\alistar\tests\vendor\protobuf\src\google/pro'
	DB	'tobuf/wire_format_lite.h', 00H
	ORG $+15
$SG146741 DB	'CHECK failed: (UInt32Size(tag)) == (static_cast<size_t>('
	DB	'tag_size)): ', 00H
	ORG $+3
$SG138686 DB	'CHECK failed: _impl_.creep_ != nullptr: ', 00H
	ORG $+15
$SG146929 DB	'W:\cpp\void\alistar\tests\vendor\protobuf\src\google/pro'
	DB	'tobuf/wire_format_lite.h', 00H
	ORG $+7
$SG146930 DB	'CHECK failed: (n) > (0): ', 00H
	ORG $+14
$SG146941 DB	'W:\cpp\void\alistar\tests\vendor\protobuf\src\google/pro'
	DB	'tobuf/wire_format_lite.h', 00H
	ORG $+7
$SG146942 DB	'CHECK failed: (n) > (0): ', 00H
	ORG $+6
$SG138760 DB	'vendor\s2clientprotocol\include\s2clientprotocol\raw.pb.'
	DB	'cc', 00H
	ORG $+13
$SG146953 DB	'W:\cpp\void\alistar\tests\vendor\protobuf\src\google/pro'
	DB	'tobuf/wire_format_lite.h', 00H
	ORG $+7
$SG146954 DB	'CHECK failed: (n) > (0): ', 00H
	ORG $+14
$SG146965 DB	'W:\cpp\void\alistar\tests\vendor\protobuf\src\google/pro'
	DB	'tobuf/wire_format_lite.h', 00H
	ORG $+7
$SG146966 DB	'CHECK failed: (n) > (0): ', 00H
	ORG $+14
$SG146977 DB	'W:\cpp\void\alistar\tests\vendor\protobuf\src\google/pro'
	DB	'tobuf/wire_format_lite.h', 00H
	ORG $+7
$SG146978 DB	'CHECK failed: (n) > (0): ', 00H
	ORG $+14
$SG146989 DB	'W:\cpp\void\alistar\tests\vendor\protobuf\src\google/pro'
	DB	'tobuf/wire_format_lite.h', 00H
	ORG $+7
$SG146990 DB	'CHECK failed: (n) > (0): ', 00H
	ORG $+14
$SG147001 DB	'W:\cpp\void\alistar\tests\vendor\protobuf\src\google/pro'
	DB	'tobuf/wire_format_lite.h', 00H
	ORG $+7
$SG147002 DB	'CHECK failed: (n) > (0): ', 00H
	ORG $+14
$SG147013 DB	'W:\cpp\void\alistar\tests\vendor\protobuf\src\google/pro'
	DB	'tobuf/wire_format_lite.h', 00H
	ORG $+7
$SG147014 DB	'CHECK failed: (n) > (0): ', 00H
	ORG $+14
$SG147025 DB	'W:\cpp\void\alistar\tests\vendor\protobuf\src\google/pro'
	DB	'tobuf/wire_format_lite.h', 00H
	ORG $+7
$SG147026 DB	'CHECK failed: (n) > (0): ', 00H
	ORG $+14
$SG147037 DB	'W:\cpp\void\alistar\tests\vendor\protobuf\src\google/pro'
	DB	'tobuf/wire_format_lite.h', 00H
	ORG $+7
$SG147038 DB	'CHECK failed: (n) > (0): ', 00H
	ORG $+14
$SG147049 DB	'W:\cpp\void\alistar\tests\vendor\protobuf\src\google/pro'
	DB	'tobuf/wire_format_lite.h', 00H
	ORG $+7
$SG147050 DB	'CHECK failed: (n) > (0): ', 00H
	ORG $+6
$SG138936 DB	'vendor\s2clientprotocol\include\s2clientprotocol\raw.pb.'
	DB	'cc', 00H
	ORG $+5
$SG139166 DB	'vendor\s2clientprotocol\include\s2clientprotocol\raw.pb.'
	DB	'cc', 00H
CONST	ENDS
PUBLIC	?__empty_global_delete@@YAXPEAX@Z		; __empty_global_delete
PUBLIC	?__empty_global_delete@@YAXPEAX_K@Z		; __empty_global_delete
PUBLIC	?__empty_global_delete@@YAXPEAXW4align_val_t@std@@@Z ; __empty_global_delete
PUBLIC	?__empty_global_delete@@YAXPEAX_KW4align_val_t@std@@@Z ; __empty_global_delete
PUBLIC	?is_constant_evaluated@std@@YA_NXZ		; std::is_constant_evaluated
PUBLIC	??2@YAPEAX_KPEAX@Z				; operator new
PUBLIC	??0exception@std@@QEAA@QEBDH@Z			; std::exception::exception
PUBLIC	??0exception@std@@QEAA@AEBV01@@Z		; std::exception::exception
PUBLIC	??1exception@std@@UEAA@XZ			; std::exception::~exception
PUBLIC	?what@exception@std@@UEBAPEBDXZ			; std::exception::what
PUBLIC	??_Gexception@std@@UEAAPEAXI@Z			; std::exception::`scalar deleting destructor'
PUBLIC	??0bad_alloc@std@@AEAA@QEBD@Z			; std::bad_alloc::bad_alloc
PUBLIC	??1bad_alloc@std@@UEAA@XZ			; std::bad_alloc::~bad_alloc
PUBLIC	??0bad_alloc@std@@QEAA@AEBV01@@Z		; std::bad_alloc::bad_alloc
PUBLIC	??_Gbad_alloc@std@@UEAAPEAXI@Z			; std::bad_alloc::`scalar deleting destructor'
PUBLIC	??0bad_array_new_length@std@@QEAA@XZ		; std::bad_array_new_length::bad_array_new_length
PUBLIC	??1bad_array_new_length@std@@UEAA@XZ		; std::bad_array_new_length::~bad_array_new_length
PUBLIC	??0bad_array_new_length@std@@QEAA@AEBV01@@Z	; std::bad_array_new_length::bad_array_new_length
PUBLIC	??_Gbad_array_new_length@std@@UEAAPEAXI@Z	; std::bad_array_new_length::`scalar deleting destructor'
PUBLIC	?_Throw_bad_array_new_length@std@@YAXXZ		; std::_Throw_bad_array_new_length
PUBLIC	?_Allocate@_Default_allocate_traits@std@@SAPEAX_K@Z ; std::_Default_allocate_traits::_Allocate
PUBLIC	?_Adjust_manually_vector_aligned@std@@YAXAEAPEAXAEA_K@Z ; std::_Adjust_manually_vector_aligned
PUBLIC	??0_Container_proxy@std@@QEAA@PEAU_Container_base12@1@@Z ; std::_Container_proxy::_Container_proxy
PUBLIC	??0_Container_base12@std@@QEAA@XZ		; std::_Container_base12::_Container_base12
PUBLIC	?_Orphan_all@_Container_base12@std@@QEAAXXZ	; std::_Container_base12::_Orphan_all
PUBLIC	?_Orphan_all_unlocked_v3@_Container_base12@std@@AEAAXXZ ; std::_Container_base12::_Orphan_all_unlocked_v3
PUBLIC	?_Orphan_all_locked_v3@_Container_base12@std@@AEAAXXZ ; std::_Container_base12::_Orphan_all_locked_v3
PUBLIC	??$exchange@PEAU_Iterator_base12@std@@$$T@std@@YAPEAU_Iterator_base12@0@AEAPEAU10@$$QEA$$T@Z ; std::exchange<std::_Iterator_base12 *,std::nullptr_t>
PUBLIC	??$_Construct_in_place@U_Container_proxy@std@@PEAU_Container_base12@2@@std@@YAXAEAU_Container_proxy@0@$$QEAPEAU_Container_base12@0@@Z ; std::_Construct_in_place<std::_Container_proxy,std::_Container_base12 *>
PUBLIC	??$swap@H$0A@@std@@YAXAEAH0@Z			; std::swap<int,0>
PUBLIC	??$swap@_J$0A@@std@@YAXAEA_J0@Z			; std::swap<__int64,0>
PUBLIC	?Log2FloorNonZero@Bits@protobuf@google@@SAII@Z	; google::protobuf::Bits::Log2FloorNonZero
PUBLIC	?Log2FloorNonZero64@Bits@protobuf@google@@SAI_K@Z ; google::protobuf::Bits::Log2FloorNonZero64
PUBLIC	?EnsureSpace@EpsCopyOutputStream@io@protobuf@google@@QEAAPEAEPEAE@Z ; google::protobuf::io::EpsCopyOutputStream::EnsureSpace
PUBLIC	??$UnsafeVarint@I@EpsCopyOutputStream@io@protobuf@google@@CAPEAEIPEAE@Z ; google::protobuf::io::EpsCopyOutputStream::UnsafeVarint<unsigned int>
PUBLIC	?WriteLittleEndian32ToArray@CodedOutputStream@io@protobuf@google@@SAPEAEIPEAE@Z ; google::protobuf::io::CodedOutputStream::WriteLittleEndian32ToArray
PUBLIC	?WriteVarint32ToArray@CodedOutputStream@io@protobuf@google@@SAPEAEIPEAE@Z ; google::protobuf::io::CodedOutputStream::WriteVarint32ToArray
PUBLIC	?WriteVarint64ToArray@CodedOutputStream@io@protobuf@google@@SAPEAE_KPEAE@Z ; google::protobuf::io::CodedOutputStream::WriteVarint64ToArray
PUBLIC	?WriteVarint32SignExtendedToArray@CodedOutputStream@io@protobuf@google@@SAPEAEHPEAE@Z ; google::protobuf::io::CodedOutputStream::WriteVarint32SignExtendedToArray
PUBLIC	?WriteTagToArray@CodedOutputStream@io@protobuf@google@@SAPEAEIPEAE@Z ; google::protobuf::io::CodedOutputStream::WriteTagToArray
PUBLIC	?VarintSize32@CodedOutputStream@io@protobuf@google@@SA_KI@Z ; google::protobuf::io::CodedOutputStream::VarintSize32
PUBLIC	?VarintSize64@CodedOutputStream@io@protobuf@google@@SA_K_K@Z ; google::protobuf::io::CodedOutputStream::VarintSize64
PUBLIC	?VarintSize32SignExtended@CodedOutputStream@io@protobuf@google@@SA_KH@Z ; google::protobuf::io::CodedOutputStream::VarintSize32SignExtended
PUBLIC	?VarintSize32PlusOne@CodedOutputStream@io@protobuf@google@@SA_KI@Z ; google::protobuf::io::CodedOutputStream::VarintSize32PlusOne
PUBLIC	?VarintSize64PlusOne@CodedOutputStream@io@protobuf@google@@SA_K_K@Z ; google::protobuf::io::CodedOutputStream::VarintSize64PlusOne
PUBLIC	?VarintSize32SignExtendedPlusOne@CodedOutputStream@io@protobuf@google@@SA_KH@Z ; google::protobuf::io::CodedOutputStream::VarintSize32SignExtendedPlusOne
PUBLIC	??$UnsafeVarint@_K@EpsCopyOutputStream@io@protobuf@google@@CAPEAE_KPEAE@Z ; google::protobuf::io::EpsCopyOutputStream::UnsafeVarint<unsigned __int64>
PUBLIC	?AlignUpTo8@internal@protobuf@google@@YA_K_K@Z	; google::protobuf::internal::AlignUpTo8
PUBLIC	?AlignTo@internal@protobuf@google@@YAPEAXPEAX_K@Z ; google::protobuf::internal::AlignTo
PUBLIC	??1Arena@protobuf@google@@QEAA@XZ		; google::protobuf::Arena::~Arena
PUBLIC	?SpaceAllocated@Arena@protobuf@google@@QEBA_KXZ	; google::protobuf::Arena::SpaceAllocated
PUBLIC	?AllocateInternal@Arena@protobuf@google@@AEAAPEAX_K0P6AXPEAX@ZPEBVtype_info@@@Z ; google::protobuf::Arena::AllocateInternal
PUBLIC	?AllocateAlignedWithHook@Arena@protobuf@google@@AEAAPEAX_K0PEBVtype_info@@@Z ; google::protobuf::Arena::AllocateAlignedWithHook
PUBLIC	??_GArena@protobuf@google@@QEAAPEAXI@Z		; google::protobuf::Arena::`scalar deleting destructor'
PUBLIC	??0InternalMetadata@internal@protobuf@google@@QEAA@XZ ; google::protobuf::internal::InternalMetadata::InternalMetadata
PUBLIC	??0InternalMetadata@internal@protobuf@google@@QEAA@PEAVArena@23@_N@Z ; google::protobuf::internal::InternalMetadata::InternalMetadata
PUBLIC	?SetArena@InternalMetadata@internal@protobuf@google@@QEAAXPEAVArena@34@_N@Z ; google::protobuf::internal::InternalMetadata::SetArena
PUBLIC	??1InternalMetadata@internal@protobuf@google@@QEAA@XZ ; google::protobuf::internal::InternalMetadata::~InternalMetadata
PUBLIC	?owning_arena@InternalMetadata@internal@protobuf@google@@QEBAPEAVArena@34@XZ ; google::protobuf::internal::InternalMetadata::owning_arena
PUBLIC	?arena@InternalMetadata@internal@protobuf@google@@QEBAPEAVArena@34@XZ ; google::protobuf::internal::InternalMetadata::arena
PUBLIC	?have_unknown_fields@InternalMetadata@internal@protobuf@google@@QEBA_NXZ ; google::protobuf::internal::InternalMetadata::have_unknown_fields
PUBLIC	?InternalSwap@InternalMetadata@internal@protobuf@google@@QEAAXPEAV1234@@Z ; google::protobuf::internal::InternalMetadata::InternalSwap
PUBLIC	?HasUnknownFieldsTag@InternalMetadata@internal@protobuf@google@@AEBA_NXZ ; google::protobuf::internal::InternalMetadata::HasUnknownFieldsTag
PUBLIC	?HasMessageOwnedArenaTag@InternalMetadata@internal@protobuf@google@@AEBA_NXZ ; google::protobuf::internal::InternalMetadata::HasMessageOwnedArenaTag
PUBLIC	??$PtrValue@UContainerBase@InternalMetadata@internal@protobuf@google@@@InternalMetadata@internal@protobuf@google@@AEBAPEAUContainerBase@0123@XZ ; google::protobuf::internal::InternalMetadata::PtrValue<google::protobuf::internal::InternalMetadata::ContainerBase>
PUBLIC	??$PtrValue@VArena@protobuf@google@@@InternalMetadata@internal@protobuf@google@@AEBAPEAVArena@23@XZ ; google::protobuf::internal::InternalMetadata::PtrValue<google::protobuf::Arena>
PUBLIC	?FromIntSize@internal@protobuf@google@@YA_KH@Z	; google::protobuf::internal::FromIntSize
PUBLIC	??0MessageLite@protobuf@google@@QEAA@XZ		; google::protobuf::MessageLite::MessageLite
PUBLIC	??1MessageLite@protobuf@google@@UEAA@XZ		; google::protobuf::MessageLite::~MessageLite
PUBLIC	?_InternalParse@MessageLite@protobuf@google@@UEAAPEBDPEBDPEAVParseContext@internal@23@@Z ; google::protobuf::MessageLite::_InternalParse
PUBLIC	??0MessageLite@protobuf@google@@IEAA@PEAVArena@12@_N@Z ; google::protobuf::MessageLite::MessageLite
PUBLIC	?GetOwningArena@MessageLite@protobuf@google@@IEBAPEAVArena@23@XZ ; google::protobuf::MessageLite::GetOwningArena
PUBLIC	?GetArenaForAllocation@MessageLite@protobuf@google@@IEBAPEAVArena@23@XZ ; google::protobuf::MessageLite::GetArenaForAllocation
PUBLIC	??_GMessageLite@protobuf@google@@UEAAPEAXI@Z	; google::protobuf::MessageLite::`scalar deleting destructor'
PUBLIC	??0?$HasBits@$00@internal@protobuf@google@@QEAA@XZ ; google::protobuf::internal::HasBits<1>::HasBits<1>
PUBLIC	?Clear@?$HasBits@$00@internal@protobuf@google@@QEAAXXZ ; google::protobuf::internal::HasBits<1>::Clear
PUBLIC	??A?$HasBits@$00@internal@protobuf@google@@QEAAAEAIH@Z ; google::protobuf::internal::HasBits<1>::operator[]
PUBLIC	??A?$HasBits@$00@internal@protobuf@google@@QEBAAEBIH@Z ; google::protobuf::internal::HasBits<1>::operator[]
PUBLIC	?Or@?$HasBits@$00@internal@protobuf@google@@QEAAXAEBV1234@@Z ; google::protobuf::internal::HasBits<1>::Or
PUBLIC	??0?$HasBits@$01@internal@protobuf@google@@QEAA@XZ ; google::protobuf::internal::HasBits<2>::HasBits<2>
PUBLIC	?Clear@?$HasBits@$01@internal@protobuf@google@@QEAAXXZ ; google::protobuf::internal::HasBits<2>::Clear
PUBLIC	??A?$HasBits@$01@internal@protobuf@google@@QEAAAEAIH@Z ; google::protobuf::internal::HasBits<2>::operator[]
PUBLIC	??A?$HasBits@$01@internal@protobuf@google@@QEBAAEBIH@Z ; google::protobuf::internal::HasBits<2>::operator[]
PUBLIC	??0RepeatedPtrFieldBase@internal@protobuf@google@@IEAA@XZ ; google::protobuf::internal::RepeatedPtrFieldBase::RepeatedPtrFieldBase
PUBLIC	??0RepeatedPtrFieldBase@internal@protobuf@google@@IEAA@PEAVArena@23@@Z ; google::protobuf::internal::RepeatedPtrFieldBase::RepeatedPtrFieldBase
PUBLIC	??1RepeatedPtrFieldBase@internal@protobuf@google@@IEAA@XZ ; google::protobuf::internal::RepeatedPtrFieldBase::~RepeatedPtrFieldBase
PUBLIC	?size@RepeatedPtrFieldBase@internal@protobuf@google@@IEBAHXZ ; google::protobuf::internal::RepeatedPtrFieldBase::size
PUBLIC	?NeedsDestroy@RepeatedPtrFieldBase@internal@protobuf@google@@IEBA_NXZ ; google::protobuf::internal::RepeatedPtrFieldBase::NeedsDestroy
PUBLIC	?InternalSwap@RepeatedPtrFieldBase@internal@protobuf@google@@QEAAXPEAV1234@@Z ; google::protobuf::internal::RepeatedPtrFieldBase::InternalSwap
PUBLIC	?raw_data@RepeatedPtrFieldBase@internal@protobuf@google@@IEBAPEBQEAXXZ ; google::protobuf::internal::RepeatedPtrFieldBase::raw_data
PUBLIC	?GetOwningArena@RepeatedPtrFieldBase@internal@protobuf@google@@IEBAPEAVArena@34@XZ ; google::protobuf::internal::RepeatedPtrFieldBase::GetOwningArena
PUBLIC	?MergeFromInternal@RepeatedPtrFieldBase@internal@protobuf@google@@AEAAXAEBV1234@P81234@EAAXPEAPEAX1HH@Z@Z ; google::protobuf::internal::RepeatedPtrFieldBase::MergeFromInternal
PUBLIC	??$make_tuple@AEAPEAVArena@protobuf@google@@AEAHAEAHAEAPEAURep@RepeatedPtrFieldBase@internal@23@@std@@YA?AV?$tuple@PEAVArena@protobuf@google@@HHPEAURep@RepeatedPtrFieldBase@internal@23@@0@AEAPEAVArena@protobuf@google@@AEAH1AEAPEAURep@RepeatedPtrFieldBase@internal@34@@Z ; std::make_tuple<google::protobuf::Arena * &,int &,int &,google::protobuf::internal::RepeatedPtrFieldBase::Rep * &>
PUBLIC	?_Get_rest@?$tuple@PEAURep@RepeatedPtrFieldBase@internal@protobuf@google@@@std@@QEAAAEAV?$tuple@$$V@2@XZ ; std::tuple<google::protobuf::internal::RepeatedPtrFieldBase::Rep *>::_Get_rest
PUBLIC	?_Get_rest@?$tuple@PEAURep@RepeatedPtrFieldBase@internal@protobuf@google@@@std@@QEBAAEBV?$tuple@$$V@2@XZ ; std::tuple<google::protobuf::internal::RepeatedPtrFieldBase::Rep *>::_Get_rest
PUBLIC	?_Get_rest@?$tuple@HPEAURep@RepeatedPtrFieldBase@internal@protobuf@google@@@std@@QEAAAEAV?$tuple@PEAURep@RepeatedPtrFieldBase@internal@protobuf@google@@@2@XZ ; std::tuple<int,google::protobuf::internal::RepeatedPtrFieldBase::Rep *>::_Get_rest
PUBLIC	?_Get_rest@?$tuple@HPEAURep@RepeatedPtrFieldBase@internal@protobuf@google@@@std@@QEBAAEBV?$tuple@PEAURep@RepeatedPtrFieldBase@internal@protobuf@google@@@2@XZ ; std::tuple<int,google::protobuf::internal::RepeatedPtrFieldBase::Rep *>::_Get_rest
PUBLIC	?_Get_rest@?$tuple@HHPEAURep@RepeatedPtrFieldBase@internal@protobuf@google@@@std@@QEAAAEAV?$tuple@HPEAURep@RepeatedPtrFieldBase@internal@protobuf@google@@@2@XZ ; std::tuple<int,int,google::protobuf::internal::RepeatedPtrFieldBase::Rep *>::_Get_rest
PUBLIC	?_Get_rest@?$tuple@HHPEAURep@RepeatedPtrFieldBase@internal@protobuf@google@@@std@@QEBAAEBV?$tuple@HPEAURep@RepeatedPtrFieldBase@internal@protobuf@google@@@2@XZ ; std::tuple<int,int,google::protobuf::internal::RepeatedPtrFieldBase::Rep *>::_Get_rest
PUBLIC	?_Get_rest@?$tuple@PEAVArena@protobuf@google@@HHPEAURep@RepeatedPtrFieldBase@internal@23@@std@@QEAAAEAV?$tuple@HHPEAURep@RepeatedPtrFieldBase@internal@protobuf@google@@@2@XZ ; std::tuple<google::protobuf::Arena *,int,int,google::protobuf::internal::RepeatedPtrFieldBase::Rep *>::_Get_rest
PUBLIC	?_Get_rest@?$tuple@PEAVArena@protobuf@google@@HHPEAURep@RepeatedPtrFieldBase@internal@23@@std@@QEBAAEBV?$tuple@HHPEAURep@RepeatedPtrFieldBase@internal@protobuf@google@@@2@XZ ; std::tuple<google::protobuf::Arena *,int,int,google::protobuf::internal::RepeatedPtrFieldBase::Rep *>::_Get_rest
PUBLIC	??$tie@PEAVArena@protobuf@google@@HHPEAURep@RepeatedPtrFieldBase@internal@23@@std@@YA?AV?$tuple@AEAPEAVArena@protobuf@google@@AEAHAEAHAEAPEAURep@RepeatedPtrFieldBase@internal@23@@0@AEAPEAVArena@protobuf@google@@AEAH1AEAPEAURep@RepeatedPtrFieldBase@internal@34@@Z ; std::tie<google::protobuf::Arena *,int,int,google::protobuf::internal::RepeatedPtrFieldBase::Rep *>
PUBLIC	?_Get_rest@?$tuple@AEAPEAURep@RepeatedPtrFieldBase@internal@protobuf@google@@@std@@QEAAAEAV?$tuple@$$V@2@XZ ; std::tuple<google::protobuf::internal::RepeatedPtrFieldBase::Rep * &>::_Get_rest
PUBLIC	?_Get_rest@?$tuple@AEAHAEAPEAURep@RepeatedPtrFieldBase@internal@protobuf@google@@@std@@QEAAAEAV?$tuple@AEAPEAURep@RepeatedPtrFieldBase@internal@protobuf@google@@@2@XZ ; std::tuple<int &,google::protobuf::internal::RepeatedPtrFieldBase::Rep * &>::_Get_rest
PUBLIC	?_Get_rest@?$tuple@AEAHAEAHAEAPEAURep@RepeatedPtrFieldBase@internal@protobuf@google@@@std@@QEAAAEAV?$tuple@AEAHAEAPEAURep@RepeatedPtrFieldBase@internal@protobuf@google@@@2@XZ ; std::tuple<int &,int &,google::protobuf::internal::RepeatedPtrFieldBase::Rep * &>::_Get_rest
PUBLIC	?_Get_rest@?$tuple@AEAPEAVArena@protobuf@google@@AEAHAEAHAEAPEAURep@RepeatedPtrFieldBase@internal@23@@std@@QEAAAEAV?$tuple@AEAHAEAHAEAPEAURep@RepeatedPtrFieldBase@internal@protobuf@google@@@2@XZ ; std::tuple<google::protobuf::Arena * &,int &,int &,google::protobuf::internal::RepeatedPtrFieldBase::Rep * &>::_Get_rest
PUBLIC	??$?4PEAVArena@protobuf@google@@HHPEAURep@RepeatedPtrFieldBase@internal@12@$0A@@?$tuple@AEAPEAVArena@protobuf@google@@AEAHAEAHAEAPEAURep@RepeatedPtrFieldBase@internal@23@@std@@QEAAAEAV01@$$QEAV?$tuple@PEAVArena@protobuf@google@@HHPEAURep@RepeatedPtrFieldBase@internal@23@@1@@Z ; std::tuple<google::protobuf::Arena * &,int &,int &,google::protobuf::internal::RepeatedPtrFieldBase::Rep * &>::operator=<google::protobuf::Arena *,int,int,google::protobuf::internal::RepeatedPtrFieldBase::Rep *,0>
PUBLIC	??$?4PEAVArena@protobuf@google@@HHPEAURep@RepeatedPtrFieldBase@internal@12@$0A@@?$tuple@AEAPEAVArena@protobuf@google@@AEAHAEAHAEAPEAURep@RepeatedPtrFieldBase@internal@23@@std@@QEAAAEAV01@AEBV?$tuple@PEAVArena@protobuf@google@@HHPEAURep@RepeatedPtrFieldBase@internal@23@@1@@Z ; std::tuple<google::protobuf::Arena * &,int &,int &,google::protobuf::internal::RepeatedPtrFieldBase::Rep * &>::operator=<google::protobuf::Arena *,int,int,google::protobuf::internal::RepeatedPtrFieldBase::Rep *,0>
PUBLIC	??0?$RepeatedField@I@protobuf@google@@QEAA@XZ	; google::protobuf::RepeatedField<unsigned int>::RepeatedField<unsigned int>
PUBLIC	??_G?$RepeatedField@I@protobuf@google@@QEAAPEAXI@Z ; google::protobuf::RepeatedField<unsigned int>::`scalar deleting destructor'
PUBLIC	??0?$RepeatedField@_K@protobuf@google@@QEAA@XZ	; google::protobuf::RepeatedField<unsigned __int64>::RepeatedField<unsigned __int64>
PUBLIC	??_G?$RepeatedField@_K@protobuf@google@@QEAAPEAXI@Z ; google::protobuf::RepeatedField<unsigned __int64>::`scalar deleting destructor'
PUBLIC	?MakeTag@WireFormatLite@internal@protobuf@google@@SAIHW4WireType@1234@@Z ; google::protobuf::internal::WireFormatLite::MakeTag
PUBLIC	?EncodeFloat@WireFormatLite@internal@protobuf@google@@SAIM@Z ; google::protobuf::internal::WireFormatLite::EncodeFloat
PUBLIC	?WriteTagToArray@WireFormatLite@internal@protobuf@google@@SAPEAEHW4WireType@1234@PEAE@Z ; google::protobuf::internal::WireFormatLite::WriteTagToArray
PUBLIC	?WriteInt32NoTagToArray@WireFormatLite@internal@protobuf@google@@SAPEAEHPEAE@Z ; google::protobuf::internal::WireFormatLite::WriteInt32NoTagToArray
PUBLIC	?WriteUInt32NoTagToArray@WireFormatLite@internal@protobuf@google@@SAPEAEIPEAE@Z ; google::protobuf::internal::WireFormatLite::WriteUInt32NoTagToArray
PUBLIC	?WriteUInt64NoTagToArray@WireFormatLite@internal@protobuf@google@@SAPEAE_KPEAE@Z ; google::protobuf::internal::WireFormatLite::WriteUInt64NoTagToArray
PUBLIC	?WriteFloatNoTagToArray@WireFormatLite@internal@protobuf@google@@SAPEAEMPEAE@Z ; google::protobuf::internal::WireFormatLite::WriteFloatNoTagToArray
PUBLIC	?WriteBoolNoTagToArray@WireFormatLite@internal@protobuf@google@@SAPEAE_NPEAE@Z ; google::protobuf::internal::WireFormatLite::WriteBoolNoTagToArray
PUBLIC	?WriteEnumNoTagToArray@WireFormatLite@internal@protobuf@google@@SAPEAEHPEAE@Z ; google::protobuf::internal::WireFormatLite::WriteEnumNoTagToArray
PUBLIC	?WriteInt32ToArray@WireFormatLite@internal@protobuf@google@@SAPEAEHHPEAE@Z ; google::protobuf::internal::WireFormatLite::WriteInt32ToArray
PUBLIC	?WriteUInt32ToArray@WireFormatLite@internal@protobuf@google@@SAPEAEHIPEAE@Z ; google::protobuf::internal::WireFormatLite::WriteUInt32ToArray
PUBLIC	?WriteUInt64ToArray@WireFormatLite@internal@protobuf@google@@SAPEAEH_KPEAE@Z ; google::protobuf::internal::WireFormatLite::WriteUInt64ToArray
PUBLIC	?WriteFloatToArray@WireFormatLite@internal@protobuf@google@@SAPEAEHMPEAE@Z ; google::protobuf::internal::WireFormatLite::WriteFloatToArray
PUBLIC	?WriteBoolToArray@WireFormatLite@internal@protobuf@google@@SAPEAEH_NPEAE@Z ; google::protobuf::internal::WireFormatLite::WriteBoolToArray
PUBLIC	?WriteEnumToArray@WireFormatLite@internal@protobuf@google@@SAPEAEHHPEAE@Z ; google::protobuf::internal::WireFormatLite::WriteEnumToArray
PUBLIC	?Int32Size@WireFormatLite@internal@protobuf@google@@SA_KH@Z ; google::protobuf::internal::WireFormatLite::Int32Size
PUBLIC	?UInt64Size@WireFormatLite@internal@protobuf@google@@SA_K_K@Z ; google::protobuf::internal::WireFormatLite::UInt64Size
PUBLIC	?EnumSize@WireFormatLite@internal@protobuf@google@@SA_KH@Z ; google::protobuf::internal::WireFormatLite::EnumSize
PUBLIC	?Int32SizePlusOne@WireFormatLite@internal@protobuf@google@@SA_KH@Z ; google::protobuf::internal::WireFormatLite::Int32SizePlusOne
PUBLIC	?UInt32SizePlusOne@WireFormatLite@internal@protobuf@google@@SA_KI@Z ; google::protobuf::internal::WireFormatLite::UInt32SizePlusOne
PUBLIC	?UInt64SizePlusOne@WireFormatLite@internal@protobuf@google@@SA_K_K@Z ; google::protobuf::internal::WireFormatLite::UInt64SizePlusOne
PUBLIC	?LengthDelimitedSize@WireFormatLite@internal@protobuf@google@@SA_K_K@Z ; google::protobuf::internal::WireFormatLite::LengthDelimitedSize
PUBLIC	??$bit_cast@IM@internal@protobuf@google@@YAIAEBM@Z ; google::protobuf::internal::bit_cast<unsigned int,float>
PUBLIC	?Get@CachedSize@internal@protobuf@google@@QEBAHXZ ; google::protobuf::internal::CachedSize::Get
PUBLIC	?Set@CachedSize@internal@protobuf@google@@QEAAXH@Z ; google::protobuf::internal::CachedSize::Set
PUBLIC	??0?$_Atomic_storage@H$03@std@@QEAA@H@Z		; std::_Atomic_storage<int,4>::_Atomic_storage<int,4>
PUBLIC	?store@?$_Atomic_storage@H$03@std@@QEAAXH@Z	; std::_Atomic_storage<int,4>::store
PUBLIC	?store@?$_Atomic_storage@H$03@std@@QEAAXHW4memory_order@2@@Z ; std::_Atomic_storage<int,4>::store
PUBLIC	?load@?$_Atomic_storage@H$03@std@@QEBAHW4memory_order@2@@Z ; std::_Atomic_storage<int,4>::load
PUBLIC	??0?$_Atomic_integral@H$03@std@@QEAA@H@Z	; std::_Atomic_integral<int,4>::_Atomic_integral<int,4>
PUBLIC	??0?$_Atomic_integral_facade@H@std@@QEAA@H@Z	; std::_Atomic_integral_facade<int>::_Atomic_integral_facade<int>
PUBLIC	??0?$atomic@H@std@@QEAA@H@Z			; std::atomic<int>::atomic<int>
PUBLIC	??0CachedSize@internal@protobuf@google@@QEAA@XZ	; google::protobuf::internal::CachedSize::CachedSize
PUBLIC	?ToHost@little_endian@internal@protobuf@google@@YAII@Z ; google::protobuf::internal::little_endian::ToHost
PUBLIC	?WriteVarint@internal@protobuf@google@@YAXI_KPEAVUnknownFieldSet@23@@Z ; google::protobuf::internal::WriteVarint
PUBLIC	?SetLastTag@EpsCopyInputStream@internal@protobuf@google@@QEAAXI@Z ; google::protobuf::internal::EpsCopyInputStream::SetLastTag
PUBLIC	?DataAvailable@EpsCopyInputStream@internal@protobuf@google@@QEAA_NPEBD@Z ; google::protobuf::internal::EpsCopyInputStream::DataAvailable
PUBLIC	?DoneWithCheck@EpsCopyInputStream@internal@protobuf@google@@IEAA_NPEAPEBDH@Z ; google::protobuf::internal::EpsCopyInputStream::DoneWithCheck
PUBLIC	?Done@ParseContext@internal@protobuf@google@@QEAA_NPEAPEBD@Z ; google::protobuf::internal::ParseContext::Done
PUBLIC	?Load@?$EndianHelper@$03@internal@protobuf@google@@SAIPEBX@Z ; google::protobuf::internal::EndianHelper<4>::Load
PUBLIC	?VarintParseSlow@internal@protobuf@google@@YAPEBDPEBDIPEAI@Z ; google::protobuf::internal::VarintParseSlow
PUBLIC	?VarintParseSlow@internal@protobuf@google@@YAPEBDPEBDIPEA_K@Z ; google::protobuf::internal::VarintParseSlow
PUBLIC	?ReadTag@internal@protobuf@google@@YAPEBDPEBDPEAII@Z ; google::protobuf::internal::ReadTag
PUBLIC	?ReadVarint64@internal@protobuf@google@@YA_KPEAPEBD@Z ; google::protobuf::internal::ReadVarint64
PUBLIC	??$VarintParse@_K@internal@protobuf@google@@YAPEBDPEBDPEA_K@Z ; google::protobuf::internal::VarintParse<unsigned __int64>
PUBLIC	?ReadVarint32@internal@protobuf@google@@YAIPEAPEBD@Z ; google::protobuf::internal::ReadVarint32
PUBLIC	??$VarintParse@I@internal@protobuf@google@@YAPEBDPEBDPEAI@Z ; google::protobuf::internal::VarintParse<unsigned int>
PUBLIC	??0UnknownFieldSet@protobuf@google@@QEAA@XZ	; google::protobuf::UnknownFieldSet::UnknownFieldSet
PUBLIC	??1UnknownFieldSet@protobuf@google@@QEAA@XZ	; google::protobuf::UnknownFieldSet::~UnknownFieldSet
PUBLIC	?Clear@UnknownFieldSet@protobuf@google@@QEAAXXZ	; google::protobuf::UnknownFieldSet::Clear
PUBLIC	??0?$allocator@VUnknownField@protobuf@google@@@std@@QEAA@XZ ; std::allocator<google::protobuf::UnknownField>::allocator<google::protobuf::UnknownField>
PUBLIC	?deallocate@?$allocator@VUnknownField@protobuf@google@@@std@@QEAAXQEAVUnknownField@protobuf@google@@_K@Z ; std::allocator<google::protobuf::UnknownField>::deallocate
PUBLIC	??0?$vector@VUnknownField@protobuf@google@@V?$allocator@VUnknownField@protobuf@google@@@std@@@std@@QEAA@XZ ; std::vector<google::protobuf::UnknownField,std::allocator<google::protobuf::UnknownField> >::vector<google::protobuf::UnknownField,std::allocator<google::protobuf::UnknownField> >
PUBLIC	??1?$vector@VUnknownField@protobuf@google@@V?$allocator@VUnknownField@protobuf@google@@@std@@@std@@QEAA@XZ ; std::vector<google::protobuf::UnknownField,std::allocator<google::protobuf::UnknownField> >::~vector<google::protobuf::UnknownField,std::allocator<google::protobuf::UnknownField> >
PUBLIC	?empty@?$vector@VUnknownField@protobuf@google@@V?$allocator@VUnknownField@protobuf@google@@@std@@@std@@QEBA_NXZ ; std::vector<google::protobuf::UnknownField,std::allocator<google::protobuf::UnknownField> >::empty
PUBLIC	?_Tidy@?$vector@VUnknownField@protobuf@google@@V?$allocator@VUnknownField@protobuf@google@@@std@@@std@@AEAAXXZ ; std::vector<google::protobuf::UnknownField,std::allocator<google::protobuf::UnknownField> >::_Tidy
PUBLIC	?_Getal@?$vector@VUnknownField@protobuf@google@@V?$allocator@VUnknownField@protobuf@google@@@std@@@std@@AEAAAEAV?$allocator@VUnknownField@protobuf@google@@@2@XZ ; std::vector<google::protobuf::UnknownField,std::allocator<google::protobuf::UnknownField> >::_Getal
PUBLIC	??0?$_Vector_val@U?$_Simple_types@VUnknownField@protobuf@google@@@std@@@std@@QEAA@XZ ; std::_Vector_val<std::_Simple_types<google::protobuf::UnknownField> >::_Vector_val<std::_Simple_types<google::protobuf::UnknownField> >
PUBLIC	?_Get_first@?$_Compressed_pair@V?$allocator@VUnknownField@protobuf@google@@@std@@V?$_Vector_val@U?$_Simple_types@VUnknownField@protobuf@google@@@std@@@2@$00@std@@QEAAAEAV?$allocator@VUnknownField@protobuf@google@@@2@XZ ; std::_Compressed_pair<std::allocator<google::protobuf::UnknownField>,std::_Vector_val<std::_Simple_types<google::protobuf::UnknownField> >,1>::_Get_first
PUBLIC	??0Message@protobuf@google@@QEAA@XZ		; google::protobuf::Message::Message
PUBLIC	?GetClassData@Message@protobuf@google@@MEBAPEBUClassData@123@XZ ; google::protobuf::Message::GetClassData
PUBLIC	??0Message@protobuf@google@@IEAA@PEAVArena@12@_N@Z ; google::protobuf::Message::Message
PUBLIC	??1Message@protobuf@google@@UEAA@XZ		; google::protobuf::Message::~Message
PUBLIC	??_GMessage@protobuf@google@@UEAAPEAXI@Z	; google::protobuf::Message::`scalar deleting destructor'
PUBLIC	??$unknown_fields@VUnknownFieldSet@protobuf@google@@@InternalMetadata@internal@protobuf@google@@QEBAAEBVUnknownFieldSet@23@P6AAEBV423@XZ@Z ; google::protobuf::internal::InternalMetadata::unknown_fields<google::protobuf::UnknownFieldSet>
PUBLIC	??$mutable_unknown_fields@VUnknownFieldSet@protobuf@google@@@InternalMetadata@internal@protobuf@google@@QEAAPEAVUnknownFieldSet@23@XZ ; google::protobuf::internal::InternalMetadata::mutable_unknown_fields<google::protobuf::UnknownFieldSet>
PUBLIC	?MergeFrom@ImageData@SC2APIProtocol@@QEAAXAEBV12@@Z ; SC2APIProtocol::ImageData::MergeFrom
PUBLIC	?GetCachedSize@ImageData@SC2APIProtocol@@UEBAHXZ ; SC2APIProtocol::ImageData::GetCachedSize
PUBLIC	??_GImageData@SC2APIProtocol@@UEAAPEAXI@Z	; SC2APIProtocol::ImageData::`scalar deleting destructor'
PUBLIC	??$CreateMaybeMessage@VImageData@SC2APIProtocol@@@MessageLite@protobuf@google@@KAPEAVImageData@SC2APIProtocol@@PEAVArena@12@@Z ; google::protobuf::MessageLite::CreateMaybeMessage<SC2APIProtocol::ImageData>
PUBLIC	?MergeFrom@RectangleI@SC2APIProtocol@@QEAAXAEBV12@@Z ; SC2APIProtocol::RectangleI::MergeFrom
PUBLIC	?GetCachedSize@RectangleI@SC2APIProtocol@@UEBAHXZ ; SC2APIProtocol::RectangleI::GetCachedSize
PUBLIC	??_GRectangleI@SC2APIProtocol@@UEAAPEAXI@Z	; SC2APIProtocol::RectangleI::`scalar deleting destructor'
PUBLIC	??$CreateMaybeMessage@VRectangleI@SC2APIProtocol@@@MessageLite@protobuf@google@@KAPEAVRectangleI@SC2APIProtocol@@PEAVArena@12@@Z ; google::protobuf::MessageLite::CreateMaybeMessage<SC2APIProtocol::RectangleI>
PUBLIC	?MergeFrom@Point2D@SC2APIProtocol@@QEAAXAEBV12@@Z ; SC2APIProtocol::Point2D::MergeFrom
PUBLIC	?GetCachedSize@Point2D@SC2APIProtocol@@UEBAHXZ	; SC2APIProtocol::Point2D::GetCachedSize
PUBLIC	??_GPoint2D@SC2APIProtocol@@UEAAPEAXI@Z		; SC2APIProtocol::Point2D::`scalar deleting destructor'
PUBLIC	??$CreateMaybeMessage@VPoint2D@SC2APIProtocol@@@MessageLite@protobuf@google@@KAPEAVPoint2D@SC2APIProtocol@@PEAVArena@12@@Z ; google::protobuf::MessageLite::CreateMaybeMessage<SC2APIProtocol::Point2D>
PUBLIC	?MergeFrom@Point@SC2APIProtocol@@QEAAXAEBV12@@Z	; SC2APIProtocol::Point::MergeFrom
PUBLIC	?GetCachedSize@Point@SC2APIProtocol@@UEBAHXZ	; SC2APIProtocol::Point::GetCachedSize
PUBLIC	??_GPoint@SC2APIProtocol@@UEAAPEAXI@Z		; SC2APIProtocol::Point::`scalar deleting destructor'
PUBLIC	??$CreateMaybeMessage@VPoint@SC2APIProtocol@@@MessageLite@protobuf@google@@KAPEAVPoint@SC2APIProtocol@@PEAVArena@12@@Z ; google::protobuf::MessageLite::CreateMaybeMessage<SC2APIProtocol::Point>
PUBLIC	?MergeFrom@Size2DI@SC2APIProtocol@@QEAAXAEBV12@@Z ; SC2APIProtocol::Size2DI::MergeFrom
PUBLIC	?GetCachedSize@Size2DI@SC2APIProtocol@@UEBAHXZ	; SC2APIProtocol::Size2DI::GetCachedSize
PUBLIC	??_GSize2DI@SC2APIProtocol@@UEAAPEAXI@Z		; SC2APIProtocol::Size2DI::`scalar deleting destructor'
PUBLIC	??$CreateMaybeMessage@VSize2DI@SC2APIProtocol@@@MessageLite@protobuf@google@@KAPEAVSize2DI@SC2APIProtocol@@PEAVArena@12@@Z ; google::protobuf::MessageLite::CreateMaybeMessage<SC2APIProtocol::Size2DI>
PUBLIC	??$CreateMaybeMessage@VActionRaw@SC2APIProtocol@@$$V@Arena@protobuf@google@@CAPEAVActionRaw@SC2APIProtocol@@PEAV012@@Z ; google::protobuf::Arena::CreateMaybeMessage<SC2APIProtocol::ActionRaw>
PUBLIC	??$CreateMaybeMessage@VActionRawCameraMove@SC2APIProtocol@@$$V@Arena@protobuf@google@@CAPEAVActionRawCameraMove@SC2APIProtocol@@PEAV012@@Z ; google::protobuf::Arena::CreateMaybeMessage<SC2APIProtocol::ActionRawCameraMove>
PUBLIC	??$CreateMaybeMessage@VActionRawToggleAutocast@SC2APIProtocol@@$$V@Arena@protobuf@google@@CAPEAVActionRawToggleAutocast@SC2APIProtocol@@PEAV012@@Z ; google::protobuf::Arena::CreateMaybeMessage<SC2APIProtocol::ActionRawToggleAutocast>
PUBLIC	??$CreateMaybeMessage@VActionRawUnitCommand@SC2APIProtocol@@$$V@Arena@protobuf@google@@CAPEAVActionRawUnitCommand@SC2APIProtocol@@PEAV012@@Z ; google::protobuf::Arena::CreateMaybeMessage<SC2APIProtocol::ActionRawUnitCommand>
PUBLIC	??$CreateMaybeMessage@VEffect@SC2APIProtocol@@$$V@Arena@protobuf@google@@CAPEAVEffect@SC2APIProtocol@@PEAV012@@Z ; google::protobuf::Arena::CreateMaybeMessage<SC2APIProtocol::Effect>
PUBLIC	??$CreateMaybeMessage@VEvent@SC2APIProtocol@@$$V@Arena@protobuf@google@@CAPEAVEvent@SC2APIProtocol@@PEAV012@@Z ; google::protobuf::Arena::CreateMaybeMessage<SC2APIProtocol::Event>
PUBLIC	??$CreateMaybeMessage@VMapState@SC2APIProtocol@@$$V@Arena@protobuf@google@@CAPEAVMapState@SC2APIProtocol@@PEAV012@@Z ; google::protobuf::Arena::CreateMaybeMessage<SC2APIProtocol::MapState>
PUBLIC	??$CreateMaybeMessage@VObservationRaw@SC2APIProtocol@@$$V@Arena@protobuf@google@@CAPEAVObservationRaw@SC2APIProtocol@@PEAV012@@Z ; google::protobuf::Arena::CreateMaybeMessage<SC2APIProtocol::ObservationRaw>
PUBLIC	??$CreateMaybeMessage@VPassengerUnit@SC2APIProtocol@@$$V@Arena@protobuf@google@@CAPEAVPassengerUnit@SC2APIProtocol@@PEAV012@@Z ; google::protobuf::Arena::CreateMaybeMessage<SC2APIProtocol::PassengerUnit>
PUBLIC	??$CreateMaybeMessage@VPlayerRaw@SC2APIProtocol@@$$V@Arena@protobuf@google@@CAPEAVPlayerRaw@SC2APIProtocol@@PEAV012@@Z ; google::protobuf::Arena::CreateMaybeMessage<SC2APIProtocol::PlayerRaw>
PUBLIC	??$CreateMaybeMessage@VPowerSource@SC2APIProtocol@@$$V@Arena@protobuf@google@@CAPEAVPowerSource@SC2APIProtocol@@PEAV012@@Z ; google::protobuf::Arena::CreateMaybeMessage<SC2APIProtocol::PowerSource>
PUBLIC	??$CreateMaybeMessage@VRadarRing@SC2APIProtocol@@$$V@Arena@protobuf@google@@CAPEAVRadarRing@SC2APIProtocol@@PEAV012@@Z ; google::protobuf::Arena::CreateMaybeMessage<SC2APIProtocol::RadarRing>
PUBLIC	??$CreateMaybeMessage@VRallyTarget@SC2APIProtocol@@$$V@Arena@protobuf@google@@CAPEAVRallyTarget@SC2APIProtocol@@PEAV012@@Z ; google::protobuf::Arena::CreateMaybeMessage<SC2APIProtocol::RallyTarget>
PUBLIC	??$CreateMaybeMessage@VStartRaw@SC2APIProtocol@@$$V@Arena@protobuf@google@@CAPEAVStartRaw@SC2APIProtocol@@PEAV012@@Z ; google::protobuf::Arena::CreateMaybeMessage<SC2APIProtocol::StartRaw>
PUBLIC	??$CreateMaybeMessage@VUnit@SC2APIProtocol@@$$V@Arena@protobuf@google@@CAPEAVUnit@SC2APIProtocol@@PEAV012@@Z ; google::protobuf::Arena::CreateMaybeMessage<SC2APIProtocol::Unit>
PUBLIC	??$CreateMaybeMessage@VUnitOrder@SC2APIProtocol@@$$V@Arena@protobuf@google@@CAPEAVUnitOrder@SC2APIProtocol@@PEAV012@@Z ; google::protobuf::Arena::CreateMaybeMessage<SC2APIProtocol::UnitOrder>
PUBLIC	?DisplayType_IsValid@SC2APIProtocol@@YA_NH@Z	; SC2APIProtocol::DisplayType_IsValid
PUBLIC	?DisplayType_descriptor@SC2APIProtocol@@YAPEBVEnumDescriptor@protobuf@google@@XZ ; SC2APIProtocol::DisplayType_descriptor
PUBLIC	?Alliance_IsValid@SC2APIProtocol@@YA_NH@Z	; SC2APIProtocol::Alliance_IsValid
PUBLIC	?Alliance_descriptor@SC2APIProtocol@@YAPEBVEnumDescriptor@protobuf@google@@XZ ; SC2APIProtocol::Alliance_descriptor
PUBLIC	?CloakState_IsValid@SC2APIProtocol@@YA_NH@Z	; SC2APIProtocol::CloakState_IsValid
PUBLIC	?CloakState_descriptor@SC2APIProtocol@@YAPEBVEnumDescriptor@protobuf@google@@XZ ; SC2APIProtocol::CloakState_descriptor
PUBLIC	??1StartRaw@SC2APIProtocol@@UEAA@XZ		; SC2APIProtocol::StartRaw::~StartRaw
PUBLIC	??0StartRaw@SC2APIProtocol@@QEAA@UConstantInitialized@internal@protobuf@google@@@Z ; SC2APIProtocol::StartRaw::StartRaw
PUBLIC	??0StartRaw@SC2APIProtocol@@QEAA@AEBV01@@Z	; SC2APIProtocol::StartRaw::StartRaw
PUBLIC	?internal_default_instance@StartRaw@SC2APIProtocol@@SAPEBV12@XZ ; SC2APIProtocol::StartRaw::internal_default_instance
PUBLIC	?New@StartRaw@SC2APIProtocol@@UEBAPEAV12@PEAVArena@protobuf@google@@@Z ; SC2APIProtocol::StartRaw::New
PUBLIC	?CopyFrom@StartRaw@SC2APIProtocol@@QEAAXAEBV12@@Z ; SC2APIProtocol::StartRaw::CopyFrom
PUBLIC	?MergeFrom@StartRaw@SC2APIProtocol@@QEAAXAEBV12@@Z ; SC2APIProtocol::StartRaw::MergeFrom
PUBLIC	?Clear@StartRaw@SC2APIProtocol@@UEAAXXZ		; SC2APIProtocol::StartRaw::Clear
PUBLIC	?IsInitialized@StartRaw@SC2APIProtocol@@UEBA_NXZ ; SC2APIProtocol::StartRaw::IsInitialized
PUBLIC	?ByteSizeLong@StartRaw@SC2APIProtocol@@UEBA_KXZ	; SC2APIProtocol::StartRaw::ByteSizeLong
PUBLIC	?_InternalParse@StartRaw@SC2APIProtocol@@UEAAPEBDPEBDPEAVParseContext@internal@protobuf@google@@@Z ; SC2APIProtocol::StartRaw::_InternalParse
PUBLIC	?_InternalSerialize@StartRaw@SC2APIProtocol@@UEBAPEAEPEAEPEAVEpsCopyOutputStream@io@protobuf@google@@@Z ; SC2APIProtocol::StartRaw::_InternalSerialize
PUBLIC	?GetCachedSize@StartRaw@SC2APIProtocol@@UEBAHXZ	; SC2APIProtocol::StartRaw::GetCachedSize
PUBLIC	?SharedCtor@StartRaw@SC2APIProtocol@@AEAAXPEAVArena@protobuf@google@@_N@Z ; SC2APIProtocol::StartRaw::SharedCtor
PUBLIC	?SharedDtor@StartRaw@SC2APIProtocol@@AEAAXXZ	; SC2APIProtocol::StartRaw::SharedDtor
PUBLIC	?SetCachedSize@StartRaw@SC2APIProtocol@@EEBAXH@Z ; SC2APIProtocol::StartRaw::SetCachedSize
PUBLIC	?InternalSwap@StartRaw@SC2APIProtocol@@AEAAXPEAV12@@Z ; SC2APIProtocol::StartRaw::InternalSwap
PUBLIC	??0StartRaw@SC2APIProtocol@@IEAA@PEAVArena@protobuf@google@@_N@Z ; SC2APIProtocol::StartRaw::StartRaw
PUBLIC	?GetClassData@StartRaw@SC2APIProtocol@@UEBAPEBUClassData@Message@protobuf@google@@XZ ; SC2APIProtocol::StartRaw::GetClassData
PUBLIC	?GetMetadata@StartRaw@SC2APIProtocol@@UEBA?AUMetadata@protobuf@google@@XZ ; SC2APIProtocol::StartRaw::GetMetadata
PUBLIC	?_internal_start_locations_size@StartRaw@SC2APIProtocol@@AEBAHXZ ; SC2APIProtocol::StartRaw::_internal_start_locations_size
PUBLIC	?clear_start_locations@StartRaw@SC2APIProtocol@@QEAAXXZ ; SC2APIProtocol::StartRaw::clear_start_locations
PUBLIC	?_internal_start_locations@StartRaw@SC2APIProtocol@@AEBAAEBVPoint2D@2@H@Z ; SC2APIProtocol::StartRaw::_internal_start_locations
PUBLIC	?_internal_add_start_locations@StartRaw@SC2APIProtocol@@AEAAPEAVPoint2D@2@XZ ; SC2APIProtocol::StartRaw::_internal_add_start_locations
PUBLIC	?_internal_has_map_size@StartRaw@SC2APIProtocol@@AEBA_NXZ ; SC2APIProtocol::StartRaw::_internal_has_map_size
PUBLIC	?clear_map_size@StartRaw@SC2APIProtocol@@QEAAXXZ ; SC2APIProtocol::StartRaw::clear_map_size
PUBLIC	?_internal_map_size@StartRaw@SC2APIProtocol@@AEBAAEBVSize2DI@2@XZ ; SC2APIProtocol::StartRaw::_internal_map_size
PUBLIC	?_internal_mutable_map_size@StartRaw@SC2APIProtocol@@AEAAPEAVSize2DI@2@XZ ; SC2APIProtocol::StartRaw::_internal_mutable_map_size
PUBLIC	?_internal_has_pathing_grid@StartRaw@SC2APIProtocol@@AEBA_NXZ ; SC2APIProtocol::StartRaw::_internal_has_pathing_grid
PUBLIC	?clear_pathing_grid@StartRaw@SC2APIProtocol@@QEAAXXZ ; SC2APIProtocol::StartRaw::clear_pathing_grid
PUBLIC	?_internal_pathing_grid@StartRaw@SC2APIProtocol@@AEBAAEBVImageData@2@XZ ; SC2APIProtocol::StartRaw::_internal_pathing_grid
PUBLIC	?_internal_mutable_pathing_grid@StartRaw@SC2APIProtocol@@AEAAPEAVImageData@2@XZ ; SC2APIProtocol::StartRaw::_internal_mutable_pathing_grid
PUBLIC	?_internal_has_terrain_height@StartRaw@SC2APIProtocol@@AEBA_NXZ ; SC2APIProtocol::StartRaw::_internal_has_terrain_height
PUBLIC	?clear_terrain_height@StartRaw@SC2APIProtocol@@QEAAXXZ ; SC2APIProtocol::StartRaw::clear_terrain_height
PUBLIC	?_internal_terrain_height@StartRaw@SC2APIProtocol@@AEBAAEBVImageData@2@XZ ; SC2APIProtocol::StartRaw::_internal_terrain_height
PUBLIC	?_internal_mutable_terrain_height@StartRaw@SC2APIProtocol@@AEAAPEAVImageData@2@XZ ; SC2APIProtocol::StartRaw::_internal_mutable_terrain_height
PUBLIC	?_internal_has_placement_grid@StartRaw@SC2APIProtocol@@AEBA_NXZ ; SC2APIProtocol::StartRaw::_internal_has_placement_grid
PUBLIC	?clear_placement_grid@StartRaw@SC2APIProtocol@@QEAAXXZ ; SC2APIProtocol::StartRaw::clear_placement_grid
PUBLIC	?_internal_placement_grid@StartRaw@SC2APIProtocol@@AEBAAEBVImageData@2@XZ ; SC2APIProtocol::StartRaw::_internal_placement_grid
PUBLIC	?_internal_mutable_placement_grid@StartRaw@SC2APIProtocol@@AEAAPEAVImageData@2@XZ ; SC2APIProtocol::StartRaw::_internal_mutable_placement_grid
PUBLIC	?_internal_has_playable_area@StartRaw@SC2APIProtocol@@AEBA_NXZ ; SC2APIProtocol::StartRaw::_internal_has_playable_area
PUBLIC	?clear_playable_area@StartRaw@SC2APIProtocol@@QEAAXXZ ; SC2APIProtocol::StartRaw::clear_playable_area
PUBLIC	?_internal_playable_area@StartRaw@SC2APIProtocol@@AEBAAEBVRectangleI@2@XZ ; SC2APIProtocol::StartRaw::_internal_playable_area
PUBLIC	?_internal_mutable_playable_area@StartRaw@SC2APIProtocol@@AEAAPEAVRectangleI@2@XZ ; SC2APIProtocol::StartRaw::_internal_mutable_playable_area
PUBLIC	??0?$RepeatedPtrField@VPoint2D@SC2APIProtocol@@@protobuf@google@@QEAA@XZ ; google::protobuf::RepeatedPtrField<SC2APIProtocol::Point2D>::RepeatedPtrField<SC2APIProtocol::Point2D>
PUBLIC	??0?$RepeatedPtrField@VPoint2D@SC2APIProtocol@@@protobuf@google@@QEAA@PEAVArena@12@@Z ; google::protobuf::RepeatedPtrField<SC2APIProtocol::Point2D>::RepeatedPtrField<SC2APIProtocol::Point2D>
PUBLIC	??0?$RepeatedPtrField@VPoint2D@SC2APIProtocol@@@protobuf@google@@QEAA@AEBV012@@Z ; google::protobuf::RepeatedPtrField<SC2APIProtocol::Point2D>::RepeatedPtrField<SC2APIProtocol::Point2D>
PUBLIC	??1?$RepeatedPtrField@VPoint2D@SC2APIProtocol@@@protobuf@google@@QEAA@XZ ; google::protobuf::RepeatedPtrField<SC2APIProtocol::Point2D>::~RepeatedPtrField<SC2APIProtocol::Point2D>
PUBLIC	?size@?$RepeatedPtrField@VPoint2D@SC2APIProtocol@@@protobuf@google@@QEBAHXZ ; google::protobuf::RepeatedPtrField<SC2APIProtocol::Point2D>::size
PUBLIC	?Get@?$RepeatedPtrField@VPoint2D@SC2APIProtocol@@@protobuf@google@@QEBAAEBVPoint2D@SC2APIProtocol@@H@Z ; google::protobuf::RepeatedPtrField<SC2APIProtocol::Point2D>::Get
PUBLIC	?Add@?$RepeatedPtrField@VPoint2D@SC2APIProtocol@@@protobuf@google@@QEAAPEAVPoint2D@SC2APIProtocol@@XZ ; google::protobuf::RepeatedPtrField<SC2APIProtocol::Point2D>::Add
PUBLIC	?Clear@?$RepeatedPtrField@VPoint2D@SC2APIProtocol@@@protobuf@google@@QEAAXXZ ; google::protobuf::RepeatedPtrField<SC2APIProtocol::Point2D>::Clear
PUBLIC	?MergeFrom@?$RepeatedPtrField@VPoint2D@SC2APIProtocol@@@protobuf@google@@QEAAXAEBV123@@Z ; google::protobuf::RepeatedPtrField<SC2APIProtocol::Point2D>::MergeFrom
PUBLIC	?begin@?$RepeatedPtrField@VPoint2D@SC2APIProtocol@@@protobuf@google@@QEBA?AV?$RepeatedPtrIterator@$$CBVPoint2D@SC2APIProtocol@@@internal@23@XZ ; google::protobuf::RepeatedPtrField<SC2APIProtocol::Point2D>::begin
PUBLIC	?end@?$RepeatedPtrField@VPoint2D@SC2APIProtocol@@@protobuf@google@@QEBA?AV?$RepeatedPtrIterator@$$CBVPoint2D@SC2APIProtocol@@@internal@23@XZ ; google::protobuf::RepeatedPtrField<SC2APIProtocol::Point2D>::end
PUBLIC	?InternalSwap@?$RepeatedPtrField@VPoint2D@SC2APIProtocol@@@protobuf@google@@QEAAXPEAV123@@Z ; google::protobuf::RepeatedPtrField<SC2APIProtocol::Point2D>::InternalSwap
PUBLIC	??_G?$RepeatedPtrField@VPoint2D@SC2APIProtocol@@@protobuf@google@@QEAAPEAXI@Z ; google::protobuf::RepeatedPtrField<SC2APIProtocol::Point2D>::`scalar deleting destructor'
PUBLIC	??_GStartRaw@SC2APIProtocol@@UEAAPEAXI@Z	; SC2APIProtocol::StartRaw::`scalar deleting destructor'
PUBLIC	??$CreateMaybeMessage@VStartRaw@SC2APIProtocol@@@MessageLite@protobuf@google@@KAPEAVStartRaw@SC2APIProtocol@@PEAVArena@12@@Z ; google::protobuf::MessageLite::CreateMaybeMessage<SC2APIProtocol::StartRaw>
PUBLIC	??1ObservationRaw@SC2APIProtocol@@UEAA@XZ	; SC2APIProtocol::ObservationRaw::~ObservationRaw
PUBLIC	??0ObservationRaw@SC2APIProtocol@@QEAA@UConstantInitialized@internal@protobuf@google@@@Z ; SC2APIProtocol::ObservationRaw::ObservationRaw
PUBLIC	??0ObservationRaw@SC2APIProtocol@@QEAA@AEBV01@@Z ; SC2APIProtocol::ObservationRaw::ObservationRaw
PUBLIC	?internal_default_instance@ObservationRaw@SC2APIProtocol@@SAPEBV12@XZ ; SC2APIProtocol::ObservationRaw::internal_default_instance
PUBLIC	?New@ObservationRaw@SC2APIProtocol@@UEBAPEAV12@PEAVArena@protobuf@google@@@Z ; SC2APIProtocol::ObservationRaw::New
PUBLIC	?CopyFrom@ObservationRaw@SC2APIProtocol@@QEAAXAEBV12@@Z ; SC2APIProtocol::ObservationRaw::CopyFrom
PUBLIC	?MergeFrom@ObservationRaw@SC2APIProtocol@@QEAAXAEBV12@@Z ; SC2APIProtocol::ObservationRaw::MergeFrom
PUBLIC	?Clear@ObservationRaw@SC2APIProtocol@@UEAAXXZ	; SC2APIProtocol::ObservationRaw::Clear
PUBLIC	?IsInitialized@ObservationRaw@SC2APIProtocol@@UEBA_NXZ ; SC2APIProtocol::ObservationRaw::IsInitialized
PUBLIC	?ByteSizeLong@ObservationRaw@SC2APIProtocol@@UEBA_KXZ ; SC2APIProtocol::ObservationRaw::ByteSizeLong
PUBLIC	?_InternalParse@ObservationRaw@SC2APIProtocol@@UEAAPEBDPEBDPEAVParseContext@internal@protobuf@google@@@Z ; SC2APIProtocol::ObservationRaw::_InternalParse
PUBLIC	?_InternalSerialize@ObservationRaw@SC2APIProtocol@@UEBAPEAEPEAEPEAVEpsCopyOutputStream@io@protobuf@google@@@Z ; SC2APIProtocol::ObservationRaw::_InternalSerialize
PUBLIC	?GetCachedSize@ObservationRaw@SC2APIProtocol@@UEBAHXZ ; SC2APIProtocol::ObservationRaw::GetCachedSize
PUBLIC	?SharedCtor@ObservationRaw@SC2APIProtocol@@AEAAXPEAVArena@protobuf@google@@_N@Z ; SC2APIProtocol::ObservationRaw::SharedCtor
PUBLIC	?SharedDtor@ObservationRaw@SC2APIProtocol@@AEAAXXZ ; SC2APIProtocol::ObservationRaw::SharedDtor
PUBLIC	?SetCachedSize@ObservationRaw@SC2APIProtocol@@EEBAXH@Z ; SC2APIProtocol::ObservationRaw::SetCachedSize
PUBLIC	?InternalSwap@ObservationRaw@SC2APIProtocol@@AEAAXPEAV12@@Z ; SC2APIProtocol::ObservationRaw::InternalSwap
PUBLIC	??0ObservationRaw@SC2APIProtocol@@IEAA@PEAVArena@protobuf@google@@_N@Z ; SC2APIProtocol::ObservationRaw::ObservationRaw
PUBLIC	?GetClassData@ObservationRaw@SC2APIProtocol@@UEBAPEBUClassData@Message@protobuf@google@@XZ ; SC2APIProtocol::ObservationRaw::GetClassData
PUBLIC	?GetMetadata@ObservationRaw@SC2APIProtocol@@UEBA?AUMetadata@protobuf@google@@XZ ; SC2APIProtocol::ObservationRaw::GetMetadata
PUBLIC	?_internal_units_size@ObservationRaw@SC2APIProtocol@@AEBAHXZ ; SC2APIProtocol::ObservationRaw::_internal_units_size
PUBLIC	?_internal_units@ObservationRaw@SC2APIProtocol@@AEBAAEBVUnit@2@H@Z ; SC2APIProtocol::ObservationRaw::_internal_units
PUBLIC	?_internal_add_units@ObservationRaw@SC2APIProtocol@@AEAAPEAVUnit@2@XZ ; SC2APIProtocol::ObservationRaw::_internal_add_units
PUBLIC	?_internal_effects_size@ObservationRaw@SC2APIProtocol@@AEBAHXZ ; SC2APIProtocol::ObservationRaw::_internal_effects_size
PUBLIC	?_internal_effects@ObservationRaw@SC2APIProtocol@@AEBAAEBVEffect@2@H@Z ; SC2APIProtocol::ObservationRaw::_internal_effects
PUBLIC	?_internal_add_effects@ObservationRaw@SC2APIProtocol@@AEAAPEAVEffect@2@XZ ; SC2APIProtocol::ObservationRaw::_internal_add_effects
PUBLIC	?_internal_radar_size@ObservationRaw@SC2APIProtocol@@AEBAHXZ ; SC2APIProtocol::ObservationRaw::_internal_radar_size
PUBLIC	?_internal_radar@ObservationRaw@SC2APIProtocol@@AEBAAEBVRadarRing@2@H@Z ; SC2APIProtocol::ObservationRaw::_internal_radar
PUBLIC	?_internal_add_radar@ObservationRaw@SC2APIProtocol@@AEAAPEAVRadarRing@2@XZ ; SC2APIProtocol::ObservationRaw::_internal_add_radar
PUBLIC	?_internal_has_player@ObservationRaw@SC2APIProtocol@@AEBA_NXZ ; SC2APIProtocol::ObservationRaw::_internal_has_player
PUBLIC	?_internal_player@ObservationRaw@SC2APIProtocol@@AEBAAEBVPlayerRaw@2@XZ ; SC2APIProtocol::ObservationRaw::_internal_player
PUBLIC	?_internal_mutable_player@ObservationRaw@SC2APIProtocol@@AEAAPEAVPlayerRaw@2@XZ ; SC2APIProtocol::ObservationRaw::_internal_mutable_player
PUBLIC	?_internal_has_map_state@ObservationRaw@SC2APIProtocol@@AEBA_NXZ ; SC2APIProtocol::ObservationRaw::_internal_has_map_state
PUBLIC	?_internal_map_state@ObservationRaw@SC2APIProtocol@@AEBAAEBVMapState@2@XZ ; SC2APIProtocol::ObservationRaw::_internal_map_state
PUBLIC	?_internal_mutable_map_state@ObservationRaw@SC2APIProtocol@@AEAAPEAVMapState@2@XZ ; SC2APIProtocol::ObservationRaw::_internal_mutable_map_state
PUBLIC	?_internal_has_event@ObservationRaw@SC2APIProtocol@@AEBA_NXZ ; SC2APIProtocol::ObservationRaw::_internal_has_event
PUBLIC	?_internal_event@ObservationRaw@SC2APIProtocol@@AEBAAEBVEvent@2@XZ ; SC2APIProtocol::ObservationRaw::_internal_event
PUBLIC	?_internal_mutable_event@ObservationRaw@SC2APIProtocol@@AEAAPEAVEvent@2@XZ ; SC2APIProtocol::ObservationRaw::_internal_mutable_event
PUBLIC	??0?$RepeatedPtrField@VUnit@SC2APIProtocol@@@protobuf@google@@QEAA@XZ ; google::protobuf::RepeatedPtrField<SC2APIProtocol::Unit>::RepeatedPtrField<SC2APIProtocol::Unit>
PUBLIC	??0?$RepeatedPtrField@VUnit@SC2APIProtocol@@@protobuf@google@@QEAA@PEAVArena@12@@Z ; google::protobuf::RepeatedPtrField<SC2APIProtocol::Unit>::RepeatedPtrField<SC2APIProtocol::Unit>
PUBLIC	??0?$RepeatedPtrField@VUnit@SC2APIProtocol@@@protobuf@google@@QEAA@AEBV012@@Z ; google::protobuf::RepeatedPtrField<SC2APIProtocol::Unit>::RepeatedPtrField<SC2APIProtocol::Unit>
PUBLIC	??1?$RepeatedPtrField@VUnit@SC2APIProtocol@@@protobuf@google@@QEAA@XZ ; google::protobuf::RepeatedPtrField<SC2APIProtocol::Unit>::~RepeatedPtrField<SC2APIProtocol::Unit>
PUBLIC	?size@?$RepeatedPtrField@VUnit@SC2APIProtocol@@@protobuf@google@@QEBAHXZ ; google::protobuf::RepeatedPtrField<SC2APIProtocol::Unit>::size
PUBLIC	?Get@?$RepeatedPtrField@VUnit@SC2APIProtocol@@@protobuf@google@@QEBAAEBVUnit@SC2APIProtocol@@H@Z ; google::protobuf::RepeatedPtrField<SC2APIProtocol::Unit>::Get
PUBLIC	?Add@?$RepeatedPtrField@VUnit@SC2APIProtocol@@@protobuf@google@@QEAAPEAVUnit@SC2APIProtocol@@XZ ; google::protobuf::RepeatedPtrField<SC2APIProtocol::Unit>::Add
PUBLIC	?Clear@?$RepeatedPtrField@VUnit@SC2APIProtocol@@@protobuf@google@@QEAAXXZ ; google::protobuf::RepeatedPtrField<SC2APIProtocol::Unit>::Clear
PUBLIC	?MergeFrom@?$RepeatedPtrField@VUnit@SC2APIProtocol@@@protobuf@google@@QEAAXAEBV123@@Z ; google::protobuf::RepeatedPtrField<SC2APIProtocol::Unit>::MergeFrom
PUBLIC	?begin@?$RepeatedPtrField@VUnit@SC2APIProtocol@@@protobuf@google@@QEBA?AV?$RepeatedPtrIterator@$$CBVUnit@SC2APIProtocol@@@internal@23@XZ ; google::protobuf::RepeatedPtrField<SC2APIProtocol::Unit>::begin
PUBLIC	?end@?$RepeatedPtrField@VUnit@SC2APIProtocol@@@protobuf@google@@QEBA?AV?$RepeatedPtrIterator@$$CBVUnit@SC2APIProtocol@@@internal@23@XZ ; google::protobuf::RepeatedPtrField<SC2APIProtocol::Unit>::end
PUBLIC	?InternalSwap@?$RepeatedPtrField@VUnit@SC2APIProtocol@@@protobuf@google@@QEAAXPEAV123@@Z ; google::protobuf::RepeatedPtrField<SC2APIProtocol::Unit>::InternalSwap
PUBLIC	??_G?$RepeatedPtrField@VUnit@SC2APIProtocol@@@protobuf@google@@QEAAPEAXI@Z ; google::protobuf::RepeatedPtrField<SC2APIProtocol::Unit>::`scalar deleting destructor'
PUBLIC	??0?$RepeatedPtrField@VEffect@SC2APIProtocol@@@protobuf@google@@QEAA@XZ ; google::protobuf::RepeatedPtrField<SC2APIProtocol::Effect>::RepeatedPtrField<SC2APIProtocol::Effect>
PUBLIC	??0?$RepeatedPtrField@VEffect@SC2APIProtocol@@@protobuf@google@@QEAA@PEAVArena@12@@Z ; google::protobuf::RepeatedPtrField<SC2APIProtocol::Effect>::RepeatedPtrField<SC2APIProtocol::Effect>
PUBLIC	??0?$RepeatedPtrField@VEffect@SC2APIProtocol@@@protobuf@google@@QEAA@AEBV012@@Z ; google::protobuf::RepeatedPtrField<SC2APIProtocol::Effect>::RepeatedPtrField<SC2APIProtocol::Effect>
PUBLIC	??1?$RepeatedPtrField@VEffect@SC2APIProtocol@@@protobuf@google@@QEAA@XZ ; google::protobuf::RepeatedPtrField<SC2APIProtocol::Effect>::~RepeatedPtrField<SC2APIProtocol::Effect>
PUBLIC	?size@?$RepeatedPtrField@VEffect@SC2APIProtocol@@@protobuf@google@@QEBAHXZ ; google::protobuf::RepeatedPtrField<SC2APIProtocol::Effect>::size
PUBLIC	?Get@?$RepeatedPtrField@VEffect@SC2APIProtocol@@@protobuf@google@@QEBAAEBVEffect@SC2APIProtocol@@H@Z ; google::protobuf::RepeatedPtrField<SC2APIProtocol::Effect>::Get
PUBLIC	?Add@?$RepeatedPtrField@VEffect@SC2APIProtocol@@@protobuf@google@@QEAAPEAVEffect@SC2APIProtocol@@XZ ; google::protobuf::RepeatedPtrField<SC2APIProtocol::Effect>::Add
PUBLIC	?Clear@?$RepeatedPtrField@VEffect@SC2APIProtocol@@@protobuf@google@@QEAAXXZ ; google::protobuf::RepeatedPtrField<SC2APIProtocol::Effect>::Clear
PUBLIC	?MergeFrom@?$RepeatedPtrField@VEffect@SC2APIProtocol@@@protobuf@google@@QEAAXAEBV123@@Z ; google::protobuf::RepeatedPtrField<SC2APIProtocol::Effect>::MergeFrom
PUBLIC	?begin@?$RepeatedPtrField@VEffect@SC2APIProtocol@@@protobuf@google@@QEBA?AV?$RepeatedPtrIterator@$$CBVEffect@SC2APIProtocol@@@internal@23@XZ ; google::protobuf::RepeatedPtrField<SC2APIProtocol::Effect>::begin
PUBLIC	?end@?$RepeatedPtrField@VEffect@SC2APIProtocol@@@protobuf@google@@QEBA?AV?$RepeatedPtrIterator@$$CBVEffect@SC2APIProtocol@@@internal@23@XZ ; google::protobuf::RepeatedPtrField<SC2APIProtocol::Effect>::end
PUBLIC	?InternalSwap@?$RepeatedPtrField@VEffect@SC2APIProtocol@@@protobuf@google@@QEAAXPEAV123@@Z ; google::protobuf::RepeatedPtrField<SC2APIProtocol::Effect>::InternalSwap
PUBLIC	??_G?$RepeatedPtrField@VEffect@SC2APIProtocol@@@protobuf@google@@QEAAPEAXI@Z ; google::protobuf::RepeatedPtrField<SC2APIProtocol::Effect>::`scalar deleting destructor'
PUBLIC	??0?$RepeatedPtrField@VRadarRing@SC2APIProtocol@@@protobuf@google@@QEAA@XZ ; google::protobuf::RepeatedPtrField<SC2APIProtocol::RadarRing>::RepeatedPtrField<SC2APIProtocol::RadarRing>
PUBLIC	??0?$RepeatedPtrField@VRadarRing@SC2APIProtocol@@@protobuf@google@@QEAA@PEAVArena@12@@Z ; google::protobuf::RepeatedPtrField<SC2APIProtocol::RadarRing>::RepeatedPtrField<SC2APIProtocol::RadarRing>
PUBLIC	??0?$RepeatedPtrField@VRadarRing@SC2APIProtocol@@@protobuf@google@@QEAA@AEBV012@@Z ; google::protobuf::RepeatedPtrField<SC2APIProtocol::RadarRing>::RepeatedPtrField<SC2APIProtocol::RadarRing>
PUBLIC	??1?$RepeatedPtrField@VRadarRing@SC2APIProtocol@@@protobuf@google@@QEAA@XZ ; google::protobuf::RepeatedPtrField<SC2APIProtocol::RadarRing>::~RepeatedPtrField<SC2APIProtocol::RadarRing>
PUBLIC	?size@?$RepeatedPtrField@VRadarRing@SC2APIProtocol@@@protobuf@google@@QEBAHXZ ; google::protobuf::RepeatedPtrField<SC2APIProtocol::RadarRing>::size
PUBLIC	?Get@?$RepeatedPtrField@VRadarRing@SC2APIProtocol@@@protobuf@google@@QEBAAEBVRadarRing@SC2APIProtocol@@H@Z ; google::protobuf::RepeatedPtrField<SC2APIProtocol::RadarRing>::Get
PUBLIC	?Add@?$RepeatedPtrField@VRadarRing@SC2APIProtocol@@@protobuf@google@@QEAAPEAVRadarRing@SC2APIProtocol@@XZ ; google::protobuf::RepeatedPtrField<SC2APIProtocol::RadarRing>::Add
PUBLIC	?Clear@?$RepeatedPtrField@VRadarRing@SC2APIProtocol@@@protobuf@google@@QEAAXXZ ; google::protobuf::RepeatedPtrField<SC2APIProtocol::RadarRing>::Clear
PUBLIC	?MergeFrom@?$RepeatedPtrField@VRadarRing@SC2APIProtocol@@@protobuf@google@@QEAAXAEBV123@@Z ; google::protobuf::RepeatedPtrField<SC2APIProtocol::RadarRing>::MergeFrom
PUBLIC	?begin@?$RepeatedPtrField@VRadarRing@SC2APIProtocol@@@protobuf@google@@QEBA?AV?$RepeatedPtrIterator@$$CBVRadarRing@SC2APIProtocol@@@internal@23@XZ ; google::protobuf::RepeatedPtrField<SC2APIProtocol::RadarRing>::begin
PUBLIC	?end@?$RepeatedPtrField@VRadarRing@SC2APIProtocol@@@protobuf@google@@QEBA?AV?$RepeatedPtrIterator@$$CBVRadarRing@SC2APIProtocol@@@internal@23@XZ ; google::protobuf::RepeatedPtrField<SC2APIProtocol::RadarRing>::end
PUBLIC	?InternalSwap@?$RepeatedPtrField@VRadarRing@SC2APIProtocol@@@protobuf@google@@QEAAXPEAV123@@Z ; google::protobuf::RepeatedPtrField<SC2APIProtocol::RadarRing>::InternalSwap
PUBLIC	??_G?$RepeatedPtrField@VRadarRing@SC2APIProtocol@@@protobuf@google@@QEAAPEAXI@Z ; google::protobuf::RepeatedPtrField<SC2APIProtocol::RadarRing>::`scalar deleting destructor'
PUBLIC	??_GObservationRaw@SC2APIProtocol@@UEAAPEAXI@Z	; SC2APIProtocol::ObservationRaw::`scalar deleting destructor'
PUBLIC	??$CreateMaybeMessage@VObservationRaw@SC2APIProtocol@@@MessageLite@protobuf@google@@KAPEAVObservationRaw@SC2APIProtocol@@PEAVArena@12@@Z ; google::protobuf::MessageLite::CreateMaybeMessage<SC2APIProtocol::ObservationRaw>
PUBLIC	??1RadarRing@SC2APIProtocol@@UEAA@XZ		; SC2APIProtocol::RadarRing::~RadarRing
PUBLIC	??0RadarRing@SC2APIProtocol@@QEAA@AEBV01@@Z	; SC2APIProtocol::RadarRing::RadarRing
PUBLIC	?internal_default_instance@RadarRing@SC2APIProtocol@@SAPEBV12@XZ ; SC2APIProtocol::RadarRing::internal_default_instance
PUBLIC	?CopyFrom@RadarRing@SC2APIProtocol@@QEAAXAEBV12@@Z ; SC2APIProtocol::RadarRing::CopyFrom
PUBLIC	?MergeFrom@RadarRing@SC2APIProtocol@@QEAAXAEBV12@@Z ; SC2APIProtocol::RadarRing::MergeFrom
PUBLIC	?SharedCtor@RadarRing@SC2APIProtocol@@AEAAXPEAVArena@protobuf@google@@_N@Z ; SC2APIProtocol::RadarRing::SharedCtor
PUBLIC	?SharedDtor@RadarRing@SC2APIProtocol@@AEAAXXZ	; SC2APIProtocol::RadarRing::SharedDtor
PUBLIC	?InternalSwap@RadarRing@SC2APIProtocol@@AEAAXPEAV12@@Z ; SC2APIProtocol::RadarRing::InternalSwap
PUBLIC	??0RadarRing@SC2APIProtocol@@IEAA@PEAVArena@protobuf@google@@_N@Z ; SC2APIProtocol::RadarRing::RadarRing
PUBLIC	?_internal_has_pos@RadarRing@SC2APIProtocol@@AEBA_NXZ ; SC2APIProtocol::RadarRing::_internal_has_pos
PUBLIC	?clear_pos@RadarRing@SC2APIProtocol@@QEAAXXZ	; SC2APIProtocol::RadarRing::clear_pos
PUBLIC	?_internal_pos@RadarRing@SC2APIProtocol@@AEBAAEBVPoint@2@XZ ; SC2APIProtocol::RadarRing::_internal_pos
PUBLIC	?_internal_mutable_pos@RadarRing@SC2APIProtocol@@AEAAPEAVPoint@2@XZ ; SC2APIProtocol::RadarRing::_internal_mutable_pos
PUBLIC	?_internal_radius@RadarRing@SC2APIProtocol@@AEBAMXZ ; SC2APIProtocol::RadarRing::_internal_radius
PUBLIC	??$CreateMaybeMessage@VRadarRing@SC2APIProtocol@@@MessageLite@protobuf@google@@KAPEAVRadarRing@SC2APIProtocol@@PEAVArena@12@@Z ; google::protobuf::MessageLite::CreateMaybeMessage<SC2APIProtocol::RadarRing>
PUBLIC	??1PowerSource@SC2APIProtocol@@UEAA@XZ		; SC2APIProtocol::PowerSource::~PowerSource
PUBLIC	??0PowerSource@SC2APIProtocol@@QEAA@AEBV01@@Z	; SC2APIProtocol::PowerSource::PowerSource
PUBLIC	?internal_default_instance@PowerSource@SC2APIProtocol@@SAPEBV12@XZ ; SC2APIProtocol::PowerSource::internal_default_instance
PUBLIC	?CopyFrom@PowerSource@SC2APIProtocol@@QEAAXAEBV12@@Z ; SC2APIProtocol::PowerSource::CopyFrom
PUBLIC	?MergeFrom@PowerSource@SC2APIProtocol@@QEAAXAEBV12@@Z ; SC2APIProtocol::PowerSource::MergeFrom
PUBLIC	?SharedCtor@PowerSource@SC2APIProtocol@@AEAAXPEAVArena@protobuf@google@@_N@Z ; SC2APIProtocol::PowerSource::SharedCtor
PUBLIC	?SharedDtor@PowerSource@SC2APIProtocol@@AEAAXXZ	; SC2APIProtocol::PowerSource::SharedDtor
PUBLIC	?InternalSwap@PowerSource@SC2APIProtocol@@AEAAXPEAV12@@Z ; SC2APIProtocol::PowerSource::InternalSwap
PUBLIC	??0PowerSource@SC2APIProtocol@@IEAA@PEAVArena@protobuf@google@@_N@Z ; SC2APIProtocol::PowerSource::PowerSource
PUBLIC	?_internal_has_pos@PowerSource@SC2APIProtocol@@AEBA_NXZ ; SC2APIProtocol::PowerSource::_internal_has_pos
PUBLIC	?clear_pos@PowerSource@SC2APIProtocol@@QEAAXXZ	; SC2APIProtocol::PowerSource::clear_pos
PUBLIC	?_internal_pos@PowerSource@SC2APIProtocol@@AEBAAEBVPoint@2@XZ ; SC2APIProtocol::PowerSource::_internal_pos
PUBLIC	?_internal_mutable_pos@PowerSource@SC2APIProtocol@@AEAAPEAVPoint@2@XZ ; SC2APIProtocol::PowerSource::_internal_mutable_pos
PUBLIC	?_internal_tag@PowerSource@SC2APIProtocol@@AEBA_KXZ ; SC2APIProtocol::PowerSource::_internal_tag
PUBLIC	?_internal_radius@PowerSource@SC2APIProtocol@@AEBAMXZ ; SC2APIProtocol::PowerSource::_internal_radius
PUBLIC	??$CreateMaybeMessage@VPowerSource@SC2APIProtocol@@@MessageLite@protobuf@google@@KAPEAVPowerSource@SC2APIProtocol@@PEAVArena@12@@Z ; google::protobuf::MessageLite::CreateMaybeMessage<SC2APIProtocol::PowerSource>
PUBLIC	??1PlayerRaw@SC2APIProtocol@@UEAA@XZ		; SC2APIProtocol::PlayerRaw::~PlayerRaw
PUBLIC	??0PlayerRaw@SC2APIProtocol@@QEAA@UConstantInitialized@internal@protobuf@google@@@Z ; SC2APIProtocol::PlayerRaw::PlayerRaw
PUBLIC	??0PlayerRaw@SC2APIProtocol@@QEAA@AEBV01@@Z	; SC2APIProtocol::PlayerRaw::PlayerRaw
PUBLIC	?internal_default_instance@PlayerRaw@SC2APIProtocol@@SAPEBV12@XZ ; SC2APIProtocol::PlayerRaw::internal_default_instance
PUBLIC	?New@PlayerRaw@SC2APIProtocol@@UEBAPEAV12@PEAVArena@protobuf@google@@@Z ; SC2APIProtocol::PlayerRaw::New
PUBLIC	?CopyFrom@PlayerRaw@SC2APIProtocol@@QEAAXAEBV12@@Z ; SC2APIProtocol::PlayerRaw::CopyFrom
PUBLIC	?MergeFrom@PlayerRaw@SC2APIProtocol@@QEAAXAEBV12@@Z ; SC2APIProtocol::PlayerRaw::MergeFrom
PUBLIC	?Clear@PlayerRaw@SC2APIProtocol@@UEAAXXZ	; SC2APIProtocol::PlayerRaw::Clear
PUBLIC	?IsInitialized@PlayerRaw@SC2APIProtocol@@UEBA_NXZ ; SC2APIProtocol::PlayerRaw::IsInitialized
PUBLIC	?ByteSizeLong@PlayerRaw@SC2APIProtocol@@UEBA_KXZ ; SC2APIProtocol::PlayerRaw::ByteSizeLong
PUBLIC	?_InternalParse@PlayerRaw@SC2APIProtocol@@UEAAPEBDPEBDPEAVParseContext@internal@protobuf@google@@@Z ; SC2APIProtocol::PlayerRaw::_InternalParse
PUBLIC	?_InternalSerialize@PlayerRaw@SC2APIProtocol@@UEBAPEAEPEAEPEAVEpsCopyOutputStream@io@protobuf@google@@@Z ; SC2APIProtocol::PlayerRaw::_InternalSerialize
PUBLIC	?GetCachedSize@PlayerRaw@SC2APIProtocol@@UEBAHXZ ; SC2APIProtocol::PlayerRaw::GetCachedSize
PUBLIC	?SharedCtor@PlayerRaw@SC2APIProtocol@@AEAAXPEAVArena@protobuf@google@@_N@Z ; SC2APIProtocol::PlayerRaw::SharedCtor
PUBLIC	?SharedDtor@PlayerRaw@SC2APIProtocol@@AEAAXXZ	; SC2APIProtocol::PlayerRaw::SharedDtor
PUBLIC	?SetCachedSize@PlayerRaw@SC2APIProtocol@@EEBAXH@Z ; SC2APIProtocol::PlayerRaw::SetCachedSize
PUBLIC	?InternalSwap@PlayerRaw@SC2APIProtocol@@AEAAXPEAV12@@Z ; SC2APIProtocol::PlayerRaw::InternalSwap
PUBLIC	??0PlayerRaw@SC2APIProtocol@@IEAA@PEAVArena@protobuf@google@@_N@Z ; SC2APIProtocol::PlayerRaw::PlayerRaw
PUBLIC	?GetClassData@PlayerRaw@SC2APIProtocol@@UEBAPEBUClassData@Message@protobuf@google@@XZ ; SC2APIProtocol::PlayerRaw::GetClassData
PUBLIC	?GetMetadata@PlayerRaw@SC2APIProtocol@@UEBA?AUMetadata@protobuf@google@@XZ ; SC2APIProtocol::PlayerRaw::GetMetadata
PUBLIC	?_internal_power_sources_size@PlayerRaw@SC2APIProtocol@@AEBAHXZ ; SC2APIProtocol::PlayerRaw::_internal_power_sources_size
PUBLIC	?_internal_power_sources@PlayerRaw@SC2APIProtocol@@AEBAAEBVPowerSource@2@H@Z ; SC2APIProtocol::PlayerRaw::_internal_power_sources
PUBLIC	?_internal_add_power_sources@PlayerRaw@SC2APIProtocol@@AEAAPEAVPowerSource@2@XZ ; SC2APIProtocol::PlayerRaw::_internal_add_power_sources
PUBLIC	?_internal_upgrade_ids_size@PlayerRaw@SC2APIProtocol@@AEBAHXZ ; SC2APIProtocol::PlayerRaw::_internal_upgrade_ids_size
PUBLIC	?_internal_upgrade_ids@PlayerRaw@SC2APIProtocol@@AEBAIH@Z ; SC2APIProtocol::PlayerRaw::_internal_upgrade_ids
PUBLIC	?_internal_add_upgrade_ids@PlayerRaw@SC2APIProtocol@@AEAAXI@Z ; SC2APIProtocol::PlayerRaw::_internal_add_upgrade_ids
PUBLIC	?_internal_mutable_upgrade_ids@PlayerRaw@SC2APIProtocol@@AEAAPEAV?$RepeatedField@I@protobuf@google@@XZ ; SC2APIProtocol::PlayerRaw::_internal_mutable_upgrade_ids
PUBLIC	?_internal_has_camera@PlayerRaw@SC2APIProtocol@@AEBA_NXZ ; SC2APIProtocol::PlayerRaw::_internal_has_camera
PUBLIC	?clear_camera@PlayerRaw@SC2APIProtocol@@QEAAXXZ	; SC2APIProtocol::PlayerRaw::clear_camera
PUBLIC	?_internal_camera@PlayerRaw@SC2APIProtocol@@AEBAAEBVPoint@2@XZ ; SC2APIProtocol::PlayerRaw::_internal_camera
PUBLIC	?_internal_mutable_camera@PlayerRaw@SC2APIProtocol@@AEAAPEAVPoint@2@XZ ; SC2APIProtocol::PlayerRaw::_internal_mutable_camera
PUBLIC	??0?$RepeatedPtrField@VPowerSource@SC2APIProtocol@@@protobuf@google@@QEAA@XZ ; google::protobuf::RepeatedPtrField<SC2APIProtocol::PowerSource>::RepeatedPtrField<SC2APIProtocol::PowerSource>
PUBLIC	??0?$RepeatedPtrField@VPowerSource@SC2APIProtocol@@@protobuf@google@@QEAA@PEAVArena@12@@Z ; google::protobuf::RepeatedPtrField<SC2APIProtocol::PowerSource>::RepeatedPtrField<SC2APIProtocol::PowerSource>
PUBLIC	??0?$RepeatedPtrField@VPowerSource@SC2APIProtocol@@@protobuf@google@@QEAA@AEBV012@@Z ; google::protobuf::RepeatedPtrField<SC2APIProtocol::PowerSource>::RepeatedPtrField<SC2APIProtocol::PowerSource>
PUBLIC	??1?$RepeatedPtrField@VPowerSource@SC2APIProtocol@@@protobuf@google@@QEAA@XZ ; google::protobuf::RepeatedPtrField<SC2APIProtocol::PowerSource>::~RepeatedPtrField<SC2APIProtocol::PowerSource>
PUBLIC	?size@?$RepeatedPtrField@VPowerSource@SC2APIProtocol@@@protobuf@google@@QEBAHXZ ; google::protobuf::RepeatedPtrField<SC2APIProtocol::PowerSource>::size
PUBLIC	?Get@?$RepeatedPtrField@VPowerSource@SC2APIProtocol@@@protobuf@google@@QEBAAEBVPowerSource@SC2APIProtocol@@H@Z ; google::protobuf::RepeatedPtrField<SC2APIProtocol::PowerSource>::Get
PUBLIC	?Add@?$RepeatedPtrField@VPowerSource@SC2APIProtocol@@@protobuf@google@@QEAAPEAVPowerSource@SC2APIProtocol@@XZ ; google::protobuf::RepeatedPtrField<SC2APIProtocol::PowerSource>::Add
PUBLIC	?Clear@?$RepeatedPtrField@VPowerSource@SC2APIProtocol@@@protobuf@google@@QEAAXXZ ; google::protobuf::RepeatedPtrField<SC2APIProtocol::PowerSource>::Clear
PUBLIC	?MergeFrom@?$RepeatedPtrField@VPowerSource@SC2APIProtocol@@@protobuf@google@@QEAAXAEBV123@@Z ; google::protobuf::RepeatedPtrField<SC2APIProtocol::PowerSource>::MergeFrom
PUBLIC	?begin@?$RepeatedPtrField@VPowerSource@SC2APIProtocol@@@protobuf@google@@QEBA?AV?$RepeatedPtrIterator@$$CBVPowerSource@SC2APIProtocol@@@internal@23@XZ ; google::protobuf::RepeatedPtrField<SC2APIProtocol::PowerSource>::begin
PUBLIC	?end@?$RepeatedPtrField@VPowerSource@SC2APIProtocol@@@protobuf@google@@QEBA?AV?$RepeatedPtrIterator@$$CBVPowerSource@SC2APIProtocol@@@internal@23@XZ ; google::protobuf::RepeatedPtrField<SC2APIProtocol::PowerSource>::end
PUBLIC	?InternalSwap@?$RepeatedPtrField@VPowerSource@SC2APIProtocol@@@protobuf@google@@QEAAXPEAV123@@Z ; google::protobuf::RepeatedPtrField<SC2APIProtocol::PowerSource>::InternalSwap
PUBLIC	??_G?$RepeatedPtrField@VPowerSource@SC2APIProtocol@@@protobuf@google@@QEAAPEAXI@Z ; google::protobuf::RepeatedPtrField<SC2APIProtocol::PowerSource>::`scalar deleting destructor'
PUBLIC	??_GPlayerRaw@SC2APIProtocol@@UEAAPEAXI@Z	; SC2APIProtocol::PlayerRaw::`scalar deleting destructor'
PUBLIC	??$CreateMaybeMessage@VPlayerRaw@SC2APIProtocol@@@MessageLite@protobuf@google@@KAPEAVPlayerRaw@SC2APIProtocol@@PEAVArena@12@@Z ; google::protobuf::MessageLite::CreateMaybeMessage<SC2APIProtocol::PlayerRaw>
PUBLIC	??1UnitOrder@SC2APIProtocol@@UEAA@XZ		; SC2APIProtocol::UnitOrder::~UnitOrder
PUBLIC	??0UnitOrder@SC2APIProtocol@@QEAA@AEBV01@@Z	; SC2APIProtocol::UnitOrder::UnitOrder
PUBLIC	?CopyFrom@UnitOrder@SC2APIProtocol@@QEAAXAEBV12@@Z ; SC2APIProtocol::UnitOrder::CopyFrom
PUBLIC	?MergeFrom@UnitOrder@SC2APIProtocol@@QEAAXAEBV12@@Z ; SC2APIProtocol::UnitOrder::MergeFrom
PUBLIC	?SharedCtor@UnitOrder@SC2APIProtocol@@AEAAXPEAVArena@protobuf@google@@_N@Z ; SC2APIProtocol::UnitOrder::SharedCtor
PUBLIC	?SharedDtor@UnitOrder@SC2APIProtocol@@AEAAXXZ	; SC2APIProtocol::UnitOrder::SharedDtor
PUBLIC	?InternalSwap@UnitOrder@SC2APIProtocol@@AEAAXPEAV12@@Z ; SC2APIProtocol::UnitOrder::InternalSwap
PUBLIC	??0UnitOrder@SC2APIProtocol@@IEAA@PEAVArena@protobuf@google@@_N@Z ; SC2APIProtocol::UnitOrder::UnitOrder
PUBLIC	?_internal_ability_id@UnitOrder@SC2APIProtocol@@AEBAIXZ ; SC2APIProtocol::UnitOrder::_internal_ability_id
PUBLIC	?_internal_progress@UnitOrder@SC2APIProtocol@@AEBAMXZ ; SC2APIProtocol::UnitOrder::_internal_progress
PUBLIC	?_internal_has_target_world_space_pos@UnitOrder@SC2APIProtocol@@AEBA_NXZ ; SC2APIProtocol::UnitOrder::_internal_has_target_world_space_pos
PUBLIC	?clear_target_world_space_pos@UnitOrder@SC2APIProtocol@@QEAAXXZ ; SC2APIProtocol::UnitOrder::clear_target_world_space_pos
PUBLIC	?set_allocated_target_world_space_pos@UnitOrder@SC2APIProtocol@@QEAAXPEAVPoint@2@@Z ; SC2APIProtocol::UnitOrder::set_allocated_target_world_space_pos
PUBLIC	?_internal_target_world_space_pos@UnitOrder@SC2APIProtocol@@AEBAAEBVPoint@2@XZ ; SC2APIProtocol::UnitOrder::_internal_target_world_space_pos
PUBLIC	?_internal_mutable_target_world_space_pos@UnitOrder@SC2APIProtocol@@AEAAPEAVPoint@2@XZ ; SC2APIProtocol::UnitOrder::_internal_mutable_target_world_space_pos
PUBLIC	?_internal_has_target_unit_tag@UnitOrder@SC2APIProtocol@@AEBA_NXZ ; SC2APIProtocol::UnitOrder::_internal_has_target_unit_tag
PUBLIC	?_internal_target_unit_tag@UnitOrder@SC2APIProtocol@@AEBA_KXZ ; SC2APIProtocol::UnitOrder::_internal_target_unit_tag
PUBLIC	?_internal_set_target_unit_tag@UnitOrder@SC2APIProtocol@@AEAAX_K@Z ; SC2APIProtocol::UnitOrder::_internal_set_target_unit_tag
PUBLIC	?clear_target@UnitOrder@SC2APIProtocol@@QEAAXXZ	; SC2APIProtocol::UnitOrder::clear_target
PUBLIC	?target_case@UnitOrder@SC2APIProtocol@@QEBA?AW4TargetCase@12@XZ ; SC2APIProtocol::UnitOrder::target_case
PUBLIC	?set_has_target_world_space_pos@UnitOrder@SC2APIProtocol@@AEAAXXZ ; SC2APIProtocol::UnitOrder::set_has_target_world_space_pos
PUBLIC	?set_has_target_unit_tag@UnitOrder@SC2APIProtocol@@AEAAXXZ ; SC2APIProtocol::UnitOrder::set_has_target_unit_tag
PUBLIC	?has_target@UnitOrder@SC2APIProtocol@@AEBA_NXZ	; SC2APIProtocol::UnitOrder::has_target
PUBLIC	?clear_has_target@UnitOrder@SC2APIProtocol@@AEAAXXZ ; SC2APIProtocol::UnitOrder::clear_has_target
PUBLIC	??0TargetUnion@Impl_@UnitOrder@SC2APIProtocol@@QEAA@XZ ; SC2APIProtocol::UnitOrder::Impl_::TargetUnion::TargetUnion
PUBLIC	??$CreateMaybeMessage@VUnitOrder@SC2APIProtocol@@@MessageLite@protobuf@google@@KAPEAVUnitOrder@SC2APIProtocol@@PEAVArena@12@@Z ; google::protobuf::MessageLite::CreateMaybeMessage<SC2APIProtocol::UnitOrder>
PUBLIC	??1PassengerUnit@SC2APIProtocol@@UEAA@XZ	; SC2APIProtocol::PassengerUnit::~PassengerUnit
PUBLIC	??0PassengerUnit@SC2APIProtocol@@QEAA@AEBV01@@Z	; SC2APIProtocol::PassengerUnit::PassengerUnit
PUBLIC	?CopyFrom@PassengerUnit@SC2APIProtocol@@QEAAXAEBV12@@Z ; SC2APIProtocol::PassengerUnit::CopyFrom
PUBLIC	?MergeFrom@PassengerUnit@SC2APIProtocol@@QEAAXAEBV12@@Z ; SC2APIProtocol::PassengerUnit::MergeFrom
PUBLIC	?SharedCtor@PassengerUnit@SC2APIProtocol@@AEAAXPEAVArena@protobuf@google@@_N@Z ; SC2APIProtocol::PassengerUnit::SharedCtor
PUBLIC	?SharedDtor@PassengerUnit@SC2APIProtocol@@AEAAXXZ ; SC2APIProtocol::PassengerUnit::SharedDtor
PUBLIC	?InternalSwap@PassengerUnit@SC2APIProtocol@@AEAAXPEAV12@@Z ; SC2APIProtocol::PassengerUnit::InternalSwap
PUBLIC	??0PassengerUnit@SC2APIProtocol@@IEAA@PEAVArena@protobuf@google@@_N@Z ; SC2APIProtocol::PassengerUnit::PassengerUnit
PUBLIC	?_internal_tag@PassengerUnit@SC2APIProtocol@@AEBA_KXZ ; SC2APIProtocol::PassengerUnit::_internal_tag
PUBLIC	?_internal_health@PassengerUnit@SC2APIProtocol@@AEBAMXZ ; SC2APIProtocol::PassengerUnit::_internal_health
PUBLIC	?_internal_health_max@PassengerUnit@SC2APIProtocol@@AEBAMXZ ; SC2APIProtocol::PassengerUnit::_internal_health_max
PUBLIC	?_internal_shield@PassengerUnit@SC2APIProtocol@@AEBAMXZ ; SC2APIProtocol::PassengerUnit::_internal_shield
PUBLIC	?_internal_energy@PassengerUnit@SC2APIProtocol@@AEBAMXZ ; SC2APIProtocol::PassengerUnit::_internal_energy
PUBLIC	?_internal_unit_type@PassengerUnit@SC2APIProtocol@@AEBAIXZ ; SC2APIProtocol::PassengerUnit::_internal_unit_type
PUBLIC	?_internal_shield_max@PassengerUnit@SC2APIProtocol@@AEBAMXZ ; SC2APIProtocol::PassengerUnit::_internal_shield_max
PUBLIC	?_internal_energy_max@PassengerUnit@SC2APIProtocol@@AEBAMXZ ; SC2APIProtocol::PassengerUnit::_internal_energy_max
PUBLIC	??$CreateMaybeMessage@VPassengerUnit@SC2APIProtocol@@@MessageLite@protobuf@google@@KAPEAVPassengerUnit@SC2APIProtocol@@PEAVArena@12@@Z ; google::protobuf::MessageLite::CreateMaybeMessage<SC2APIProtocol::PassengerUnit>
PUBLIC	??1RallyTarget@SC2APIProtocol@@UEAA@XZ		; SC2APIProtocol::RallyTarget::~RallyTarget
PUBLIC	??0RallyTarget@SC2APIProtocol@@QEAA@AEBV01@@Z	; SC2APIProtocol::RallyTarget::RallyTarget
PUBLIC	?internal_default_instance@RallyTarget@SC2APIProtocol@@SAPEBV12@XZ ; SC2APIProtocol::RallyTarget::internal_default_instance
PUBLIC	?CopyFrom@RallyTarget@SC2APIProtocol@@QEAAXAEBV12@@Z ; SC2APIProtocol::RallyTarget::CopyFrom
PUBLIC	?MergeFrom@RallyTarget@SC2APIProtocol@@QEAAXAEBV12@@Z ; SC2APIProtocol::RallyTarget::MergeFrom
PUBLIC	?SharedCtor@RallyTarget@SC2APIProtocol@@AEAAXPEAVArena@protobuf@google@@_N@Z ; SC2APIProtocol::RallyTarget::SharedCtor
PUBLIC	?SharedDtor@RallyTarget@SC2APIProtocol@@AEAAXXZ	; SC2APIProtocol::RallyTarget::SharedDtor
PUBLIC	?InternalSwap@RallyTarget@SC2APIProtocol@@AEAAXPEAV12@@Z ; SC2APIProtocol::RallyTarget::InternalSwap
PUBLIC	??0RallyTarget@SC2APIProtocol@@IEAA@PEAVArena@protobuf@google@@_N@Z ; SC2APIProtocol::RallyTarget::RallyTarget
PUBLIC	?_internal_has_point@RallyTarget@SC2APIProtocol@@AEBA_NXZ ; SC2APIProtocol::RallyTarget::_internal_has_point
PUBLIC	?clear_point@RallyTarget@SC2APIProtocol@@QEAAXXZ ; SC2APIProtocol::RallyTarget::clear_point
PUBLIC	?_internal_point@RallyTarget@SC2APIProtocol@@AEBAAEBVPoint@2@XZ ; SC2APIProtocol::RallyTarget::_internal_point
PUBLIC	?_internal_mutable_point@RallyTarget@SC2APIProtocol@@AEAAPEAVPoint@2@XZ ; SC2APIProtocol::RallyTarget::_internal_mutable_point
PUBLIC	?_internal_tag@RallyTarget@SC2APIProtocol@@AEBA_KXZ ; SC2APIProtocol::RallyTarget::_internal_tag
PUBLIC	??$CreateMaybeMessage@VRallyTarget@SC2APIProtocol@@@MessageLite@protobuf@google@@KAPEAVRallyTarget@SC2APIProtocol@@PEAVArena@12@@Z ; google::protobuf::MessageLite::CreateMaybeMessage<SC2APIProtocol::RallyTarget>
PUBLIC	??1Unit@SC2APIProtocol@@UEAA@XZ			; SC2APIProtocol::Unit::~Unit
PUBLIC	??0Unit@SC2APIProtocol@@QEAA@UConstantInitialized@internal@protobuf@google@@@Z ; SC2APIProtocol::Unit::Unit
PUBLIC	??0Unit@SC2APIProtocol@@QEAA@AEBV01@@Z		; SC2APIProtocol::Unit::Unit
PUBLIC	?mutable_unknown_fields@Unit@SC2APIProtocol@@QEAAPEAVUnknownFieldSet@protobuf@google@@XZ ; SC2APIProtocol::Unit::mutable_unknown_fields
PUBLIC	?internal_default_instance@Unit@SC2APIProtocol@@SAPEBV12@XZ ; SC2APIProtocol::Unit::internal_default_instance
PUBLIC	?New@Unit@SC2APIProtocol@@UEBAPEAV12@PEAVArena@protobuf@google@@@Z ; SC2APIProtocol::Unit::New
PUBLIC	?CopyFrom@Unit@SC2APIProtocol@@QEAAXAEBV12@@Z	; SC2APIProtocol::Unit::CopyFrom
PUBLIC	?MergeFrom@Unit@SC2APIProtocol@@QEAAXAEBV12@@Z	; SC2APIProtocol::Unit::MergeFrom
PUBLIC	?Clear@Unit@SC2APIProtocol@@UEAAXXZ		; SC2APIProtocol::Unit::Clear
PUBLIC	?IsInitialized@Unit@SC2APIProtocol@@UEBA_NXZ	; SC2APIProtocol::Unit::IsInitialized
PUBLIC	?ByteSizeLong@Unit@SC2APIProtocol@@UEBA_KXZ	; SC2APIProtocol::Unit::ByteSizeLong
PUBLIC	?_InternalParse@Unit@SC2APIProtocol@@UEAAPEBDPEBDPEAVParseContext@internal@protobuf@google@@@Z ; SC2APIProtocol::Unit::_InternalParse
PUBLIC	?_InternalSerialize@Unit@SC2APIProtocol@@UEBAPEAEPEAEPEAVEpsCopyOutputStream@io@protobuf@google@@@Z ; SC2APIProtocol::Unit::_InternalSerialize
PUBLIC	?GetCachedSize@Unit@SC2APIProtocol@@UEBAHXZ	; SC2APIProtocol::Unit::GetCachedSize
PUBLIC	?SharedCtor@Unit@SC2APIProtocol@@AEAAXPEAVArena@protobuf@google@@_N@Z ; SC2APIProtocol::Unit::SharedCtor
PUBLIC	?SharedDtor@Unit@SC2APIProtocol@@AEAAXXZ	; SC2APIProtocol::Unit::SharedDtor
PUBLIC	?SetCachedSize@Unit@SC2APIProtocol@@EEBAXH@Z	; SC2APIProtocol::Unit::SetCachedSize
PUBLIC	?InternalSwap@Unit@SC2APIProtocol@@AEAAXPEAV12@@Z ; SC2APIProtocol::Unit::InternalSwap
PUBLIC	??0Unit@SC2APIProtocol@@IEAA@PEAVArena@protobuf@google@@_N@Z ; SC2APIProtocol::Unit::Unit
PUBLIC	?GetClassData@Unit@SC2APIProtocol@@UEBAPEBUClassData@Message@protobuf@google@@XZ ; SC2APIProtocol::Unit::GetClassData
PUBLIC	?GetMetadata@Unit@SC2APIProtocol@@UEBA?AUMetadata@protobuf@google@@XZ ; SC2APIProtocol::Unit::GetMetadata
PUBLIC	?_internal_orders_size@Unit@SC2APIProtocol@@AEBAHXZ ; SC2APIProtocol::Unit::_internal_orders_size
PUBLIC	?_internal_orders@Unit@SC2APIProtocol@@AEBAAEBVUnitOrder@2@H@Z ; SC2APIProtocol::Unit::_internal_orders
PUBLIC	?_internal_add_orders@Unit@SC2APIProtocol@@AEAAPEAVUnitOrder@2@XZ ; SC2APIProtocol::Unit::_internal_add_orders
PUBLIC	?_internal_passengers_size@Unit@SC2APIProtocol@@AEBAHXZ ; SC2APIProtocol::Unit::_internal_passengers_size
PUBLIC	?_internal_passengers@Unit@SC2APIProtocol@@AEBAAEBVPassengerUnit@2@H@Z ; SC2APIProtocol::Unit::_internal_passengers
PUBLIC	?_internal_add_passengers@Unit@SC2APIProtocol@@AEAAPEAVPassengerUnit@2@XZ ; SC2APIProtocol::Unit::_internal_add_passengers
PUBLIC	?_internal_buff_ids_size@Unit@SC2APIProtocol@@AEBAHXZ ; SC2APIProtocol::Unit::_internal_buff_ids_size
PUBLIC	?_internal_buff_ids@Unit@SC2APIProtocol@@AEBAIH@Z ; SC2APIProtocol::Unit::_internal_buff_ids
PUBLIC	?_internal_add_buff_ids@Unit@SC2APIProtocol@@AEAAXI@Z ; SC2APIProtocol::Unit::_internal_add_buff_ids
PUBLIC	?_internal_mutable_buff_ids@Unit@SC2APIProtocol@@AEAAPEAV?$RepeatedField@I@protobuf@google@@XZ ; SC2APIProtocol::Unit::_internal_mutable_buff_ids
PUBLIC	?_internal_rally_targets_size@Unit@SC2APIProtocol@@AEBAHXZ ; SC2APIProtocol::Unit::_internal_rally_targets_size
PUBLIC	?_internal_rally_targets@Unit@SC2APIProtocol@@AEBAAEBVRallyTarget@2@H@Z ; SC2APIProtocol::Unit::_internal_rally_targets
PUBLIC	?_internal_add_rally_targets@Unit@SC2APIProtocol@@AEAAPEAVRallyTarget@2@XZ ; SC2APIProtocol::Unit::_internal_add_rally_targets
PUBLIC	?_internal_has_pos@Unit@SC2APIProtocol@@AEBA_NXZ ; SC2APIProtocol::Unit::_internal_has_pos
PUBLIC	?clear_pos@Unit@SC2APIProtocol@@QEAAXXZ		; SC2APIProtocol::Unit::clear_pos
PUBLIC	?_internal_pos@Unit@SC2APIProtocol@@AEBAAEBVPoint@2@XZ ; SC2APIProtocol::Unit::_internal_pos
PUBLIC	?_internal_mutable_pos@Unit@SC2APIProtocol@@AEAAPEAVPoint@2@XZ ; SC2APIProtocol::Unit::_internal_mutable_pos
PUBLIC	?_internal_tag@Unit@SC2APIProtocol@@AEBA_KXZ	; SC2APIProtocol::Unit::_internal_tag
PUBLIC	?_internal_unit_type@Unit@SC2APIProtocol@@AEBAIXZ ; SC2APIProtocol::Unit::_internal_unit_type
PUBLIC	?_internal_owner@Unit@SC2APIProtocol@@AEBAHXZ	; SC2APIProtocol::Unit::_internal_owner
PUBLIC	?_internal_facing@Unit@SC2APIProtocol@@AEBAMXZ	; SC2APIProtocol::Unit::_internal_facing
PUBLIC	?_internal_radius@Unit@SC2APIProtocol@@AEBAMXZ	; SC2APIProtocol::Unit::_internal_radius
PUBLIC	?_internal_build_progress@Unit@SC2APIProtocol@@AEBAMXZ ; SC2APIProtocol::Unit::_internal_build_progress
PUBLIC	?_internal_cloak@Unit@SC2APIProtocol@@AEBA?AW4CloakState@2@XZ ; SC2APIProtocol::Unit::_internal_cloak
PUBLIC	?_internal_set_cloak@Unit@SC2APIProtocol@@AEAAXW4CloakState@2@@Z ; SC2APIProtocol::Unit::_internal_set_cloak
PUBLIC	?_internal_health@Unit@SC2APIProtocol@@AEBAMXZ	; SC2APIProtocol::Unit::_internal_health
PUBLIC	?_internal_health_max@Unit@SC2APIProtocol@@AEBAMXZ ; SC2APIProtocol::Unit::_internal_health_max
PUBLIC	?_internal_shield@Unit@SC2APIProtocol@@AEBAMXZ	; SC2APIProtocol::Unit::_internal_shield
PUBLIC	?_internal_energy@Unit@SC2APIProtocol@@AEBAMXZ	; SC2APIProtocol::Unit::_internal_energy
PUBLIC	?_internal_is_selected@Unit@SC2APIProtocol@@AEBA_NXZ ; SC2APIProtocol::Unit::_internal_is_selected
PUBLIC	?_internal_is_on_screen@Unit@SC2APIProtocol@@AEBA_NXZ ; SC2APIProtocol::Unit::_internal_is_on_screen
PUBLIC	?_internal_is_blip@Unit@SC2APIProtocol@@AEBA_NXZ ; SC2APIProtocol::Unit::_internal_is_blip
PUBLIC	?_internal_is_powered@Unit@SC2APIProtocol@@AEBA_NXZ ; SC2APIProtocol::Unit::_internal_is_powered
PUBLIC	?_internal_mineral_contents@Unit@SC2APIProtocol@@AEBAHXZ ; SC2APIProtocol::Unit::_internal_mineral_contents
PUBLIC	?_internal_vespene_contents@Unit@SC2APIProtocol@@AEBAHXZ ; SC2APIProtocol::Unit::_internal_vespene_contents
PUBLIC	?_internal_cargo_space_taken@Unit@SC2APIProtocol@@AEBAHXZ ; SC2APIProtocol::Unit::_internal_cargo_space_taken
PUBLIC	?_internal_add_on_tag@Unit@SC2APIProtocol@@AEBA_KXZ ; SC2APIProtocol::Unit::_internal_add_on_tag
PUBLIC	?_internal_cargo_space_max@Unit@SC2APIProtocol@@AEBAHXZ ; SC2APIProtocol::Unit::_internal_cargo_space_max
PUBLIC	?_internal_assigned_harvesters@Unit@SC2APIProtocol@@AEBAHXZ ; SC2APIProtocol::Unit::_internal_assigned_harvesters
PUBLIC	?_internal_ideal_harvesters@Unit@SC2APIProtocol@@AEBAHXZ ; SC2APIProtocol::Unit::_internal_ideal_harvesters
PUBLIC	?_internal_is_active@Unit@SC2APIProtocol@@AEBA_NXZ ; SC2APIProtocol::Unit::_internal_is_active
PUBLIC	?_internal_is_flying@Unit@SC2APIProtocol@@AEBA_NXZ ; SC2APIProtocol::Unit::_internal_is_flying
PUBLIC	?_internal_is_burrowed@Unit@SC2APIProtocol@@AEBA_NXZ ; SC2APIProtocol::Unit::_internal_is_burrowed
PUBLIC	?_internal_is_hallucination@Unit@SC2APIProtocol@@AEBA_NXZ ; SC2APIProtocol::Unit::_internal_is_hallucination
PUBLIC	?_internal_weapon_cooldown@Unit@SC2APIProtocol@@AEBAMXZ ; SC2APIProtocol::Unit::_internal_weapon_cooldown
PUBLIC	?_internal_detect_range@Unit@SC2APIProtocol@@AEBAMXZ ; SC2APIProtocol::Unit::_internal_detect_range
PUBLIC	?_internal_engaged_target_tag@Unit@SC2APIProtocol@@AEBA_KXZ ; SC2APIProtocol::Unit::_internal_engaged_target_tag
PUBLIC	?_internal_radar_range@Unit@SC2APIProtocol@@AEBAMXZ ; SC2APIProtocol::Unit::_internal_radar_range
PUBLIC	?_internal_shield_max@Unit@SC2APIProtocol@@AEBAMXZ ; SC2APIProtocol::Unit::_internal_shield_max
PUBLIC	?_internal_energy_max@Unit@SC2APIProtocol@@AEBAMXZ ; SC2APIProtocol::Unit::_internal_energy_max
PUBLIC	?_internal_attack_upgrade_level@Unit@SC2APIProtocol@@AEBAHXZ ; SC2APIProtocol::Unit::_internal_attack_upgrade_level
PUBLIC	?_internal_armor_upgrade_level@Unit@SC2APIProtocol@@AEBAHXZ ; SC2APIProtocol::Unit::_internal_armor_upgrade_level
PUBLIC	?_internal_shield_upgrade_level@Unit@SC2APIProtocol@@AEBAHXZ ; SC2APIProtocol::Unit::_internal_shield_upgrade_level
PUBLIC	?_internal_buff_duration_remain@Unit@SC2APIProtocol@@AEBAHXZ ; SC2APIProtocol::Unit::_internal_buff_duration_remain
PUBLIC	?_internal_buff_duration_max@Unit@SC2APIProtocol@@AEBAHXZ ; SC2APIProtocol::Unit::_internal_buff_duration_max
PUBLIC	?_internal_display_type@Unit@SC2APIProtocol@@AEBA?AW4DisplayType@2@XZ ; SC2APIProtocol::Unit::_internal_display_type
PUBLIC	?_internal_set_display_type@Unit@SC2APIProtocol@@AEAAXW4DisplayType@2@@Z ; SC2APIProtocol::Unit::_internal_set_display_type
PUBLIC	?_internal_alliance@Unit@SC2APIProtocol@@AEBA?AW4Alliance@2@XZ ; SC2APIProtocol::Unit::_internal_alliance
PUBLIC	?_internal_set_alliance@Unit@SC2APIProtocol@@AEAAXW4Alliance@2@@Z ; SC2APIProtocol::Unit::_internal_set_alliance
PUBLIC	??0?$RepeatedPtrField@VUnitOrder@SC2APIProtocol@@@protobuf@google@@QEAA@XZ ; google::protobuf::RepeatedPtrField<SC2APIProtocol::UnitOrder>::RepeatedPtrField<SC2APIProtocol::UnitOrder>
PUBLIC	??0?$RepeatedPtrField@VUnitOrder@SC2APIProtocol@@@protobuf@google@@QEAA@PEAVArena@12@@Z ; google::protobuf::RepeatedPtrField<SC2APIProtocol::UnitOrder>::RepeatedPtrField<SC2APIProtocol::UnitOrder>
PUBLIC	??0?$RepeatedPtrField@VUnitOrder@SC2APIProtocol@@@protobuf@google@@QEAA@AEBV012@@Z ; google::protobuf::RepeatedPtrField<SC2APIProtocol::UnitOrder>::RepeatedPtrField<SC2APIProtocol::UnitOrder>
PUBLIC	??1?$RepeatedPtrField@VUnitOrder@SC2APIProtocol@@@protobuf@google@@QEAA@XZ ; google::protobuf::RepeatedPtrField<SC2APIProtocol::UnitOrder>::~RepeatedPtrField<SC2APIProtocol::UnitOrder>
PUBLIC	?size@?$RepeatedPtrField@VUnitOrder@SC2APIProtocol@@@protobuf@google@@QEBAHXZ ; google::protobuf::RepeatedPtrField<SC2APIProtocol::UnitOrder>::size
PUBLIC	?Get@?$RepeatedPtrField@VUnitOrder@SC2APIProtocol@@@protobuf@google@@QEBAAEBVUnitOrder@SC2APIProtocol@@H@Z ; google::protobuf::RepeatedPtrField<SC2APIProtocol::UnitOrder>::Get
PUBLIC	?Add@?$RepeatedPtrField@VUnitOrder@SC2APIProtocol@@@protobuf@google@@QEAAPEAVUnitOrder@SC2APIProtocol@@XZ ; google::protobuf::RepeatedPtrField<SC2APIProtocol::UnitOrder>::Add
PUBLIC	?Clear@?$RepeatedPtrField@VUnitOrder@SC2APIProtocol@@@protobuf@google@@QEAAXXZ ; google::protobuf::RepeatedPtrField<SC2APIProtocol::UnitOrder>::Clear
PUBLIC	?MergeFrom@?$RepeatedPtrField@VUnitOrder@SC2APIProtocol@@@protobuf@google@@QEAAXAEBV123@@Z ; google::protobuf::RepeatedPtrField<SC2APIProtocol::UnitOrder>::MergeFrom
PUBLIC	?begin@?$RepeatedPtrField@VUnitOrder@SC2APIProtocol@@@protobuf@google@@QEBA?AV?$RepeatedPtrIterator@$$CBVUnitOrder@SC2APIProtocol@@@internal@23@XZ ; google::protobuf::RepeatedPtrField<SC2APIProtocol::UnitOrder>::begin
PUBLIC	?end@?$RepeatedPtrField@VUnitOrder@SC2APIProtocol@@@protobuf@google@@QEBA?AV?$RepeatedPtrIterator@$$CBVUnitOrder@SC2APIProtocol@@@internal@23@XZ ; google::protobuf::RepeatedPtrField<SC2APIProtocol::UnitOrder>::end
PUBLIC	?InternalSwap@?$RepeatedPtrField@VUnitOrder@SC2APIProtocol@@@protobuf@google@@QEAAXPEAV123@@Z ; google::protobuf::RepeatedPtrField<SC2APIProtocol::UnitOrder>::InternalSwap
PUBLIC	??_G?$RepeatedPtrField@VUnitOrder@SC2APIProtocol@@@protobuf@google@@QEAAPEAXI@Z ; google::protobuf::RepeatedPtrField<SC2APIProtocol::UnitOrder>::`scalar deleting destructor'
PUBLIC	??0?$RepeatedPtrField@VPassengerUnit@SC2APIProtocol@@@protobuf@google@@QEAA@XZ ; google::protobuf::RepeatedPtrField<SC2APIProtocol::PassengerUnit>::RepeatedPtrField<SC2APIProtocol::PassengerUnit>
PUBLIC	??0?$RepeatedPtrField@VPassengerUnit@SC2APIProtocol@@@protobuf@google@@QEAA@PEAVArena@12@@Z ; google::protobuf::RepeatedPtrField<SC2APIProtocol::PassengerUnit>::RepeatedPtrField<SC2APIProtocol::PassengerUnit>
PUBLIC	??0?$RepeatedPtrField@VPassengerUnit@SC2APIProtocol@@@protobuf@google@@QEAA@AEBV012@@Z ; google::protobuf::RepeatedPtrField<SC2APIProtocol::PassengerUnit>::RepeatedPtrField<SC2APIProtocol::PassengerUnit>
PUBLIC	??1?$RepeatedPtrField@VPassengerUnit@SC2APIProtocol@@@protobuf@google@@QEAA@XZ ; google::protobuf::RepeatedPtrField<SC2APIProtocol::PassengerUnit>::~RepeatedPtrField<SC2APIProtocol::PassengerUnit>
PUBLIC	?size@?$RepeatedPtrField@VPassengerUnit@SC2APIProtocol@@@protobuf@google@@QEBAHXZ ; google::protobuf::RepeatedPtrField<SC2APIProtocol::PassengerUnit>::size
PUBLIC	?Get@?$RepeatedPtrField@VPassengerUnit@SC2APIProtocol@@@protobuf@google@@QEBAAEBVPassengerUnit@SC2APIProtocol@@H@Z ; google::protobuf::RepeatedPtrField<SC2APIProtocol::PassengerUnit>::Get
PUBLIC	?Add@?$RepeatedPtrField@VPassengerUnit@SC2APIProtocol@@@protobuf@google@@QEAAPEAVPassengerUnit@SC2APIProtocol@@XZ ; google::protobuf::RepeatedPtrField<SC2APIProtocol::PassengerUnit>::Add
PUBLIC	?Clear@?$RepeatedPtrField@VPassengerUnit@SC2APIProtocol@@@protobuf@google@@QEAAXXZ ; google::protobuf::RepeatedPtrField<SC2APIProtocol::PassengerUnit>::Clear
PUBLIC	?MergeFrom@?$RepeatedPtrField@VPassengerUnit@SC2APIProtocol@@@protobuf@google@@QEAAXAEBV123@@Z ; google::protobuf::RepeatedPtrField<SC2APIProtocol::PassengerUnit>::MergeFrom
PUBLIC	?begin@?$RepeatedPtrField@VPassengerUnit@SC2APIProtocol@@@protobuf@google@@QEBA?AV?$RepeatedPtrIterator@$$CBVPassengerUnit@SC2APIProtocol@@@internal@23@XZ ; google::protobuf::RepeatedPtrField<SC2APIProtocol::PassengerUnit>::begin
PUBLIC	?end@?$RepeatedPtrField@VPassengerUnit@SC2APIProtocol@@@protobuf@google@@QEBA?AV?$RepeatedPtrIterator@$$CBVPassengerUnit@SC2APIProtocol@@@internal@23@XZ ; google::protobuf::RepeatedPtrField<SC2APIProtocol::PassengerUnit>::end
PUBLIC	?InternalSwap@?$RepeatedPtrField@VPassengerUnit@SC2APIProtocol@@@protobuf@google@@QEAAXPEAV123@@Z ; google::protobuf::RepeatedPtrField<SC2APIProtocol::PassengerUnit>::InternalSwap
PUBLIC	??_G?$RepeatedPtrField@VPassengerUnit@SC2APIProtocol@@@protobuf@google@@QEAAPEAXI@Z ; google::protobuf::RepeatedPtrField<SC2APIProtocol::PassengerUnit>::`scalar deleting destructor'
PUBLIC	??0?$RepeatedPtrField@VRallyTarget@SC2APIProtocol@@@protobuf@google@@QEAA@XZ ; google::protobuf::RepeatedPtrField<SC2APIProtocol::RallyTarget>::RepeatedPtrField<SC2APIProtocol::RallyTarget>
PUBLIC	??0?$RepeatedPtrField@VRallyTarget@SC2APIProtocol@@@protobuf@google@@QEAA@PEAVArena@12@@Z ; google::protobuf::RepeatedPtrField<SC2APIProtocol::RallyTarget>::RepeatedPtrField<SC2APIProtocol::RallyTarget>
PUBLIC	??0?$RepeatedPtrField@VRallyTarget@SC2APIProtocol@@@protobuf@google@@QEAA@AEBV012@@Z ; google::protobuf::RepeatedPtrField<SC2APIProtocol::RallyTarget>::RepeatedPtrField<SC2APIProtocol::RallyTarget>
PUBLIC	??1?$RepeatedPtrField@VRallyTarget@SC2APIProtocol@@@protobuf@google@@QEAA@XZ ; google::protobuf::RepeatedPtrField<SC2APIProtocol::RallyTarget>::~RepeatedPtrField<SC2APIProtocol::RallyTarget>
PUBLIC	?size@?$RepeatedPtrField@VRallyTarget@SC2APIProtocol@@@protobuf@google@@QEBAHXZ ; google::protobuf::RepeatedPtrField<SC2APIProtocol::RallyTarget>::size
PUBLIC	?Get@?$RepeatedPtrField@VRallyTarget@SC2APIProtocol@@@protobuf@google@@QEBAAEBVRallyTarget@SC2APIProtocol@@H@Z ; google::protobuf::RepeatedPtrField<SC2APIProtocol::RallyTarget>::Get
PUBLIC	?Add@?$RepeatedPtrField@VRallyTarget@SC2APIProtocol@@@protobuf@google@@QEAAPEAVRallyTarget@SC2APIProtocol@@XZ ; google::protobuf::RepeatedPtrField<SC2APIProtocol::RallyTarget>::Add
PUBLIC	?Clear@?$RepeatedPtrField@VRallyTarget@SC2APIProtocol@@@protobuf@google@@QEAAXXZ ; google::protobuf::RepeatedPtrField<SC2APIProtocol::RallyTarget>::Clear
PUBLIC	?MergeFrom@?$RepeatedPtrField@VRallyTarget@SC2APIProtocol@@@protobuf@google@@QEAAXAEBV123@@Z ; google::protobuf::RepeatedPtrField<SC2APIProtocol::RallyTarget>::MergeFrom
PUBLIC	?begin@?$RepeatedPtrField@VRallyTarget@SC2APIProtocol@@@protobuf@google@@QEBA?AV?$RepeatedPtrIterator@$$CBVRallyTarget@SC2APIProtocol@@@internal@23@XZ ; google::protobuf::RepeatedPtrField<SC2APIProtocol::RallyTarget>::begin
PUBLIC	?end@?$RepeatedPtrField@VRallyTarget@SC2APIProtocol@@@protobuf@google@@QEBA?AV?$RepeatedPtrIterator@$$CBVRallyTarget@SC2APIProtocol@@@internal@23@XZ ; google::protobuf::RepeatedPtrField<SC2APIProtocol::RallyTarget>::end
PUBLIC	?InternalSwap@?$RepeatedPtrField@VRallyTarget@SC2APIProtocol@@@protobuf@google@@QEAAXPEAV123@@Z ; google::protobuf::RepeatedPtrField<SC2APIProtocol::RallyTarget>::InternalSwap
PUBLIC	??_G?$RepeatedPtrField@VRallyTarget@SC2APIProtocol@@@protobuf@google@@QEAAPEAXI@Z ; google::protobuf::RepeatedPtrField<SC2APIProtocol::RallyTarget>::`scalar deleting destructor'
PUBLIC	??_GUnit@SC2APIProtocol@@UEAAPEAXI@Z		; SC2APIProtocol::Unit::`scalar deleting destructor'
PUBLIC	??$CreateMaybeMessage@VUnit@SC2APIProtocol@@@MessageLite@protobuf@google@@KAPEAVUnit@SC2APIProtocol@@PEAVArena@12@@Z ; google::protobuf::MessageLite::CreateMaybeMessage<SC2APIProtocol::Unit>
PUBLIC	??1MapState@SC2APIProtocol@@UEAA@XZ		; SC2APIProtocol::MapState::~MapState
PUBLIC	??0MapState@SC2APIProtocol@@QEAA@AEBV01@@Z	; SC2APIProtocol::MapState::MapState
PUBLIC	?internal_default_instance@MapState@SC2APIProtocol@@SAPEBV12@XZ ; SC2APIProtocol::MapState::internal_default_instance
PUBLIC	?CopyFrom@MapState@SC2APIProtocol@@QEAAXAEBV12@@Z ; SC2APIProtocol::MapState::CopyFrom
PUBLIC	?MergeFrom@MapState@SC2APIProtocol@@QEAAXAEBV12@@Z ; SC2APIProtocol::MapState::MergeFrom
PUBLIC	?SharedCtor@MapState@SC2APIProtocol@@AEAAXPEAVArena@protobuf@google@@_N@Z ; SC2APIProtocol::MapState::SharedCtor
PUBLIC	?SharedDtor@MapState@SC2APIProtocol@@AEAAXXZ	; SC2APIProtocol::MapState::SharedDtor
PUBLIC	?InternalSwap@MapState@SC2APIProtocol@@AEAAXPEAV12@@Z ; SC2APIProtocol::MapState::InternalSwap
PUBLIC	??0MapState@SC2APIProtocol@@IEAA@PEAVArena@protobuf@google@@_N@Z ; SC2APIProtocol::MapState::MapState
PUBLIC	?_internal_has_visibility@MapState@SC2APIProtocol@@AEBA_NXZ ; SC2APIProtocol::MapState::_internal_has_visibility
PUBLIC	?clear_visibility@MapState@SC2APIProtocol@@QEAAXXZ ; SC2APIProtocol::MapState::clear_visibility
PUBLIC	?_internal_visibility@MapState@SC2APIProtocol@@AEBAAEBVImageData@2@XZ ; SC2APIProtocol::MapState::_internal_visibility
PUBLIC	?_internal_mutable_visibility@MapState@SC2APIProtocol@@AEAAPEAVImageData@2@XZ ; SC2APIProtocol::MapState::_internal_mutable_visibility
PUBLIC	?_internal_has_creep@MapState@SC2APIProtocol@@AEBA_NXZ ; SC2APIProtocol::MapState::_internal_has_creep
PUBLIC	?clear_creep@MapState@SC2APIProtocol@@QEAAXXZ	; SC2APIProtocol::MapState::clear_creep
PUBLIC	?_internal_creep@MapState@SC2APIProtocol@@AEBAAEBVImageData@2@XZ ; SC2APIProtocol::MapState::_internal_creep
PUBLIC	?_internal_mutable_creep@MapState@SC2APIProtocol@@AEAAPEAVImageData@2@XZ ; SC2APIProtocol::MapState::_internal_mutable_creep
PUBLIC	??$CreateMaybeMessage@VMapState@SC2APIProtocol@@@MessageLite@protobuf@google@@KAPEAVMapState@SC2APIProtocol@@PEAVArena@12@@Z ; google::protobuf::MessageLite::CreateMaybeMessage<SC2APIProtocol::MapState>
PUBLIC	??1Event@SC2APIProtocol@@UEAA@XZ		; SC2APIProtocol::Event::~Event
PUBLIC	??0Event@SC2APIProtocol@@QEAA@UConstantInitialized@internal@protobuf@google@@@Z ; SC2APIProtocol::Event::Event
PUBLIC	??0Event@SC2APIProtocol@@QEAA@AEBV01@@Z		; SC2APIProtocol::Event::Event
PUBLIC	?New@Event@SC2APIProtocol@@UEBAPEAV12@PEAVArena@protobuf@google@@@Z ; SC2APIProtocol::Event::New
PUBLIC	?CopyFrom@Event@SC2APIProtocol@@QEAAXAEBV12@@Z	; SC2APIProtocol::Event::CopyFrom
PUBLIC	?MergeFrom@Event@SC2APIProtocol@@QEAAXAEBV12@@Z	; SC2APIProtocol::Event::MergeFrom
PUBLIC	?Clear@Event@SC2APIProtocol@@UEAAXXZ		; SC2APIProtocol::Event::Clear
PUBLIC	?IsInitialized@Event@SC2APIProtocol@@UEBA_NXZ	; SC2APIProtocol::Event::IsInitialized
PUBLIC	?ByteSizeLong@Event@SC2APIProtocol@@UEBA_KXZ	; SC2APIProtocol::Event::ByteSizeLong
PUBLIC	?_InternalParse@Event@SC2APIProtocol@@UEAAPEBDPEBDPEAVParseContext@internal@protobuf@google@@@Z ; SC2APIProtocol::Event::_InternalParse
PUBLIC	?_InternalSerialize@Event@SC2APIProtocol@@UEBAPEAEPEAEPEAVEpsCopyOutputStream@io@protobuf@google@@@Z ; SC2APIProtocol::Event::_InternalSerialize
PUBLIC	?GetCachedSize@Event@SC2APIProtocol@@UEBAHXZ	; SC2APIProtocol::Event::GetCachedSize
PUBLIC	?SharedCtor@Event@SC2APIProtocol@@AEAAXPEAVArena@protobuf@google@@_N@Z ; SC2APIProtocol::Event::SharedCtor
PUBLIC	?SharedDtor@Event@SC2APIProtocol@@AEAAXXZ	; SC2APIProtocol::Event::SharedDtor
PUBLIC	?SetCachedSize@Event@SC2APIProtocol@@EEBAXH@Z	; SC2APIProtocol::Event::SetCachedSize
PUBLIC	?InternalSwap@Event@SC2APIProtocol@@AEAAXPEAV12@@Z ; SC2APIProtocol::Event::InternalSwap
PUBLIC	??0Event@SC2APIProtocol@@IEAA@PEAVArena@protobuf@google@@_N@Z ; SC2APIProtocol::Event::Event
PUBLIC	?GetClassData@Event@SC2APIProtocol@@UEBAPEBUClassData@Message@protobuf@google@@XZ ; SC2APIProtocol::Event::GetClassData
PUBLIC	?GetMetadata@Event@SC2APIProtocol@@UEBA?AUMetadata@protobuf@google@@XZ ; SC2APIProtocol::Event::GetMetadata
PUBLIC	?_internal_dead_units_size@Event@SC2APIProtocol@@AEBAHXZ ; SC2APIProtocol::Event::_internal_dead_units_size
PUBLIC	?_internal_dead_units@Event@SC2APIProtocol@@AEBA_KH@Z ; SC2APIProtocol::Event::_internal_dead_units
PUBLIC	?_internal_add_dead_units@Event@SC2APIProtocol@@AEAAX_K@Z ; SC2APIProtocol::Event::_internal_add_dead_units
PUBLIC	?_internal_mutable_dead_units@Event@SC2APIProtocol@@AEAAPEAV?$RepeatedField@_K@protobuf@google@@XZ ; SC2APIProtocol::Event::_internal_mutable_dead_units
PUBLIC	??_GEvent@SC2APIProtocol@@UEAAPEAXI@Z		; SC2APIProtocol::Event::`scalar deleting destructor'
PUBLIC	??$CreateMaybeMessage@VEvent@SC2APIProtocol@@@MessageLite@protobuf@google@@KAPEAVEvent@SC2APIProtocol@@PEAVArena@12@@Z ; google::protobuf::MessageLite::CreateMaybeMessage<SC2APIProtocol::Event>
PUBLIC	??1Effect@SC2APIProtocol@@UEAA@XZ		; SC2APIProtocol::Effect::~Effect
PUBLIC	??0Effect@SC2APIProtocol@@QEAA@UConstantInitialized@internal@protobuf@google@@@Z ; SC2APIProtocol::Effect::Effect
PUBLIC	??0Effect@SC2APIProtocol@@QEAA@AEBV01@@Z	; SC2APIProtocol::Effect::Effect
PUBLIC	?mutable_unknown_fields@Effect@SC2APIProtocol@@QEAAPEAVUnknownFieldSet@protobuf@google@@XZ ; SC2APIProtocol::Effect::mutable_unknown_fields
PUBLIC	?New@Effect@SC2APIProtocol@@UEBAPEAV12@PEAVArena@protobuf@google@@@Z ; SC2APIProtocol::Effect::New
PUBLIC	?CopyFrom@Effect@SC2APIProtocol@@QEAAXAEBV12@@Z	; SC2APIProtocol::Effect::CopyFrom
PUBLIC	?MergeFrom@Effect@SC2APIProtocol@@QEAAXAEBV12@@Z ; SC2APIProtocol::Effect::MergeFrom
PUBLIC	?Clear@Effect@SC2APIProtocol@@UEAAXXZ		; SC2APIProtocol::Effect::Clear
PUBLIC	?IsInitialized@Effect@SC2APIProtocol@@UEBA_NXZ	; SC2APIProtocol::Effect::IsInitialized
PUBLIC	?ByteSizeLong@Effect@SC2APIProtocol@@UEBA_KXZ	; SC2APIProtocol::Effect::ByteSizeLong
PUBLIC	?_InternalParse@Effect@SC2APIProtocol@@UEAAPEBDPEBDPEAVParseContext@internal@protobuf@google@@@Z ; SC2APIProtocol::Effect::_InternalParse
PUBLIC	?_InternalSerialize@Effect@SC2APIProtocol@@UEBAPEAEPEAEPEAVEpsCopyOutputStream@io@protobuf@google@@@Z ; SC2APIProtocol::Effect::_InternalSerialize
PUBLIC	?GetCachedSize@Effect@SC2APIProtocol@@UEBAHXZ	; SC2APIProtocol::Effect::GetCachedSize
PUBLIC	?SharedCtor@Effect@SC2APIProtocol@@AEAAXPEAVArena@protobuf@google@@_N@Z ; SC2APIProtocol::Effect::SharedCtor
PUBLIC	?SharedDtor@Effect@SC2APIProtocol@@AEAAXXZ	; SC2APIProtocol::Effect::SharedDtor
PUBLIC	?SetCachedSize@Effect@SC2APIProtocol@@EEBAXH@Z	; SC2APIProtocol::Effect::SetCachedSize
PUBLIC	?InternalSwap@Effect@SC2APIProtocol@@AEAAXPEAV12@@Z ; SC2APIProtocol::Effect::InternalSwap
PUBLIC	??0Effect@SC2APIProtocol@@IEAA@PEAVArena@protobuf@google@@_N@Z ; SC2APIProtocol::Effect::Effect
PUBLIC	?GetClassData@Effect@SC2APIProtocol@@UEBAPEBUClassData@Message@protobuf@google@@XZ ; SC2APIProtocol::Effect::GetClassData
PUBLIC	?GetMetadata@Effect@SC2APIProtocol@@UEBA?AUMetadata@protobuf@google@@XZ ; SC2APIProtocol::Effect::GetMetadata
PUBLIC	?_internal_pos_size@Effect@SC2APIProtocol@@AEBAHXZ ; SC2APIProtocol::Effect::_internal_pos_size
PUBLIC	?clear_pos@Effect@SC2APIProtocol@@QEAAXXZ	; SC2APIProtocol::Effect::clear_pos
PUBLIC	?_internal_pos@Effect@SC2APIProtocol@@AEBAAEBVPoint2D@2@H@Z ; SC2APIProtocol::Effect::_internal_pos
PUBLIC	?_internal_add_pos@Effect@SC2APIProtocol@@AEAAPEAVPoint2D@2@XZ ; SC2APIProtocol::Effect::_internal_add_pos
PUBLIC	?_internal_effect_id@Effect@SC2APIProtocol@@AEBAIXZ ; SC2APIProtocol::Effect::_internal_effect_id
PUBLIC	?_internal_owner@Effect@SC2APIProtocol@@AEBAHXZ	; SC2APIProtocol::Effect::_internal_owner
PUBLIC	?_internal_radius@Effect@SC2APIProtocol@@AEBAMXZ ; SC2APIProtocol::Effect::_internal_radius
PUBLIC	?_internal_alliance@Effect@SC2APIProtocol@@AEBA?AW4Alliance@2@XZ ; SC2APIProtocol::Effect::_internal_alliance
PUBLIC	?_internal_set_alliance@Effect@SC2APIProtocol@@AEAAXW4Alliance@2@@Z ; SC2APIProtocol::Effect::_internal_set_alliance
PUBLIC	??_GEffect@SC2APIProtocol@@UEAAPEAXI@Z		; SC2APIProtocol::Effect::`scalar deleting destructor'
PUBLIC	??$CreateMaybeMessage@VEffect@SC2APIProtocol@@@MessageLite@protobuf@google@@KAPEAVEffect@SC2APIProtocol@@PEAVArena@12@@Z ; google::protobuf::MessageLite::CreateMaybeMessage<SC2APIProtocol::Effect>
PUBLIC	??1ActionRaw@SC2APIProtocol@@UEAA@XZ		; SC2APIProtocol::ActionRaw::~ActionRaw
PUBLIC	??0ActionRaw@SC2APIProtocol@@QEAA@AEBV01@@Z	; SC2APIProtocol::ActionRaw::ActionRaw
PUBLIC	?CopyFrom@ActionRaw@SC2APIProtocol@@QEAAXAEBV12@@Z ; SC2APIProtocol::ActionRaw::CopyFrom
PUBLIC	?MergeFrom@ActionRaw@SC2APIProtocol@@QEAAXAEBV12@@Z ; SC2APIProtocol::ActionRaw::MergeFrom
PUBLIC	?SharedCtor@ActionRaw@SC2APIProtocol@@AEAAXPEAVArena@protobuf@google@@_N@Z ; SC2APIProtocol::ActionRaw::SharedCtor
PUBLIC	?SharedDtor@ActionRaw@SC2APIProtocol@@AEAAXXZ	; SC2APIProtocol::ActionRaw::SharedDtor
PUBLIC	?InternalSwap@ActionRaw@SC2APIProtocol@@AEAAXPEAV12@@Z ; SC2APIProtocol::ActionRaw::InternalSwap
PUBLIC	??0ActionRaw@SC2APIProtocol@@IEAA@PEAVArena@protobuf@google@@_N@Z ; SC2APIProtocol::ActionRaw::ActionRaw
PUBLIC	?_internal_has_unit_command@ActionRaw@SC2APIProtocol@@AEBA_NXZ ; SC2APIProtocol::ActionRaw::_internal_has_unit_command
PUBLIC	?set_allocated_unit_command@ActionRaw@SC2APIProtocol@@QEAAXPEAVActionRawUnitCommand@2@@Z ; SC2APIProtocol::ActionRaw::set_allocated_unit_command
PUBLIC	?_internal_unit_command@ActionRaw@SC2APIProtocol@@AEBAAEBVActionRawUnitCommand@2@XZ ; SC2APIProtocol::ActionRaw::_internal_unit_command
PUBLIC	?_internal_mutable_unit_command@ActionRaw@SC2APIProtocol@@AEAAPEAVActionRawUnitCommand@2@XZ ; SC2APIProtocol::ActionRaw::_internal_mutable_unit_command
PUBLIC	?_internal_has_camera_move@ActionRaw@SC2APIProtocol@@AEBA_NXZ ; SC2APIProtocol::ActionRaw::_internal_has_camera_move
PUBLIC	?set_allocated_camera_move@ActionRaw@SC2APIProtocol@@QEAAXPEAVActionRawCameraMove@2@@Z ; SC2APIProtocol::ActionRaw::set_allocated_camera_move
PUBLIC	?_internal_camera_move@ActionRaw@SC2APIProtocol@@AEBAAEBVActionRawCameraMove@2@XZ ; SC2APIProtocol::ActionRaw::_internal_camera_move
PUBLIC	?_internal_mutable_camera_move@ActionRaw@SC2APIProtocol@@AEAAPEAVActionRawCameraMove@2@XZ ; SC2APIProtocol::ActionRaw::_internal_mutable_camera_move
PUBLIC	?_internal_has_toggle_autocast@ActionRaw@SC2APIProtocol@@AEBA_NXZ ; SC2APIProtocol::ActionRaw::_internal_has_toggle_autocast
PUBLIC	?set_allocated_toggle_autocast@ActionRaw@SC2APIProtocol@@QEAAXPEAVActionRawToggleAutocast@2@@Z ; SC2APIProtocol::ActionRaw::set_allocated_toggle_autocast
PUBLIC	?_internal_toggle_autocast@ActionRaw@SC2APIProtocol@@AEBAAEBVActionRawToggleAutocast@2@XZ ; SC2APIProtocol::ActionRaw::_internal_toggle_autocast
PUBLIC	?_internal_mutable_toggle_autocast@ActionRaw@SC2APIProtocol@@AEAAPEAVActionRawToggleAutocast@2@XZ ; SC2APIProtocol::ActionRaw::_internal_mutable_toggle_autocast
PUBLIC	?clear_action@ActionRaw@SC2APIProtocol@@QEAAXXZ	; SC2APIProtocol::ActionRaw::clear_action
PUBLIC	?action_case@ActionRaw@SC2APIProtocol@@QEBA?AW4ActionCase@12@XZ ; SC2APIProtocol::ActionRaw::action_case
PUBLIC	?set_has_unit_command@ActionRaw@SC2APIProtocol@@AEAAXXZ ; SC2APIProtocol::ActionRaw::set_has_unit_command
PUBLIC	?set_has_camera_move@ActionRaw@SC2APIProtocol@@AEAAXXZ ; SC2APIProtocol::ActionRaw::set_has_camera_move
PUBLIC	?set_has_toggle_autocast@ActionRaw@SC2APIProtocol@@AEAAXXZ ; SC2APIProtocol::ActionRaw::set_has_toggle_autocast
PUBLIC	?has_action@ActionRaw@SC2APIProtocol@@AEBA_NXZ	; SC2APIProtocol::ActionRaw::has_action
PUBLIC	?clear_has_action@ActionRaw@SC2APIProtocol@@AEAAXXZ ; SC2APIProtocol::ActionRaw::clear_has_action
PUBLIC	??0ActionUnion@Impl_@ActionRaw@SC2APIProtocol@@QEAA@XZ ; SC2APIProtocol::ActionRaw::Impl_::ActionUnion::ActionUnion
PUBLIC	??$CreateMaybeMessage@VActionRaw@SC2APIProtocol@@@MessageLite@protobuf@google@@KAPEAVActionRaw@SC2APIProtocol@@PEAVArena@12@@Z ; google::protobuf::MessageLite::CreateMaybeMessage<SC2APIProtocol::ActionRaw>
PUBLIC	??1ActionRawUnitCommand@SC2APIProtocol@@UEAA@XZ	; SC2APIProtocol::ActionRawUnitCommand::~ActionRawUnitCommand
PUBLIC	??0ActionRawUnitCommand@SC2APIProtocol@@QEAA@UConstantInitialized@internal@protobuf@google@@@Z ; SC2APIProtocol::ActionRawUnitCommand::ActionRawUnitCommand
PUBLIC	??0ActionRawUnitCommand@SC2APIProtocol@@QEAA@AEBV01@@Z ; SC2APIProtocol::ActionRawUnitCommand::ActionRawUnitCommand
PUBLIC	?New@ActionRawUnitCommand@SC2APIProtocol@@UEBAPEAV12@PEAVArena@protobuf@google@@@Z ; SC2APIProtocol::ActionRawUnitCommand::New
PUBLIC	?CopyFrom@ActionRawUnitCommand@SC2APIProtocol@@QEAAXAEBV12@@Z ; SC2APIProtocol::ActionRawUnitCommand::CopyFrom
PUBLIC	?MergeFrom@ActionRawUnitCommand@SC2APIProtocol@@QEAAXAEBV12@@Z ; SC2APIProtocol::ActionRawUnitCommand::MergeFrom
PUBLIC	?Clear@ActionRawUnitCommand@SC2APIProtocol@@UEAAXXZ ; SC2APIProtocol::ActionRawUnitCommand::Clear
PUBLIC	?IsInitialized@ActionRawUnitCommand@SC2APIProtocol@@UEBA_NXZ ; SC2APIProtocol::ActionRawUnitCommand::IsInitialized
PUBLIC	?ByteSizeLong@ActionRawUnitCommand@SC2APIProtocol@@UEBA_KXZ ; SC2APIProtocol::ActionRawUnitCommand::ByteSizeLong
PUBLIC	?_InternalParse@ActionRawUnitCommand@SC2APIProtocol@@UEAAPEBDPEBDPEAVParseContext@internal@protobuf@google@@@Z ; SC2APIProtocol::ActionRawUnitCommand::_InternalParse
PUBLIC	?_InternalSerialize@ActionRawUnitCommand@SC2APIProtocol@@UEBAPEAEPEAEPEAVEpsCopyOutputStream@io@protobuf@google@@@Z ; SC2APIProtocol::ActionRawUnitCommand::_InternalSerialize
PUBLIC	?GetCachedSize@ActionRawUnitCommand@SC2APIProtocol@@UEBAHXZ ; SC2APIProtocol::ActionRawUnitCommand::GetCachedSize
PUBLIC	?SharedCtor@ActionRawUnitCommand@SC2APIProtocol@@AEAAXPEAVArena@protobuf@google@@_N@Z ; SC2APIProtocol::ActionRawUnitCommand::SharedCtor
PUBLIC	?SharedDtor@ActionRawUnitCommand@SC2APIProtocol@@AEAAXXZ ; SC2APIProtocol::ActionRawUnitCommand::SharedDtor
PUBLIC	?SetCachedSize@ActionRawUnitCommand@SC2APIProtocol@@EEBAXH@Z ; SC2APIProtocol::ActionRawUnitCommand::SetCachedSize
PUBLIC	?InternalSwap@ActionRawUnitCommand@SC2APIProtocol@@AEAAXPEAV12@@Z ; SC2APIProtocol::ActionRawUnitCommand::InternalSwap
PUBLIC	??0ActionRawUnitCommand@SC2APIProtocol@@IEAA@PEAVArena@protobuf@google@@_N@Z ; SC2APIProtocol::ActionRawUnitCommand::ActionRawUnitCommand
PUBLIC	?GetClassData@ActionRawUnitCommand@SC2APIProtocol@@UEBAPEBUClassData@Message@protobuf@google@@XZ ; SC2APIProtocol::ActionRawUnitCommand::GetClassData
PUBLIC	?GetMetadata@ActionRawUnitCommand@SC2APIProtocol@@UEBA?AUMetadata@protobuf@google@@XZ ; SC2APIProtocol::ActionRawUnitCommand::GetMetadata
PUBLIC	?_internal_unit_tags_size@ActionRawUnitCommand@SC2APIProtocol@@AEBAHXZ ; SC2APIProtocol::ActionRawUnitCommand::_internal_unit_tags_size
PUBLIC	?_internal_unit_tags@ActionRawUnitCommand@SC2APIProtocol@@AEBA_KH@Z ; SC2APIProtocol::ActionRawUnitCommand::_internal_unit_tags
PUBLIC	?_internal_add_unit_tags@ActionRawUnitCommand@SC2APIProtocol@@AEAAX_K@Z ; SC2APIProtocol::ActionRawUnitCommand::_internal_add_unit_tags
PUBLIC	?_internal_mutable_unit_tags@ActionRawUnitCommand@SC2APIProtocol@@AEAAPEAV?$RepeatedField@_K@protobuf@google@@XZ ; SC2APIProtocol::ActionRawUnitCommand::_internal_mutable_unit_tags
PUBLIC	?_internal_ability_id@ActionRawUnitCommand@SC2APIProtocol@@AEBAHXZ ; SC2APIProtocol::ActionRawUnitCommand::_internal_ability_id
PUBLIC	?_internal_queue_command@ActionRawUnitCommand@SC2APIProtocol@@AEBA_NXZ ; SC2APIProtocol::ActionRawUnitCommand::_internal_queue_command
PUBLIC	?_internal_has_target_world_space_pos@ActionRawUnitCommand@SC2APIProtocol@@AEBA_NXZ ; SC2APIProtocol::ActionRawUnitCommand::_internal_has_target_world_space_pos
PUBLIC	?clear_target_world_space_pos@ActionRawUnitCommand@SC2APIProtocol@@QEAAXXZ ; SC2APIProtocol::ActionRawUnitCommand::clear_target_world_space_pos
PUBLIC	?set_allocated_target_world_space_pos@ActionRawUnitCommand@SC2APIProtocol@@QEAAXPEAVPoint2D@2@@Z ; SC2APIProtocol::ActionRawUnitCommand::set_allocated_target_world_space_pos
PUBLIC	?_internal_target_world_space_pos@ActionRawUnitCommand@SC2APIProtocol@@AEBAAEBVPoint2D@2@XZ ; SC2APIProtocol::ActionRawUnitCommand::_internal_target_world_space_pos
PUBLIC	?_internal_mutable_target_world_space_pos@ActionRawUnitCommand@SC2APIProtocol@@AEAAPEAVPoint2D@2@XZ ; SC2APIProtocol::ActionRawUnitCommand::_internal_mutable_target_world_space_pos
PUBLIC	?_internal_has_target_unit_tag@ActionRawUnitCommand@SC2APIProtocol@@AEBA_NXZ ; SC2APIProtocol::ActionRawUnitCommand::_internal_has_target_unit_tag
PUBLIC	?_internal_target_unit_tag@ActionRawUnitCommand@SC2APIProtocol@@AEBA_KXZ ; SC2APIProtocol::ActionRawUnitCommand::_internal_target_unit_tag
PUBLIC	?_internal_set_target_unit_tag@ActionRawUnitCommand@SC2APIProtocol@@AEAAX_K@Z ; SC2APIProtocol::ActionRawUnitCommand::_internal_set_target_unit_tag
PUBLIC	?clear_target@ActionRawUnitCommand@SC2APIProtocol@@QEAAXXZ ; SC2APIProtocol::ActionRawUnitCommand::clear_target
PUBLIC	?target_case@ActionRawUnitCommand@SC2APIProtocol@@QEBA?AW4TargetCase@12@XZ ; SC2APIProtocol::ActionRawUnitCommand::target_case
PUBLIC	?set_has_target_world_space_pos@ActionRawUnitCommand@SC2APIProtocol@@AEAAXXZ ; SC2APIProtocol::ActionRawUnitCommand::set_has_target_world_space_pos
PUBLIC	?set_has_target_unit_tag@ActionRawUnitCommand@SC2APIProtocol@@AEAAXXZ ; SC2APIProtocol::ActionRawUnitCommand::set_has_target_unit_tag
PUBLIC	?has_target@ActionRawUnitCommand@SC2APIProtocol@@AEBA_NXZ ; SC2APIProtocol::ActionRawUnitCommand::has_target
PUBLIC	?clear_has_target@ActionRawUnitCommand@SC2APIProtocol@@AEAAXXZ ; SC2APIProtocol::ActionRawUnitCommand::clear_has_target
PUBLIC	??0TargetUnion@Impl_@ActionRawUnitCommand@SC2APIProtocol@@QEAA@XZ ; SC2APIProtocol::ActionRawUnitCommand::Impl_::TargetUnion::TargetUnion
PUBLIC	??_GActionRawUnitCommand@SC2APIProtocol@@UEAAPEAXI@Z ; SC2APIProtocol::ActionRawUnitCommand::`scalar deleting destructor'
PUBLIC	??$CreateMaybeMessage@VActionRawUnitCommand@SC2APIProtocol@@@MessageLite@protobuf@google@@KAPEAVActionRawUnitCommand@SC2APIProtocol@@PEAVArena@12@@Z ; google::protobuf::MessageLite::CreateMaybeMessage<SC2APIProtocol::ActionRawUnitCommand>
PUBLIC	??1ActionRawCameraMove@SC2APIProtocol@@UEAA@XZ	; SC2APIProtocol::ActionRawCameraMove::~ActionRawCameraMove
PUBLIC	??0ActionRawCameraMove@SC2APIProtocol@@QEAA@AEBV01@@Z ; SC2APIProtocol::ActionRawCameraMove::ActionRawCameraMove
PUBLIC	?internal_default_instance@ActionRawCameraMove@SC2APIProtocol@@SAPEBV12@XZ ; SC2APIProtocol::ActionRawCameraMove::internal_default_instance
PUBLIC	?CopyFrom@ActionRawCameraMove@SC2APIProtocol@@QEAAXAEBV12@@Z ; SC2APIProtocol::ActionRawCameraMove::CopyFrom
PUBLIC	?MergeFrom@ActionRawCameraMove@SC2APIProtocol@@QEAAXAEBV12@@Z ; SC2APIProtocol::ActionRawCameraMove::MergeFrom
PUBLIC	?SharedCtor@ActionRawCameraMove@SC2APIProtocol@@AEAAXPEAVArena@protobuf@google@@_N@Z ; SC2APIProtocol::ActionRawCameraMove::SharedCtor
PUBLIC	?SharedDtor@ActionRawCameraMove@SC2APIProtocol@@AEAAXXZ ; SC2APIProtocol::ActionRawCameraMove::SharedDtor
PUBLIC	?InternalSwap@ActionRawCameraMove@SC2APIProtocol@@AEAAXPEAV12@@Z ; SC2APIProtocol::ActionRawCameraMove::InternalSwap
PUBLIC	??0ActionRawCameraMove@SC2APIProtocol@@IEAA@PEAVArena@protobuf@google@@_N@Z ; SC2APIProtocol::ActionRawCameraMove::ActionRawCameraMove
PUBLIC	?_internal_has_center_world_space@ActionRawCameraMove@SC2APIProtocol@@AEBA_NXZ ; SC2APIProtocol::ActionRawCameraMove::_internal_has_center_world_space
PUBLIC	?clear_center_world_space@ActionRawCameraMove@SC2APIProtocol@@QEAAXXZ ; SC2APIProtocol::ActionRawCameraMove::clear_center_world_space
PUBLIC	?_internal_center_world_space@ActionRawCameraMove@SC2APIProtocol@@AEBAAEBVPoint@2@XZ ; SC2APIProtocol::ActionRawCameraMove::_internal_center_world_space
PUBLIC	?_internal_mutable_center_world_space@ActionRawCameraMove@SC2APIProtocol@@AEAAPEAVPoint@2@XZ ; SC2APIProtocol::ActionRawCameraMove::_internal_mutable_center_world_space
PUBLIC	??$CreateMaybeMessage@VActionRawCameraMove@SC2APIProtocol@@@MessageLite@protobuf@google@@KAPEAVActionRawCameraMove@SC2APIProtocol@@PEAVArena@12@@Z ; google::protobuf::MessageLite::CreateMaybeMessage<SC2APIProtocol::ActionRawCameraMove>
PUBLIC	??1ActionRawToggleAutocast@SC2APIProtocol@@UEAA@XZ ; SC2APIProtocol::ActionRawToggleAutocast::~ActionRawToggleAutocast
PUBLIC	??0ActionRawToggleAutocast@SC2APIProtocol@@QEAA@UConstantInitialized@internal@protobuf@google@@@Z ; SC2APIProtocol::ActionRawToggleAutocast::ActionRawToggleAutocast
PUBLIC	??0ActionRawToggleAutocast@SC2APIProtocol@@QEAA@AEBV01@@Z ; SC2APIProtocol::ActionRawToggleAutocast::ActionRawToggleAutocast
PUBLIC	?New@ActionRawToggleAutocast@SC2APIProtocol@@UEBAPEAV12@PEAVArena@protobuf@google@@@Z ; SC2APIProtocol::ActionRawToggleAutocast::New
PUBLIC	?CopyFrom@ActionRawToggleAutocast@SC2APIProtocol@@QEAAXAEBV12@@Z ; SC2APIProtocol::ActionRawToggleAutocast::CopyFrom
PUBLIC	?MergeFrom@ActionRawToggleAutocast@SC2APIProtocol@@QEAAXAEBV12@@Z ; SC2APIProtocol::ActionRawToggleAutocast::MergeFrom
PUBLIC	?Clear@ActionRawToggleAutocast@SC2APIProtocol@@UEAAXXZ ; SC2APIProtocol::ActionRawToggleAutocast::Clear
PUBLIC	?IsInitialized@ActionRawToggleAutocast@SC2APIProtocol@@UEBA_NXZ ; SC2APIProtocol::ActionRawToggleAutocast::IsInitialized
PUBLIC	?ByteSizeLong@ActionRawToggleAutocast@SC2APIProtocol@@UEBA_KXZ ; SC2APIProtocol::ActionRawToggleAutocast::ByteSizeLong
PUBLIC	?_InternalParse@ActionRawToggleAutocast@SC2APIProtocol@@UEAAPEBDPEBDPEAVParseContext@internal@protobuf@google@@@Z ; SC2APIProtocol::ActionRawToggleAutocast::_InternalParse
PUBLIC	?_InternalSerialize@ActionRawToggleAutocast@SC2APIProtocol@@UEBAPEAEPEAEPEAVEpsCopyOutputStream@io@protobuf@google@@@Z ; SC2APIProtocol::ActionRawToggleAutocast::_InternalSerialize
PUBLIC	?GetCachedSize@ActionRawToggleAutocast@SC2APIProtocol@@UEBAHXZ ; SC2APIProtocol::ActionRawToggleAutocast::GetCachedSize
PUBLIC	?SharedCtor@ActionRawToggleAutocast@SC2APIProtocol@@AEAAXPEAVArena@protobuf@google@@_N@Z ; SC2APIProtocol::ActionRawToggleAutocast::SharedCtor
PUBLIC	?SharedDtor@ActionRawToggleAutocast@SC2APIProtocol@@AEAAXXZ ; SC2APIProtocol::ActionRawToggleAutocast::SharedDtor
PUBLIC	?SetCachedSize@ActionRawToggleAutocast@SC2APIProtocol@@EEBAXH@Z ; SC2APIProtocol::ActionRawToggleAutocast::SetCachedSize
PUBLIC	?InternalSwap@ActionRawToggleAutocast@SC2APIProtocol@@AEAAXPEAV12@@Z ; SC2APIProtocol::ActionRawToggleAutocast::InternalSwap
PUBLIC	??0ActionRawToggleAutocast@SC2APIProtocol@@IEAA@PEAVArena@protobuf@google@@_N@Z ; SC2APIProtocol::ActionRawToggleAutocast::ActionRawToggleAutocast
PUBLIC	?GetClassData@ActionRawToggleAutocast@SC2APIProtocol@@UEBAPEBUClassData@Message@protobuf@google@@XZ ; SC2APIProtocol::ActionRawToggleAutocast::GetClassData
PUBLIC	?GetMetadata@ActionRawToggleAutocast@SC2APIProtocol@@UEBA?AUMetadata@protobuf@google@@XZ ; SC2APIProtocol::ActionRawToggleAutocast::GetMetadata
PUBLIC	?_internal_unit_tags_size@ActionRawToggleAutocast@SC2APIProtocol@@AEBAHXZ ; SC2APIProtocol::ActionRawToggleAutocast::_internal_unit_tags_size
PUBLIC	?_internal_unit_tags@ActionRawToggleAutocast@SC2APIProtocol@@AEBA_KH@Z ; SC2APIProtocol::ActionRawToggleAutocast::_internal_unit_tags
PUBLIC	?_internal_add_unit_tags@ActionRawToggleAutocast@SC2APIProtocol@@AEAAX_K@Z ; SC2APIProtocol::ActionRawToggleAutocast::_internal_add_unit_tags
PUBLIC	?_internal_mutable_unit_tags@ActionRawToggleAutocast@SC2APIProtocol@@AEAAPEAV?$RepeatedField@_K@protobuf@google@@XZ ; SC2APIProtocol::ActionRawToggleAutocast::_internal_mutable_unit_tags
PUBLIC	?_internal_has_ability_id@ActionRawToggleAutocast@SC2APIProtocol@@AEBA_NXZ ; SC2APIProtocol::ActionRawToggleAutocast::_internal_has_ability_id
PUBLIC	?_internal_ability_id@ActionRawToggleAutocast@SC2APIProtocol@@AEBAHXZ ; SC2APIProtocol::ActionRawToggleAutocast::_internal_ability_id
PUBLIC	?_internal_set_ability_id@ActionRawToggleAutocast@SC2APIProtocol@@AEAAXH@Z ; SC2APIProtocol::ActionRawToggleAutocast::_internal_set_ability_id
PUBLIC	??_GActionRawToggleAutocast@SC2APIProtocol@@UEAAPEAXI@Z ; SC2APIProtocol::ActionRawToggleAutocast::`scalar deleting destructor'
PUBLIC	??$CreateMaybeMessage@VActionRawToggleAutocast@SC2APIProtocol@@@MessageLite@protobuf@google@@KAPEAVActionRawToggleAutocast@SC2APIProtocol@@PEAVArena@12@@Z ; google::protobuf::MessageLite::CreateMaybeMessage<SC2APIProtocol::ActionRawToggleAutocast>
PUBLIC	??$InternalGetOwningArena@VMessageLite@protobuf@google@@@Arena@protobuf@google@@SAPEAV012@PEBVMessageLite@12@@Z ; google::protobuf::Arena::InternalGetOwningArena<google::protobuf::MessageLite>
PUBLIC	??$GetOwnedMessage@VPoint@SC2APIProtocol@@@internal@protobuf@google@@YAPEAVPoint@SC2APIProtocol@@PEAVArena@12@PEAV34@0@Z ; google::protobuf::internal::GetOwnedMessage<SC2APIProtocol::Point>
PUBLIC	??0StartRawDefaultTypeInternal@SC2APIProtocol@@QEAA@XZ ; SC2APIProtocol::StartRawDefaultTypeInternal::StartRawDefaultTypeInternal
PUBLIC	??1StartRawDefaultTypeInternal@SC2APIProtocol@@QEAA@XZ ; SC2APIProtocol::StartRawDefaultTypeInternal::~StartRawDefaultTypeInternal
PUBLIC	??0ObservationRawDefaultTypeInternal@SC2APIProtocol@@QEAA@XZ ; SC2APIProtocol::ObservationRawDefaultTypeInternal::ObservationRawDefaultTypeInternal
PUBLIC	??1ObservationRawDefaultTypeInternal@SC2APIProtocol@@QEAA@XZ ; SC2APIProtocol::ObservationRawDefaultTypeInternal::~ObservationRawDefaultTypeInternal
PUBLIC	??1RadarRingDefaultTypeInternal@SC2APIProtocol@@QEAA@XZ ; SC2APIProtocol::RadarRingDefaultTypeInternal::~RadarRingDefaultTypeInternal
PUBLIC	??1PowerSourceDefaultTypeInternal@SC2APIProtocol@@QEAA@XZ ; SC2APIProtocol::PowerSourceDefaultTypeInternal::~PowerSourceDefaultTypeInternal
PUBLIC	??0PlayerRawDefaultTypeInternal@SC2APIProtocol@@QEAA@XZ ; SC2APIProtocol::PlayerRawDefaultTypeInternal::PlayerRawDefaultTypeInternal
PUBLIC	??1PlayerRawDefaultTypeInternal@SC2APIProtocol@@QEAA@XZ ; SC2APIProtocol::PlayerRawDefaultTypeInternal::~PlayerRawDefaultTypeInternal
PUBLIC	??1UnitOrderDefaultTypeInternal@SC2APIProtocol@@QEAA@XZ ; SC2APIProtocol::UnitOrderDefaultTypeInternal::~UnitOrderDefaultTypeInternal
PUBLIC	??1PassengerUnitDefaultTypeInternal@SC2APIProtocol@@QEAA@XZ ; SC2APIProtocol::PassengerUnitDefaultTypeInternal::~PassengerUnitDefaultTypeInternal
PUBLIC	??1RallyTargetDefaultTypeInternal@SC2APIProtocol@@QEAA@XZ ; SC2APIProtocol::RallyTargetDefaultTypeInternal::~RallyTargetDefaultTypeInternal
PUBLIC	??0UnitDefaultTypeInternal@SC2APIProtocol@@QEAA@XZ ; SC2APIProtocol::UnitDefaultTypeInternal::UnitDefaultTypeInternal
PUBLIC	??1UnitDefaultTypeInternal@SC2APIProtocol@@QEAA@XZ ; SC2APIProtocol::UnitDefaultTypeInternal::~UnitDefaultTypeInternal
PUBLIC	??1MapStateDefaultTypeInternal@SC2APIProtocol@@QEAA@XZ ; SC2APIProtocol::MapStateDefaultTypeInternal::~MapStateDefaultTypeInternal
PUBLIC	??0EventDefaultTypeInternal@SC2APIProtocol@@QEAA@XZ ; SC2APIProtocol::EventDefaultTypeInternal::EventDefaultTypeInternal
PUBLIC	??1EventDefaultTypeInternal@SC2APIProtocol@@QEAA@XZ ; SC2APIProtocol::EventDefaultTypeInternal::~EventDefaultTypeInternal
PUBLIC	??0EffectDefaultTypeInternal@SC2APIProtocol@@QEAA@XZ ; SC2APIProtocol::EffectDefaultTypeInternal::EffectDefaultTypeInternal
PUBLIC	??1EffectDefaultTypeInternal@SC2APIProtocol@@QEAA@XZ ; SC2APIProtocol::EffectDefaultTypeInternal::~EffectDefaultTypeInternal
PUBLIC	??1ActionRawDefaultTypeInternal@SC2APIProtocol@@QEAA@XZ ; SC2APIProtocol::ActionRawDefaultTypeInternal::~ActionRawDefaultTypeInternal
PUBLIC	??0ActionRawUnitCommandDefaultTypeInternal@SC2APIProtocol@@QEAA@XZ ; SC2APIProtocol::ActionRawUnitCommandDefaultTypeInternal::ActionRawUnitCommandDefaultTypeInternal
PUBLIC	??1ActionRawUnitCommandDefaultTypeInternal@SC2APIProtocol@@QEAA@XZ ; SC2APIProtocol::ActionRawUnitCommandDefaultTypeInternal::~ActionRawUnitCommandDefaultTypeInternal
PUBLIC	??1ActionRawCameraMoveDefaultTypeInternal@SC2APIProtocol@@QEAA@XZ ; SC2APIProtocol::ActionRawCameraMoveDefaultTypeInternal::~ActionRawCameraMoveDefaultTypeInternal
PUBLIC	??0ActionRawToggleAutocastDefaultTypeInternal@SC2APIProtocol@@QEAA@XZ ; SC2APIProtocol::ActionRawToggleAutocastDefaultTypeInternal::ActionRawToggleAutocastDefaultTypeInternal
PUBLIC	??1ActionRawToggleAutocastDefaultTypeInternal@SC2APIProtocol@@QEAA@XZ ; SC2APIProtocol::ActionRawToggleAutocastDefaultTypeInternal::~ActionRawToggleAutocastDefaultTypeInternal
PUBLIC	?descriptor_table_s2clientprotocol_2fraw_2eproto_getter@@YAPEBUDescriptorTable@internal@protobuf@google@@XZ ; descriptor_table_s2clientprotocol_2fraw_2eproto_getter
PUBLIC	?map_size@_Internal@StartRaw@SC2APIProtocol@@SAAEBVSize2DI@3@PEBV23@@Z ; SC2APIProtocol::StartRaw::_Internal::map_size
PUBLIC	?pathing_grid@_Internal@StartRaw@SC2APIProtocol@@SAAEBVImageData@3@PEBV23@@Z ; SC2APIProtocol::StartRaw::_Internal::pathing_grid
PUBLIC	?terrain_height@_Internal@StartRaw@SC2APIProtocol@@SAAEBVImageData@3@PEBV23@@Z ; SC2APIProtocol::StartRaw::_Internal::terrain_height
PUBLIC	?placement_grid@_Internal@StartRaw@SC2APIProtocol@@SAAEBVImageData@3@PEBV23@@Z ; SC2APIProtocol::StartRaw::_Internal::placement_grid
PUBLIC	?playable_area@_Internal@StartRaw@SC2APIProtocol@@SAAEBVRectangleI@3@PEBV23@@Z ; SC2APIProtocol::StartRaw::_Internal::playable_area
PUBLIC	??$MergeFrom@VUnknownFieldSet@protobuf@google@@@InternalMetadata@internal@protobuf@google@@QEAAXAEBV0123@@Z ; google::protobuf::internal::InternalMetadata::MergeFrom<google::protobuf::UnknownFieldSet>
PUBLIC	??$DeleteReturnArena@VUnknownFieldSet@protobuf@google@@@InternalMetadata@internal@protobuf@google@@QEAAPEAVArena@23@XZ ; google::protobuf::internal::InternalMetadata::DeleteReturnArena<google::protobuf::UnknownFieldSet>
PUBLIC	??$Clear@VUnknownFieldSet@protobuf@google@@@InternalMetadata@internal@protobuf@google@@QEAAXXZ ; google::protobuf::internal::InternalMetadata::Clear<google::protobuf::UnknownFieldSet>
PUBLIC	??$ExpectTag@$0DC@@internal@protobuf@google@@YA_NPEBD@Z ; google::protobuf::internal::ExpectTag<50>
PUBLIC	??D?$RepeatedPtrIterator@$$CBVPoint2D@SC2APIProtocol@@@internal@protobuf@google@@QEBAAEBVPoint2D@SC2APIProtocol@@XZ ; google::protobuf::internal::RepeatedPtrIterator<SC2APIProtocol::Point2D const >::operator*
PUBLIC	??E?$RepeatedPtrIterator@$$CBVPoint2D@SC2APIProtocol@@@internal@protobuf@google@@QEAAAEAV0123@XZ ; google::protobuf::internal::RepeatedPtrIterator<SC2APIProtocol::Point2D const >::operator++
PUBLIC	??9internal@protobuf@google@@YA_NAEBV?$RepeatedPtrIterator@$$CBVPoint2D@SC2APIProtocol@@@012@0@Z ; google::protobuf::internal::operator!=
PUBLIC	??$MessageSize@VPoint2D@SC2APIProtocol@@@WireFormatLite@internal@protobuf@google@@SA_KAEBVPoint2D@SC2APIProtocol@@@Z ; google::protobuf::internal::WireFormatLite::MessageSize<SC2APIProtocol::Point2D>
PUBLIC	??$MessageSize@VSize2DI@SC2APIProtocol@@@WireFormatLite@internal@protobuf@google@@SA_KAEBVSize2DI@SC2APIProtocol@@@Z ; google::protobuf::internal::WireFormatLite::MessageSize<SC2APIProtocol::Size2DI>
PUBLIC	??$MessageSize@VImageData@SC2APIProtocol@@@WireFormatLite@internal@protobuf@google@@SA_KAEBVImageData@SC2APIProtocol@@@Z ; google::protobuf::internal::WireFormatLite::MessageSize<SC2APIProtocol::ImageData>
PUBLIC	??$MessageSize@VRectangleI@SC2APIProtocol@@@WireFormatLite@internal@protobuf@google@@SA_KAEBVRectangleI@SC2APIProtocol@@@Z ; google::protobuf::internal::WireFormatLite::MessageSize<SC2APIProtocol::RectangleI>
PUBLIC	??$swap@I$0A@@std@@YAXAEAI0@Z			; std::swap<unsigned int,0>
PUBLIC	??$memswap@$0CI@@internal@protobuf@google@@YAXPEAD0@Z ; google::protobuf::internal::memswap<40>
PUBLIC	?player@_Internal@ObservationRaw@SC2APIProtocol@@SAAEBVPlayerRaw@3@PEBV23@@Z ; SC2APIProtocol::ObservationRaw::_Internal::player
PUBLIC	?map_state@_Internal@ObservationRaw@SC2APIProtocol@@SAAEBVMapState@3@PEBV23@@Z ; SC2APIProtocol::ObservationRaw::_Internal::map_state
PUBLIC	?event@_Internal@ObservationRaw@SC2APIProtocol@@SAAEBVEvent@3@PEBV23@@Z ; SC2APIProtocol::ObservationRaw::_Internal::event
PUBLIC	??$ExpectTag@$0BC@@internal@protobuf@google@@YA_NPEBD@Z ; google::protobuf::internal::ExpectTag<18>
PUBLIC	??$ExpectTag@$0CK@@internal@protobuf@google@@YA_NPEBD@Z ; google::protobuf::internal::ExpectTag<42>
PUBLIC	??D?$RepeatedPtrIterator@$$CBVUnit@SC2APIProtocol@@@internal@protobuf@google@@QEBAAEBVUnit@SC2APIProtocol@@XZ ; google::protobuf::internal::RepeatedPtrIterator<SC2APIProtocol::Unit const >::operator*
PUBLIC	??E?$RepeatedPtrIterator@$$CBVUnit@SC2APIProtocol@@@internal@protobuf@google@@QEAAAEAV0123@XZ ; google::protobuf::internal::RepeatedPtrIterator<SC2APIProtocol::Unit const >::operator++
PUBLIC	??9internal@protobuf@google@@YA_NAEBV?$RepeatedPtrIterator@$$CBVUnit@SC2APIProtocol@@@012@0@Z ; google::protobuf::internal::operator!=
PUBLIC	??$MessageSize@VUnit@SC2APIProtocol@@@WireFormatLite@internal@protobuf@google@@SA_KAEBVUnit@SC2APIProtocol@@@Z ; google::protobuf::internal::WireFormatLite::MessageSize<SC2APIProtocol::Unit>
PUBLIC	??D?$RepeatedPtrIterator@$$CBVEffect@SC2APIProtocol@@@internal@protobuf@google@@QEBAAEBVEffect@SC2APIProtocol@@XZ ; google::protobuf::internal::RepeatedPtrIterator<SC2APIProtocol::Effect const >::operator*
PUBLIC	??E?$RepeatedPtrIterator@$$CBVEffect@SC2APIProtocol@@@internal@protobuf@google@@QEAAAEAV0123@XZ ; google::protobuf::internal::RepeatedPtrIterator<SC2APIProtocol::Effect const >::operator++
PUBLIC	??9internal@protobuf@google@@YA_NAEBV?$RepeatedPtrIterator@$$CBVEffect@SC2APIProtocol@@@012@0@Z ; google::protobuf::internal::operator!=
PUBLIC	??$MessageSize@VEffect@SC2APIProtocol@@@WireFormatLite@internal@protobuf@google@@SA_KAEBVEffect@SC2APIProtocol@@@Z ; google::protobuf::internal::WireFormatLite::MessageSize<SC2APIProtocol::Effect>
PUBLIC	??D?$RepeatedPtrIterator@$$CBVRadarRing@SC2APIProtocol@@@internal@protobuf@google@@QEBAAEBVRadarRing@SC2APIProtocol@@XZ ; google::protobuf::internal::RepeatedPtrIterator<SC2APIProtocol::RadarRing const >::operator*
PUBLIC	??E?$RepeatedPtrIterator@$$CBVRadarRing@SC2APIProtocol@@@internal@protobuf@google@@QEAAAEAV0123@XZ ; google::protobuf::internal::RepeatedPtrIterator<SC2APIProtocol::RadarRing const >::operator++
PUBLIC	??9internal@protobuf@google@@YA_NAEBV?$RepeatedPtrIterator@$$CBVRadarRing@SC2APIProtocol@@@012@0@Z ; google::protobuf::internal::operator!=
PUBLIC	??$MessageSize@VRadarRing@SC2APIProtocol@@@WireFormatLite@internal@protobuf@google@@SA_KAEBVRadarRing@SC2APIProtocol@@@Z ; google::protobuf::internal::WireFormatLite::MessageSize<SC2APIProtocol::RadarRing>
PUBLIC	??$MessageSize@VPlayerRaw@SC2APIProtocol@@@WireFormatLite@internal@protobuf@google@@SA_KAEBVPlayerRaw@SC2APIProtocol@@@Z ; google::protobuf::internal::WireFormatLite::MessageSize<SC2APIProtocol::PlayerRaw>
PUBLIC	??$MessageSize@VMapState@SC2APIProtocol@@@WireFormatLite@internal@protobuf@google@@SA_KAEBVMapState@SC2APIProtocol@@@Z ; google::protobuf::internal::WireFormatLite::MessageSize<SC2APIProtocol::MapState>
PUBLIC	??$MessageSize@VEvent@SC2APIProtocol@@@WireFormatLite@internal@protobuf@google@@SA_KAEBVEvent@SC2APIProtocol@@@Z ; google::protobuf::internal::WireFormatLite::MessageSize<SC2APIProtocol::Event>
PUBLIC	??$memswap@$0BI@@internal@protobuf@google@@YAXPEAD0@Z ; google::protobuf::internal::memswap<24>
PUBLIC	?pos@_Internal@RadarRing@SC2APIProtocol@@SAAEBVPoint@3@PEBV23@@Z ; SC2APIProtocol::RadarRing::_Internal::pos
PUBLIC	?set_has_radius@_Internal@RadarRing@SC2APIProtocol@@SAXPEAV?$HasBits@$00@internal@protobuf@google@@@Z ; SC2APIProtocol::RadarRing::_Internal::set_has_radius
PUBLIC	??$UnalignedLoad@M@internal@protobuf@google@@YAMPEBD@Z ; google::protobuf::internal::UnalignedLoad<float>
PUBLIC	??$MessageSize@VPoint@SC2APIProtocol@@@WireFormatLite@internal@protobuf@google@@SA_KAEBVPoint@SC2APIProtocol@@@Z ; google::protobuf::internal::WireFormatLite::MessageSize<SC2APIProtocol::Point>
PUBLIC	??$memswap@$0M@@internal@protobuf@google@@YAXPEAD0@Z ; google::protobuf::internal::memswap<12>
PUBLIC	?pos@_Internal@PowerSource@SC2APIProtocol@@SAAEBVPoint@3@PEBV23@@Z ; SC2APIProtocol::PowerSource::_Internal::pos
PUBLIC	?set_has_radius@_Internal@PowerSource@SC2APIProtocol@@SAXPEAV?$HasBits@$00@internal@protobuf@google@@@Z ; SC2APIProtocol::PowerSource::_Internal::set_has_radius
PUBLIC	?set_has_tag@_Internal@PowerSource@SC2APIProtocol@@SAXPEAV?$HasBits@$00@internal@protobuf@google@@@Z ; SC2APIProtocol::PowerSource::_Internal::set_has_tag
PUBLIC	??$memswap@$0BE@@internal@protobuf@google@@YAXPEAD0@Z ; google::protobuf::internal::memswap<20>
PUBLIC	?camera@_Internal@PlayerRaw@SC2APIProtocol@@SAAEBVPoint@3@PEBV23@@Z ; SC2APIProtocol::PlayerRaw::_Internal::camera
PUBLIC	??$ExpectTag@$09@internal@protobuf@google@@YA_NPEBD@Z ; google::protobuf::internal::ExpectTag<10>
PUBLIC	??$ExpectTag@$0BI@@internal@protobuf@google@@YA_NPEBD@Z ; google::protobuf::internal::ExpectTag<24>
PUBLIC	??D?$RepeatedPtrIterator@$$CBVPowerSource@SC2APIProtocol@@@internal@protobuf@google@@QEBAAEBVPowerSource@SC2APIProtocol@@XZ ; google::protobuf::internal::RepeatedPtrIterator<SC2APIProtocol::PowerSource const >::operator*
PUBLIC	??E?$RepeatedPtrIterator@$$CBVPowerSource@SC2APIProtocol@@@internal@protobuf@google@@QEAAAEAV0123@XZ ; google::protobuf::internal::RepeatedPtrIterator<SC2APIProtocol::PowerSource const >::operator++
PUBLIC	??9internal@protobuf@google@@YA_NAEBV?$RepeatedPtrIterator@$$CBVPowerSource@SC2APIProtocol@@@012@0@Z ; google::protobuf::internal::operator!=
PUBLIC	??$MessageSize@VPowerSource@SC2APIProtocol@@@WireFormatLite@internal@protobuf@google@@SA_KAEBVPowerSource@SC2APIProtocol@@@Z ; google::protobuf::internal::WireFormatLite::MessageSize<SC2APIProtocol::PowerSource>
PUBLIC	??$swap@PEAVPoint@SC2APIProtocol@@$0A@@std@@YAXAEAPEAVPoint@SC2APIProtocol@@0@Z ; std::swap<SC2APIProtocol::Point *,0>
PUBLIC	?set_has_ability_id@_Internal@UnitOrder@SC2APIProtocol@@SAXPEAV?$HasBits@$00@internal@protobuf@google@@@Z ; SC2APIProtocol::UnitOrder::_Internal::set_has_ability_id
PUBLIC	?target_world_space_pos@_Internal@UnitOrder@SC2APIProtocol@@SAAEBVPoint@3@PEBV23@@Z ; SC2APIProtocol::UnitOrder::_Internal::target_world_space_pos
PUBLIC	?set_has_progress@_Internal@UnitOrder@SC2APIProtocol@@SAXPEAV?$HasBits@$00@internal@protobuf@google@@@Z ; SC2APIProtocol::UnitOrder::_Internal::set_has_progress
PUBLIC	??$memswap@$07@internal@protobuf@google@@YAXPEAD0@Z ; google::protobuf::internal::memswap<8>
PUBLIC	??$swap@TTargetUnion@Impl_@UnitOrder@SC2APIProtocol@@$0A@@std@@YAXAEATTargetUnion@Impl_@UnitOrder@SC2APIProtocol@@0@Z ; std::swap<SC2APIProtocol::UnitOrder::Impl_::TargetUnion,0>
PUBLIC	?set_has_tag@_Internal@PassengerUnit@SC2APIProtocol@@SAXPEAV?$HasBits@$00@internal@protobuf@google@@@Z ; SC2APIProtocol::PassengerUnit::_Internal::set_has_tag
PUBLIC	?set_has_health@_Internal@PassengerUnit@SC2APIProtocol@@SAXPEAV?$HasBits@$00@internal@protobuf@google@@@Z ; SC2APIProtocol::PassengerUnit::_Internal::set_has_health
PUBLIC	?set_has_health_max@_Internal@PassengerUnit@SC2APIProtocol@@SAXPEAV?$HasBits@$00@internal@protobuf@google@@@Z ; SC2APIProtocol::PassengerUnit::_Internal::set_has_health_max
PUBLIC	?set_has_shield@_Internal@PassengerUnit@SC2APIProtocol@@SAXPEAV?$HasBits@$00@internal@protobuf@google@@@Z ; SC2APIProtocol::PassengerUnit::_Internal::set_has_shield
PUBLIC	?set_has_shield_max@_Internal@PassengerUnit@SC2APIProtocol@@SAXPEAV?$HasBits@$00@internal@protobuf@google@@@Z ; SC2APIProtocol::PassengerUnit::_Internal::set_has_shield_max
PUBLIC	?set_has_energy@_Internal@PassengerUnit@SC2APIProtocol@@SAXPEAV?$HasBits@$00@internal@protobuf@google@@@Z ; SC2APIProtocol::PassengerUnit::_Internal::set_has_energy
PUBLIC	?set_has_energy_max@_Internal@PassengerUnit@SC2APIProtocol@@SAXPEAV?$HasBits@$00@internal@protobuf@google@@@Z ; SC2APIProtocol::PassengerUnit::_Internal::set_has_energy_max
PUBLIC	?set_has_unit_type@_Internal@PassengerUnit@SC2APIProtocol@@SAXPEAV?$HasBits@$00@internal@protobuf@google@@@Z ; SC2APIProtocol::PassengerUnit::_Internal::set_has_unit_type
PUBLIC	??$memswap@$0CE@@internal@protobuf@google@@YAXPEAD0@Z ; google::protobuf::internal::memswap<36>
PUBLIC	?point@_Internal@RallyTarget@SC2APIProtocol@@SAAEBVPoint@3@PEBV23@@Z ; SC2APIProtocol::RallyTarget::_Internal::point
PUBLIC	?set_has_tag@_Internal@RallyTarget@SC2APIProtocol@@SAXPEAV?$HasBits@$00@internal@protobuf@google@@@Z ; SC2APIProtocol::RallyTarget::_Internal::set_has_tag
PUBLIC	??$memswap@$0BA@@internal@protobuf@google@@YAXPEAD0@Z ; google::protobuf::internal::memswap<16>
PUBLIC	?set_has_tag@_Internal@Unit@SC2APIProtocol@@SAXPEAV?$HasBits@$01@internal@protobuf@google@@@Z ; SC2APIProtocol::Unit::_Internal::set_has_tag
PUBLIC	?set_has_unit_type@_Internal@Unit@SC2APIProtocol@@SAXPEAV?$HasBits@$01@internal@protobuf@google@@@Z ; SC2APIProtocol::Unit::_Internal::set_has_unit_type
PUBLIC	?set_has_owner@_Internal@Unit@SC2APIProtocol@@SAXPEAV?$HasBits@$01@internal@protobuf@google@@@Z ; SC2APIProtocol::Unit::_Internal::set_has_owner
PUBLIC	?pos@_Internal@Unit@SC2APIProtocol@@SAAEBVPoint@3@PEBV23@@Z ; SC2APIProtocol::Unit::_Internal::pos
PUBLIC	?set_has_facing@_Internal@Unit@SC2APIProtocol@@SAXPEAV?$HasBits@$01@internal@protobuf@google@@@Z ; SC2APIProtocol::Unit::_Internal::set_has_facing
PUBLIC	?set_has_radius@_Internal@Unit@SC2APIProtocol@@SAXPEAV?$HasBits@$01@internal@protobuf@google@@@Z ; SC2APIProtocol::Unit::_Internal::set_has_radius
PUBLIC	?set_has_build_progress@_Internal@Unit@SC2APIProtocol@@SAXPEAV?$HasBits@$01@internal@protobuf@google@@@Z ; SC2APIProtocol::Unit::_Internal::set_has_build_progress
PUBLIC	?set_has_detect_range@_Internal@Unit@SC2APIProtocol@@SAXPEAV?$HasBits@$01@internal@protobuf@google@@@Z ; SC2APIProtocol::Unit::_Internal::set_has_detect_range
PUBLIC	?set_has_radar_range@_Internal@Unit@SC2APIProtocol@@SAXPEAV?$HasBits@$01@internal@protobuf@google@@@Z ; SC2APIProtocol::Unit::_Internal::set_has_radar_range
PUBLIC	?set_has_is_selected@_Internal@Unit@SC2APIProtocol@@SAXPEAV?$HasBits@$01@internal@protobuf@google@@@Z ; SC2APIProtocol::Unit::_Internal::set_has_is_selected
PUBLIC	?set_has_is_on_screen@_Internal@Unit@SC2APIProtocol@@SAXPEAV?$HasBits@$01@internal@protobuf@google@@@Z ; SC2APIProtocol::Unit::_Internal::set_has_is_on_screen
PUBLIC	?set_has_is_blip@_Internal@Unit@SC2APIProtocol@@SAXPEAV?$HasBits@$01@internal@protobuf@google@@@Z ; SC2APIProtocol::Unit::_Internal::set_has_is_blip
PUBLIC	?set_has_is_powered@_Internal@Unit@SC2APIProtocol@@SAXPEAV?$HasBits@$01@internal@protobuf@google@@@Z ; SC2APIProtocol::Unit::_Internal::set_has_is_powered
PUBLIC	?set_has_is_active@_Internal@Unit@SC2APIProtocol@@SAXPEAV?$HasBits@$01@internal@protobuf@google@@@Z ; SC2APIProtocol::Unit::_Internal::set_has_is_active
PUBLIC	?set_has_attack_upgrade_level@_Internal@Unit@SC2APIProtocol@@SAXPEAV?$HasBits@$01@internal@protobuf@google@@@Z ; SC2APIProtocol::Unit::_Internal::set_has_attack_upgrade_level
PUBLIC	?set_has_armor_upgrade_level@_Internal@Unit@SC2APIProtocol@@SAXPEAV?$HasBits@$01@internal@protobuf@google@@@Z ; SC2APIProtocol::Unit::_Internal::set_has_armor_upgrade_level
PUBLIC	?set_has_shield_upgrade_level@_Internal@Unit@SC2APIProtocol@@SAXPEAV?$HasBits@$01@internal@protobuf@google@@@Z ; SC2APIProtocol::Unit::_Internal::set_has_shield_upgrade_level
PUBLIC	?set_has_health@_Internal@Unit@SC2APIProtocol@@SAXPEAV?$HasBits@$01@internal@protobuf@google@@@Z ; SC2APIProtocol::Unit::_Internal::set_has_health
PUBLIC	?set_has_health_max@_Internal@Unit@SC2APIProtocol@@SAXPEAV?$HasBits@$01@internal@protobuf@google@@@Z ; SC2APIProtocol::Unit::_Internal::set_has_health_max
PUBLIC	?set_has_shield@_Internal@Unit@SC2APIProtocol@@SAXPEAV?$HasBits@$01@internal@protobuf@google@@@Z ; SC2APIProtocol::Unit::_Internal::set_has_shield
PUBLIC	?set_has_shield_max@_Internal@Unit@SC2APIProtocol@@SAXPEAV?$HasBits@$01@internal@protobuf@google@@@Z ; SC2APIProtocol::Unit::_Internal::set_has_shield_max
PUBLIC	?set_has_energy@_Internal@Unit@SC2APIProtocol@@SAXPEAV?$HasBits@$01@internal@protobuf@google@@@Z ; SC2APIProtocol::Unit::_Internal::set_has_energy
PUBLIC	?set_has_energy_max@_Internal@Unit@SC2APIProtocol@@SAXPEAV?$HasBits@$01@internal@protobuf@google@@@Z ; SC2APIProtocol::Unit::_Internal::set_has_energy_max
PUBLIC	?set_has_mineral_contents@_Internal@Unit@SC2APIProtocol@@SAXPEAV?$HasBits@$01@internal@protobuf@google@@@Z ; SC2APIProtocol::Unit::_Internal::set_has_mineral_contents
PUBLIC	?set_has_vespene_contents@_Internal@Unit@SC2APIProtocol@@SAXPEAV?$HasBits@$01@internal@protobuf@google@@@Z ; SC2APIProtocol::Unit::_Internal::set_has_vespene_contents
PUBLIC	?set_has_is_flying@_Internal@Unit@SC2APIProtocol@@SAXPEAV?$HasBits@$01@internal@protobuf@google@@@Z ; SC2APIProtocol::Unit::_Internal::set_has_is_flying
PUBLIC	?set_has_is_burrowed@_Internal@Unit@SC2APIProtocol@@SAXPEAV?$HasBits@$01@internal@protobuf@google@@@Z ; SC2APIProtocol::Unit::_Internal::set_has_is_burrowed
PUBLIC	?set_has_is_hallucination@_Internal@Unit@SC2APIProtocol@@SAXPEAV?$HasBits@$01@internal@protobuf@google@@@Z ; SC2APIProtocol::Unit::_Internal::set_has_is_hallucination
PUBLIC	?set_has_add_on_tag@_Internal@Unit@SC2APIProtocol@@SAXPEAV?$HasBits@$01@internal@protobuf@google@@@Z ; SC2APIProtocol::Unit::_Internal::set_has_add_on_tag
PUBLIC	?set_has_cargo_space_taken@_Internal@Unit@SC2APIProtocol@@SAXPEAV?$HasBits@$01@internal@protobuf@google@@@Z ; SC2APIProtocol::Unit::_Internal::set_has_cargo_space_taken
PUBLIC	?set_has_cargo_space_max@_Internal@Unit@SC2APIProtocol@@SAXPEAV?$HasBits@$01@internal@protobuf@google@@@Z ; SC2APIProtocol::Unit::_Internal::set_has_cargo_space_max
PUBLIC	?set_has_assigned_harvesters@_Internal@Unit@SC2APIProtocol@@SAXPEAV?$HasBits@$01@internal@protobuf@google@@@Z ; SC2APIProtocol::Unit::_Internal::set_has_assigned_harvesters
PUBLIC	?set_has_ideal_harvesters@_Internal@Unit@SC2APIProtocol@@SAXPEAV?$HasBits@$01@internal@protobuf@google@@@Z ; SC2APIProtocol::Unit::_Internal::set_has_ideal_harvesters
PUBLIC	?set_has_weapon_cooldown@_Internal@Unit@SC2APIProtocol@@SAXPEAV?$HasBits@$01@internal@protobuf@google@@@Z ; SC2APIProtocol::Unit::_Internal::set_has_weapon_cooldown
PUBLIC	?set_has_engaged_target_tag@_Internal@Unit@SC2APIProtocol@@SAXPEAV?$HasBits@$01@internal@protobuf@google@@@Z ; SC2APIProtocol::Unit::_Internal::set_has_engaged_target_tag
PUBLIC	?set_has_buff_duration_remain@_Internal@Unit@SC2APIProtocol@@SAXPEAV?$HasBits@$01@internal@protobuf@google@@@Z ; SC2APIProtocol::Unit::_Internal::set_has_buff_duration_remain
PUBLIC	?set_has_buff_duration_max@_Internal@Unit@SC2APIProtocol@@SAXPEAV?$HasBits@$01@internal@protobuf@google@@@Z ; SC2APIProtocol::Unit::_Internal::set_has_buff_duration_max
PUBLIC	??$ExpectTag@$0LC@@internal@protobuf@google@@YA_NPEBD@Z ; google::protobuf::internal::ExpectTag<178>
PUBLIC	??$ExpectTag@$0MC@@internal@protobuf@google@@YA_NPEBD@Z ; google::protobuf::internal::ExpectTag<194>
PUBLIC	??$ExpectTag@$0NI@@internal@protobuf@google@@YA_NPEBD@Z ; google::protobuf::internal::ExpectTag<216>
PUBLIC	??$ExpectTag@$0BGK@@internal@protobuf@google@@YA_NPEBD@Z ; google::protobuf::internal::ExpectTag<362>
PUBLIC	??D?$RepeatedPtrIterator@$$CBVUnitOrder@SC2APIProtocol@@@internal@protobuf@google@@QEBAAEBVUnitOrder@SC2APIProtocol@@XZ ; google::protobuf::internal::RepeatedPtrIterator<SC2APIProtocol::UnitOrder const >::operator*
PUBLIC	??E?$RepeatedPtrIterator@$$CBVUnitOrder@SC2APIProtocol@@@internal@protobuf@google@@QEAAAEAV0123@XZ ; google::protobuf::internal::RepeatedPtrIterator<SC2APIProtocol::UnitOrder const >::operator++
PUBLIC	??9internal@protobuf@google@@YA_NAEBV?$RepeatedPtrIterator@$$CBVUnitOrder@SC2APIProtocol@@@012@0@Z ; google::protobuf::internal::operator!=
PUBLIC	??$MessageSize@VUnitOrder@SC2APIProtocol@@@WireFormatLite@internal@protobuf@google@@SA_KAEBVUnitOrder@SC2APIProtocol@@@Z ; google::protobuf::internal::WireFormatLite::MessageSize<SC2APIProtocol::UnitOrder>
PUBLIC	??D?$RepeatedPtrIterator@$$CBVPassengerUnit@SC2APIProtocol@@@internal@protobuf@google@@QEBAAEBVPassengerUnit@SC2APIProtocol@@XZ ; google::protobuf::internal::RepeatedPtrIterator<SC2APIProtocol::PassengerUnit const >::operator*
PUBLIC	??E?$RepeatedPtrIterator@$$CBVPassengerUnit@SC2APIProtocol@@@internal@protobuf@google@@QEAAAEAV0123@XZ ; google::protobuf::internal::RepeatedPtrIterator<SC2APIProtocol::PassengerUnit const >::operator++
PUBLIC	??9internal@protobuf@google@@YA_NAEBV?$RepeatedPtrIterator@$$CBVPassengerUnit@SC2APIProtocol@@@012@0@Z ; google::protobuf::internal::operator!=
PUBLIC	??$MessageSize@VPassengerUnit@SC2APIProtocol@@@WireFormatLite@internal@protobuf@google@@SA_KAEBVPassengerUnit@SC2APIProtocol@@@Z ; google::protobuf::internal::WireFormatLite::MessageSize<SC2APIProtocol::PassengerUnit>
PUBLIC	??D?$RepeatedPtrIterator@$$CBVRallyTarget@SC2APIProtocol@@@internal@protobuf@google@@QEBAAEBVRallyTarget@SC2APIProtocol@@XZ ; google::protobuf::internal::RepeatedPtrIterator<SC2APIProtocol::RallyTarget const >::operator*
PUBLIC	??E?$RepeatedPtrIterator@$$CBVRallyTarget@SC2APIProtocol@@@internal@protobuf@google@@QEAAAEAV0123@XZ ; google::protobuf::internal::RepeatedPtrIterator<SC2APIProtocol::RallyTarget const >::operator++
PUBLIC	??9internal@protobuf@google@@YA_NAEBV?$RepeatedPtrIterator@$$CBVRallyTarget@SC2APIProtocol@@@012@0@Z ; google::protobuf::internal::operator!=
PUBLIC	??$MessageSize@VRallyTarget@SC2APIProtocol@@@WireFormatLite@internal@protobuf@google@@SA_KAEBVRallyTarget@SC2APIProtocol@@@Z ; google::protobuf::internal::WireFormatLite::MessageSize<SC2APIProtocol::RallyTarget>
PUBLIC	??$memswap@$0JA@@internal@protobuf@google@@YAXPEAD0@Z ; google::protobuf::internal::memswap<144>
PUBLIC	?visibility@_Internal@MapState@SC2APIProtocol@@SAAEBVImageData@3@PEBV23@@Z ; SC2APIProtocol::MapState::_Internal::visibility
PUBLIC	?creep@_Internal@MapState@SC2APIProtocol@@SAAEBVImageData@3@PEBV23@@Z ; SC2APIProtocol::MapState::_Internal::creep
PUBLIC	??$ExpectTag@$07@internal@protobuf@google@@YA_NPEBD@Z ; google::protobuf::internal::ExpectTag<8>
PUBLIC	?set_has_effect_id@_Internal@Effect@SC2APIProtocol@@SAXPEAV?$HasBits@$00@internal@protobuf@google@@@Z ; SC2APIProtocol::Effect::_Internal::set_has_effect_id
PUBLIC	?set_has_owner@_Internal@Effect@SC2APIProtocol@@SAXPEAV?$HasBits@$00@internal@protobuf@google@@@Z ; SC2APIProtocol::Effect::_Internal::set_has_owner
PUBLIC	?set_has_radius@_Internal@Effect@SC2APIProtocol@@SAXPEAV?$HasBits@$00@internal@protobuf@google@@@Z ; SC2APIProtocol::Effect::_Internal::set_has_radius
PUBLIC	?unit_command@_Internal@ActionRaw@SC2APIProtocol@@SAAEBVActionRawUnitCommand@3@PEBV23@@Z ; SC2APIProtocol::ActionRaw::_Internal::unit_command
PUBLIC	?camera_move@_Internal@ActionRaw@SC2APIProtocol@@SAAEBVActionRawCameraMove@3@PEBV23@@Z ; SC2APIProtocol::ActionRaw::_Internal::camera_move
PUBLIC	?toggle_autocast@_Internal@ActionRaw@SC2APIProtocol@@SAAEBVActionRawToggleAutocast@3@PEBV23@@Z ; SC2APIProtocol::ActionRaw::_Internal::toggle_autocast
PUBLIC	??$InternalGetOwningArena@VActionRawUnitCommand@SC2APIProtocol@@@Arena@protobuf@google@@SAPEAV012@PEBVActionRawUnitCommand@SC2APIProtocol@@@Z ; google::protobuf::Arena::InternalGetOwningArena<SC2APIProtocol::ActionRawUnitCommand>
PUBLIC	??$GetOwnedMessage@VActionRawUnitCommand@SC2APIProtocol@@@internal@protobuf@google@@YAPEAVActionRawUnitCommand@SC2APIProtocol@@PEAVArena@12@PEAV34@0@Z ; google::protobuf::internal::GetOwnedMessage<SC2APIProtocol::ActionRawUnitCommand>
PUBLIC	??$InternalGetOwningArena@VActionRawCameraMove@SC2APIProtocol@@@Arena@protobuf@google@@SAPEAV012@PEBVActionRawCameraMove@SC2APIProtocol@@@Z ; google::protobuf::Arena::InternalGetOwningArena<SC2APIProtocol::ActionRawCameraMove>
PUBLIC	??$GetOwnedMessage@VActionRawCameraMove@SC2APIProtocol@@@internal@protobuf@google@@YAPEAVActionRawCameraMove@SC2APIProtocol@@PEAVArena@12@PEAV34@0@Z ; google::protobuf::internal::GetOwnedMessage<SC2APIProtocol::ActionRawCameraMove>
PUBLIC	??$InternalGetOwningArena@VActionRawToggleAutocast@SC2APIProtocol@@@Arena@protobuf@google@@SAPEAV012@PEBVActionRawToggleAutocast@SC2APIProtocol@@@Z ; google::protobuf::Arena::InternalGetOwningArena<SC2APIProtocol::ActionRawToggleAutocast>
PUBLIC	??$GetOwnedMessage@VActionRawToggleAutocast@SC2APIProtocol@@@internal@protobuf@google@@YAPEAVActionRawToggleAutocast@SC2APIProtocol@@PEAVArena@12@PEAV34@0@Z ; google::protobuf::internal::GetOwnedMessage<SC2APIProtocol::ActionRawToggleAutocast>
PUBLIC	??$MessageSize@VActionRawUnitCommand@SC2APIProtocol@@@WireFormatLite@internal@protobuf@google@@SA_KAEBVActionRawUnitCommand@SC2APIProtocol@@@Z ; google::protobuf::internal::WireFormatLite::MessageSize<SC2APIProtocol::ActionRawUnitCommand>
PUBLIC	??$MessageSize@VActionRawCameraMove@SC2APIProtocol@@@WireFormatLite@internal@protobuf@google@@SA_KAEBVActionRawCameraMove@SC2APIProtocol@@@Z ; google::protobuf::internal::WireFormatLite::MessageSize<SC2APIProtocol::ActionRawCameraMove>
PUBLIC	??$MessageSize@VActionRawToggleAutocast@SC2APIProtocol@@@WireFormatLite@internal@protobuf@google@@SA_KAEBVActionRawToggleAutocast@SC2APIProtocol@@@Z ; google::protobuf::internal::WireFormatLite::MessageSize<SC2APIProtocol::ActionRawToggleAutocast>
PUBLIC	??$swap@TActionUnion@Impl_@ActionRaw@SC2APIProtocol@@$0A@@std@@YAXAEATActionUnion@Impl_@ActionRaw@SC2APIProtocol@@0@Z ; std::swap<SC2APIProtocol::ActionRaw::Impl_::ActionUnion,0>
PUBLIC	?set_has_ability_id@_Internal@ActionRawUnitCommand@SC2APIProtocol@@SAXPEAV?$HasBits@$00@internal@protobuf@google@@@Z ; SC2APIProtocol::ActionRawUnitCommand::_Internal::set_has_ability_id
PUBLIC	?target_world_space_pos@_Internal@ActionRawUnitCommand@SC2APIProtocol@@SAAEBVPoint2D@3@PEBV23@@Z ; SC2APIProtocol::ActionRawUnitCommand::_Internal::target_world_space_pos
PUBLIC	?set_has_queue_command@_Internal@ActionRawUnitCommand@SC2APIProtocol@@SAXPEAV?$HasBits@$00@internal@protobuf@google@@@Z ; SC2APIProtocol::ActionRawUnitCommand::_Internal::set_has_queue_command
PUBLIC	??$GetOwnedMessage@VPoint2D@SC2APIProtocol@@@internal@protobuf@google@@YAPEAVPoint2D@SC2APIProtocol@@PEAVArena@12@PEAV34@0@Z ; google::protobuf::internal::GetOwnedMessage<SC2APIProtocol::Point2D>
PUBLIC	??$ExpectTag@$0CA@@internal@protobuf@google@@YA_NPEBD@Z ; google::protobuf::internal::ExpectTag<32>
PUBLIC	??$memswap@$04@internal@protobuf@google@@YAXPEAD0@Z ; google::protobuf::internal::memswap<5>
PUBLIC	??$swap@TTargetUnion@Impl_@ActionRawUnitCommand@SC2APIProtocol@@$0A@@std@@YAXAEATTargetUnion@Impl_@ActionRawUnitCommand@SC2APIProtocol@@0@Z ; std::swap<SC2APIProtocol::ActionRawUnitCommand::Impl_::TargetUnion,0>
PUBLIC	?center_world_space@_Internal@ActionRawCameraMove@SC2APIProtocol@@SAAEBVPoint@3@PEBV23@@Z ; SC2APIProtocol::ActionRawCameraMove::_Internal::center_world_space
PUBLIC	?set_has_ability_id@_Internal@ActionRawToggleAutocast@SC2APIProtocol@@SAXPEAV?$HasBits@$00@internal@protobuf@google@@@Z ; SC2APIProtocol::ActionRawToggleAutocast::_Internal::set_has_ability_id
PUBLIC	??$ExpectTag@$0BA@@internal@protobuf@google@@YA_NPEBD@Z ; google::protobuf::internal::ExpectTag<16>
PUBLIC	??$CreateMessageInternal@VStartRaw@SC2APIProtocol@@@Arena@protobuf@google@@CAPEAVStartRaw@SC2APIProtocol@@PEAV012@@Z ; google::protobuf::Arena::CreateMessageInternal<SC2APIProtocol::StartRaw>
PUBLIC	??$CreateMessageInternal@VObservationRaw@SC2APIProtocol@@@Arena@protobuf@google@@CAPEAVObservationRaw@SC2APIProtocol@@PEAV012@@Z ; google::protobuf::Arena::CreateMessageInternal<SC2APIProtocol::ObservationRaw>
PUBLIC	??$CreateMessageInternal@VRadarRing@SC2APIProtocol@@@Arena@protobuf@google@@CAPEAVRadarRing@SC2APIProtocol@@PEAV012@@Z ; google::protobuf::Arena::CreateMessageInternal<SC2APIProtocol::RadarRing>
PUBLIC	??$CreateMessageInternal@VPowerSource@SC2APIProtocol@@@Arena@protobuf@google@@CAPEAVPowerSource@SC2APIProtocol@@PEAV012@@Z ; google::protobuf::Arena::CreateMessageInternal<SC2APIProtocol::PowerSource>
PUBLIC	??$CreateMessageInternal@VPlayerRaw@SC2APIProtocol@@@Arena@protobuf@google@@CAPEAVPlayerRaw@SC2APIProtocol@@PEAV012@@Z ; google::protobuf::Arena::CreateMessageInternal<SC2APIProtocol::PlayerRaw>
PUBLIC	??$CreateMessageInternal@VUnitOrder@SC2APIProtocol@@@Arena@protobuf@google@@CAPEAVUnitOrder@SC2APIProtocol@@PEAV012@@Z ; google::protobuf::Arena::CreateMessageInternal<SC2APIProtocol::UnitOrder>
PUBLIC	??$CreateMessageInternal@VPassengerUnit@SC2APIProtocol@@@Arena@protobuf@google@@CAPEAVPassengerUnit@SC2APIProtocol@@PEAV012@@Z ; google::protobuf::Arena::CreateMessageInternal<SC2APIProtocol::PassengerUnit>
PUBLIC	??$CreateMessageInternal@VRallyTarget@SC2APIProtocol@@@Arena@protobuf@google@@CAPEAVRallyTarget@SC2APIProtocol@@PEAV012@@Z ; google::protobuf::Arena::CreateMessageInternal<SC2APIProtocol::RallyTarget>
PUBLIC	??$CreateMessageInternal@VUnit@SC2APIProtocol@@@Arena@protobuf@google@@CAPEAVUnit@SC2APIProtocol@@PEAV012@@Z ; google::protobuf::Arena::CreateMessageInternal<SC2APIProtocol::Unit>
PUBLIC	??$CreateMessageInternal@VMapState@SC2APIProtocol@@@Arena@protobuf@google@@CAPEAVMapState@SC2APIProtocol@@PEAV012@@Z ; google::protobuf::Arena::CreateMessageInternal<SC2APIProtocol::MapState>
PUBLIC	??$CreateMessageInternal@VEvent@SC2APIProtocol@@@Arena@protobuf@google@@CAPEAVEvent@SC2APIProtocol@@PEAV012@@Z ; google::protobuf::Arena::CreateMessageInternal<SC2APIProtocol::Event>
PUBLIC	??$CreateMessageInternal@VEffect@SC2APIProtocol@@@Arena@protobuf@google@@CAPEAVEffect@SC2APIProtocol@@PEAV012@@Z ; google::protobuf::Arena::CreateMessageInternal<SC2APIProtocol::Effect>
PUBLIC	??$CreateMessageInternal@VActionRaw@SC2APIProtocol@@@Arena@protobuf@google@@CAPEAVActionRaw@SC2APIProtocol@@PEAV012@@Z ; google::protobuf::Arena::CreateMessageInternal<SC2APIProtocol::ActionRaw>
PUBLIC	??$CreateMessageInternal@VActionRawUnitCommand@SC2APIProtocol@@@Arena@protobuf@google@@CAPEAVActionRawUnitCommand@SC2APIProtocol@@PEAV012@@Z ; google::protobuf::Arena::CreateMessageInternal<SC2APIProtocol::ActionRawUnitCommand>
PUBLIC	??$CreateMessageInternal@VActionRawCameraMove@SC2APIProtocol@@@Arena@protobuf@google@@CAPEAVActionRawCameraMove@SC2APIProtocol@@PEAV012@@Z ; google::protobuf::Arena::CreateMessageInternal<SC2APIProtocol::ActionRawCameraMove>
PUBLIC	??$CreateMessageInternal@VActionRawToggleAutocast@SC2APIProtocol@@@Arena@protobuf@google@@CAPEAVActionRawToggleAutocast@SC2APIProtocol@@PEAV012@@Z ; google::protobuf::Arena::CreateMessageInternal<SC2APIProtocol::ActionRawToggleAutocast>
PUBLIC	?deallocate@?$allocator@U_Container_proxy@std@@@std@@QEAAXQEAU_Container_proxy@2@_K@Z ; std::allocator<std::_Container_proxy>::deallocate
PUBLIC	?allocate@?$allocator@U_Container_proxy@std@@@std@@QEAAPEAU_Container_proxy@2@_K@Z ; std::allocator<std::_Container_proxy>::allocate
PUBLIC	??$?0VUnknownField@protobuf@google@@@?$allocator@U_Container_proxy@std@@@std@@QEAA@AEBV?$allocator@VUnknownField@protobuf@google@@@1@@Z ; std::allocator<std::_Container_proxy>::allocator<std::_Container_proxy><google::protobuf::UnknownField>
PUBLIC	??$exchange@PEAU_Container_proxy@std@@$$T@std@@YAPEAU_Container_proxy@0@AEAPEAU10@$$QEA$$T@Z ; std::exchange<std::_Container_proxy *,std::nullptr_t>
PUBLIC	??$_Delete_plain_internal@V?$allocator@U_Container_proxy@std@@@std@@@std@@YAXAEAV?$allocator@U_Container_proxy@std@@@0@QEAU_Container_proxy@0@@Z ; std::_Delete_plain_internal<std::allocator<std::_Container_proxy> >
PUBLIC	??$?0$$V@?$_Compressed_pair@V?$allocator@VUnknownField@protobuf@google@@@std@@V?$_Vector_val@U?$_Simple_types@VUnknownField@protobuf@google@@@std@@@2@$00@std@@QEAA@U_Zero_then_variadic_args_t@1@@Z ; std::_Compressed_pair<std::allocator<google::protobuf::UnknownField>,std::_Vector_val<std::_Simple_types<google::protobuf::UnknownField> >,1>::_Compressed_pair<std::allocator<google::protobuf::UnknownField>,std::_Vector_val<std::_Simple_types<google::protobuf::UnknownField> >,1><>
PUBLIC	??$_Alloc_proxy@V?$allocator@U_Container_proxy@std@@@std@@@_Container_base12@std@@QEAAX$$QEAV?$allocator@U_Container_proxy@std@@@1@@Z ; std::_Container_base12::_Alloc_proxy<std::allocator<std::_Container_proxy> >
PUBLIC	??$_Atomic_address_as@HU?$_Atomic_padded@H@std@@@std@@YAPEDHAEBU?$_Atomic_padded@H@0@@Z ; std::_Atomic_address_as<int,std::_Atomic_padded<int> >
PUBLIC	??$_Atomic_address_as@HU?$_Atomic_padded@H@std@@@std@@YAPECHAEAU?$_Atomic_padded@H@0@@Z ; std::_Atomic_address_as<int,std::_Atomic_padded<int> >
PUBLIC	??$_Atomic_reinterpret_as@HH@std@@YAHAEBH@Z	; std::_Atomic_reinterpret_as<int,int>
PUBLIC	??$_Destroy_range@V?$allocator@VUnknownField@protobuf@google@@@std@@@std@@YAXPEAVUnknownField@protobuf@google@@QEAV123@AEAV?$allocator@VUnknownField@protobuf@google@@@0@@Z ; std::_Destroy_range<std::allocator<google::protobuf::UnknownField> >
PUBLIC	??$_Deallocate@$0BA@$0A@@std@@YAXPEAX_K@Z	; std::_Deallocate<16,0>
PUBLIC	??$addressof@U_Container_proxy@std@@@std@@YAPEAU_Container_proxy@0@AEAU10@@Z ; std::addressof<std::_Container_proxy>
PUBLIC	??$_Voidify_iter@PEAU_Container_proxy@std@@@std@@YAPEAXPEAU_Container_proxy@0@@Z ; std::_Voidify_iter<std::_Container_proxy *>
PUBLIC	??$forward@PEAU_Container_base12@std@@@std@@YA$$QEAPEAU_Container_base12@0@AEAPEAU10@@Z ; std::forward<std::_Container_base12 *>
PUBLIC	??$construct_at@U_Container_proxy@std@@PEAU_Container_base12@2@$0A@@std@@YAPEAU_Container_proxy@0@QEAU10@$$QEAPEAU_Container_base12@0@@Z ; std::construct_at<std::_Container_proxy,std::_Container_base12 *,0>
PUBLIC	??$move@AEAH@std@@YA$$QEAHAEAH@Z		; std::move<int &>
PUBLIC	??$move@AEA_J@std@@YA$$QEA_JAEA_J@Z		; std::move<__int64 &>
PUBLIC	??$forward@AEAPEAVArena@protobuf@google@@@std@@YAAEAPEAVArena@protobuf@google@@AEAPEAV123@@Z ; std::forward<google::protobuf::Arena * &>
PUBLIC	??$forward@AEAH@std@@YAAEAHAEAH@Z		; std::forward<int &>
PUBLIC	??$forward@AEAPEAURep@RepeatedPtrFieldBase@internal@protobuf@google@@@std@@YAAEAPEAURep@RepeatedPtrFieldBase@internal@protobuf@google@@AEAPEAU12345@@Z ; std::forward<google::protobuf::internal::RepeatedPtrFieldBase::Rep * &>
PUBLIC	??$?0AEAPEAVArena@protobuf@google@@AEAHAEAHAEAPEAURep@RepeatedPtrFieldBase@internal@12@$0A@@?$tuple@PEAVArena@protobuf@google@@HHPEAURep@RepeatedPtrFieldBase@internal@23@@std@@QEAA@AEAPEAVArena@protobuf@google@@AEAH1AEAPEAURep@RepeatedPtrFieldBase@internal@34@@Z ; std::tuple<google::protobuf::Arena *,int,int,google::protobuf::internal::RepeatedPtrFieldBase::Rep *>::tuple<google::protobuf::Arena *,int,int,google::protobuf::internal::RepeatedPtrFieldBase::Rep *><google::protobuf::Arena * &,int &,int &,google::protobuf::internal::RepeatedPtrFieldBase::Rep * &,0>
PUBLIC	??$?0AEAPEAVArena@protobuf@google@@$0A@@?$tuple@AEAPEAVArena@protobuf@google@@AEAHAEAHAEAPEAURep@RepeatedPtrFieldBase@internal@23@@std@@QEAA@AEAPEAVArena@protobuf@google@@AEAH1AEAPEAURep@RepeatedPtrFieldBase@internal@34@@Z ; std::tuple<google::protobuf::Arena * &,int &,int &,google::protobuf::internal::RepeatedPtrFieldBase::Rep * &>::tuple<google::protobuf::Arena * &,int &,int &,google::protobuf::internal::RepeatedPtrFieldBase::Rep * &><google::protobuf::Arena * &,0>
PUBLIC	??$forward@PEAVArena@protobuf@google@@@std@@YA$$QEAPEAVArena@protobuf@google@@AEAPEAV123@@Z ; std::forward<google::protobuf::Arena *>
PUBLIC	??$forward@V?$tuple@HHPEAURep@RepeatedPtrFieldBase@internal@protobuf@google@@@std@@@std@@YA$$QEAV?$tuple@HHPEAURep@RepeatedPtrFieldBase@internal@protobuf@google@@@0@AEAV10@@Z ; std::forward<std::tuple<int,int,google::protobuf::internal::RepeatedPtrFieldBase::Rep *> >
PUBLIC	??$?4HHPEAURep@RepeatedPtrFieldBase@internal@protobuf@google@@$0A@@?$tuple@AEAHAEAHAEAPEAURep@RepeatedPtrFieldBase@internal@protobuf@google@@@std@@QEAAAEAV01@$$QEAV?$tuple@HHPEAURep@RepeatedPtrFieldBase@internal@protobuf@google@@@1@@Z ; std::tuple<int &,int &,google::protobuf::internal::RepeatedPtrFieldBase::Rep * &>::operator=<int,int,google::protobuf::internal::RepeatedPtrFieldBase::Rep *,0>
PUBLIC	??$?4HHPEAURep@RepeatedPtrFieldBase@internal@protobuf@google@@$0A@@?$tuple@AEAHAEAHAEAPEAURep@RepeatedPtrFieldBase@internal@protobuf@google@@@std@@QEAAAEAV01@AEBV?$tuple@HHPEAURep@RepeatedPtrFieldBase@internal@protobuf@google@@@1@@Z ; std::tuple<int &,int &,google::protobuf::internal::RepeatedPtrFieldBase::Rep * &>::operator=<int,int,google::protobuf::internal::RepeatedPtrFieldBase::Rep *,0>
PUBLIC	??$PtrValue@U?$Container@VUnknownFieldSet@protobuf@google@@@InternalMetadata@internal@protobuf@google@@@InternalMetadata@internal@protobuf@google@@AEBAPEAU?$Container@VUnknownFieldSet@protobuf@google@@@0123@XZ ; google::protobuf::internal::InternalMetadata::PtrValue<google::protobuf::internal::InternalMetadata::Container<google::protobuf::UnknownFieldSet> >
PUBLIC	??0?$Container@VUnknownFieldSet@protobuf@google@@@InternalMetadata@internal@protobuf@google@@QEAA@XZ ; google::protobuf::internal::InternalMetadata::Container<google::protobuf::UnknownFieldSet>::Container<google::protobuf::UnknownFieldSet>
PUBLIC	??1?$Container@VUnknownFieldSet@protobuf@google@@@InternalMetadata@internal@protobuf@google@@QEAA@XZ ; google::protobuf::internal::InternalMetadata::Container<google::protobuf::UnknownFieldSet>::~Container<google::protobuf::UnknownFieldSet>
PUBLIC	??_G?$Container@VUnknownFieldSet@protobuf@google@@@InternalMetadata@internal@protobuf@google@@QEAAPEAXI@Z ; google::protobuf::internal::InternalMetadata::Container<google::protobuf::UnknownFieldSet>::`scalar deleting destructor'
PUBLIC	??$mutable_unknown_fields_slow@VUnknownFieldSet@protobuf@google@@@InternalMetadata@internal@protobuf@google@@AEAAPEAVUnknownFieldSet@23@XZ ; google::protobuf::internal::InternalMetadata::mutable_unknown_fields_slow<google::protobuf::UnknownFieldSet>
PUBLIC	?New@?$GenericTypeHandler@VPoint2D@SC2APIProtocol@@@internal@protobuf@google@@SAPEAVPoint2D@SC2APIProtocol@@PEAVArena@34@@Z ; google::protobuf::internal::GenericTypeHandler<SC2APIProtocol::Point2D>::New
PUBLIC	?NewFromPrototype@?$GenericTypeHandler@VPoint2D@SC2APIProtocol@@@internal@protobuf@google@@SAPEAVPoint2D@SC2APIProtocol@@PEBV56@PEAVArena@34@@Z ; google::protobuf::internal::GenericTypeHandler<SC2APIProtocol::Point2D>::NewFromPrototype
PUBLIC	?Clear@?$GenericTypeHandler@VPoint2D@SC2APIProtocol@@@internal@protobuf@google@@SAXPEAVPoint2D@SC2APIProtocol@@@Z ; google::protobuf::internal::GenericTypeHandler<SC2APIProtocol::Point2D>::Clear
PUBLIC	?Merge@?$GenericTypeHandler@VPoint2D@SC2APIProtocol@@@internal@protobuf@google@@SAXAEBVPoint2D@SC2APIProtocol@@PEAV56@@Z ; google::protobuf::internal::GenericTypeHandler<SC2APIProtocol::Point2D>::Merge
PUBLIC	??$Get@VTypeHandler@?$RepeatedPtrField@VPoint2D@SC2APIProtocol@@@protobuf@google@@@RepeatedPtrFieldBase@internal@protobuf@google@@QEBAAEBVPoint2D@SC2APIProtocol@@H@Z ; google::protobuf::internal::RepeatedPtrFieldBase::Get<google::protobuf::RepeatedPtrField<SC2APIProtocol::Point2D>::TypeHandler>
PUBLIC	??$Add@VTypeHandler@?$RepeatedPtrField@VPoint2D@SC2APIProtocol@@@protobuf@google@@@RepeatedPtrFieldBase@internal@protobuf@google@@IEAAPEAVPoint2D@SC2APIProtocol@@PEBV45@@Z ; google::protobuf::internal::RepeatedPtrFieldBase::Add<google::protobuf::RepeatedPtrField<SC2APIProtocol::Point2D>::TypeHandler>
PUBLIC	??$Clear@VTypeHandler@?$RepeatedPtrField@VPoint2D@SC2APIProtocol@@@protobuf@google@@@RepeatedPtrFieldBase@internal@protobuf@google@@QEAAXXZ ; google::protobuf::internal::RepeatedPtrFieldBase::Clear<google::protobuf::RepeatedPtrField<SC2APIProtocol::Point2D>::TypeHandler>
PUBLIC	??$MergeFrom@VTypeHandler@?$RepeatedPtrField@VPoint2D@SC2APIProtocol@@@protobuf@google@@@RepeatedPtrFieldBase@internal@protobuf@google@@QEAAXAEBV0123@@Z ; google::protobuf::internal::RepeatedPtrFieldBase::MergeFrom<google::protobuf::RepeatedPtrField<SC2APIProtocol::Point2D>::TypeHandler>
PUBLIC	??0?$RepeatedPtrIterator@VPoint2D@SC2APIProtocol@@@internal@protobuf@google@@QEAA@PEBQEAX@Z ; google::protobuf::internal::RepeatedPtrIterator<SC2APIProtocol::Point2D>::RepeatedPtrIterator<SC2APIProtocol::Point2D>
PUBLIC	??$?0VPoint2D@SC2APIProtocol@@$0A@@?$RepeatedPtrIterator@$$CBVPoint2D@SC2APIProtocol@@@internal@protobuf@google@@QEAA@AEBV?$RepeatedPtrIterator@VPoint2D@SC2APIProtocol@@@123@@Z ; google::protobuf::internal::RepeatedPtrIterator<SC2APIProtocol::Point2D const >::RepeatedPtrIterator<SC2APIProtocol::Point2D const ><SC2APIProtocol::Point2D,0>
PUBLIC	?New@?$GenericTypeHandler@VUnit@SC2APIProtocol@@@internal@protobuf@google@@SAPEAVUnit@SC2APIProtocol@@PEAVArena@34@@Z ; google::protobuf::internal::GenericTypeHandler<SC2APIProtocol::Unit>::New
PUBLIC	?NewFromPrototype@?$GenericTypeHandler@VUnit@SC2APIProtocol@@@internal@protobuf@google@@SAPEAVUnit@SC2APIProtocol@@PEBV56@PEAVArena@34@@Z ; google::protobuf::internal::GenericTypeHandler<SC2APIProtocol::Unit>::NewFromPrototype
PUBLIC	?Clear@?$GenericTypeHandler@VUnit@SC2APIProtocol@@@internal@protobuf@google@@SAXPEAVUnit@SC2APIProtocol@@@Z ; google::protobuf::internal::GenericTypeHandler<SC2APIProtocol::Unit>::Clear
PUBLIC	?Merge@?$GenericTypeHandler@VUnit@SC2APIProtocol@@@internal@protobuf@google@@SAXAEBVUnit@SC2APIProtocol@@PEAV56@@Z ; google::protobuf::internal::GenericTypeHandler<SC2APIProtocol::Unit>::Merge
PUBLIC	??$Get@VTypeHandler@?$RepeatedPtrField@VUnit@SC2APIProtocol@@@protobuf@google@@@RepeatedPtrFieldBase@internal@protobuf@google@@QEBAAEBVUnit@SC2APIProtocol@@H@Z ; google::protobuf::internal::RepeatedPtrFieldBase::Get<google::protobuf::RepeatedPtrField<SC2APIProtocol::Unit>::TypeHandler>
PUBLIC	??$Add@VTypeHandler@?$RepeatedPtrField@VUnit@SC2APIProtocol@@@protobuf@google@@@RepeatedPtrFieldBase@internal@protobuf@google@@IEAAPEAVUnit@SC2APIProtocol@@PEBV45@@Z ; google::protobuf::internal::RepeatedPtrFieldBase::Add<google::protobuf::RepeatedPtrField<SC2APIProtocol::Unit>::TypeHandler>
PUBLIC	??$Clear@VTypeHandler@?$RepeatedPtrField@VUnit@SC2APIProtocol@@@protobuf@google@@@RepeatedPtrFieldBase@internal@protobuf@google@@QEAAXXZ ; google::protobuf::internal::RepeatedPtrFieldBase::Clear<google::protobuf::RepeatedPtrField<SC2APIProtocol::Unit>::TypeHandler>
PUBLIC	??$MergeFrom@VTypeHandler@?$RepeatedPtrField@VUnit@SC2APIProtocol@@@protobuf@google@@@RepeatedPtrFieldBase@internal@protobuf@google@@QEAAXAEBV0123@@Z ; google::protobuf::internal::RepeatedPtrFieldBase::MergeFrom<google::protobuf::RepeatedPtrField<SC2APIProtocol::Unit>::TypeHandler>
PUBLIC	??0?$RepeatedPtrIterator@VUnit@SC2APIProtocol@@@internal@protobuf@google@@QEAA@PEBQEAX@Z ; google::protobuf::internal::RepeatedPtrIterator<SC2APIProtocol::Unit>::RepeatedPtrIterator<SC2APIProtocol::Unit>
PUBLIC	??$?0VUnit@SC2APIProtocol@@$0A@@?$RepeatedPtrIterator@$$CBVUnit@SC2APIProtocol@@@internal@protobuf@google@@QEAA@AEBV?$RepeatedPtrIterator@VUnit@SC2APIProtocol@@@123@@Z ; google::protobuf::internal::RepeatedPtrIterator<SC2APIProtocol::Unit const >::RepeatedPtrIterator<SC2APIProtocol::Unit const ><SC2APIProtocol::Unit,0>
PUBLIC	?New@?$GenericTypeHandler@VEffect@SC2APIProtocol@@@internal@protobuf@google@@SAPEAVEffect@SC2APIProtocol@@PEAVArena@34@@Z ; google::protobuf::internal::GenericTypeHandler<SC2APIProtocol::Effect>::New
PUBLIC	?NewFromPrototype@?$GenericTypeHandler@VEffect@SC2APIProtocol@@@internal@protobuf@google@@SAPEAVEffect@SC2APIProtocol@@PEBV56@PEAVArena@34@@Z ; google::protobuf::internal::GenericTypeHandler<SC2APIProtocol::Effect>::NewFromPrototype
PUBLIC	?Clear@?$GenericTypeHandler@VEffect@SC2APIProtocol@@@internal@protobuf@google@@SAXPEAVEffect@SC2APIProtocol@@@Z ; google::protobuf::internal::GenericTypeHandler<SC2APIProtocol::Effect>::Clear
PUBLIC	?Merge@?$GenericTypeHandler@VEffect@SC2APIProtocol@@@internal@protobuf@google@@SAXAEBVEffect@SC2APIProtocol@@PEAV56@@Z ; google::protobuf::internal::GenericTypeHandler<SC2APIProtocol::Effect>::Merge
PUBLIC	??$Get@VTypeHandler@?$RepeatedPtrField@VEffect@SC2APIProtocol@@@protobuf@google@@@RepeatedPtrFieldBase@internal@protobuf@google@@QEBAAEBVEffect@SC2APIProtocol@@H@Z ; google::protobuf::internal::RepeatedPtrFieldBase::Get<google::protobuf::RepeatedPtrField<SC2APIProtocol::Effect>::TypeHandler>
PUBLIC	??$Add@VTypeHandler@?$RepeatedPtrField@VEffect@SC2APIProtocol@@@protobuf@google@@@RepeatedPtrFieldBase@internal@protobuf@google@@IEAAPEAVEffect@SC2APIProtocol@@PEBV45@@Z ; google::protobuf::internal::RepeatedPtrFieldBase::Add<google::protobuf::RepeatedPtrField<SC2APIProtocol::Effect>::TypeHandler>
PUBLIC	??$Clear@VTypeHandler@?$RepeatedPtrField@VEffect@SC2APIProtocol@@@protobuf@google@@@RepeatedPtrFieldBase@internal@protobuf@google@@QEAAXXZ ; google::protobuf::internal::RepeatedPtrFieldBase::Clear<google::protobuf::RepeatedPtrField<SC2APIProtocol::Effect>::TypeHandler>
PUBLIC	??$MergeFrom@VTypeHandler@?$RepeatedPtrField@VEffect@SC2APIProtocol@@@protobuf@google@@@RepeatedPtrFieldBase@internal@protobuf@google@@QEAAXAEBV0123@@Z ; google::protobuf::internal::RepeatedPtrFieldBase::MergeFrom<google::protobuf::RepeatedPtrField<SC2APIProtocol::Effect>::TypeHandler>
PUBLIC	??0?$RepeatedPtrIterator@VEffect@SC2APIProtocol@@@internal@protobuf@google@@QEAA@PEBQEAX@Z ; google::protobuf::internal::RepeatedPtrIterator<SC2APIProtocol::Effect>::RepeatedPtrIterator<SC2APIProtocol::Effect>
PUBLIC	??$?0VEffect@SC2APIProtocol@@$0A@@?$RepeatedPtrIterator@$$CBVEffect@SC2APIProtocol@@@internal@protobuf@google@@QEAA@AEBV?$RepeatedPtrIterator@VEffect@SC2APIProtocol@@@123@@Z ; google::protobuf::internal::RepeatedPtrIterator<SC2APIProtocol::Effect const >::RepeatedPtrIterator<SC2APIProtocol::Effect const ><SC2APIProtocol::Effect,0>
PUBLIC	?New@?$GenericTypeHandler@VRadarRing@SC2APIProtocol@@@internal@protobuf@google@@SAPEAVRadarRing@SC2APIProtocol@@PEAVArena@34@@Z ; google::protobuf::internal::GenericTypeHandler<SC2APIProtocol::RadarRing>::New
PUBLIC	?NewFromPrototype@?$GenericTypeHandler@VRadarRing@SC2APIProtocol@@@internal@protobuf@google@@SAPEAVRadarRing@SC2APIProtocol@@PEBV56@PEAVArena@34@@Z ; google::protobuf::internal::GenericTypeHandler<SC2APIProtocol::RadarRing>::NewFromPrototype
PUBLIC	?Clear@?$GenericTypeHandler@VRadarRing@SC2APIProtocol@@@internal@protobuf@google@@SAXPEAVRadarRing@SC2APIProtocol@@@Z ; google::protobuf::internal::GenericTypeHandler<SC2APIProtocol::RadarRing>::Clear
PUBLIC	?Merge@?$GenericTypeHandler@VRadarRing@SC2APIProtocol@@@internal@protobuf@google@@SAXAEBVRadarRing@SC2APIProtocol@@PEAV56@@Z ; google::protobuf::internal::GenericTypeHandler<SC2APIProtocol::RadarRing>::Merge
PUBLIC	??$Get@VTypeHandler@?$RepeatedPtrField@VRadarRing@SC2APIProtocol@@@protobuf@google@@@RepeatedPtrFieldBase@internal@protobuf@google@@QEBAAEBVRadarRing@SC2APIProtocol@@H@Z ; google::protobuf::internal::RepeatedPtrFieldBase::Get<google::protobuf::RepeatedPtrField<SC2APIProtocol::RadarRing>::TypeHandler>
PUBLIC	??$Add@VTypeHandler@?$RepeatedPtrField@VRadarRing@SC2APIProtocol@@@protobuf@google@@@RepeatedPtrFieldBase@internal@protobuf@google@@IEAAPEAVRadarRing@SC2APIProtocol@@PEBV45@@Z ; google::protobuf::internal::RepeatedPtrFieldBase::Add<google::protobuf::RepeatedPtrField<SC2APIProtocol::RadarRing>::TypeHandler>
PUBLIC	??$Clear@VTypeHandler@?$RepeatedPtrField@VRadarRing@SC2APIProtocol@@@protobuf@google@@@RepeatedPtrFieldBase@internal@protobuf@google@@QEAAXXZ ; google::protobuf::internal::RepeatedPtrFieldBase::Clear<google::protobuf::RepeatedPtrField<SC2APIProtocol::RadarRing>::TypeHandler>
PUBLIC	??$MergeFrom@VTypeHandler@?$RepeatedPtrField@VRadarRing@SC2APIProtocol@@@protobuf@google@@@RepeatedPtrFieldBase@internal@protobuf@google@@QEAAXAEBV0123@@Z ; google::protobuf::internal::RepeatedPtrFieldBase::MergeFrom<google::protobuf::RepeatedPtrField<SC2APIProtocol::RadarRing>::TypeHandler>
PUBLIC	??0?$RepeatedPtrIterator@VRadarRing@SC2APIProtocol@@@internal@protobuf@google@@QEAA@PEBQEAX@Z ; google::protobuf::internal::RepeatedPtrIterator<SC2APIProtocol::RadarRing>::RepeatedPtrIterator<SC2APIProtocol::RadarRing>
PUBLIC	??$?0VRadarRing@SC2APIProtocol@@$0A@@?$RepeatedPtrIterator@$$CBVRadarRing@SC2APIProtocol@@@internal@protobuf@google@@QEAA@AEBV?$RepeatedPtrIterator@VRadarRing@SC2APIProtocol@@@123@@Z ; google::protobuf::internal::RepeatedPtrIterator<SC2APIProtocol::RadarRing const >::RepeatedPtrIterator<SC2APIProtocol::RadarRing const ><SC2APIProtocol::RadarRing,0>
PUBLIC	?New@?$GenericTypeHandler@VPowerSource@SC2APIProtocol@@@internal@protobuf@google@@SAPEAVPowerSource@SC2APIProtocol@@PEAVArena@34@@Z ; google::protobuf::internal::GenericTypeHandler<SC2APIProtocol::PowerSource>::New
PUBLIC	?NewFromPrototype@?$GenericTypeHandler@VPowerSource@SC2APIProtocol@@@internal@protobuf@google@@SAPEAVPowerSource@SC2APIProtocol@@PEBV56@PEAVArena@34@@Z ; google::protobuf::internal::GenericTypeHandler<SC2APIProtocol::PowerSource>::NewFromPrototype
PUBLIC	?Clear@?$GenericTypeHandler@VPowerSource@SC2APIProtocol@@@internal@protobuf@google@@SAXPEAVPowerSource@SC2APIProtocol@@@Z ; google::protobuf::internal::GenericTypeHandler<SC2APIProtocol::PowerSource>::Clear
PUBLIC	?Merge@?$GenericTypeHandler@VPowerSource@SC2APIProtocol@@@internal@protobuf@google@@SAXAEBVPowerSource@SC2APIProtocol@@PEAV56@@Z ; google::protobuf::internal::GenericTypeHandler<SC2APIProtocol::PowerSource>::Merge
PUBLIC	??$Get@VTypeHandler@?$RepeatedPtrField@VPowerSource@SC2APIProtocol@@@protobuf@google@@@RepeatedPtrFieldBase@internal@protobuf@google@@QEBAAEBVPowerSource@SC2APIProtocol@@H@Z ; google::protobuf::internal::RepeatedPtrFieldBase::Get<google::protobuf::RepeatedPtrField<SC2APIProtocol::PowerSource>::TypeHandler>
PUBLIC	??$Add@VTypeHandler@?$RepeatedPtrField@VPowerSource@SC2APIProtocol@@@protobuf@google@@@RepeatedPtrFieldBase@internal@protobuf@google@@IEAAPEAVPowerSource@SC2APIProtocol@@PEBV45@@Z ; google::protobuf::internal::RepeatedPtrFieldBase::Add<google::protobuf::RepeatedPtrField<SC2APIProtocol::PowerSource>::TypeHandler>
PUBLIC	??$Clear@VTypeHandler@?$RepeatedPtrField@VPowerSource@SC2APIProtocol@@@protobuf@google@@@RepeatedPtrFieldBase@internal@protobuf@google@@QEAAXXZ ; google::protobuf::internal::RepeatedPtrFieldBase::Clear<google::protobuf::RepeatedPtrField<SC2APIProtocol::PowerSource>::TypeHandler>
PUBLIC	??$MergeFrom@VTypeHandler@?$RepeatedPtrField@VPowerSource@SC2APIProtocol@@@protobuf@google@@@RepeatedPtrFieldBase@internal@protobuf@google@@QEAAXAEBV0123@@Z ; google::protobuf::internal::RepeatedPtrFieldBase::MergeFrom<google::protobuf::RepeatedPtrField<SC2APIProtocol::PowerSource>::TypeHandler>
PUBLIC	??0?$RepeatedPtrIterator@VPowerSource@SC2APIProtocol@@@internal@protobuf@google@@QEAA@PEBQEAX@Z ; google::protobuf::internal::RepeatedPtrIterator<SC2APIProtocol::PowerSource>::RepeatedPtrIterator<SC2APIProtocol::PowerSource>
PUBLIC	??$?0VPowerSource@SC2APIProtocol@@$0A@@?$RepeatedPtrIterator@$$CBVPowerSource@SC2APIProtocol@@@internal@protobuf@google@@QEAA@AEBV?$RepeatedPtrIterator@VPowerSource@SC2APIProtocol@@@123@@Z ; google::protobuf::internal::RepeatedPtrIterator<SC2APIProtocol::PowerSource const >::RepeatedPtrIterator<SC2APIProtocol::PowerSource const ><SC2APIProtocol::PowerSource,0>
PUBLIC	?New@?$GenericTypeHandler@VUnitOrder@SC2APIProtocol@@@internal@protobuf@google@@SAPEAVUnitOrder@SC2APIProtocol@@PEAVArena@34@@Z ; google::protobuf::internal::GenericTypeHandler<SC2APIProtocol::UnitOrder>::New
PUBLIC	?NewFromPrototype@?$GenericTypeHandler@VUnitOrder@SC2APIProtocol@@@internal@protobuf@google@@SAPEAVUnitOrder@SC2APIProtocol@@PEBV56@PEAVArena@34@@Z ; google::protobuf::internal::GenericTypeHandler<SC2APIProtocol::UnitOrder>::NewFromPrototype
PUBLIC	?Clear@?$GenericTypeHandler@VUnitOrder@SC2APIProtocol@@@internal@protobuf@google@@SAXPEAVUnitOrder@SC2APIProtocol@@@Z ; google::protobuf::internal::GenericTypeHandler<SC2APIProtocol::UnitOrder>::Clear
PUBLIC	?Merge@?$GenericTypeHandler@VUnitOrder@SC2APIProtocol@@@internal@protobuf@google@@SAXAEBVUnitOrder@SC2APIProtocol@@PEAV56@@Z ; google::protobuf::internal::GenericTypeHandler<SC2APIProtocol::UnitOrder>::Merge
PUBLIC	??$Get@VTypeHandler@?$RepeatedPtrField@VUnitOrder@SC2APIProtocol@@@protobuf@google@@@RepeatedPtrFieldBase@internal@protobuf@google@@QEBAAEBVUnitOrder@SC2APIProtocol@@H@Z ; google::protobuf::internal::RepeatedPtrFieldBase::Get<google::protobuf::RepeatedPtrField<SC2APIProtocol::UnitOrder>::TypeHandler>
PUBLIC	??$Add@VTypeHandler@?$RepeatedPtrField@VUnitOrder@SC2APIProtocol@@@protobuf@google@@@RepeatedPtrFieldBase@internal@protobuf@google@@IEAAPEAVUnitOrder@SC2APIProtocol@@PEBV45@@Z ; google::protobuf::internal::RepeatedPtrFieldBase::Add<google::protobuf::RepeatedPtrField<SC2APIProtocol::UnitOrder>::TypeHandler>
PUBLIC	??$Clear@VTypeHandler@?$RepeatedPtrField@VUnitOrder@SC2APIProtocol@@@protobuf@google@@@RepeatedPtrFieldBase@internal@protobuf@google@@QEAAXXZ ; google::protobuf::internal::RepeatedPtrFieldBase::Clear<google::protobuf::RepeatedPtrField<SC2APIProtocol::UnitOrder>::TypeHandler>
PUBLIC	??$MergeFrom@VTypeHandler@?$RepeatedPtrField@VUnitOrder@SC2APIProtocol@@@protobuf@google@@@RepeatedPtrFieldBase@internal@protobuf@google@@QEAAXAEBV0123@@Z ; google::protobuf::internal::RepeatedPtrFieldBase::MergeFrom<google::protobuf::RepeatedPtrField<SC2APIProtocol::UnitOrder>::TypeHandler>
PUBLIC	??0?$RepeatedPtrIterator@VUnitOrder@SC2APIProtocol@@@internal@protobuf@google@@QEAA@PEBQEAX@Z ; google::protobuf::internal::RepeatedPtrIterator<SC2APIProtocol::UnitOrder>::RepeatedPtrIterator<SC2APIProtocol::UnitOrder>
PUBLIC	??$?0VUnitOrder@SC2APIProtocol@@$0A@@?$RepeatedPtrIterator@$$CBVUnitOrder@SC2APIProtocol@@@internal@protobuf@google@@QEAA@AEBV?$RepeatedPtrIterator@VUnitOrder@SC2APIProtocol@@@123@@Z ; google::protobuf::internal::RepeatedPtrIterator<SC2APIProtocol::UnitOrder const >::RepeatedPtrIterator<SC2APIProtocol::UnitOrder const ><SC2APIProtocol::UnitOrder,0>
PUBLIC	?New@?$GenericTypeHandler@VPassengerUnit@SC2APIProtocol@@@internal@protobuf@google@@SAPEAVPassengerUnit@SC2APIProtocol@@PEAVArena@34@@Z ; google::protobuf::internal::GenericTypeHandler<SC2APIProtocol::PassengerUnit>::New
PUBLIC	?NewFromPrototype@?$GenericTypeHandler@VPassengerUnit@SC2APIProtocol@@@internal@protobuf@google@@SAPEAVPassengerUnit@SC2APIProtocol@@PEBV56@PEAVArena@34@@Z ; google::protobuf::internal::GenericTypeHandler<SC2APIProtocol::PassengerUnit>::NewFromPrototype
PUBLIC	?Clear@?$GenericTypeHandler@VPassengerUnit@SC2APIProtocol@@@internal@protobuf@google@@SAXPEAVPassengerUnit@SC2APIProtocol@@@Z ; google::protobuf::internal::GenericTypeHandler<SC2APIProtocol::PassengerUnit>::Clear
PUBLIC	?Merge@?$GenericTypeHandler@VPassengerUnit@SC2APIProtocol@@@internal@protobuf@google@@SAXAEBVPassengerUnit@SC2APIProtocol@@PEAV56@@Z ; google::protobuf::internal::GenericTypeHandler<SC2APIProtocol::PassengerUnit>::Merge
PUBLIC	??$Get@VTypeHandler@?$RepeatedPtrField@VPassengerUnit@SC2APIProtocol@@@protobuf@google@@@RepeatedPtrFieldBase@internal@protobuf@google@@QEBAAEBVPassengerUnit@SC2APIProtocol@@H@Z ; google::protobuf::internal::RepeatedPtrFieldBase::Get<google::protobuf::RepeatedPtrField<SC2APIProtocol::PassengerUnit>::TypeHandler>
PUBLIC	??$Add@VTypeHandler@?$RepeatedPtrField@VPassengerUnit@SC2APIProtocol@@@protobuf@google@@@RepeatedPtrFieldBase@internal@protobuf@google@@IEAAPEAVPassengerUnit@SC2APIProtocol@@PEBV45@@Z ; google::protobuf::internal::RepeatedPtrFieldBase::Add<google::protobuf::RepeatedPtrField<SC2APIProtocol::PassengerUnit>::TypeHandler>
