; Listing generated by Microsoft (R) Optimizing Compiler Version 19.34.31937.0 

include listing.inc

INCLUDELIB LIBCMTD
INCLUDELIB OLDNAMES

PUBLIC	??_R0?AVMessage@protobuf@google@@@8		; google::protobuf::Message `RTTI Type Descriptor'
PUBLIC	??_R3Message@protobuf@google@@8			; google::protobuf::Message::`RTTI Class Hierarchy Descriptor'
PUBLIC	??_R2Message@protobuf@google@@8			; google::protobuf::Message::`RTTI Base Class Array'
PUBLIC	??_R1A@?0A@EA@Message@protobuf@google@@8	; google::protobuf::Message::`RTTI Base Class Descriptor at (0,-1,0,64)'
PUBLIC	??_R1A@?0A@EA@MessageLite@protobuf@google@@8	; google::protobuf::MessageLite::`RTTI Base Class Descriptor at (0,-1,0,64)'
PUBLIC	??_R0?AVMessageLite@protobuf@google@@@8		; google::protobuf::MessageLite `RTTI Type Descriptor'
PUBLIC	??_R3MessageLite@protobuf@google@@8		; google::protobuf::MessageLite::`RTTI Class Hierarchy Descriptor'
PUBLIC	??_R2MessageLite@protobuf@google@@8		; google::protobuf::MessageLite::`RTTI Base Class Array'
PUBLIC	??_R4ActionSpatial@SC2APIProtocol@@6B@		; SC2APIProtocol::ActionSpatial::`RTTI Complete Object Locator'
PUBLIC	??_R3ActionSpatial@SC2APIProtocol@@8		; SC2APIProtocol::ActionSpatial::`RTTI Class Hierarchy Descriptor'
PUBLIC	??_R2ActionSpatial@SC2APIProtocol@@8		; SC2APIProtocol::ActionSpatial::`RTTI Base Class Array'
PUBLIC	??_R1A@?0A@EA@ActionSpatial@SC2APIProtocol@@8	; SC2APIProtocol::ActionSpatial::`RTTI Base Class Descriptor at (0,-1,0,64)'
PUBLIC	??_R4ActionSpatialCameraMove@SC2APIProtocol@@6B@ ; SC2APIProtocol::ActionSpatialCameraMove::`RTTI Complete Object Locator'
PUBLIC	??_R3ActionSpatialCameraMove@SC2APIProtocol@@8	; SC2APIProtocol::ActionSpatialCameraMove::`RTTI Class Hierarchy Descriptor'
PUBLIC	??_R2ActionSpatialCameraMove@SC2APIProtocol@@8	; SC2APIProtocol::ActionSpatialCameraMove::`RTTI Base Class Array'
PUBLIC	??_R1A@?0A@EA@ActionSpatialCameraMove@SC2APIProtocol@@8 ; SC2APIProtocol::ActionSpatialCameraMove::`RTTI Base Class Descriptor at (0,-1,0,64)'
PUBLIC	??_R4ActionSpatialUnitCommand@SC2APIProtocol@@6B@ ; SC2APIProtocol::ActionSpatialUnitCommand::`RTTI Complete Object Locator'
PUBLIC	??_R3ActionSpatialUnitCommand@SC2APIProtocol@@8	; SC2APIProtocol::ActionSpatialUnitCommand::`RTTI Class Hierarchy Descriptor'
PUBLIC	??_R2ActionSpatialUnitCommand@SC2APIProtocol@@8	; SC2APIProtocol::ActionSpatialUnitCommand::`RTTI Base Class Array'
PUBLIC	??_R1A@?0A@EA@ActionSpatialUnitCommand@SC2APIProtocol@@8 ; SC2APIProtocol::ActionSpatialUnitCommand::`RTTI Base Class Descriptor at (0,-1,0,64)'
PUBLIC	??_R4ActionSpatialUnitSelectionPoint@SC2APIProtocol@@6B@ ; SC2APIProtocol::ActionSpatialUnitSelectionPoint::`RTTI Complete Object Locator'
PUBLIC	??_R3ActionSpatialUnitSelectionPoint@SC2APIProtocol@@8 ; SC2APIProtocol::ActionSpatialUnitSelectionPoint::`RTTI Class Hierarchy Descriptor'
PUBLIC	??_R2ActionSpatialUnitSelectionPoint@SC2APIProtocol@@8 ; SC2APIProtocol::ActionSpatialUnitSelectionPoint::`RTTI Base Class Array'
PUBLIC	??_R1A@?0A@EA@ActionSpatialUnitSelectionPoint@SC2APIProtocol@@8 ; SC2APIProtocol::ActionSpatialUnitSelectionPoint::`RTTI Base Class Descriptor at (0,-1,0,64)'
PUBLIC	??_R4FeatureLayers@SC2APIProtocol@@6B@		; SC2APIProtocol::FeatureLayers::`RTTI Complete Object Locator'
PUBLIC	??_R3FeatureLayers@SC2APIProtocol@@8		; SC2APIProtocol::FeatureLayers::`RTTI Class Hierarchy Descriptor'
PUBLIC	??_R2FeatureLayers@SC2APIProtocol@@8		; SC2APIProtocol::FeatureLayers::`RTTI Base Class Array'
PUBLIC	??_R1A@?0A@EA@FeatureLayers@SC2APIProtocol@@8	; SC2APIProtocol::FeatureLayers::`RTTI Base Class Descriptor at (0,-1,0,64)'
PUBLIC	??_R4FeatureLayersMinimap@SC2APIProtocol@@6B@	; SC2APIProtocol::FeatureLayersMinimap::`RTTI Complete Object Locator'
PUBLIC	??_R3FeatureLayersMinimap@SC2APIProtocol@@8	; SC2APIProtocol::FeatureLayersMinimap::`RTTI Class Hierarchy Descriptor'
PUBLIC	??_R2FeatureLayersMinimap@SC2APIProtocol@@8	; SC2APIProtocol::FeatureLayersMinimap::`RTTI Base Class Array'
PUBLIC	??_R1A@?0A@EA@FeatureLayersMinimap@SC2APIProtocol@@8 ; SC2APIProtocol::FeatureLayersMinimap::`RTTI Base Class Descriptor at (0,-1,0,64)'
PUBLIC	??_R4ObservationFeatureLayer@SC2APIProtocol@@6B@ ; SC2APIProtocol::ObservationFeatureLayer::`RTTI Complete Object Locator'
PUBLIC	??_R3ObservationFeatureLayer@SC2APIProtocol@@8	; SC2APIProtocol::ObservationFeatureLayer::`RTTI Class Hierarchy Descriptor'
PUBLIC	??_R2ObservationFeatureLayer@SC2APIProtocol@@8	; SC2APIProtocol::ObservationFeatureLayer::`RTTI Base Class Array'
PUBLIC	??_R1A@?0A@EA@ObservationFeatureLayer@SC2APIProtocol@@8 ; SC2APIProtocol::ObservationFeatureLayer::`RTTI Base Class Descriptor at (0,-1,0,64)'
PUBLIC	??_R4ObservationRender@SC2APIProtocol@@6B@	; SC2APIProtocol::ObservationRender::`RTTI Complete Object Locator'
PUBLIC	??_R3ObservationRender@SC2APIProtocol@@8	; SC2APIProtocol::ObservationRender::`RTTI Class Hierarchy Descriptor'
PUBLIC	??_R2ObservationRender@SC2APIProtocol@@8	; SC2APIProtocol::ObservationRender::`RTTI Base Class Array'
PUBLIC	??_R1A@?0A@EA@ObservationRender@SC2APIProtocol@@8 ; SC2APIProtocol::ObservationRender::`RTTI Base Class Descriptor at (0,-1,0,64)'
PUBLIC	?offsets@TableStruct_s2clientprotocol_2fspatial_2eproto@@2QBIB ; TableStruct_s2clientprotocol_2fspatial_2eproto::offsets
PUBLIC	?descriptor_table_s2clientprotocol_2fspatial_2eproto@@3UDescriptorTable@internal@protobuf@google@@B ; descriptor_table_s2clientprotocol_2fspatial_2eproto
PUBLIC	?New@ObservationFeatureLayer@SC2APIProtocol@@UEBAPEAV12@PEAVArena@protobuf@google@@@Z ; SC2APIProtocol::ObservationFeatureLayer::New
PUBLIC	?MergeImpl@ObservationFeatureLayer@SC2APIProtocol@@CAXAEAVMessage@protobuf@google@@AEBV345@@Z ; SC2APIProtocol::ObservationFeatureLayer::MergeImpl
PUBLIC	?Clear@ObservationFeatureLayer@SC2APIProtocol@@UEAAXXZ ; SC2APIProtocol::ObservationFeatureLayer::Clear
PUBLIC	?IsInitialized@ObservationFeatureLayer@SC2APIProtocol@@UEBA_NXZ ; SC2APIProtocol::ObservationFeatureLayer::IsInitialized
PUBLIC	?ByteSizeLong@ObservationFeatureLayer@SC2APIProtocol@@UEBA_KXZ ; SC2APIProtocol::ObservationFeatureLayer::ByteSizeLong
PUBLIC	?_InternalParse@ObservationFeatureLayer@SC2APIProtocol@@UEAAPEBDPEBDPEAVParseContext@internal@protobuf@google@@@Z ; SC2APIProtocol::ObservationFeatureLayer::_InternalParse
PUBLIC	?_InternalSerialize@ObservationFeatureLayer@SC2APIProtocol@@UEBAPEAEPEAEPEAVEpsCopyOutputStream@io@protobuf@google@@@Z ; SC2APIProtocol::ObservationFeatureLayer::_InternalSerialize
PUBLIC	?GetCachedSize@ObservationFeatureLayer@SC2APIProtocol@@UEBAHXZ ; SC2APIProtocol::ObservationFeatureLayer::GetCachedSize
PUBLIC	?SetCachedSize@ObservationFeatureLayer@SC2APIProtocol@@EEBAXH@Z ; SC2APIProtocol::ObservationFeatureLayer::SetCachedSize
PUBLIC	?_class_data_@ObservationFeatureLayer@SC2APIProtocol@@2UClassData@Message@protobuf@google@@B ; SC2APIProtocol::ObservationFeatureLayer::_class_data_
PUBLIC	?GetClassData@ObservationFeatureLayer@SC2APIProtocol@@UEBAPEBUClassData@Message@protobuf@google@@XZ ; SC2APIProtocol::ObservationFeatureLayer::GetClassData
PUBLIC	?GetMetadata@ObservationFeatureLayer@SC2APIProtocol@@UEBA?AUMetadata@protobuf@google@@XZ ; SC2APIProtocol::ObservationFeatureLayer::GetMetadata
PUBLIC	??_7ObservationFeatureLayer@SC2APIProtocol@@6B@	; SC2APIProtocol::ObservationFeatureLayer::`vftable'
PUBLIC	??_GObservationFeatureLayer@SC2APIProtocol@@UEAAPEAXI@Z ; SC2APIProtocol::ObservationFeatureLayer::`scalar deleting destructor'
PUBLIC	?New@FeatureLayers@SC2APIProtocol@@UEBAPEAV12@PEAVArena@protobuf@google@@@Z ; SC2APIProtocol::FeatureLayers::New
PUBLIC	?MergeImpl@FeatureLayers@SC2APIProtocol@@CAXAEAVMessage@protobuf@google@@AEBV345@@Z ; SC2APIProtocol::FeatureLayers::MergeImpl
PUBLIC	?Clear@FeatureLayers@SC2APIProtocol@@UEAAXXZ	; SC2APIProtocol::FeatureLayers::Clear
PUBLIC	?IsInitialized@FeatureLayers@SC2APIProtocol@@UEBA_NXZ ; SC2APIProtocol::FeatureLayers::IsInitialized
PUBLIC	?ByteSizeLong@FeatureLayers@SC2APIProtocol@@UEBA_KXZ ; SC2APIProtocol::FeatureLayers::ByteSizeLong
PUBLIC	?_InternalParse@FeatureLayers@SC2APIProtocol@@UEAAPEBDPEBDPEAVParseContext@internal@protobuf@google@@@Z ; SC2APIProtocol::FeatureLayers::_InternalParse
PUBLIC	?_InternalSerialize@FeatureLayers@SC2APIProtocol@@UEBAPEAEPEAEPEAVEpsCopyOutputStream@io@protobuf@google@@@Z ; SC2APIProtocol::FeatureLayers::_InternalSerialize
PUBLIC	?GetCachedSize@FeatureLayers@SC2APIProtocol@@UEBAHXZ ; SC2APIProtocol::FeatureLayers::GetCachedSize
PUBLIC	?SetCachedSize@FeatureLayers@SC2APIProtocol@@EEBAXH@Z ; SC2APIProtocol::FeatureLayers::SetCachedSize
PUBLIC	?_class_data_@FeatureLayers@SC2APIProtocol@@2UClassData@Message@protobuf@google@@B ; SC2APIProtocol::FeatureLayers::_class_data_
PUBLIC	?GetClassData@FeatureLayers@SC2APIProtocol@@UEBAPEBUClassData@Message@protobuf@google@@XZ ; SC2APIProtocol::FeatureLayers::GetClassData
PUBLIC	?GetMetadata@FeatureLayers@SC2APIProtocol@@UEBA?AUMetadata@protobuf@google@@XZ ; SC2APIProtocol::FeatureLayers::GetMetadata
PUBLIC	??_7FeatureLayers@SC2APIProtocol@@6B@		; SC2APIProtocol::FeatureLayers::`vftable'
PUBLIC	??_GFeatureLayers@SC2APIProtocol@@UEAAPEAXI@Z	; SC2APIProtocol::FeatureLayers::`scalar deleting destructor'
PUBLIC	?New@FeatureLayersMinimap@SC2APIProtocol@@UEBAPEAV12@PEAVArena@protobuf@google@@@Z ; SC2APIProtocol::FeatureLayersMinimap::New
PUBLIC	?MergeImpl@FeatureLayersMinimap@SC2APIProtocol@@CAXAEAVMessage@protobuf@google@@AEBV345@@Z ; SC2APIProtocol::FeatureLayersMinimap::MergeImpl
PUBLIC	?Clear@FeatureLayersMinimap@SC2APIProtocol@@UEAAXXZ ; SC2APIProtocol::FeatureLayersMinimap::Clear
PUBLIC	?IsInitialized@FeatureLayersMinimap@SC2APIProtocol@@UEBA_NXZ ; SC2APIProtocol::FeatureLayersMinimap::IsInitialized
PUBLIC	?ByteSizeLong@FeatureLayersMinimap@SC2APIProtocol@@UEBA_KXZ ; SC2APIProtocol::FeatureLayersMinimap::ByteSizeLong
PUBLIC	?_InternalParse@FeatureLayersMinimap@SC2APIProtocol@@UEAAPEBDPEBDPEAVParseContext@internal@protobuf@google@@@Z ; SC2APIProtocol::FeatureLayersMinimap::_InternalParse
PUBLIC	?_InternalSerialize@FeatureLayersMinimap@SC2APIProtocol@@UEBAPEAEPEAEPEAVEpsCopyOutputStream@io@protobuf@google@@@Z ; SC2APIProtocol::FeatureLayersMinimap::_InternalSerialize
PUBLIC	?GetCachedSize@FeatureLayersMinimap@SC2APIProtocol@@UEBAHXZ ; SC2APIProtocol::FeatureLayersMinimap::GetCachedSize
PUBLIC	?SetCachedSize@FeatureLayersMinimap@SC2APIProtocol@@EEBAXH@Z ; SC2APIProtocol::FeatureLayersMinimap::SetCachedSize
PUBLIC	?_class_data_@FeatureLayersMinimap@SC2APIProtocol@@2UClassData@Message@protobuf@google@@B ; SC2APIProtocol::FeatureLayersMinimap::_class_data_
PUBLIC	?GetClassData@FeatureLayersMinimap@SC2APIProtocol@@UEBAPEBUClassData@Message@protobuf@google@@XZ ; SC2APIProtocol::FeatureLayersMinimap::GetClassData
PUBLIC	?GetMetadata@FeatureLayersMinimap@SC2APIProtocol@@UEBA?AUMetadata@protobuf@google@@XZ ; SC2APIProtocol::FeatureLayersMinimap::GetMetadata
PUBLIC	??_7FeatureLayersMinimap@SC2APIProtocol@@6B@	; SC2APIProtocol::FeatureLayersMinimap::`vftable'
PUBLIC	??_GFeatureLayersMinimap@SC2APIProtocol@@UEAAPEAXI@Z ; SC2APIProtocol::FeatureLayersMinimap::`scalar deleting destructor'
PUBLIC	?New@ObservationRender@SC2APIProtocol@@UEBAPEAV12@PEAVArena@protobuf@google@@@Z ; SC2APIProtocol::ObservationRender::New
PUBLIC	?MergeImpl@ObservationRender@SC2APIProtocol@@CAXAEAVMessage@protobuf@google@@AEBV345@@Z ; SC2APIProtocol::ObservationRender::MergeImpl
PUBLIC	?Clear@ObservationRender@SC2APIProtocol@@UEAAXXZ ; SC2APIProtocol::ObservationRender::Clear
PUBLIC	?IsInitialized@ObservationRender@SC2APIProtocol@@UEBA_NXZ ; SC2APIProtocol::ObservationRender::IsInitialized
PUBLIC	?ByteSizeLong@ObservationRender@SC2APIProtocol@@UEBA_KXZ ; SC2APIProtocol::ObservationRender::ByteSizeLong
PUBLIC	?_InternalParse@ObservationRender@SC2APIProtocol@@UEAAPEBDPEBDPEAVParseContext@internal@protobuf@google@@@Z ; SC2APIProtocol::ObservationRender::_InternalParse
PUBLIC	?_InternalSerialize@ObservationRender@SC2APIProtocol@@UEBAPEAEPEAEPEAVEpsCopyOutputStream@io@protobuf@google@@@Z ; SC2APIProtocol::ObservationRender::_InternalSerialize
PUBLIC	?GetCachedSize@ObservationRender@SC2APIProtocol@@UEBAHXZ ; SC2APIProtocol::ObservationRender::GetCachedSize
PUBLIC	?SetCachedSize@ObservationRender@SC2APIProtocol@@EEBAXH@Z ; SC2APIProtocol::ObservationRender::SetCachedSize
PUBLIC	?_class_data_@ObservationRender@SC2APIProtocol@@2UClassData@Message@protobuf@google@@B ; SC2APIProtocol::ObservationRender::_class_data_
PUBLIC	?GetClassData@ObservationRender@SC2APIProtocol@@UEBAPEBUClassData@Message@protobuf@google@@XZ ; SC2APIProtocol::ObservationRender::GetClassData
PUBLIC	?GetMetadata@ObservationRender@SC2APIProtocol@@UEBA?AUMetadata@protobuf@google@@XZ ; SC2APIProtocol::ObservationRender::GetMetadata
PUBLIC	??_7ObservationRender@SC2APIProtocol@@6B@	; SC2APIProtocol::ObservationRender::`vftable'
PUBLIC	??_GObservationRender@SC2APIProtocol@@UEAAPEAXI@Z ; SC2APIProtocol::ObservationRender::`scalar deleting destructor'
PUBLIC	?New@ActionSpatial@SC2APIProtocol@@UEBAPEAV12@PEAVArena@protobuf@google@@@Z ; SC2APIProtocol::ActionSpatial::New
PUBLIC	?MergeImpl@ActionSpatial@SC2APIProtocol@@CAXAEAVMessage@protobuf@google@@AEBV345@@Z ; SC2APIProtocol::ActionSpatial::MergeImpl
PUBLIC	?Clear@ActionSpatial@SC2APIProtocol@@UEAAXXZ	; SC2APIProtocol::ActionSpatial::Clear
PUBLIC	?IsInitialized@ActionSpatial@SC2APIProtocol@@UEBA_NXZ ; SC2APIProtocol::ActionSpatial::IsInitialized
PUBLIC	?ByteSizeLong@ActionSpatial@SC2APIProtocol@@UEBA_KXZ ; SC2APIProtocol::ActionSpatial::ByteSizeLong
PUBLIC	?_InternalParse@ActionSpatial@SC2APIProtocol@@UEAAPEBDPEBDPEAVParseContext@internal@protobuf@google@@@Z ; SC2APIProtocol::ActionSpatial::_InternalParse
PUBLIC	?_InternalSerialize@ActionSpatial@SC2APIProtocol@@UEBAPEAEPEAEPEAVEpsCopyOutputStream@io@protobuf@google@@@Z ; SC2APIProtocol::ActionSpatial::_InternalSerialize
PUBLIC	?GetCachedSize@ActionSpatial@SC2APIProtocol@@UEBAHXZ ; SC2APIProtocol::ActionSpatial::GetCachedSize
PUBLIC	?SetCachedSize@ActionSpatial@SC2APIProtocol@@EEBAXH@Z ; SC2APIProtocol::ActionSpatial::SetCachedSize
PUBLIC	?_class_data_@ActionSpatial@SC2APIProtocol@@2UClassData@Message@protobuf@google@@B ; SC2APIProtocol::ActionSpatial::_class_data_
PUBLIC	?GetClassData@ActionSpatial@SC2APIProtocol@@UEBAPEBUClassData@Message@protobuf@google@@XZ ; SC2APIProtocol::ActionSpatial::GetClassData
PUBLIC	?GetMetadata@ActionSpatial@SC2APIProtocol@@UEBA?AUMetadata@protobuf@google@@XZ ; SC2APIProtocol::ActionSpatial::GetMetadata
PUBLIC	??_7ActionSpatial@SC2APIProtocol@@6B@		; SC2APIProtocol::ActionSpatial::`vftable'
PUBLIC	??_GActionSpatial@SC2APIProtocol@@UEAAPEAXI@Z	; SC2APIProtocol::ActionSpatial::`scalar deleting destructor'
PUBLIC	?New@ActionSpatialUnitCommand@SC2APIProtocol@@UEBAPEAV12@PEAVArena@protobuf@google@@@Z ; SC2APIProtocol::ActionSpatialUnitCommand::New
PUBLIC	?MergeImpl@ActionSpatialUnitCommand@SC2APIProtocol@@CAXAEAVMessage@protobuf@google@@AEBV345@@Z ; SC2APIProtocol::ActionSpatialUnitCommand::MergeImpl
PUBLIC	?Clear@ActionSpatialUnitCommand@SC2APIProtocol@@UEAAXXZ ; SC2APIProtocol::ActionSpatialUnitCommand::Clear
PUBLIC	?IsInitialized@ActionSpatialUnitCommand@SC2APIProtocol@@UEBA_NXZ ; SC2APIProtocol::ActionSpatialUnitCommand::IsInitialized
PUBLIC	?ByteSizeLong@ActionSpatialUnitCommand@SC2APIProtocol@@UEBA_KXZ ; SC2APIProtocol::ActionSpatialUnitCommand::ByteSizeLong
PUBLIC	?_InternalParse@ActionSpatialUnitCommand@SC2APIProtocol@@UEAAPEBDPEBDPEAVParseContext@internal@protobuf@google@@@Z ; SC2APIProtocol::ActionSpatialUnitCommand::_InternalParse
PUBLIC	?_InternalSerialize@ActionSpatialUnitCommand@SC2APIProtocol@@UEBAPEAEPEAEPEAVEpsCopyOutputStream@io@protobuf@google@@@Z ; SC2APIProtocol::ActionSpatialUnitCommand::_InternalSerialize
PUBLIC	?GetCachedSize@ActionSpatialUnitCommand@SC2APIProtocol@@UEBAHXZ ; SC2APIProtocol::ActionSpatialUnitCommand::GetCachedSize
PUBLIC	?SetCachedSize@ActionSpatialUnitCommand@SC2APIProtocol@@EEBAXH@Z ; SC2APIProtocol::ActionSpatialUnitCommand::SetCachedSize
PUBLIC	?_class_data_@ActionSpatialUnitCommand@SC2APIProtocol@@2UClassData@Message@protobuf@google@@B ; SC2APIProtocol::ActionSpatialUnitCommand::_class_data_
PUBLIC	?GetClassData@ActionSpatialUnitCommand@SC2APIProtocol@@UEBAPEBUClassData@Message@protobuf@google@@XZ ; SC2APIProtocol::ActionSpatialUnitCommand::GetClassData
PUBLIC	?GetMetadata@ActionSpatialUnitCommand@SC2APIProtocol@@UEBA?AUMetadata@protobuf@google@@XZ ; SC2APIProtocol::ActionSpatialUnitCommand::GetMetadata
PUBLIC	??_7ActionSpatialUnitCommand@SC2APIProtocol@@6B@ ; SC2APIProtocol::ActionSpatialUnitCommand::`vftable'
PUBLIC	??_GActionSpatialUnitCommand@SC2APIProtocol@@UEAAPEAXI@Z ; SC2APIProtocol::ActionSpatialUnitCommand::`scalar deleting destructor'
PUBLIC	?New@ActionSpatialCameraMove@SC2APIProtocol@@UEBAPEAV12@PEAVArena@protobuf@google@@@Z ; SC2APIProtocol::ActionSpatialCameraMove::New
PUBLIC	?MergeImpl@ActionSpatialCameraMove@SC2APIProtocol@@CAXAEAVMessage@protobuf@google@@AEBV345@@Z ; SC2APIProtocol::ActionSpatialCameraMove::MergeImpl
PUBLIC	?Clear@ActionSpatialCameraMove@SC2APIProtocol@@UEAAXXZ ; SC2APIProtocol::ActionSpatialCameraMove::Clear
PUBLIC	?IsInitialized@ActionSpatialCameraMove@SC2APIProtocol@@UEBA_NXZ ; SC2APIProtocol::ActionSpatialCameraMove::IsInitialized
PUBLIC	?ByteSizeLong@ActionSpatialCameraMove@SC2APIProtocol@@UEBA_KXZ ; SC2APIProtocol::ActionSpatialCameraMove::ByteSizeLong
PUBLIC	?_InternalParse@ActionSpatialCameraMove@SC2APIProtocol@@UEAAPEBDPEBDPEAVParseContext@internal@protobuf@google@@@Z ; SC2APIProtocol::ActionSpatialCameraMove::_InternalParse
PUBLIC	?_InternalSerialize@ActionSpatialCameraMove@SC2APIProtocol@@UEBAPEAEPEAEPEAVEpsCopyOutputStream@io@protobuf@google@@@Z ; SC2APIProtocol::ActionSpatialCameraMove::_InternalSerialize
PUBLIC	?GetCachedSize@ActionSpatialCameraMove@SC2APIProtocol@@UEBAHXZ ; SC2APIProtocol::ActionSpatialCameraMove::GetCachedSize
PUBLIC	?SetCachedSize@ActionSpatialCameraMove@SC2APIProtocol@@EEBAXH@Z ; SC2APIProtocol::ActionSpatialCameraMove::SetCachedSize
PUBLIC	?_class_data_@ActionSpatialCameraMove@SC2APIProtocol@@2UClassData@Message@protobuf@google@@B ; SC2APIProtocol::ActionSpatialCameraMove::_class_data_
PUBLIC	?GetClassData@ActionSpatialCameraMove@SC2APIProtocol@@UEBAPEBUClassData@Message@protobuf@google@@XZ ; SC2APIProtocol::ActionSpatialCameraMove::GetClassData
PUBLIC	?GetMetadata@ActionSpatialCameraMove@SC2APIProtocol@@UEBA?AUMetadata@protobuf@google@@XZ ; SC2APIProtocol::ActionSpatialCameraMove::GetMetadata
PUBLIC	??_7ActionSpatialCameraMove@SC2APIProtocol@@6B@	; SC2APIProtocol::ActionSpatialCameraMove::`vftable'
PUBLIC	??_GActionSpatialCameraMove@SC2APIProtocol@@UEAAPEAXI@Z ; SC2APIProtocol::ActionSpatialCameraMove::`scalar deleting destructor'
PUBLIC	?New@ActionSpatialUnitSelectionPoint@SC2APIProtocol@@UEBAPEAV12@PEAVArena@protobuf@google@@@Z ; SC2APIProtocol::ActionSpatialUnitSelectionPoint::New
PUBLIC	?MergeImpl@ActionSpatialUnitSelectionPoint@SC2APIProtocol@@CAXAEAVMessage@protobuf@google@@AEBV345@@Z ; SC2APIProtocol::ActionSpatialUnitSelectionPoint::MergeImpl
PUBLIC	?Clear@ActionSpatialUnitSelectionPoint@SC2APIProtocol@@UEAAXXZ ; SC2APIProtocol::ActionSpatialUnitSelectionPoint::Clear
PUBLIC	?IsInitialized@ActionSpatialUnitSelectionPoint@SC2APIProtocol@@UEBA_NXZ ; SC2APIProtocol::ActionSpatialUnitSelectionPoint::IsInitialized
PUBLIC	?ByteSizeLong@ActionSpatialUnitSelectionPoint@SC2APIProtocol@@UEBA_KXZ ; SC2APIProtocol::ActionSpatialUnitSelectionPoint::ByteSizeLong
PUBLIC	?_InternalParse@ActionSpatialUnitSelectionPoint@SC2APIProtocol@@UEAAPEBDPEBDPEAVParseContext@internal@protobuf@google@@@Z ; SC2APIProtocol::ActionSpatialUnitSelectionPoint::_InternalParse
PUBLIC	?_InternalSerialize@ActionSpatialUnitSelectionPoint@SC2APIProtocol@@UEBAPEAEPEAEPEAVEpsCopyOutputStream@io@protobuf@google@@@Z ; SC2APIProtocol::ActionSpatialUnitSelectionPoint::_InternalSerialize
PUBLIC	?GetCachedSize@ActionSpatialUnitSelectionPoint@SC2APIProtocol@@UEBAHXZ ; SC2APIProtocol::ActionSpatialUnitSelectionPoint::GetCachedSize
PUBLIC	?SetCachedSize@ActionSpatialUnitSelectionPoint@SC2APIProtocol@@EEBAXH@Z ; SC2APIProtocol::ActionSpatialUnitSelectionPoint::SetCachedSize
PUBLIC	?_class_data_@ActionSpatialUnitSelectionPoint@SC2APIProtocol@@2UClassData@Message@protobuf@google@@B ; SC2APIProtocol::ActionSpatialUnitSelectionPoint::_class_data_
PUBLIC	?GetClassData@ActionSpatialUnitSelectionPoint@SC2APIProtocol@@UEBAPEBUClassData@Message@protobuf@google@@XZ ; SC2APIProtocol::ActionSpatialUnitSelectionPoint::GetClassData
PUBLIC	?GetMetadata@ActionSpatialUnitSelectionPoint@SC2APIProtocol@@UEBA?AUMetadata@protobuf@google@@XZ ; SC2APIProtocol::ActionSpatialUnitSelectionPoint::GetMetadata
PUBLIC	??_7ActionSpatialUnitSelectionPoint@SC2APIProtocol@@6B@ ; SC2APIProtocol::ActionSpatialUnitSelectionPoint::`vftable'
PUBLIC	??_GActionSpatialUnitSelectionPoint@SC2APIProtocol@@UEAAPEAXI@Z ; SC2APIProtocol::ActionSpatialUnitSelectionPoint::`scalar deleting destructor'
PUBLIC	?MergeImpl@ActionSpatialUnitSelectionRect@SC2APIProtocol@@CAXAEAVMessage@protobuf@google@@AEBV345@@Z ; SC2APIProtocol::ActionSpatialUnitSelectionRect::MergeImpl
PUBLIC	?_class_data_@ActionSpatialUnitSelectionRect@SC2APIProtocol@@2UClassData@Message@protobuf@google@@B ; SC2APIProtocol::ActionSpatialUnitSelectionRect::_class_data_
PUBLIC	??_R0?AVObservationFeatureLayer@SC2APIProtocol@@@8 ; SC2APIProtocol::ObservationFeatureLayer `RTTI Type Descriptor'
PUBLIC	??_R0?AVFeatureLayers@SC2APIProtocol@@@8	; SC2APIProtocol::FeatureLayers `RTTI Type Descriptor'
PUBLIC	??_R0?AVFeatureLayersMinimap@SC2APIProtocol@@@8	; SC2APIProtocol::FeatureLayersMinimap `RTTI Type Descriptor'
PUBLIC	??_R0?AVObservationRender@SC2APIProtocol@@@8	; SC2APIProtocol::ObservationRender `RTTI Type Descriptor'
PUBLIC	??_R0?AVActionSpatial@SC2APIProtocol@@@8	; SC2APIProtocol::ActionSpatial `RTTI Type Descriptor'
PUBLIC	??_R0?AVActionSpatialUnitCommand@SC2APIProtocol@@@8 ; SC2APIProtocol::ActionSpatialUnitCommand `RTTI Type Descriptor'
PUBLIC	??_R0?AVActionSpatialCameraMove@SC2APIProtocol@@@8 ; SC2APIProtocol::ActionSpatialCameraMove `RTTI Type Descriptor'
PUBLIC	??_R0?AVActionSpatialUnitSelectionPoint@SC2APIProtocol@@@8 ; SC2APIProtocol::ActionSpatialUnitSelectionPoint `RTTI Type Descriptor'
PUBLIC	?OnDemandRegisterArenaDtor@MessageLite@protobuf@google@@UEAAXPEAVArena@23@@Z ; google::protobuf::MessageLite::OnDemandRegisterArenaDtor
EXTRN	??_EObservationFeatureLayer@SC2APIProtocol@@UEAAPEAXI@Z:PROC ; SC2APIProtocol::ObservationFeatureLayer::`vector deleting destructor'
EXTRN	??_EFeatureLayers@SC2APIProtocol@@UEAAPEAXI@Z:PROC ; SC2APIProtocol::FeatureLayers::`vector deleting destructor'
EXTRN	??_EFeatureLayersMinimap@SC2APIProtocol@@UEAAPEAXI@Z:PROC ; SC2APIProtocol::FeatureLayersMinimap::`vector deleting destructor'
EXTRN	??_EObservationRender@SC2APIProtocol@@UEAAPEAXI@Z:PROC ; SC2APIProtocol::ObservationRender::`vector deleting destructor'
EXTRN	??_EActionSpatial@SC2APIProtocol@@UEAAPEAXI@Z:PROC ; SC2APIProtocol::ActionSpatial::`vector deleting destructor'
EXTRN	??_EActionSpatialUnitCommand@SC2APIProtocol@@UEAAPEAXI@Z:PROC ; SC2APIProtocol::ActionSpatialUnitCommand::`vector deleting destructor'
EXTRN	??_EActionSpatialCameraMove@SC2APIProtocol@@UEAAPEAXI@Z:PROC ; SC2APIProtocol::ActionSpatialCameraMove::`vector deleting destructor'
EXTRN	??_EActionSpatialUnitSelectionPoint@SC2APIProtocol@@UEAAPEAXI@Z:PROC ; SC2APIProtocol::ActionSpatialUnitSelectionPoint::`vector deleting destructor'
EXTRN	?MergeFrom@Message@protobuf@google@@UEAAXAEBV123@@Z:PROC ; google::protobuf::Message::MergeFrom
EXTRN	?InitializationErrorString@Message@protobuf@google@@UEBA?AV?$basic_string@DU?$char_traits@D@std@@V?$allocator@D@2@@std@@XZ:PROC ; google::protobuf::Message::InitializationErrorString
EXTRN	?SpaceUsedLong@Message@protobuf@google@@UEBA_KXZ:PROC ; google::protobuf::Message::SpaceUsedLong
EXTRN	?GetTypeName@Message@protobuf@google@@UEBA?AV?$basic_string@DU?$char_traits@D@std@@V?$allocator@D@2@@std@@XZ:PROC ; google::protobuf::Message::GetTypeName
EXTRN	?CheckTypeAndMergeFrom@Message@protobuf@google@@UEAAXAEBVMessageLite@23@@Z:PROC ; google::protobuf::Message::CheckTypeAndMergeFrom
EXTRN	?CopyWithSourceCheck@Message@protobuf@google@@KAXAEAV123@AEBV123@@Z:PROC ; google::protobuf::Message::CopyWithSourceCheck
EXTRN	??_7type_info@@6B@:BYTE				; type_info::`vftable'
EXTRN	?descriptor_table_s2clientprotocol_2fcommon_2eproto@@3UDescriptorTable@internal@protobuf@google@@B:BYTE ; descriptor_table_s2clientprotocol_2fcommon_2eproto
_BSS	SEGMENT
?descriptor_table_s2clientprotocol_2fspatial_2eproto_once@@3Uonce_flag@std@@A DQ 01H DUP (?) ; descriptor_table_s2clientprotocol_2fspatial_2eproto_once
?file_level_metadata_s2clientprotocol_2fspatial_2eproto@@3PAUMetadata@protobuf@google@@A DB 090H DUP (?) ; file_level_metadata_s2clientprotocol_2fspatial_2eproto
?file_level_enum_descriptors_s2clientprotocol_2fspatial_2eproto@@3PAPEBVEnumDescriptor@protobuf@google@@A DQ 01H DUP (?) ; file_level_enum_descriptors_s2clientprotocol_2fspatial_2eproto
_BSS	ENDS
;	COMDAT ??_R0?AVActionSpatialUnitSelectionPoint@SC2APIProtocol@@@8
data$r	SEGMENT
??_R0?AVActionSpatialUnitSelectionPoint@SC2APIProtocol@@@8 DQ FLAT:??_7type_info@@6B@ ; SC2APIProtocol::ActionSpatialUnitSelectionPoint `RTTI Type Descriptor'
	DQ	0000000000000000H
	DB	'.?AVActionSpatialUnitSelectionPoint@SC2APIProtocol@@', 00H
data$r	ENDS
;	COMDAT ??_R0?AVActionSpatialCameraMove@SC2APIProtocol@@@8
data$r	SEGMENT
??_R0?AVActionSpatialCameraMove@SC2APIProtocol@@@8 DQ FLAT:??_7type_info@@6B@ ; SC2APIProtocol::ActionSpatialCameraMove `RTTI Type Descriptor'
	DQ	0000000000000000H
	DB	'.?AVActionSpatialCameraMove@SC2APIProtocol@@', 00H
data$r	ENDS
;	COMDAT ??_R0?AVActionSpatialUnitCommand@SC2APIProtocol@@@8
data$r	SEGMENT
??_R0?AVActionSpatialUnitCommand@SC2APIProtocol@@@8 DQ FLAT:??_7type_info@@6B@ ; SC2APIProtocol::ActionSpatialUnitCommand `RTTI Type Descriptor'
	DQ	0000000000000000H
	DB	'.?AVActionSpatialUnitCommand@SC2APIProtocol@@', 00H
data$r	ENDS
;	COMDAT ??_R0?AVActionSpatial@SC2APIProtocol@@@8
data$r	SEGMENT
??_R0?AVActionSpatial@SC2APIProtocol@@@8 DQ FLAT:??_7type_info@@6B@ ; SC2APIProtocol::ActionSpatial `RTTI Type Descriptor'
	DQ	0000000000000000H
	DB	'.?AVActionSpatial@SC2APIProtocol@@', 00H
data$r	ENDS
;	COMDAT ??_R0?AVObservationRender@SC2APIProtocol@@@8
data$r	SEGMENT
??_R0?AVObservationRender@SC2APIProtocol@@@8 DQ FLAT:??_7type_info@@6B@ ; SC2APIProtocol::ObservationRender `RTTI Type Descriptor'
	DQ	0000000000000000H
	DB	'.?AVObservationRender@SC2APIProtocol@@', 00H
data$r	ENDS
;	COMDAT ??_R0?AVFeatureLayersMinimap@SC2APIProtocol@@@8
data$r	SEGMENT
??_R0?AVFeatureLayersMinimap@SC2APIProtocol@@@8 DQ FLAT:??_7type_info@@6B@ ; SC2APIProtocol::FeatureLayersMinimap `RTTI Type Descriptor'
	DQ	0000000000000000H
	DB	'.?AVFeatureLayersMinimap@SC2APIProtocol@@', 00H
data$r	ENDS
;	COMDAT ??_R0?AVFeatureLayers@SC2APIProtocol@@@8
data$r	SEGMENT
??_R0?AVFeatureLayers@SC2APIProtocol@@@8 DQ FLAT:??_7type_info@@6B@ ; SC2APIProtocol::FeatureLayers `RTTI Type Descriptor'
	DQ	0000000000000000H
	DB	'.?AVFeatureLayers@SC2APIProtocol@@', 00H
data$r	ENDS
;	COMDAT ??_R0?AVObservationFeatureLayer@SC2APIProtocol@@@8
data$r	SEGMENT
??_R0?AVObservationFeatureLayer@SC2APIProtocol@@@8 DQ FLAT:??_7type_info@@6B@ ; SC2APIProtocol::ObservationFeatureLayer `RTTI Type Descriptor'
	DQ	0000000000000000H
	DB	'.?AVObservationFeatureLayer@SC2APIProtocol@@', 00H
data$r	ENDS
;	COMDAT ??_7ActionSpatialUnitSelectionPoint@SC2APIProtocol@@6B@
CONST	SEGMENT
??_7ActionSpatialUnitSelectionPoint@SC2APIProtocol@@6B@ DQ FLAT:??_R4ActionSpatialUnitSelectionPoint@SC2APIProtocol@@6B@ ; SC2APIProtocol::ActionSpatialUnitSelectionPoint::`vftable'
	DQ	FLAT:??_EActionSpatialUnitSelectionPoint@SC2APIProtocol@@UEAAPEAXI@Z
	DQ	FLAT:?GetTypeName@Message@protobuf@google@@UEBA?AV?$basic_string@DU?$char_traits@D@std@@V?$allocator@D@2@@std@@XZ
	DQ	FLAT:?New@ActionSpatialUnitSelectionPoint@SC2APIProtocol@@UEBAPEAV12@PEAVArena@protobuf@google@@@Z
	DQ	FLAT:?Clear@ActionSpatialUnitSelectionPoint@SC2APIProtocol@@UEAAXXZ
	DQ	FLAT:?IsInitialized@ActionSpatialUnitSelectionPoint@SC2APIProtocol@@UEBA_NXZ
	DQ	FLAT:?InitializationErrorString@Message@protobuf@google@@UEBA?AV?$basic_string@DU?$char_traits@D@std@@V?$allocator@D@2@@std@@XZ
	DQ	FLAT:?CheckTypeAndMergeFrom@Message@protobuf@google@@UEAAXAEBVMessageLite@23@@Z
	DQ	FLAT:?ByteSizeLong@ActionSpatialUnitSelectionPoint@SC2APIProtocol@@UEBA_KXZ
	DQ	FLAT:?GetCachedSize@ActionSpatialUnitSelectionPoint@SC2APIProtocol@@UEBAHXZ
	DQ	FLAT:?_InternalParse@ActionSpatialUnitSelectionPoint@SC2APIProtocol@@UEAAPEBDPEBDPEAVParseContext@internal@protobuf@google@@@Z
	DQ	FLAT:?OnDemandRegisterArenaDtor@MessageLite@protobuf@google@@UEAAXPEAVArena@23@@Z
	DQ	FLAT:?_InternalSerialize@ActionSpatialUnitSelectionPoint@SC2APIProtocol@@UEBAPEAEPEAEPEAVEpsCopyOutputStream@io@protobuf@google@@@Z
	DQ	FLAT:?MergeFrom@Message@protobuf@google@@UEAAXAEBV123@@Z
	DQ	FLAT:?SpaceUsedLong@Message@protobuf@google@@UEBA_KXZ
	DQ	FLAT:?SetCachedSize@ActionSpatialUnitSelectionPoint@SC2APIProtocol@@EEBAXH@Z
	DQ	FLAT:?GetMetadata@ActionSpatialUnitSelectionPoint@SC2APIProtocol@@UEBA?AUMetadata@protobuf@google@@XZ
	DQ	FLAT:?GetClassData@ActionSpatialUnitSelectionPoint@SC2APIProtocol@@UEBAPEBUClassData@Message@protobuf@google@@XZ
CONST	ENDS
;	COMDAT ??_7ActionSpatialCameraMove@SC2APIProtocol@@6B@
CONST	SEGMENT
??_7ActionSpatialCameraMove@SC2APIProtocol@@6B@ DQ FLAT:??_R4ActionSpatialCameraMove@SC2APIProtocol@@6B@ ; SC2APIProtocol::ActionSpatialCameraMove::`vftable'
	DQ	FLAT:??_EActionSpatialCameraMove@SC2APIProtocol@@UEAAPEAXI@Z
	DQ	FLAT:?GetTypeName@Message@protobuf@google@@UEBA?AV?$basic_string@DU?$char_traits@D@std@@V?$allocator@D@2@@std@@XZ
	DQ	FLAT:?New@ActionSpatialCameraMove@SC2APIProtocol@@UEBAPEAV12@PEAVArena@protobuf@google@@@Z
	DQ	FLAT:?Clear@ActionSpatialCameraMove@SC2APIProtocol@@UEAAXXZ
	DQ	FLAT:?IsInitialized@ActionSpatialCameraMove@SC2APIProtocol@@UEBA_NXZ
	DQ	FLAT:?InitializationErrorString@Message@protobuf@google@@UEBA?AV?$basic_string@DU?$char_traits@D@std@@V?$allocator@D@2@@std@@XZ
	DQ	FLAT:?CheckTypeAndMergeFrom@Message@protobuf@google@@UEAAXAEBVMessageLite@23@@Z
	DQ	FLAT:?ByteSizeLong@ActionSpatialCameraMove@SC2APIProtocol@@UEBA_KXZ
	DQ	FLAT:?GetCachedSize@ActionSpatialCameraMove@SC2APIProtocol@@UEBAHXZ
	DQ	FLAT:?_InternalParse@ActionSpatialCameraMove@SC2APIProtocol@@UEAAPEBDPEBDPEAVParseContext@internal@protobuf@google@@@Z
	DQ	FLAT:?OnDemandRegisterArenaDtor@MessageLite@protobuf@google@@UEAAXPEAVArena@23@@Z
	DQ	FLAT:?_InternalSerialize@ActionSpatialCameraMove@SC2APIProtocol@@UEBAPEAEPEAEPEAVEpsCopyOutputStream@io@protobuf@google@@@Z
	DQ	FLAT:?MergeFrom@Message@protobuf@google@@UEAAXAEBV123@@Z
	DQ	FLAT:?SpaceUsedLong@Message@protobuf@google@@UEBA_KXZ
	DQ	FLAT:?SetCachedSize@ActionSpatialCameraMove@SC2APIProtocol@@EEBAXH@Z
	DQ	FLAT:?GetMetadata@ActionSpatialCameraMove@SC2APIProtocol@@UEBA?AUMetadata@protobuf@google@@XZ
	DQ	FLAT:?GetClassData@ActionSpatialCameraMove@SC2APIProtocol@@UEBAPEBUClassData@Message@protobuf@google@@XZ
CONST	ENDS
;	COMDAT ??_7ActionSpatialUnitCommand@SC2APIProtocol@@6B@
CONST	SEGMENT
??_7ActionSpatialUnitCommand@SC2APIProtocol@@6B@ DQ FLAT:??_R4ActionSpatialUnitCommand@SC2APIProtocol@@6B@ ; SC2APIProtocol::ActionSpatialUnitCommand::`vftable'
	DQ	FLAT:??_EActionSpatialUnitCommand@SC2APIProtocol@@UEAAPEAXI@Z
	DQ	FLAT:?GetTypeName@Message@protobuf@google@@UEBA?AV?$basic_string@DU?$char_traits@D@std@@V?$allocator@D@2@@std@@XZ
	DQ	FLAT:?New@ActionSpatialUnitCommand@SC2APIProtocol@@UEBAPEAV12@PEAVArena@protobuf@google@@@Z
	DQ	FLAT:?Clear@ActionSpatialUnitCommand@SC2APIProtocol@@UEAAXXZ
	DQ	FLAT:?IsInitialized@ActionSpatialUnitCommand@SC2APIProtocol@@UEBA_NXZ
	DQ	FLAT:?InitializationErrorString@Message@protobuf@google@@UEBA?AV?$basic_string@DU?$char_traits@D@std@@V?$allocator@D@2@@std@@XZ
	DQ	FLAT:?CheckTypeAndMergeFrom@Message@protobuf@google@@UEAAXAEBVMessageLite@23@@Z
	DQ	FLAT:?ByteSizeLong@ActionSpatialUnitCommand@SC2APIProtocol@@UEBA_KXZ
	DQ	FLAT:?GetCachedSize@ActionSpatialUnitCommand@SC2APIProtocol@@UEBAHXZ
	DQ	FLAT:?_InternalParse@ActionSpatialUnitCommand@SC2APIProtocol@@UEAAPEBDPEBDPEAVParseContext@internal@protobuf@google@@@Z
	DQ	FLAT:?OnDemandRegisterArenaDtor@MessageLite@protobuf@google@@UEAAXPEAVArena@23@@Z
	DQ	FLAT:?_InternalSerialize@ActionSpatialUnitCommand@SC2APIProtocol@@UEBAPEAEPEAEPEAVEpsCopyOutputStream@io@protobuf@google@@@Z
	DQ	FLAT:?MergeFrom@Message@protobuf@google@@UEAAXAEBV123@@Z
	DQ	FLAT:?SpaceUsedLong@Message@protobuf@google@@UEBA_KXZ
	DQ	FLAT:?SetCachedSize@ActionSpatialUnitCommand@SC2APIProtocol@@EEBAXH@Z
	DQ	FLAT:?GetMetadata@ActionSpatialUnitCommand@SC2APIProtocol@@UEBA?AUMetadata@protobuf@google@@XZ
	DQ	FLAT:?GetClassData@ActionSpatialUnitCommand@SC2APIProtocol@@UEBAPEBUClassData@Message@protobuf@google@@XZ
CONST	ENDS
;	COMDAT ??_7ActionSpatial@SC2APIProtocol@@6B@
CONST	SEGMENT
??_7ActionSpatial@SC2APIProtocol@@6B@ DQ FLAT:??_R4ActionSpatial@SC2APIProtocol@@6B@ ; SC2APIProtocol::ActionSpatial::`vftable'
	DQ	FLAT:??_EActionSpatial@SC2APIProtocol@@UEAAPEAXI@Z
	DQ	FLAT:?GetTypeName@Message@protobuf@google@@UEBA?AV?$basic_string@DU?$char_traits@D@std@@V?$allocator@D@2@@std@@XZ
	DQ	FLAT:?New@ActionSpatial@SC2APIProtocol@@UEBAPEAV12@PEAVArena@protobuf@google@@@Z
	DQ	FLAT:?Clear@ActionSpatial@SC2APIProtocol@@UEAAXXZ
	DQ	FLAT:?IsInitialized@ActionSpatial@SC2APIProtocol@@UEBA_NXZ
	DQ	FLAT:?InitializationErrorString@Message@protobuf@google@@UEBA?AV?$basic_string@DU?$char_traits@D@std@@V?$allocator@D@2@@std@@XZ
	DQ	FLAT:?CheckTypeAndMergeFrom@Message@protobuf@google@@UEAAXAEBVMessageLite@23@@Z
	DQ	FLAT:?ByteSizeLong@ActionSpatial@SC2APIProtocol@@UEBA_KXZ
	DQ	FLAT:?GetCachedSize@ActionSpatial@SC2APIProtocol@@UEBAHXZ
	DQ	FLAT:?_InternalParse@ActionSpatial@SC2APIProtocol@@UEAAPEBDPEBDPEAVParseContext@internal@protobuf@google@@@Z
	DQ	FLAT:?OnDemandRegisterArenaDtor@MessageLite@protobuf@google@@UEAAXPEAVArena@23@@Z
	DQ	FLAT:?_InternalSerialize@ActionSpatial@SC2APIProtocol@@UEBAPEAEPEAEPEAVEpsCopyOutputStream@io@protobuf@google@@@Z
	DQ	FLAT:?MergeFrom@Message@protobuf@google@@UEAAXAEBV123@@Z
	DQ	FLAT:?SpaceUsedLong@Message@protobuf@google@@UEBA_KXZ
	DQ	FLAT:?SetCachedSize@ActionSpatial@SC2APIProtocol@@EEBAXH@Z
	DQ	FLAT:?GetMetadata@ActionSpatial@SC2APIProtocol@@UEBA?AUMetadata@protobuf@google@@XZ
	DQ	FLAT:?GetClassData@ActionSpatial@SC2APIProtocol@@UEBAPEBUClassData@Message@protobuf@google@@XZ
CONST	ENDS
;	COMDAT ??_7ObservationRender@SC2APIProtocol@@6B@
CONST	SEGMENT
??_7ObservationRender@SC2APIProtocol@@6B@ DQ FLAT:??_R4ObservationRender@SC2APIProtocol@@6B@ ; SC2APIProtocol::ObservationRender::`vftable'
	DQ	FLAT:??_EObservationRender@SC2APIProtocol@@UEAAPEAXI@Z
	DQ	FLAT:?GetTypeName@Message@protobuf@google@@UEBA?AV?$basic_string@DU?$char_traits@D@std@@V?$allocator@D@2@@std@@XZ
	DQ	FLAT:?New@ObservationRender@SC2APIProtocol@@UEBAPEAV12@PEAVArena@protobuf@google@@@Z
	DQ	FLAT:?Clear@ObservationRender@SC2APIProtocol@@UEAAXXZ
	DQ	FLAT:?IsInitialized@ObservationRender@SC2APIProtocol@@UEBA_NXZ
	DQ	FLAT:?InitializationErrorString@Message@protobuf@google@@UEBA?AV?$basic_string@DU?$char_traits@D@std@@V?$allocator@D@2@@std@@XZ
	DQ	FLAT:?CheckTypeAndMergeFrom@Message@protobuf@google@@UEAAXAEBVMessageLite@23@@Z
	DQ	FLAT:?ByteSizeLong@ObservationRender@SC2APIProtocol@@UEBA_KXZ
	DQ	FLAT:?GetCachedSize@ObservationRender@SC2APIProtocol@@UEBAHXZ
	DQ	FLAT:?_InternalParse@ObservationRender@SC2APIProtocol@@UEAAPEBDPEBDPEAVParseContext@internal@protobuf@google@@@Z
	DQ	FLAT:?OnDemandRegisterArenaDtor@MessageLite@protobuf@google@@UEAAXPEAVArena@23@@Z
	DQ	FLAT:?_InternalSerialize@ObservationRender@SC2APIProtocol@@UEBAPEAEPEAEPEAVEpsCopyOutputStream@io@protobuf@google@@@Z
	DQ	FLAT:?MergeFrom@Message@protobuf@google@@UEAAXAEBV123@@Z
	DQ	FLAT:?SpaceUsedLong@Message@protobuf@google@@UEBA_KXZ
	DQ	FLAT:?SetCachedSize@ObservationRender@SC2APIProtocol@@EEBAXH@Z
	DQ	FLAT:?GetMetadata@ObservationRender@SC2APIProtocol@@UEBA?AUMetadata@protobuf@google@@XZ
	DQ	FLAT:?GetClassData@ObservationRender@SC2APIProtocol@@UEBAPEBUClassData@Message@protobuf@google@@XZ
CONST	ENDS
;	COMDAT ??_7FeatureLayersMinimap@SC2APIProtocol@@6B@
CONST	SEGMENT
??_7FeatureLayersMinimap@SC2APIProtocol@@6B@ DQ FLAT:??_R4FeatureLayersMinimap@SC2APIProtocol@@6B@ ; SC2APIProtocol::FeatureLayersMinimap::`vftable'
	DQ	FLAT:??_EFeatureLayersMinimap@SC2APIProtocol@@UEAAPEAXI@Z
	DQ	FLAT:?GetTypeName@Message@protobuf@google@@UEBA?AV?$basic_string@DU?$char_traits@D@std@@V?$allocator@D@2@@std@@XZ
	DQ	FLAT:?New@FeatureLayersMinimap@SC2APIProtocol@@UEBAPEAV12@PEAVArena@protobuf@google@@@Z
	DQ	FLAT:?Clear@FeatureLayersMinimap@SC2APIProtocol@@UEAAXXZ
	DQ	FLAT:?IsInitialized@FeatureLayersMinimap@SC2APIProtocol@@UEBA_NXZ
	DQ	FLAT:?InitializationErrorString@Message@protobuf@google@@UEBA?AV?$basic_string@DU?$char_traits@D@std@@V?$allocator@D@2@@std@@XZ
	DQ	FLAT:?CheckTypeAndMergeFrom@Message@protobuf@google@@UEAAXAEBVMessageLite@23@@Z
	DQ	FLAT:?ByteSizeLong@FeatureLayersMinimap@SC2APIProtocol@@UEBA_KXZ
	DQ	FLAT:?GetCachedSize@FeatureLayersMinimap@SC2APIProtocol@@UEBAHXZ
	DQ	FLAT:?_InternalParse@FeatureLayersMinimap@SC2APIProtocol@@UEAAPEBDPEBDPEAVParseContext@internal@protobuf@google@@@Z
	DQ	FLAT:?OnDemandRegisterArenaDtor@MessageLite@protobuf@google@@UEAAXPEAVArena@23@@Z
	DQ	FLAT:?_InternalSerialize@FeatureLayersMinimap@SC2APIProtocol@@UEBAPEAEPEAEPEAVEpsCopyOutputStream@io@protobuf@google@@@Z
	DQ	FLAT:?MergeFrom@Message@protobuf@google@@UEAAXAEBV123@@Z
	DQ	FLAT:?SpaceUsedLong@Message@protobuf@google@@UEBA_KXZ
	DQ	FLAT:?SetCachedSize@FeatureLayersMinimap@SC2APIProtocol@@EEBAXH@Z
	DQ	FLAT:?GetMetadata@FeatureLayersMinimap@SC2APIProtocol@@UEBA?AUMetadata@protobuf@google@@XZ
	DQ	FLAT:?GetClassData@FeatureLayersMinimap@SC2APIProtocol@@UEBAPEBUClassData@Message@protobuf@google@@XZ
CONST	ENDS
;	COMDAT ??_7FeatureLayers@SC2APIProtocol@@6B@
CONST	SEGMENT
??_7FeatureLayers@SC2APIProtocol@@6B@ DQ FLAT:??_R4FeatureLayers@SC2APIProtocol@@6B@ ; SC2APIProtocol::FeatureLayers::`vftable'
	DQ	FLAT:??_EFeatureLayers@SC2APIProtocol@@UEAAPEAXI@Z
	DQ	FLAT:?GetTypeName@Message@protobuf@google@@UEBA?AV?$basic_string@DU?$char_traits@D@std@@V?$allocator@D@2@@std@@XZ
	DQ	FLAT:?New@FeatureLayers@SC2APIProtocol@@UEBAPEAV12@PEAVArena@protobuf@google@@@Z
	DQ	FLAT:?Clear@FeatureLayers@SC2APIProtocol@@UEAAXXZ
	DQ	FLAT:?IsInitialized@FeatureLayers@SC2APIProtocol@@UEBA_NXZ
	DQ	FLAT:?InitializationErrorString@Message@protobuf@google@@UEBA?AV?$basic_string@DU?$char_traits@D@std@@V?$allocator@D@2@@std@@XZ
	DQ	FLAT:?CheckTypeAndMergeFrom@Message@protobuf@google@@UEAAXAEBVMessageLite@23@@Z
	DQ	FLAT:?ByteSizeLong@FeatureLayers@SC2APIProtocol@@UEBA_KXZ
	DQ	FLAT:?GetCachedSize@FeatureLayers@SC2APIProtocol@@UEBAHXZ
	DQ	FLAT:?_InternalParse@FeatureLayers@SC2APIProtocol@@UEAAPEBDPEBDPEAVParseContext@internal@protobuf@google@@@Z
	DQ	FLAT:?OnDemandRegisterArenaDtor@MessageLite@protobuf@google@@UEAAXPEAVArena@23@@Z
	DQ	FLAT:?_InternalSerialize@FeatureLayers@SC2APIProtocol@@UEBAPEAEPEAEPEAVEpsCopyOutputStream@io@protobuf@google@@@Z
	DQ	FLAT:?MergeFrom@Message@protobuf@google@@UEAAXAEBV123@@Z
	DQ	FLAT:?SpaceUsedLong@Message@protobuf@google@@UEBA_KXZ
	DQ	FLAT:?SetCachedSize@FeatureLayers@SC2APIProtocol@@EEBAXH@Z
	DQ	FLAT:?GetMetadata@FeatureLayers@SC2APIProtocol@@UEBA?AUMetadata@protobuf@google@@XZ
	DQ	FLAT:?GetClassData@FeatureLayers@SC2APIProtocol@@UEBAPEBUClassData@Message@protobuf@google@@XZ
CONST	ENDS
;	COMDAT ??_7ObservationFeatureLayer@SC2APIProtocol@@6B@
CONST	SEGMENT
??_7ObservationFeatureLayer@SC2APIProtocol@@6B@ DQ FLAT:??_R4ObservationFeatureLayer@SC2APIProtocol@@6B@ ; SC2APIProtocol::ObservationFeatureLayer::`vftable'
	DQ	FLAT:??_EObservationFeatureLayer@SC2APIProtocol@@UEAAPEAXI@Z
	DQ	FLAT:?GetTypeName@Message@protobuf@google@@UEBA?AV?$basic_string@DU?$char_traits@D@std@@V?$allocator@D@2@@std@@XZ
	DQ	FLAT:?New@ObservationFeatureLayer@SC2APIProtocol@@UEBAPEAV12@PEAVArena@protobuf@google@@@Z
	DQ	FLAT:?Clear@ObservationFeatureLayer@SC2APIProtocol@@UEAAXXZ
	DQ	FLAT:?IsInitialized@ObservationFeatureLayer@SC2APIProtocol@@UEBA_NXZ
	DQ	FLAT:?InitializationErrorString@Message@protobuf@google@@UEBA?AV?$basic_string@DU?$char_traits@D@std@@V?$allocator@D@2@@std@@XZ
	DQ	FLAT:?CheckTypeAndMergeFrom@Message@protobuf@google@@UEAAXAEBVMessageLite@23@@Z
	DQ	FLAT:?ByteSizeLong@ObservationFeatureLayer@SC2APIProtocol@@UEBA_KXZ
	DQ	FLAT:?GetCachedSize@ObservationFeatureLayer@SC2APIProtocol@@UEBAHXZ
	DQ	FLAT:?_InternalParse@ObservationFeatureLayer@SC2APIProtocol@@UEAAPEBDPEBDPEAVParseContext@internal@protobuf@google@@@Z
	DQ	FLAT:?OnDemandRegisterArenaDtor@MessageLite@protobuf@google@@UEAAXPEAVArena@23@@Z
	DQ	FLAT:?_InternalSerialize@ObservationFeatureLayer@SC2APIProtocol@@UEBAPEAEPEAEPEAVEpsCopyOutputStream@io@protobuf@google@@@Z
	DQ	FLAT:?MergeFrom@Message@protobuf@google@@UEAAXAEBV123@@Z
	DQ	FLAT:?SpaceUsedLong@Message@protobuf@google@@UEBA_KXZ
	DQ	FLAT:?SetCachedSize@ObservationFeatureLayer@SC2APIProtocol@@EEBAXH@Z
	DQ	FLAT:?GetMetadata@ObservationFeatureLayer@SC2APIProtocol@@UEBA?AUMetadata@protobuf@google@@XZ
	DQ	FLAT:?GetClassData@ObservationFeatureLayer@SC2APIProtocol@@UEBAPEBUClassData@Message@protobuf@google@@XZ
CONST	ENDS
_DATA	SEGMENT
?descriptor_table_s2clientprotocol_2fspatial_2eproto@@3UDescriptorTable@internal@protobuf@google@@B DB 00H ; descriptor_table_s2clientprotocol_2fspatial_2eproto
	DB	00H
	ORG $+2
	DD	0c11H
	DQ	FLAT:?descriptor_table_protodef_s2clientprotocol_2fspatial_2eproto@@3QBDB
	DQ	FLAT:$SG131172
	DQ	FLAT:?descriptor_table_s2clientprotocol_2fspatial_2eproto_once@@3Uonce_flag@std@@A
	DQ	FLAT:?descriptor_table_s2clientprotocol_2fspatial_2eproto_deps@@3QBQEBUDescriptorTable@internal@protobuf@google@@B
	DD	01H
	DD	09H
	DQ	FLAT:?schemas@@3QBUMigrationSchema@internal@protobuf@google@@B
	DQ	FLAT:?file_default_instances@@3QBQEBVMessage@protobuf@google@@B
	DQ	FLAT:?offsets@TableStruct_s2clientprotocol_2fspatial_2eproto@@2QBIB
	DQ	FLAT:?file_level_metadata_s2clientprotocol_2fspatial_2eproto@@3PAUMetadata@protobuf@google@@A
	DQ	FLAT:?file_level_enum_descriptors_s2clientprotocol_2fspatial_2eproto@@3PAPEBVEnumDescriptor@protobuf@google@@A
	DQ	0000000000000000H
_DATA	ENDS
;	COMDAT ??_R1A@?0A@EA@ObservationRender@SC2APIProtocol@@8
rdata$r	SEGMENT
??_R1A@?0A@EA@ObservationRender@SC2APIProtocol@@8 DD imagerel ??_R0?AVObservationRender@SC2APIProtocol@@@8 ; SC2APIProtocol::ObservationRender::`RTTI Base Class Descriptor at (0,-1,0,64)'
	DD	02H
	DD	00H
	DD	0ffffffffH
	DD	00H
	DD	040H
	DD	imagerel ??_R3ObservationRender@SC2APIProtocol@@8
rdata$r	ENDS
;	COMDAT ??_R2ObservationRender@SC2APIProtocol@@8
rdata$r	SEGMENT
??_R2ObservationRender@SC2APIProtocol@@8 DD imagerel ??_R1A@?0A@EA@ObservationRender@SC2APIProtocol@@8 ; SC2APIProtocol::ObservationRender::`RTTI Base Class Array'
	DD	imagerel ??_R1A@?0A@EA@Message@protobuf@google@@8
	DD	imagerel ??_R1A@?0A@EA@MessageLite@protobuf@google@@8
	ORG $+3
rdata$r	ENDS
;	COMDAT ??_R3ObservationRender@SC2APIProtocol@@8
rdata$r	SEGMENT
??_R3ObservationRender@SC2APIProtocol@@8 DD 00H		; SC2APIProtocol::ObservationRender::`RTTI Class Hierarchy Descriptor'
	DD	00H
	DD	03H
	DD	imagerel ??_R2ObservationRender@SC2APIProtocol@@8
rdata$r	ENDS
;	COMDAT ??_R4ObservationRender@SC2APIProtocol@@6B@
rdata$r	SEGMENT
??_R4ObservationRender@SC2APIProtocol@@6B@ DD 01H	; SC2APIProtocol::ObservationRender::`RTTI Complete Object Locator'
	DD	00H
	DD	00H
	DD	imagerel ??_R0?AVObservationRender@SC2APIProtocol@@@8
	DD	imagerel ??_R3ObservationRender@SC2APIProtocol@@8
	DD	imagerel ??_R4ObservationRender@SC2APIProtocol@@6B@
rdata$r	ENDS
;	COMDAT ??_R1A@?0A@EA@ObservationFeatureLayer@SC2APIProtocol@@8
rdata$r	SEGMENT
??_R1A@?0A@EA@ObservationFeatureLayer@SC2APIProtocol@@8 DD imagerel ??_R0?AVObservationFeatureLayer@SC2APIProtocol@@@8 ; SC2APIProtocol::ObservationFeatureLayer::`RTTI Base Class Descriptor at (0,-1,0,64)'
	DD	02H
	DD	00H
	DD	0ffffffffH
	DD	00H
	DD	040H
	DD	imagerel ??_R3ObservationFeatureLayer@SC2APIProtocol@@8
rdata$r	ENDS
;	COMDAT ??_R2ObservationFeatureLayer@SC2APIProtocol@@8
rdata$r	SEGMENT
??_R2ObservationFeatureLayer@SC2APIProtocol@@8 DD imagerel ??_R1A@?0A@EA@ObservationFeatureLayer@SC2APIProtocol@@8 ; SC2APIProtocol::ObservationFeatureLayer::`RTTI Base Class Array'
	DD	imagerel ??_R1A@?0A@EA@Message@protobuf@google@@8
	DD	imagerel ??_R1A@?0A@EA@MessageLite@protobuf@google@@8
	ORG $+3
rdata$r	ENDS
;	COMDAT ??_R3ObservationFeatureLayer@SC2APIProtocol@@8
rdata$r	SEGMENT
??_R3ObservationFeatureLayer@SC2APIProtocol@@8 DD 00H	; SC2APIProtocol::ObservationFeatureLayer::`RTTI Class Hierarchy Descriptor'
	DD	00H
	DD	03H
	DD	imagerel ??_R2ObservationFeatureLayer@SC2APIProtocol@@8
rdata$r	ENDS
;	COMDAT ??_R4ObservationFeatureLayer@SC2APIProtocol@@6B@
rdata$r	SEGMENT
??_R4ObservationFeatureLayer@SC2APIProtocol@@6B@ DD 01H	; SC2APIProtocol::ObservationFeatureLayer::`RTTI Complete Object Locator'
	DD	00H
	DD	00H
	DD	imagerel ??_R0?AVObservationFeatureLayer@SC2APIProtocol@@@8
	DD	imagerel ??_R3ObservationFeatureLayer@SC2APIProtocol@@8
	DD	imagerel ??_R4ObservationFeatureLayer@SC2APIProtocol@@6B@
rdata$r	ENDS
;	COMDAT ??_R1A@?0A@EA@FeatureLayersMinimap@SC2APIProtocol@@8
rdata$r	SEGMENT
??_R1A@?0A@EA@FeatureLayersMinimap@SC2APIProtocol@@8 DD imagerel ??_R0?AVFeatureLayersMinimap@SC2APIProtocol@@@8 ; SC2APIProtocol::FeatureLayersMinimap::`RTTI Base Class Descriptor at (0,-1,0,64)'
	DD	02H
	DD	00H
	DD	0ffffffffH
	DD	00H
	DD	040H
	DD	imagerel ??_R3FeatureLayersMinimap@SC2APIProtocol@@8
rdata$r	ENDS
;	COMDAT ??_R2FeatureLayersMinimap@SC2APIProtocol@@8
rdata$r	SEGMENT
??_R2FeatureLayersMinimap@SC2APIProtocol@@8 DD imagerel ??_R1A@?0A@EA@FeatureLayersMinimap@SC2APIProtocol@@8 ; SC2APIProtocol::FeatureLayersMinimap::`RTTI Base Class Array'
	DD	imagerel ??_R1A@?0A@EA@Message@protobuf@google@@8
	DD	imagerel ??_R1A@?0A@EA@MessageLite@protobuf@google@@8
	ORG $+3
rdata$r	ENDS
;	COMDAT ??_R3FeatureLayersMinimap@SC2APIProtocol@@8
rdata$r	SEGMENT
??_R3FeatureLayersMinimap@SC2APIProtocol@@8 DD 00H	; SC2APIProtocol::FeatureLayersMinimap::`RTTI Class Hierarchy Descriptor'
	DD	00H
	DD	03H
	DD	imagerel ??_R2FeatureLayersMinimap@SC2APIProtocol@@8
rdata$r	ENDS
;	COMDAT ??_R4FeatureLayersMinimap@SC2APIProtocol@@6B@
rdata$r	SEGMENT
??_R4FeatureLayersMinimap@SC2APIProtocol@@6B@ DD 01H	; SC2APIProtocol::FeatureLayersMinimap::`RTTI Complete Object Locator'
	DD	00H
	DD	00H
	DD	imagerel ??_R0?AVFeatureLayersMinimap@SC2APIProtocol@@@8
	DD	imagerel ??_R3FeatureLayersMinimap@SC2APIProtocol@@8
	DD	imagerel ??_R4FeatureLayersMinimap@SC2APIProtocol@@6B@
rdata$r	ENDS
;	COMDAT ??_R1A@?0A@EA@FeatureLayers@SC2APIProtocol@@8
rdata$r	SEGMENT
??_R1A@?0A@EA@FeatureLayers@SC2APIProtocol@@8 DD imagerel ??_R0?AVFeatureLayers@SC2APIProtocol@@@8 ; SC2APIProtocol::FeatureLayers::`RTTI Base Class Descriptor at (0,-1,0,64)'
	DD	02H
	DD	00H
	DD	0ffffffffH
	DD	00H
	DD	040H
	DD	imagerel ??_R3FeatureLayers@SC2APIProtocol@@8
rdata$r	ENDS
;	COMDAT ??_R2FeatureLayers@SC2APIProtocol@@8
rdata$r	SEGMENT
??_R2FeatureLayers@SC2APIProtocol@@8 DD imagerel ??_R1A@?0A@EA@FeatureLayers@SC2APIProtocol@@8 ; SC2APIProtocol::FeatureLayers::`RTTI Base Class Array'
	DD	imagerel ??_R1A@?0A@EA@Message@protobuf@google@@8
	DD	imagerel ??_R1A@?0A@EA@MessageLite@protobuf@google@@8
	ORG $+3
rdata$r	ENDS
;	COMDAT ??_R3FeatureLayers@SC2APIProtocol@@8
rdata$r	SEGMENT
??_R3FeatureLayers@SC2APIProtocol@@8 DD 00H		; SC2APIProtocol::FeatureLayers::`RTTI Class Hierarchy Descriptor'
	DD	00H
	DD	03H
	DD	imagerel ??_R2FeatureLayers@SC2APIProtocol@@8
rdata$r	ENDS
;	COMDAT ??_R4FeatureLayers@SC2APIProtocol@@6B@
rdata$r	SEGMENT
??_R4FeatureLayers@SC2APIProtocol@@6B@ DD 01H		; SC2APIProtocol::FeatureLayers::`RTTI Complete Object Locator'
	DD	00H
	DD	00H
	DD	imagerel ??_R0?AVFeatureLayers@SC2APIProtocol@@@8
	DD	imagerel ??_R3FeatureLayers@SC2APIProtocol@@8
	DD	imagerel ??_R4FeatureLayers@SC2APIProtocol@@6B@
rdata$r	ENDS
;	COMDAT ??_R1A@?0A@EA@ActionSpatialUnitSelectionPoint@SC2APIProtocol@@8
rdata$r	SEGMENT
??_R1A@?0A@EA@ActionSpatialUnitSelectionPoint@SC2APIProtocol@@8 DD imagerel ??_R0?AVActionSpatialUnitSelectionPoint@SC2APIProtocol@@@8 ; SC2APIProtocol::ActionSpatialUnitSelectionPoint::`RTTI Base Class Descriptor at (0,-1,0,64)'
	DD	02H
	DD	00H
	DD	0ffffffffH
	DD	00H
	DD	040H
	DD	imagerel ??_R3ActionSpatialUnitSelectionPoint@SC2APIProtocol@@8
rdata$r	ENDS
;	COMDAT ??_R2ActionSpatialUnitSelectionPoint@SC2APIProtocol@@8
rdata$r	SEGMENT
??_R2ActionSpatialUnitSelectionPoint@SC2APIProtocol@@8 DD imagerel ??_R1A@?0A@EA@ActionSpatialUnitSelectionPoint@SC2APIProtocol@@8 ; SC2APIProtocol::ActionSpatialUnitSelectionPoint::`RTTI Base Class Array'
	DD	imagerel ??_R1A@?0A@EA@Message@protobuf@google@@8
	DD	imagerel ??_R1A@?0A@EA@MessageLite@protobuf@google@@8
	ORG $+3
rdata$r	ENDS
;	COMDAT ??_R3ActionSpatialUnitSelectionPoint@SC2APIProtocol@@8
rdata$r	SEGMENT
??_R3ActionSpatialUnitSelectionPoint@SC2APIProtocol@@8 DD 00H ; SC2APIProtocol::ActionSpatialUnitSelectionPoint::`RTTI Class Hierarchy Descriptor'
	DD	00H
	DD	03H
	DD	imagerel ??_R2ActionSpatialUnitSelectionPoint@SC2APIProtocol@@8
rdata$r	ENDS
;	COMDAT ??_R4ActionSpatialUnitSelectionPoint@SC2APIProtocol@@6B@
rdata$r	SEGMENT
??_R4ActionSpatialUnitSelectionPoint@SC2APIProtocol@@6B@ DD 01H ; SC2APIProtocol::ActionSpatialUnitSelectionPoint::`RTTI Complete Object Locator'
	DD	00H
	DD	00H
	DD	imagerel ??_R0?AVActionSpatialUnitSelectionPoint@SC2APIProtocol@@@8
	DD	imagerel ??_R3ActionSpatialUnitSelectionPoint@SC2APIProtocol@@8
	DD	imagerel ??_R4ActionSpatialUnitSelectionPoint@SC2APIProtocol@@6B@
rdata$r	ENDS
;	COMDAT ??_R1A@?0A@EA@ActionSpatialUnitCommand@SC2APIProtocol@@8
rdata$r	SEGMENT
??_R1A@?0A@EA@ActionSpatialUnitCommand@SC2APIProtocol@@8 DD imagerel ??_R0?AVActionSpatialUnitCommand@SC2APIProtocol@@@8 ; SC2APIProtocol::ActionSpatialUnitCommand::`RTTI Base Class Descriptor at (0,-1,0,64)'
	DD	02H
	DD	00H
	DD	0ffffffffH
	DD	00H
	DD	040H
	DD	imagerel ??_R3ActionSpatialUnitCommand@SC2APIProtocol@@8
rdata$r	ENDS
;	COMDAT ??_R2ActionSpatialUnitCommand@SC2APIProtocol@@8
rdata$r	SEGMENT
??_R2ActionSpatialUnitCommand@SC2APIProtocol@@8 DD imagerel ??_R1A@?0A@EA@ActionSpatialUnitCommand@SC2APIProtocol@@8 ; SC2APIProtocol::ActionSpatialUnitCommand::`RTTI Base Class Array'
	DD	imagerel ??_R1A@?0A@EA@Message@protobuf@google@@8
	DD	imagerel ??_R1A@?0A@EA@MessageLite@protobuf@google@@8
	ORG $+3
rdata$r	ENDS
;	COMDAT ??_R3ActionSpatialUnitCommand@SC2APIProtocol@@8
rdata$r	SEGMENT
??_R3ActionSpatialUnitCommand@SC2APIProtocol@@8 DD 00H	; SC2APIProtocol::ActionSpatialUnitCommand::`RTTI Class Hierarchy Descriptor'
	DD	00H
	DD	03H
	DD	imagerel ??_R2ActionSpatialUnitCommand@SC2APIProtocol@@8
rdata$r	ENDS
;	COMDAT ??_R4ActionSpatialUnitCommand@SC2APIProtocol@@6B@
rdata$r	SEGMENT
??_R4ActionSpatialUnitCommand@SC2APIProtocol@@6B@ DD 01H ; SC2APIProtocol::ActionSpatialUnitCommand::`RTTI Complete Object Locator'
	DD	00H
	DD	00H
	DD	imagerel ??_R0?AVActionSpatialUnitCommand@SC2APIProtocol@@@8
	DD	imagerel ??_R3ActionSpatialUnitCommand@SC2APIProtocol@@8
	DD	imagerel ??_R4ActionSpatialUnitCommand@SC2APIProtocol@@6B@
rdata$r	ENDS
;	COMDAT ??_R1A@?0A@EA@ActionSpatialCameraMove@SC2APIProtocol@@8
rdata$r	SEGMENT
??_R1A@?0A@EA@ActionSpatialCameraMove@SC2APIProtocol@@8 DD imagerel ??_R0?AVActionSpatialCameraMove@SC2APIProtocol@@@8 ; SC2APIProtocol::ActionSpatialCameraMove::`RTTI Base Class Descriptor at (0,-1,0,64)'
	DD	02H
	DD	00H
	DD	0ffffffffH
	DD	00H
	DD	040H
	DD	imagerel ??_R3ActionSpatialCameraMove@SC2APIProtocol@@8
rdata$r	ENDS
;	COMDAT ??_R2ActionSpatialCameraMove@SC2APIProtocol@@8
rdata$r	SEGMENT
??_R2ActionSpatialCameraMove@SC2APIProtocol@@8 DD imagerel ??_R1A@?0A@EA@ActionSpatialCameraMove@SC2APIProtocol@@8 ; SC2APIProtocol::ActionSpatialCameraMove::`RTTI Base Class Array'
	DD	imagerel ??_R1A@?0A@EA@Message@protobuf@google@@8
	DD	imagerel ??_R1A@?0A@EA@MessageLite@protobuf@google@@8
	ORG $+3
rdata$r	ENDS
;	COMDAT ??_R3ActionSpatialCameraMove@SC2APIProtocol@@8
rdata$r	SEGMENT
??_R3ActionSpatialCameraMove@SC2APIProtocol@@8 DD 00H	; SC2APIProtocol::ActionSpatialCameraMove::`RTTI Class Hierarchy Descriptor'
	DD	00H
	DD	03H
	DD	imagerel ??_R2ActionSpatialCameraMove@SC2APIProtocol@@8
rdata$r	ENDS
;	COMDAT ??_R4ActionSpatialCameraMove@SC2APIProtocol@@6B@
rdata$r	SEGMENT
??_R4ActionSpatialCameraMove@SC2APIProtocol@@6B@ DD 01H	; SC2APIProtocol::ActionSpatialCameraMove::`RTTI Complete Object Locator'
	DD	00H
	DD	00H
	DD	imagerel ??_R0?AVActionSpatialCameraMove@SC2APIProtocol@@@8
	DD	imagerel ??_R3ActionSpatialCameraMove@SC2APIProtocol@@8
	DD	imagerel ??_R4ActionSpatialCameraMove@SC2APIProtocol@@6B@
rdata$r	ENDS
;	COMDAT ??_R1A@?0A@EA@ActionSpatial@SC2APIProtocol@@8
rdata$r	SEGMENT
??_R1A@?0A@EA@ActionSpatial@SC2APIProtocol@@8 DD imagerel ??_R0?AVActionSpatial@SC2APIProtocol@@@8 ; SC2APIProtocol::ActionSpatial::`RTTI Base Class Descriptor at (0,-1,0,64)'
	DD	02H
	DD	00H
	DD	0ffffffffH
	DD	00H
	DD	040H
	DD	imagerel ??_R3ActionSpatial@SC2APIProtocol@@8
rdata$r	ENDS
;	COMDAT ??_R2ActionSpatial@SC2APIProtocol@@8
rdata$r	SEGMENT
??_R2ActionSpatial@SC2APIProtocol@@8 DD imagerel ??_R1A@?0A@EA@ActionSpatial@SC2APIProtocol@@8 ; SC2APIProtocol::ActionSpatial::`RTTI Base Class Array'
	DD	imagerel ??_R1A@?0A@EA@Message@protobuf@google@@8
	DD	imagerel ??_R1A@?0A@EA@MessageLite@protobuf@google@@8
	ORG $+3
rdata$r	ENDS
;	COMDAT ??_R3ActionSpatial@SC2APIProtocol@@8
rdata$r	SEGMENT
??_R3ActionSpatial@SC2APIProtocol@@8 DD 00H		; SC2APIProtocol::ActionSpatial::`RTTI Class Hierarchy Descriptor'
	DD	00H
	DD	03H
	DD	imagerel ??_R2ActionSpatial@SC2APIProtocol@@8
rdata$r	ENDS
;	COMDAT ??_R4ActionSpatial@SC2APIProtocol@@6B@
rdata$r	SEGMENT
??_R4ActionSpatial@SC2APIProtocol@@6B@ DD 01H		; SC2APIProtocol::ActionSpatial::`RTTI Complete Object Locator'
	DD	00H
	DD	00H
	DD	imagerel ??_R0?AVActionSpatial@SC2APIProtocol@@@8
	DD	imagerel ??_R3ActionSpatial@SC2APIProtocol@@8
	DD	imagerel ??_R4ActionSpatial@SC2APIProtocol@@6B@
rdata$r	ENDS
;	COMDAT ??_R2MessageLite@protobuf@google@@8
rdata$r	SEGMENT
??_R2MessageLite@protobuf@google@@8 DD imagerel ??_R1A@?0A@EA@MessageLite@protobuf@google@@8 ; google::protobuf::MessageLite::`RTTI Base Class Array'
	ORG $+3
rdata$r	ENDS
;	COMDAT ??_R3MessageLite@protobuf@google@@8
rdata$r	SEGMENT
??_R3MessageLite@protobuf@google@@8 DD 00H		; google::protobuf::MessageLite::`RTTI Class Hierarchy Descriptor'
	DD	00H
	DD	01H
	DD	imagerel ??_R2MessageLite@protobuf@google@@8
rdata$r	ENDS
;	COMDAT ??_R0?AVMessageLite@protobuf@google@@@8
data$rs	SEGMENT
??_R0?AVMessageLite@protobuf@google@@@8 DQ FLAT:??_7type_info@@6B@ ; google::protobuf::MessageLite `RTTI Type Descriptor'
	DQ	0000000000000000H
	DB	'.?AVMessageLite@protobuf@google@@', 00H
data$rs	ENDS
;	COMDAT ??_R1A@?0A@EA@MessageLite@protobuf@google@@8
rdata$r	SEGMENT
??_R1A@?0A@EA@MessageLite@protobuf@google@@8 DD imagerel ??_R0?AVMessageLite@protobuf@google@@@8 ; google::protobuf::MessageLite::`RTTI Base Class Descriptor at (0,-1,0,64)'
	DD	00H
	DD	00H
	DD	0ffffffffH
	DD	00H
	DD	040H
	DD	imagerel ??_R3MessageLite@protobuf@google@@8
rdata$r	ENDS
;	COMDAT ??_R1A@?0A@EA@Message@protobuf@google@@8
rdata$r	SEGMENT
??_R1A@?0A@EA@Message@protobuf@google@@8 DD imagerel ??_R0?AVMessage@protobuf@google@@@8 ; google::protobuf::Message::`RTTI Base Class Descriptor at (0,-1,0,64)'
	DD	01H
	DD	00H
	DD	0ffffffffH
	DD	00H
	DD	040H
	DD	imagerel ??_R3Message@protobuf@google@@8
rdata$r	ENDS
;	COMDAT ??_R2Message@protobuf@google@@8
rdata$r	SEGMENT
??_R2Message@protobuf@google@@8 DD imagerel ??_R1A@?0A@EA@Message@protobuf@google@@8 ; google::protobuf::Message::`RTTI Base Class Array'
	DD	imagerel ??_R1A@?0A@EA@MessageLite@protobuf@google@@8
	ORG $+3
rdata$r	ENDS
;	COMDAT ??_R3Message@protobuf@google@@8
rdata$r	SEGMENT
??_R3Message@protobuf@google@@8 DD 00H			; google::protobuf::Message::`RTTI Class Hierarchy Descriptor'
	DD	00H
	DD	02H
	DD	imagerel ??_R2Message@protobuf@google@@8
rdata$r	ENDS
;	COMDAT ??_R0?AVMessage@protobuf@google@@@8
data$rs	SEGMENT
??_R0?AVMessage@protobuf@google@@@8 DQ FLAT:??_7type_info@@6B@ ; google::protobuf::Message `RTTI Type Descriptor'
	DQ	0000000000000000H
	DB	'.?AVMessage@protobuf@google@@', 00H
data$rs	ENDS
CONST	SEGMENT
?schemas@@3QBUMigrationSchema@internal@protobuf@google@@B DD 00H ; schemas
	DD	08H
	DD	0ffffffffH
	DD	028H
	DD	0aH
	DD	02bH
	DD	0ffffffffH
	DD	0f0H
	DD	046H
	DD	057H
	DD	0ffffffffH
	DD	070H
	DD	062H
	DD	06aH
	DD	0ffffffffH
	DD	028H
	DD	06cH
	DD	0ffffffffH
	DD	0ffffffffH
	DD	020H
	DD	077H
	DD	082H
	DD	0ffffffffH
	DD	030H
	DD	086H
	DD	08dH
	DD	0ffffffffH
	DD	020H
	DD	08eH
	DD	096H
	DD	0ffffffffH
	DD	028H
	DD	098H
	DD	0a0H
	DD	0ffffffffH
	DD	038H
?file_default_instances@@3QBQEBVMessage@protobuf@google@@B DQ FLAT:?_ObservationFeatureLayer_default_instance_@SC2APIProtocol@@3UObservationFeatureLayerDefaultTypeInternal@1@A ; file_default_instances
	DQ	FLAT:?_FeatureLayers_default_instance_@SC2APIProtocol@@3UFeatureLayersDefaultTypeInternal@1@A
	DQ	FLAT:?_FeatureLayersMinimap_default_instance_@SC2APIProtocol@@3UFeatureLayersMinimapDefaultTypeInternal@1@A
	DQ	FLAT:?_ObservationRender_default_instance_@SC2APIProtocol@@3UObservationRenderDefaultTypeInternal@1@A
	DQ	FLAT:?_ActionSpatial_default_instance_@SC2APIProtocol@@3UActionSpatialDefaultTypeInternal@1@A
	DQ	FLAT:?_ActionSpatialUnitCommand_default_instance_@SC2APIProtocol@@3UActionSpatialUnitCommandDefaultTypeInternal@1@A
	DQ	FLAT:?_ActionSpatialCameraMove_default_instance_@SC2APIProtocol@@3UActionSpatialCameraMoveDefaultTypeInternal@1@A
	DQ	FLAT:?_ActionSpatialUnitSelectionPoint_default_instance_@SC2APIProtocol@@3UActionSpatialUnitSelectionPointDefaultTypeInternal@1@A
	DQ	FLAT:?_ActionSpatialUnitSelectionRect_default_instance_@SC2APIProtocol@@3UActionSpatialUnitSelectionRectDefaultTypeInternal@1@A
?descriptor_table_s2clientprotocol_2fspatial_2eproto_deps@@3QBQEBUDescriptorTable@internal@protobuf@google@@B DQ FLAT:?descriptor_table_s2clientprotocol_2fcommon_2eproto@@3UDescriptorTable@internal@protobuf@google@@B ; descriptor_table_s2clientprotocol_2fspatial_2eproto_deps
?descriptor_table_protodef_s2clientprotocol_2fspatial_2eproto@@3QBDB DB 0aH
	DB	01eH, 's2clientprotocol/spatial.proto', 012H, 0eH, 'SC2APIProt'
	DB	'ocol', 01aH, 01dH, 's2clientprotocol/common.proto"', 088H, 01H
	DB	0aH, 017H, 'ObservationFeatureLayer', 012H, '.', 0aH, 07H, 're'
	DB	'nders', 018H, 01H, ' ', 01H, '(', 0bH, '2', 01dH, '.SC2APIPro'
	DB	'tocol.FeatureLayers', 012H, '=', 0aH, 0fH, 'minimap_renders', 018H
	DB	02H, ' ', 01H, '(', 0bH, '2$.SC2APIProtocol.FeatureLayersMinim'
	DB	'ap"', 09cH, 0aH, 0aH, 0dH, 'FeatureLayers', 012H, '-', 0aH, 0aH
	DB	'height_map', 018H, 01H, ' ', 01H, '(', 0bH, '2', 019H, '.SC2A'
	DB	'PIProtocol.ImageData', 012H, '1', 0aH, 0eH, 'visibility_map', 018H
	DB	02H, ' ', 01H, '(', 0bH, '2', 019H, '.SC2APIProtocol.ImageData'
	DB	012H, '(', 0aH, 05H, 'creep', 018H, 03H, ' ', 01H, '(', 0bH, '2'
	DB	019H, '.SC2APIProtocol.ImageData', 012H, '(', 0aH, 05H, 'power'
	DB	018H, 04H, ' ', 01H, '(', 0bH, '2', 019H, '.SC2APIProtocol.Ima'
	DB	'geData', 012H, ',', 0aH, 09H, 'player_id', 018H, 05H, ' ', 01H
	DB	'(', 0bH, '2', 019H, '.SC2APIProtocol.ImageData', 012H, ',', 0aH
	DB	09H, 'unit_type', 018H, 06H, ' ', 01H, '(', 0bH, '2', 019H, '.'
	DB	'SC2APIProtocol.ImageData', 012H, '+', 0aH, 08H, 'selected', 018H
	DB	07H, ' ', 01H, '(', 0bH, '2', 019H, '.SC2APIProtocol.ImageData'
	DB	012H, '2', 0aH, 0fH, 'unit_hit_points', 018H, 08H, ' ', 01H, '('
	DB	0bH, '2', 019H, '.SC2APIProtocol.ImageData', 012H, '8', 0aH, 015H
	DB	'unit_hit_points_ratio', 018H, 011H, ' ', 01H, '(', 0bH, '2', 019H
	DB	'.SC2APIProtocol.ImageData', 012H, '.', 0aH, 0bH, 'unit_energy'
	DB	018H, 09H, ' ', 01H, '(', 0bH, '2', 019H, '.SC2APIProtocol.Ima'
	DB	'geData', 012H, '4', 0aH, 011H, 'unit_energy_ratio', 018H, 012H
	DB	' ', 01H, '(', 0bH, '2', 019H, '.SC2APIProtocol.ImageData', 012H
	DB	'/', 0aH, 0cH, 'unit_shields', 018H, 0aH, ' ', 01H, '(', 0bH, '2'
	DB	019H, '.SC2APIProtocol.ImageData', 012H, '5', 0aH, 012H, 'unit'
	DB	'_shields_ratio', 018H, 013H, ' ', 01H, '(', 0bH, '2', 019H, '.'
	DB	'SC2APIProtocol.ImageData', 012H, '2', 0aH, 0fH, 'player_relat'
	DB	'ive', 018H, 0bH, ' ', 01H, '(', 0bH, '2', 019H, '.SC2APIProto'
	DB	'col.ImageData', 012H, '2', 0aH, 0fH, 'unit_density_aa', 018H, 0eH
	DB	' ', 01H, '(', 0bH, '2', 019H, '.SC2APIProtocol.ImageData', 012H
	DB	'/', 0aH, 0cH, 'unit_density', 018H, 0fH, ' ', 01H, '(', 0bH, '2'
	DB	019H, '.SC2APIProtocol.ImageData', 012H, '*', 0aH, 07H, 'effec'
	DB	'ts', 018H, 014H, ' ', 01H, '(', 0bH, '2', 019H, '.SC2APIProto'
	DB	'col.ImageData', 012H, '1', 0aH, 0eH, 'hallucinations', 018H, 015H
	DB	' ', 01H, '(', 0bH, '2', 019H, '.SC2APIProtocol.ImageData', 012H
	DB	'*', 0aH, 07H, 'cloaked', 018H, 016H, ' ', 01H, '(', 0bH, '2', 019H
	DB	'.SC2APIProtocol.ImageData', 012H, '''', 0aH, 04H, 'blip', 018H
	DB	017H, ' ', 01H, '(', 0bH, '2', 019H, '.SC2APIProtocol.ImageDat'
	DB	'a', 012H, '(', 0aH, 05H, 'buffs', 018H, 018H, ' ', 01H, '(', 0bH
	DB	'2', 019H, '.SC2APIProtocol.ImageData', 012H, '0', 0aH, 0dH, 'b'
	DB	'uff_duration', 018H, 01aH, ' ', 01H, '(', 0bH, '2', 019H, '.S'
	DB	'C2APIProtocol.ImageData', 012H, ')', 0aH, 06H, 'active', 018H
	DB	019H, ' ', 01H, '(', 0bH, '2', 019H, '.SC2APIProtocol.ImageDat'
	DB	'a', 012H, '1', 0aH, 0eH, 'build_progress', 018H, 01bH, ' ', 01H
	DB	'(', 0bH, '2', 019H, '.SC2APIProtocol.ImageData', 012H, ',', 0aH
	DB	09H, 'buildable', 018H, 01cH, ' ', 01H, '(', 0bH, '2', 019H, '.'
	DB	'SC2APIProtocol.ImageData', 012H, '+', 0aH, 08H, 'pathable', 018H
	DB	01dH, ' ', 01H, '(', 0bH, '2', 019H, '.SC2APIProtocol.ImageDat'
	DB	'a', 012H, '.', 0aH, 0bH, 'placeholder', 018H, 01eH, ' ', 01H, '('
	DB	0bH, '2', 019H, '.SC2APIProtocol.ImageData"', 090H, 04H, 0aH, 014H
	DB	'FeatureLayersMinimap', 012H, '-', 0aH, 0aH, 'height_map', 018H
	DB	01H, ' ', 01H, '(', 0bH, '2', 019H, '.SC2APIProtocol.ImageData'
	DB	012H, '1', 0aH, 0eH, 'visibility_map', 018H, 02H, ' ', 01H, '('
	DB	0bH, '2', 019H, '.SC2APIProtocol.ImageData', 012H, '(', 0aH, 05H
	DB	'creep', 018H, 03H, ' ', 01H, '(', 0bH, '2', 019H, '.SC2APIPro'
	DB	'tocol.ImageData', 012H, ')', 0aH, 06H, 'camera', 018H, 04H, ' '
	DB	01H, '(', 0bH, '2', 019H, '.SC2APIProtocol.ImageData', 012H, ','
	DB	0aH, 09H, 'player_id', 018H, 05H, ' ', 01H, '(', 0bH, '2', 019H
	DB	'.SC2APIProtocol.ImageData', 012H, '2', 0aH, 0fH, 'player_rela'
	DB	'tive', 018H, 06H, ' ', 01H, '(', 0bH, '2', 019H, '.SC2APIProt'
	DB	'ocol.ImageData', 012H, '+', 0aH, 08H, 'selected', 018H, 07H, ' '
	DB	01H, '(', 0bH, '2', 019H, '.SC2APIProtocol.ImageData', 012H, ')'
	DB	0aH, 06H, 'alerts', 018H, 09H, ' ', 01H, '(', 0bH, '2', 019H, '.'
	DB	'SC2APIProtocol.ImageData', 012H, ',', 0aH, 09H, 'buildable', 018H
	DB	0aH, ' ', 01H, '(', 0bH, '2', 019H, '.SC2APIProtocol.ImageData'
	DB	012H, '+', 0aH, 08H, 'pathable', 018H, 0bH, ' ', 01H, '(', 0bH
	DB	'2', 019H, '.SC2APIProtocol.ImageData', 012H, ',', 0aH, 09H, 'u'
	DB	'nit_type', 018H, 08H, ' ', 01H, '(', 0bH, '2', 019H, '.SC2API'
	DB	'Protocol.ImageData"g', 0aH, 011H, 'ObservationRender', 012H, '&'
	DB	0aH, 03H, 'map', 018H, 01H, ' ', 01H, '(', 0bH, '2', 019H, '.S'
	DB	'C2APIProtocol.ImageData', 012H, '*', 0aH, 07H, 'minimap', 018H
	DB	02H, ' ', 01H, '(', 0bH, '2', 019H, '.SC2APIProtocol.ImageData'
	DB	'"', 0bbH, 02H, 0aH, 0dH, 'ActionSpatial', 012H, '@', 0aH, 0cH
	DB	'unit_command', 018H, 01H, ' ', 01H, '(', 0bH, '2(.SC2APIProto'
	DB	'col.ActionSpatialUnitCommandH', 00H, 012H, '>', 0aH, 0bH, 'ca'
	DB	'mera_move', 018H, 02H, ' ', 01H, '(', 0bH, '2''.SC2APIProtoco'
	DB	'l.ActionSpatialCameraMoveH', 00H, 012H, 'O', 0aH, 014H, 'unit'
	DB	'_selection_point', 018H, 03H, ' ', 01H, '(', 0bH, '2/.SC2APIP'
	DB	'rotocol.ActionSpatialUnitSelectionPointH', 00H, 012H, 'M', 0aH
	DB	013H, 'unit_selection_rect', 018H, 04H, ' ', 01H, '(', 0bH, '2'
	DB	'..SC2APIProtocol.ActionSpatialUnitSelectionRectH', 00H, 'B', 08H
	DB	0aH, 06H, 'action"', 0beH, 01H, 0aH, 018H, 'ActionSpatialUnitC'
	DB	'ommand', 012H, 012H, 0aH, 0aH, 'ability_id', 018H, 01H, ' ', 01H
	DB	'(', 05H, 012H, '5', 0aH, 013H, 'target_screen_coord', 018H, 02H
	DB	' ', 01H, '(', 0bH, '2', 016H, '.SC2APIProtocol.PointIH', 00H, 012H
	DB	'6', 0aH, 014H, 'target_minimap_coord', 018H, 03H, ' ', 01H, '('
	DB	0bH, '2', 016H, '.SC2APIProtocol.PointIH', 00H, 012H, 015H, 0aH
	DB	0dH, 'queue_command', 018H, 04H, ' ', 01H, '(', 08H, 'B', 08H, 0aH
	DB	06H, 'target"I', 0aH, 017H, 'ActionSpatialCameraMove', 012H, '.'
	DB	0aH, 0eH, 'center_minimap', 018H, 01H, ' ', 01H, '(', 0bH, '2', 016H
	DB	'.SC2APIProtocol.PointI"', 0daH, 01H, 0aH, 01fH, 'ActionSpatia'
	DB	'lUnitSelectionPoint', 012H, '6', 0aH, 016H, 'selection_screen'
	DB	'_coord', 018H, 01H, ' ', 01H, '(', 0bH, '2', 016H, '.SC2APIPr'
	DB	'otocol.PointI', 012H, 'B', 0aH, 04H, 'type', 018H, 02H, ' ', 01H
	DB	'(', 0eH, '24.SC2APIProtocol.ActionSpatialUnitSelectionPoint.T'
	DB	'ype";', 0aH, 04H, 'Type', 012H, 0aH, 0aH, 06H, 'Select', 010H
	DB	01H, 012H, 0aH, 0aH, 06H, 'Toggle', 010H, 02H, 012H, 0bH, 0aH, 07H
	DB	'AllType', 010H, 03H, 012H, 0eH, 0aH, 0aH, 'AddAllType', 010H, 04H
	DB	'"s', 0aH, 01eH, 'ActionSpatialUnitSelectionRect', 012H, ':', 0aH
	DB	016H, 'selection_screen_coord', 018H, 01H, ' ', 03H, '(', 0bH, '2'
	DB	01aH, '.SC2APIProtocol.RectangleI', 012H, 015H, 0aH, 0dH, 'sel'
	DB	'ection_add', 018H, 02H, ' ', 01H, '(', 08H, 00H ; descriptor_table_protodef_s2clientprotocol_2fspatial_2eproto
	ORG $+6
$SG131172 DB	's2clientprotocol/spatial.proto', 00H
	ORG $+1
$SG131302 DB	'vendor\s2clientprotocol\include\s2clientprotocol\spatial'
	DB	'.pb.cc', 00H
	ORG $+1
$SG131303 DB	'CHECK failed: _impl_.renders_ != nullptr: ', 00H
	ORG $+1
$SG147913 DB	'%s', 00H
	ORG $+1
$SG131305 DB	'vendor\s2clientprotocol\include\s2clientprotocol\spatial'
	DB	'.pb.cc', 00H
	ORG $+1
$SG131306 DB	'CHECK failed: _impl_.minimap_renders_ != nullptr: ', 00H
	ORG $+1
$SG147916 DB	00H, 00H
	ORG $+2
$SG131389 DB	'vendor\s2clientprotocol\include\s2clientprotocol\spatial'
	DB	'.pb.cc', 00H
	ORG $+1
$SG131390 DB	'CHECK failed: (&from) != (_this): ', 00H
	ORG $+5
$SG147912 DB	'invalid argument', 00H
	ORG $+7
$SG147914 DB	'D:\Program Files\Microsoft Visual Studio\2022\Community\'
	DB	'VC\Tools\MSVC\14.34.31933\include\xmemory', 00H
	ORG $+14
$SG147915 DB	'D', 00H, ':', 00H, '\', 00H, 'P', 00H, 'r', 00H, 'o', 00H
	DB	'g', 00H, 'r', 00H, 'a', 00H, 'm', 00H, ' ', 00H, 'F', 00H, 'i'
	DB	00H, 'l', 00H, 'e', 00H, 's', 00H, '\', 00H, 'M', 00H, 'i', 00H
	DB	'c', 00H, 'r', 00H, 'o', 00H, 's', 00H, 'o', 00H, 'f', 00H, 't'
	DB	00H, ' ', 00H, 'V', 00H, 'i', 00H, 's', 00H, 'u', 00H, 'a', 00H
	DB	'l', 00H, ' ', 00H, 'S', 00H, 't', 00H, 'u', 00H, 'd', 00H, 'i'
	DB	00H, 'o', 00H, '\', 00H, '2', 00H, '0', 00H, '2', 00H, '2', 00H
	DB	'\', 00H, 'C', 00H, 'o', 00H, 'm', 00H, 'm', 00H, 'u', 00H, 'n'
	DB	00H, 'i', 00H, 't', 00H, 'y', 00H, '\', 00H, 'V', 00H, 'C', 00H
	DB	'\', 00H, 'T', 00H, 'o', 00H, 'o', 00H, 'l', 00H, 's', 00H, '\'
	DB	00H, 'M', 00H, 'S', 00H, 'V', 00H, 'C', 00H, '\', 00H, '1', 00H
	DB	'4', 00H, '.', 00H, '3', 00H, '4', 00H, '.', 00H, '3', 00H, '1'
	DB	00H, '9', 00H, '3', 00H, '3', 00H, '\', 00H, 'i', 00H, 'n', 00H
	DB	'c', 00H, 'l', 00H, 'u', 00H, 'd', 00H, 'e', 00H, '\', 00H, 'x'
	DB	00H, 'm', 00H, 'e', 00H, 'm', 00H, 'o', 00H, 'r', 00H, 'y', 00H
	DB	00H, 00H
	ORG $+4
$SG147917 DB	'"', 00H, 'i', 00H, 'n', 00H, 'v', 00H, 'a', 00H, 'l', 00H
	DB	'i', 00H, 'd', 00H, ' ', 00H, 'a', 00H, 'r', 00H, 'g', 00H, 'u'
	DB	00H, 'm', 00H, 'e', 00H, 'n', 00H, 't', 00H, '"', 00H, 00H, 00H
	ORG $+2
$SG132089 DB	'vendor\s2clientprotocol\include\s2clientprotocol\spatial'
	DB	'.pb.cc', 00H
	ORG $+1
$SG132090 DB	'CHECK failed: _impl_.height_map_ != nullptr: ', 00H
	ORG $+2
$SG132092 DB	'vendor\s2clientprotocol\include\s2clientprotocol\spatial'
	DB	'.pb.cc', 00H
	ORG $+1
$SG132093 DB	'CHECK failed: _impl_.visibility_map_ != nullptr: ', 00H
	ORG $+6
$SG132095 DB	'vendor\s2clientprotocol\include\s2clientprotocol\spatial'
	DB	'.pb.cc', 00H
	ORG $+1
$SG132096 DB	'CHECK failed: _impl_.creep_ != nullptr: ', 00H
	ORG $+7
$SG132098 DB	'vendor\s2clientprotocol\include\s2clientprotocol\spatial'
	DB	'.pb.cc', 00H
	ORG $+1
$SG132099 DB	'CHECK failed: _impl_.power_ != nullptr: ', 00H
	ORG $+7
$SG132101 DB	'vendor\s2clientprotocol\include\s2clientprotocol\spatial'
	DB	'.pb.cc', 00H
	ORG $+1
$SG132102 DB	'CHECK failed: _impl_.player_id_ != nullptr: ', 00H
	ORG $+3
$SG132104 DB	'vendor\s2clientprotocol\include\s2clientprotocol\spatial'
	DB	'.pb.cc', 00H
	ORG $+1
$SG132105 DB	'CHECK failed: _impl_.unit_type_ != nullptr: ', 00H
	ORG $+3
$SG132107 DB	'vendor\s2clientprotocol\include\s2clientprotocol\spatial'
	DB	'.pb.cc', 00H
	ORG $+1
$SG132108 DB	'CHECK failed: _impl_.selected_ != nullptr: ', 00H
	ORG $+4
$SG132110 DB	'vendor\s2clientprotocol\include\s2clientprotocol\spatial'
	DB	'.pb.cc', 00H
	ORG $+1
$SG132111 DB	'CHECK failed: _impl_.unit_hit_points_ != nullptr: ', 00H
	ORG $+5
$SG132114 DB	'vendor\s2clientprotocol\include\s2clientprotocol\spatial'
	DB	'.pb.cc', 00H
	ORG $+1
$SG132115 DB	'CHECK failed: _impl_.unit_energy_ != nullptr: ', 00H
	ORG $+1
$SG132117 DB	'vendor\s2clientprotocol\include\s2clientprotocol\spatial'
	DB	'.pb.cc', 00H
	ORG $+1
$SG132118 DB	'CHECK failed: _impl_.unit_shields_ != nullptr: ', 00H
$SG132120 DB	'vendor\s2clientprotocol\include\s2clientprotocol\spatial'
	DB	'.pb.cc', 00H
	ORG $+1
$SG132121 DB	'CHECK failed: _impl_.player_relative_ != nullptr: ', 00H
	ORG $+5
$SG132123 DB	'vendor\s2clientprotocol\include\s2clientprotocol\spatial'
	DB	'.pb.cc', 00H
	ORG $+1
$SG132124 DB	'CHECK failed: _impl_.unit_density_aa_ != nullptr: ', 00H
	ORG $+5
$SG132126 DB	'vendor\s2clientprotocol\include\s2clientprotocol\spatial'
	DB	'.pb.cc', 00H
	ORG $+1
$SG132127 DB	'CHECK failed: _impl_.unit_density_ != nullptr: ', 00H
$SG132129 DB	'vendor\s2clientprotocol\include\s2clientprotocol\spatial'
	DB	'.pb.cc', 00H
	ORG $+1
$SG132130 DB	'CHECK failed: _impl_.unit_hit_points_ratio_ != nullptr: '
	DB	00H
	ORG $+7
$SG132132 DB	'vendor\s2clientprotocol\include\s2clientprotocol\spatial'
	DB	'.pb.cc', 00H
	ORG $+1
$SG132133 DB	'CHECK failed: _impl_.unit_energy_ratio_ != nullptr: ', 00H
	ORG $+3
$SG132135 DB	'vendor\s2clientprotocol\include\s2clientprotocol\spatial'
	DB	'.pb.cc', 00H
	ORG $+1
$SG132136 DB	'CHECK failed: _impl_.unit_shields_ratio_ != nullptr: ', 00H
	ORG $+2
$SG132139 DB	'vendor\s2clientprotocol\include\s2clientprotocol\spatial'
	DB	'.pb.cc', 00H
	ORG $+1
$SG132140 DB	'CHECK failed: _impl_.effects_ != nullptr: ', 00H
	ORG $+5
$SG132142 DB	'vendor\s2clientprotocol\include\s2clientprotocol\spatial'
	DB	'.pb.cc', 00H
	ORG $+1
$SG132143 DB	'CHECK failed: _impl_.hallucinations_ != nullptr: ', 00H
	ORG $+6
$SG132145 DB	'vendor\s2clientprotocol\include\s2clientprotocol\spatial'
	DB	'.pb.cc', 00H
	ORG $+1
$SG132146 DB	'CHECK failed: _impl_.cloaked_ != nullptr: ', 00H
	ORG $+5
$SG132148 DB	'vendor\s2clientprotocol\include\s2clientprotocol\spatial'
	DB	'.pb.cc', 00H
	ORG $+1
$SG132149 DB	'CHECK failed: _impl_.blip_ != nullptr: ', 00H
$SG132151 DB	'vendor\s2clientprotocol\include\s2clientprotocol\spatial'
	DB	'.pb.cc', 00H
	ORG $+1
$SG132152 DB	'CHECK failed: _impl_.buffs_ != nullptr: ', 00H
	ORG $+7
$SG132154 DB	'vendor\s2clientprotocol\include\s2clientprotocol\spatial'
	DB	'.pb.cc', 00H
	ORG $+1
$SG132155 DB	'CHECK failed: _impl_.active_ != nullptr: ', 00H
	ORG $+6
$SG132157 DB	'vendor\s2clientprotocol\include\s2clientprotocol\spatial'
	DB	'.pb.cc', 00H
	ORG $+1
$SG132158 DB	'CHECK failed: _impl_.buff_duration_ != nullptr: ', 00H
	ORG $+7
$SG132160 DB	'vendor\s2clientprotocol\include\s2clientprotocol\spatial'
	DB	'.pb.cc', 00H
	ORG $+1
$SG132161 DB	'CHECK failed: _impl_.build_progress_ != nullptr: ', 00H
	ORG $+6
$SG132164 DB	'vendor\s2clientprotocol\include\s2clientprotocol\spatial'
	DB	'.pb.cc', 00H
	ORG $+1
$SG132165 DB	'CHECK failed: _impl_.buildable_ != nullptr: ', 00H
	ORG $+3
$SG132167 DB	'vendor\s2clientprotocol\include\s2clientprotocol\spatial'
	DB	'.pb.cc', 00H
	ORG $+1
$SG132168 DB	'CHECK failed: _impl_.pathable_ != nullptr: ', 00H
	ORG $+4
$SG132170 DB	'vendor\s2clientprotocol\include\s2clientprotocol\spatial'
	DB	'.pb.cc', 00H
	ORG $+1
$SG132171 DB	'CHECK failed: _impl_.placeholder_ != nullptr: ', 00H
	ORG $+1
$SG132477 DB	'vendor\s2clientprotocol\include\s2clientprotocol\spatial'
	DB	'.pb.cc', 00H
	ORG $+1
$SG132478 DB	'CHECK failed: (&from) != (_this): ', 00H
	ORG $+13
?offsets@TableStruct_s2clientprotocol_2fspatial_2eproto@@2QBIB DD 010H ; TableStruct_s2clientprotocol_2fspatial_2eproto::offsets
	DD	08H
	DD	0ffffffffH
	DD	0ffffffffH
	DD	0ffffffffH
	DD	0ffffffffH
	DD	018H
	DD	020H
	DD	00H
	DD	01H
	DD	010H
	DD	08H
	DD	0ffffffffH
	DD	0ffffffffH
	DD	0ffffffffH
	DD	0ffffffffH
	DD	018H
	DD	020H
	DD	028H
	DD	030H
	DD	038H
	DD	040H
	DD	048H
	DD	050H
	DD	080H
	DD	058H
	DD	088H
	DD	060H
	DD	090H
	DD	068H
	DD	070H
	DD	078H
	DD	098H
	DD	0a0H
	DD	0a8H
	DD	0b0H
	DD	0b8H
	DD	0c8H
	DD	0c0H
	DD	0d0H
	DD	0d8H
	DD	0e0H
	DD	0e8H
	DD	00H
	DD	01H
	DD	02H
	DD	03H
	DD	04H
	DD	05H
	DD	06H
	DD	07H
	DD	0dH
	DD	08H
	DD	0eH
	DD	09H
	DD	0fH
	DD	0aH
	DD	0bH
	DD	0cH
	DD	010H
	DD	011H
	DD	012H
	DD	013H
	DD	014H
	DD	016H
	DD	015H
	DD	017H
	DD	018H
	DD	019H
	DD	01aH
	DD	010H
	DD	08H
	DD	0ffffffffH
	DD	0ffffffffH
	DD	0ffffffffH
	DD	0ffffffffH
	DD	018H
	DD	020H
	DD	028H
	DD	030H
	DD	038H
	DD	040H
	DD	048H
	DD	058H
	DD	060H
	DD	068H
	DD	050H
	DD	00H
	DD	01H
	DD	02H
	DD	03H
	DD	04H
	DD	05H
	DD	06H
	DD	08H
	DD	09H
	DD	0aH
	DD	07H
	DD	010H
	DD	08H
	DD	0ffffffffH
	DD	0ffffffffH
	DD	0ffffffffH
	DD	0ffffffffH
	DD	018H
	DD	020H
	DD	00H
	DD	01H
	DD	0ffffffffH
	DD	08H
	DD	0ffffffffH
	DD	01cH
	DD	0ffffffffH
	DD	0ffffffffH
	DD	040000000H
	DD	040000000H
	DD	040000000H
	DD	040000000H
	DD	010H
	DD	010H
	DD	08H
	DD	0ffffffffH
	DD	028H
	DD	0ffffffffH
	DD	0ffffffffH
	DD	018H
	DD	040000000H
	DD	040000000H
	DD	01cH
	DD	020H
	DD	00H
	DD	0ffffffffH
	DD	0ffffffffH
	DD	01H
	DD	010H
	DD	08H
	DD	0ffffffffH
	DD	0ffffffffH
	DD	0ffffffffH
	DD	0ffffffffH
	DD	018H
	DD	00H
	DD	010H
	DD	08H
	DD	0ffffffffH
	DD	0ffffffffH
	DD	0ffffffffH
	DD	0ffffffffH
	DD	018H
	DD	020H
	DD	00H
	DD	01H
	DD	010H
	DD	08H
	DD	0ffffffffH
	DD	0ffffffffH
	DD	0ffffffffH
	DD	0ffffffffH
	DD	018H
	DD	030H
	DD	0ffffffffH
	DD	00H
	ORG $+8
$SG140937 DB	'W:\cpp\void\alistar\tests\vendor\protobuf\src\google/pro'
	DB	'tobuf/wire_format_lite.h', 00H
	ORG $+15
$SG140938 DB	'CHECK failed: (UInt32Size(tag)) == (static_cast<size_t>('
	DB	'tag_size)): ', 00H
	ORG $+11
$SG140961 DB	'W:\cpp\void\alistar\tests\vendor\protobuf\src\google/pro'
	DB	'tobuf/wire_format_lite.h', 00H
	ORG $+15
$SG140962 DB	'CHECK failed: (UInt32Size(tag)) == (static_cast<size_t>('
	DB	'tag_size)): ', 00H
	ORG $+11
$SG140985 DB	'W:\cpp\void\alistar\tests\vendor\protobuf\src\google/pro'
	DB	'tobuf/wire_format_lite.h', 00H
	ORG $+15
$SG140986 DB	'CHECK failed: (UInt32Size(tag)) == (static_cast<size_t>('
	DB	'tag_size)): ', 00H
	ORG $+11
$SG141009 DB	'W:\cpp\void\alistar\tests\vendor\protobuf\src\google/pro'
	DB	'tobuf/wire_format_lite.h', 00H
	ORG $+15
$SG141010 DB	'CHECK failed: (UInt32Size(tag)) == (static_cast<size_t>('
	DB	'tag_size)): ', 00H
	ORG $+11
$SG141033 DB	'W:\cpp\void\alistar\tests\vendor\protobuf\src\google/pro'
	DB	'tobuf/wire_format_lite.h', 00H
	ORG $+7
$SG132841 DB	'vendor\s2clientprotocol\include\s2clientprotocol\spatial'
	DB	'.pb.cc', 00H
	ORG $+9
$SG141034 DB	'CHECK failed: (UInt32Size(tag)) == (static_cast<size_t>('
	DB	'tag_size)): ', 00H
	ORG $+3
$SG132842 DB	'CHECK failed: _impl_.height_map_ != nullptr: ', 00H
	ORG $+2
$SG132844 DB	'vendor\s2clientprotocol\include\s2clientprotocol\spatial'
	DB	'.pb.cc', 00H
	ORG $+1
$SG132845 DB	'CHECK failed: _impl_.visibility_map_ != nullptr: ', 00H
	ORG $+6
$SG132847 DB	'vendor\s2clientprotocol\include\s2clientprotocol\spatial'
	DB	'.pb.cc', 00H
	ORG $+1
$SG132848 DB	'CHECK failed: _impl_.creep_ != nullptr: ', 00H
	ORG $+7
$SG132850 DB	'vendor\s2clientprotocol\include\s2clientprotocol\spatial'
	DB	'.pb.cc', 00H
	ORG $+1
$SG132851 DB	'CHECK failed: _impl_.camera_ != nullptr: ', 00H
	ORG $+6
$SG132853 DB	'vendor\s2clientprotocol\include\s2clientprotocol\spatial'
	DB	'.pb.cc', 00H
	ORG $+1
$SG132854 DB	'CHECK failed: _impl_.player_id_ != nullptr: ', 00H
	ORG $+3
$SG132856 DB	'vendor\s2clientprotocol\include\s2clientprotocol\spatial'
	DB	'.pb.cc', 00H
	ORG $+1
$SG132857 DB	'CHECK failed: _impl_.player_relative_ != nullptr: ', 00H
	ORG $+5
$SG132859 DB	'vendor\s2clientprotocol\include\s2clientprotocol\spatial'
	DB	'.pb.cc', 00H
	ORG $+1
$SG132860 DB	'CHECK failed: _impl_.selected_ != nullptr: ', 00H
	ORG $+4
$SG132862 DB	'vendor\s2clientprotocol\include\s2clientprotocol\spatial'
	DB	'.pb.cc', 00H
	ORG $+1
$SG132863 DB	'CHECK failed: _impl_.unit_type_ != nullptr: ', 00H
	ORG $+11
$SG141057 DB	'W:\cpp\void\alistar\tests\vendor\protobuf\src\google/pro'
	DB	'tobuf/wire_format_lite.h', 00H
	ORG $+15
$SG141058 DB	'CHECK failed: (UInt32Size(tag)) == (static_cast<size_t>('
	DB	'tag_size)): ', 00H
	ORG $+3
$SG132866 DB	'vendor\s2clientprotocol\include\s2clientprotocol\spatial'
	DB	'.pb.cc', 00H
	ORG $+1
$SG132867 DB	'CHECK failed: _impl_.alerts_ != nullptr: ', 00H
	ORG $+6
$SG132869 DB	'vendor\s2clientprotocol\include\s2clientprotocol\spatial'
	DB	'.pb.cc', 00H
	ORG $+1
$SG132870 DB	'CHECK failed: _impl_.buildable_ != nullptr: ', 00H
	ORG $+3
$SG132872 DB	'vendor\s2clientprotocol\include\s2clientprotocol\spatial'
	DB	'.pb.cc', 00H
	ORG $+1
$SG132873 DB	'CHECK failed: _impl_.pathable_ != nullptr: ', 00H
	ORG $+4
?_class_data_@ObservationFeatureLayer@SC2APIProtocol@@2UClassData@Message@protobuf@google@@B DQ FLAT:?CopyWithSourceCheck@Message@protobuf@google@@KAXAEAV123@AEBV123@@Z ; SC2APIProtocol::ObservationFeatureLayer::_class_data_
	DQ	FLAT:?MergeImpl@ObservationFeatureLayer@SC2APIProtocol@@CAXAEAVMessage@protobuf@google@@AEBV345@@Z
$SG133029 DB	'vendor\s2clientprotocol\include\s2clientprotocol\spatial'
	DB	'.pb.cc', 00H
	ORG $+1
$SG133030 DB	'CHECK failed: (&from) != (_this): ', 00H
	ORG $+5
$SG141246 DB	'W:\cpp\void\alistar\tests\vendor\protobuf\src\google/pro'
	DB	'tobuf/wire_format_lite.h', 00H
	ORG $+7
$SG141247 DB	'CHECK failed: (n) > (0): ', 00H
	ORG $+14
$SG141258 DB	'W:\cpp\void\alistar\tests\vendor\protobuf\src\google/pro'
	DB	'tobuf/wire_format_lite.h', 00H
	ORG $+7
$SG141259 DB	'CHECK failed: (n) > (0): ', 00H
	ORG $+6
?_class_data_@FeatureLayers@SC2APIProtocol@@2UClassData@Message@protobuf@google@@B DQ FLAT:?CopyWithSourceCheck@Message@protobuf@google@@KAXAEAV123@AEBV123@@Z ; SC2APIProtocol::FeatureLayers::_class_data_
	DQ	FLAT:?MergeImpl@FeatureLayers@SC2APIProtocol@@CAXAEAVMessage@protobuf@google@@AEBV345@@Z
	ORG $+8
$SG141270 DB	'W:\cpp\void\alistar\tests\vendor\protobuf\src\google/pro'
	DB	'tobuf/wire_format_lite.h', 00H
	ORG $+7
$SG141271 DB	'CHECK failed: (n) > (0): ', 00H
	ORG $+14
$SG141282 DB	'W:\cpp\void\alistar\tests\vendor\protobuf\src\google/pro'
	DB	'tobuf/wire_format_lite.h', 00H
	ORG $+7
$SG141283 DB	'CHECK failed: (n) > (0): ', 00H
	ORG $+14
$SG141294 DB	'W:\cpp\void\alistar\tests\vendor\protobuf\src\google/pro'
	DB	'tobuf/wire_format_lite.h', 00H
	ORG $+7
$SG141295 DB	'CHECK failed: (n) > (0): ', 00H
	ORG $+14
$SG141306 DB	'W:\cpp\void\alistar\tests\vendor\protobuf\src\google/pro'
	DB	'tobuf/wire_format_lite.h', 00H
	ORG $+7
$SG141307 DB	'CHECK failed: (n) > (0): ', 00H
	ORG $+14
$SG141318 DB	'W:\cpp\void\alistar\tests\vendor\protobuf\src\google/pro'
	DB	'tobuf/wire_format_lite.h', 00H
	ORG $+7
$SG141319 DB	'CHECK failed: (n) > (0): ', 00H
	ORG $+14
$SG141330 DB	'W:\cpp\void\alistar\tests\vendor\protobuf\src\google/pro'
	DB	'tobuf/wire_format_lite.h', 00H
	ORG $+7
$SG141331 DB	'CHECK failed: (n) > (0): ', 00H
	ORG $+14
$SG141342 DB	'W:\cpp\void\alistar\tests\vendor\protobuf\src\google/pro'
	DB	'tobuf/wire_format_lite.h', 00H
	ORG $+7
$SG141343 DB	'CHECK failed: (n) > (0): ', 00H
	ORG $+14
$SG141354 DB	'W:\cpp\void\alistar\tests\vendor\protobuf\src\google/pro'
	DB	'tobuf/wire_format_lite.h', 00H
	ORG $+7
$SG141355 DB	'CHECK failed: (n) > (0): ', 00H
	ORG $+14
$SG141366 DB	'W:\cpp\void\alistar\tests\vendor\protobuf\src\google/pro'
	DB	'tobuf/wire_format_lite.h', 00H
	ORG $+7
$SG141367 DB	'CHECK failed: (n) > (0): ', 00H
	ORG $+6
$SG133186 DB	'vendor\s2clientprotocol\include\s2clientprotocol\spatial'
	DB	'.pb.cc', 00H
	ORG $+1
$SG133187 DB	'CHECK failed: _impl_.map_ != nullptr: ', 00H
	ORG $+1
$SG133189 DB	'vendor\s2clientprotocol\include\s2clientprotocol\spatial'
	DB	'.pb.cc', 00H
	ORG $+1
$SG133190 DB	'CHECK failed: _impl_.minimap_ != nullptr: ', 00H
	ORG $+5
$SG133264 DB	'vendor\s2clientprotocol\include\s2clientprotocol\spatial'
	DB	'.pb.cc', 00H
	ORG $+1
$SG133265 DB	'CHECK failed: (&from) != (_this): ', 00H
	ORG $+5
$SG133582 DB	'vendor\s2clientprotocol\include\s2clientprotocol\spatial'
	DB	'.pb.cc', 00H
	ORG $+1
$SG133583 DB	'CHECK failed: (&from) != (_this): ', 00H
	ORG $+5
?_class_data_@FeatureLayersMinimap@SC2APIProtocol@@2UClassData@Message@protobuf@google@@B DQ FLAT:?CopyWithSourceCheck@Message@protobuf@google@@KAXAEAV123@AEBV123@@Z ; SC2APIProtocol::FeatureLayersMinimap::_class_data_
	DQ	FLAT:?MergeImpl@FeatureLayersMinimap@SC2APIProtocol@@CAXAEAVMessage@protobuf@google@@AEBV345@@Z
$SG133859 DB	'vendor\s2clientprotocol\include\s2clientprotocol\spatial'
	DB	'.pb.cc', 00H
	ORG $+1
$SG133860 DB	'CHECK failed: (&from) != (_this): ', 00H
	ORG $+5
?_class_data_@ObservationRender@SC2APIProtocol@@2UClassData@Message@protobuf@google@@B DQ FLAT:?CopyWithSourceCheck@Message@protobuf@google@@KAXAEAV123@AEBV123@@Z ; SC2APIProtocol::ObservationRender::_class_data_
	DQ	FLAT:?MergeImpl@ObservationRender@SC2APIProtocol@@CAXAEAVMessage@protobuf@google@@AEBV345@@Z
$SG134001 DB	'vendor\s2clientprotocol\include\s2clientprotocol\spatial'
	DB	'.pb.cc', 00H
	ORG $+1
$SG134002 DB	'CHECK failed: _impl_.center_minimap_ != nullptr: ', 00H
	ORG $+6
$SG134066 DB	'vendor\s2clientprotocol\include\s2clientprotocol\spatial'
	DB	'.pb.cc', 00H
	ORG $+1
$SG134067 DB	'CHECK failed: (&from) != (_this): ', 00H
	ORG $+5
?_class_data_@ActionSpatial@SC2APIProtocol@@2UClassData@Message@protobuf@google@@B DQ FLAT:?CopyWithSourceCheck@Message@protobuf@google@@KAXAEAV123@AEBV123@@Z ; SC2APIProtocol::ActionSpatial::_class_data_
	DQ	FLAT:?MergeImpl@ActionSpatial@SC2APIProtocol@@CAXAEAVMessage@protobuf@google@@AEBV345@@Z
$SG134191 DB	'vendor\s2clientprotocol\include\s2clientprotocol\spatial'
	DB	'.pb.cc', 00H
	ORG $+1
$SG134192 DB	'CHECK failed: _impl_.selection_screen_coord_ != nullptr:'
	DB	' ', 00H
	ORG $+6
$SG134270 DB	'vendor\s2clientprotocol\include\s2clientprotocol\spatial'
	DB	'.pb.cc', 00H
	ORG $+1
$SG134271 DB	'CHECK failed: (&from) != (_this): ', 00H
	ORG $+5
?_class_data_@ActionSpatialUnitCommand@SC2APIProtocol@@2UClassData@Message@protobuf@google@@B DQ FLAT:?CopyWithSourceCheck@Message@protobuf@google@@KAXAEAV123@AEBV123@@Z ; SC2APIProtocol::ActionSpatialUnitCommand::_class_data_
	DQ	FLAT:?MergeImpl@ActionSpatialUnitCommand@SC2APIProtocol@@CAXAEAVMessage@protobuf@google@@AEBV345@@Z
$SG134567 DB	'vendor\s2clientprotocol\include\s2clientprotocol\spatial'
	DB	'.pb.cc', 00H
	ORG $+1
$SG134568 DB	'CHECK failed: (&from) != (_this): ', 00H
	ORG $+5
?_class_data_@ActionSpatialCameraMove@SC2APIProtocol@@2UClassData@Message@protobuf@google@@B DQ FLAT:?CopyWithSourceCheck@Message@protobuf@google@@KAXAEAV123@AEBV123@@Z ; SC2APIProtocol::ActionSpatialCameraMove::_class_data_
	DQ	FLAT:?MergeImpl@ActionSpatialCameraMove@SC2APIProtocol@@CAXAEAVMessage@protobuf@google@@AEBV345@@Z
?_class_data_@ActionSpatialUnitSelectionPoint@SC2APIProtocol@@2UClassData@Message@protobuf@google@@B DQ FLAT:?CopyWithSourceCheck@Message@protobuf@google@@KAXAEAV123@AEBV123@@Z ; SC2APIProtocol::ActionSpatialUnitSelectionPoint::_class_data_
	DQ	FLAT:?MergeImpl@ActionSpatialUnitSelectionPoint@SC2APIProtocol@@CAXAEAVMessage@protobuf@google@@AEBV345@@Z
?_class_data_@ActionSpatialUnitSelectionRect@SC2APIProtocol@@2UClassData@Message@protobuf@google@@B DQ FLAT:?CopyWithSourceCheck@Message@protobuf@google@@KAXAEAV123@AEBV123@@Z ; SC2APIProtocol::ActionSpatialUnitSelectionRect::_class_data_
	DQ	FLAT:?MergeImpl@ActionSpatialUnitSelectionRect@SC2APIProtocol@@CAXAEAVMessage@protobuf@google@@AEBV345@@Z
CONST	ENDS
PUBLIC	?__empty_global_delete@@YAXPEAX@Z		; __empty_global_delete
PUBLIC	?__empty_global_delete@@YAXPEAX_K@Z		; __empty_global_delete
PUBLIC	?__empty_global_delete@@YAXPEAXW4align_val_t@std@@@Z ; __empty_global_delete
PUBLIC	?__empty_global_delete@@YAXPEAX_KW4align_val_t@std@@@Z ; __empty_global_delete
PUBLIC	?is_constant_evaluated@std@@YA_NXZ		; std::is_constant_evaluated
PUBLIC	??2@YAPEAX_KPEAX@Z				; operator new
PUBLIC	??0exception@std@@QEAA@QEBDH@Z			; std::exception::exception
PUBLIC	??0exception@std@@QEAA@AEBV01@@Z		; std::exception::exception
PUBLIC	??1exception@std@@UEAA@XZ			; std::exception::~exception
PUBLIC	?what@exception@std@@UEBAPEBDXZ			; std::exception::what
PUBLIC	??_Gexception@std@@UEAAPEAXI@Z			; std::exception::`scalar deleting destructor'
PUBLIC	??0bad_alloc@std@@AEAA@QEBD@Z			; std::bad_alloc::bad_alloc
PUBLIC	??1bad_alloc@std@@UEAA@XZ			; std::bad_alloc::~bad_alloc
PUBLIC	??0bad_alloc@std@@QEAA@AEBV01@@Z		; std::bad_alloc::bad_alloc
PUBLIC	??_Gbad_alloc@std@@UEAAPEAXI@Z			; std::bad_alloc::`scalar deleting destructor'
PUBLIC	??0bad_array_new_length@std@@QEAA@XZ		; std::bad_array_new_length::bad_array_new_length
PUBLIC	??1bad_array_new_length@std@@UEAA@XZ		; std::bad_array_new_length::~bad_array_new_length
PUBLIC	??0bad_array_new_length@std@@QEAA@AEBV01@@Z	; std::bad_array_new_length::bad_array_new_length
PUBLIC	??_Gbad_array_new_length@std@@UEAAPEAXI@Z	; std::bad_array_new_length::`scalar deleting destructor'
PUBLIC	?_Throw_bad_array_new_length@std@@YAXXZ		; std::_Throw_bad_array_new_length
PUBLIC	?_Allocate@_Default_allocate_traits@std@@SAPEAX_K@Z ; std::_Default_allocate_traits::_Allocate
PUBLIC	?_Adjust_manually_vector_aligned@std@@YAXAEAPEAXAEA_K@Z ; std::_Adjust_manually_vector_aligned
PUBLIC	??0_Container_proxy@std@@QEAA@PEAU_Container_base12@1@@Z ; std::_Container_proxy::_Container_proxy
PUBLIC	??0_Container_base12@std@@QEAA@XZ		; std::_Container_base12::_Container_base12
PUBLIC	?_Orphan_all@_Container_base12@std@@QEAAXXZ	; std::_Container_base12::_Orphan_all
PUBLIC	?_Orphan_all_unlocked_v3@_Container_base12@std@@AEAAXXZ ; std::_Container_base12::_Orphan_all_unlocked_v3
PUBLIC	?_Orphan_all_locked_v3@_Container_base12@std@@AEAAXXZ ; std::_Container_base12::_Orphan_all_locked_v3
PUBLIC	??$exchange@PEAU_Iterator_base12@std@@$$T@std@@YAPEAU_Iterator_base12@0@AEAPEAU10@$$QEA$$T@Z ; std::exchange<std::_Iterator_base12 *,std::nullptr_t>
PUBLIC	??$_Construct_in_place@U_Container_proxy@std@@PEAU_Container_base12@2@@std@@YAXAEAU_Container_proxy@0@$$QEAPEAU_Container_base12@0@@Z ; std::_Construct_in_place<std::_Container_proxy,std::_Container_base12 *>
PUBLIC	??$swap@H$0A@@std@@YAXAEAH0@Z			; std::swap<int,0>
PUBLIC	??$swap@_J$0A@@std@@YAXAEA_J0@Z			; std::swap<__int64,0>
PUBLIC	?Log2FloorNonZero@Bits@protobuf@google@@SAII@Z	; google::protobuf::Bits::Log2FloorNonZero
PUBLIC	?Log2FloorNonZero64@Bits@protobuf@google@@SAI_K@Z ; google::protobuf::Bits::Log2FloorNonZero64
PUBLIC	?EnsureSpace@EpsCopyOutputStream@io@protobuf@google@@QEAAPEAEPEAE@Z ; google::protobuf::io::EpsCopyOutputStream::EnsureSpace
PUBLIC	??$UnsafeVarint@I@EpsCopyOutputStream@io@protobuf@google@@CAPEAEIPEAE@Z ; google::protobuf::io::EpsCopyOutputStream::UnsafeVarint<unsigned int>
PUBLIC	?WriteVarint32ToArray@CodedOutputStream@io@protobuf@google@@SAPEAEIPEAE@Z ; google::protobuf::io::CodedOutputStream::WriteVarint32ToArray
PUBLIC	?WriteVarint64ToArray@CodedOutputStream@io@protobuf@google@@SAPEAE_KPEAE@Z ; google::protobuf::io::CodedOutputStream::WriteVarint64ToArray
PUBLIC	?WriteVarint32SignExtendedToArray@CodedOutputStream@io@protobuf@google@@SAPEAEHPEAE@Z ; google::protobuf::io::CodedOutputStream::WriteVarint32SignExtendedToArray
PUBLIC	?WriteTagToArray@CodedOutputStream@io@protobuf@google@@SAPEAEIPEAE@Z ; google::protobuf::io::CodedOutputStream::WriteTagToArray
PUBLIC	?VarintSize32@CodedOutputStream@io@protobuf@google@@SA_KI@Z ; google::protobuf::io::CodedOutputStream::VarintSize32
PUBLIC	?VarintSize64@CodedOutputStream@io@protobuf@google@@SA_K_K@Z ; google::protobuf::io::CodedOutputStream::VarintSize64
PUBLIC	?VarintSize32SignExtended@CodedOutputStream@io@protobuf@google@@SA_KH@Z ; google::protobuf::io::CodedOutputStream::VarintSize32SignExtended
PUBLIC	?VarintSize64PlusOne@CodedOutputStream@io@protobuf@google@@SA_K_K@Z ; google::protobuf::io::CodedOutputStream::VarintSize64PlusOne
PUBLIC	?VarintSize32SignExtendedPlusOne@CodedOutputStream@io@protobuf@google@@SA_KH@Z ; google::protobuf::io::CodedOutputStream::VarintSize32SignExtendedPlusOne
PUBLIC	??$UnsafeVarint@_K@EpsCopyOutputStream@io@protobuf@google@@CAPEAE_KPEAE@Z ; google::protobuf::io::EpsCopyOutputStream::UnsafeVarint<unsigned __int64>
PUBLIC	?AlignUpTo8@internal@protobuf@google@@YA_K_K@Z	; google::protobuf::internal::AlignUpTo8
PUBLIC	?AlignTo@internal@protobuf@google@@YAPEAXPEAX_K@Z ; google::protobuf::internal::AlignTo
PUBLIC	??1Arena@protobuf@google@@QEAA@XZ		; google::protobuf::Arena::~Arena
PUBLIC	?SpaceAllocated@Arena@protobuf@google@@QEBA_KXZ	; google::protobuf::Arena::SpaceAllocated
PUBLIC	?AllocateInternal@Arena@protobuf@google@@AEAAPEAX_K0P6AXPEAX@ZPEBVtype_info@@@Z ; google::protobuf::Arena::AllocateInternal
PUBLIC	?AllocateAlignedWithHook@Arena@protobuf@google@@AEAAPEAX_K0PEBVtype_info@@@Z ; google::protobuf::Arena::AllocateAlignedWithHook
PUBLIC	??_GArena@protobuf@google@@QEAAPEAXI@Z		; google::protobuf::Arena::`scalar deleting destructor'
PUBLIC	??0InternalMetadata@internal@protobuf@google@@QEAA@XZ ; google::protobuf::internal::InternalMetadata::InternalMetadata
PUBLIC	??0InternalMetadata@internal@protobuf@google@@QEAA@PEAVArena@23@_N@Z ; google::protobuf::internal::InternalMetadata::InternalMetadata
PUBLIC	?SetArena@InternalMetadata@internal@protobuf@google@@QEAAXPEAVArena@34@_N@Z ; google::protobuf::internal::InternalMetadata::SetArena
PUBLIC	??1InternalMetadata@internal@protobuf@google@@QEAA@XZ ; google::protobuf::internal::InternalMetadata::~InternalMetadata
PUBLIC	?owning_arena@InternalMetadata@internal@protobuf@google@@QEBAPEAVArena@34@XZ ; google::protobuf::internal::InternalMetadata::owning_arena
PUBLIC	?arena@InternalMetadata@internal@protobuf@google@@QEBAPEAVArena@34@XZ ; google::protobuf::internal::InternalMetadata::arena
PUBLIC	?have_unknown_fields@InternalMetadata@internal@protobuf@google@@QEBA_NXZ ; google::protobuf::internal::InternalMetadata::have_unknown_fields
PUBLIC	?InternalSwap@InternalMetadata@internal@protobuf@google@@QEAAXPEAV1234@@Z ; google::protobuf::internal::InternalMetadata::InternalSwap
PUBLIC	?HasUnknownFieldsTag@InternalMetadata@internal@protobuf@google@@AEBA_NXZ ; google::protobuf::internal::InternalMetadata::HasUnknownFieldsTag
PUBLIC	?HasMessageOwnedArenaTag@InternalMetadata@internal@protobuf@google@@AEBA_NXZ ; google::protobuf::internal::InternalMetadata::HasMessageOwnedArenaTag
PUBLIC	??$PtrValue@UContainerBase@InternalMetadata@internal@protobuf@google@@@InternalMetadata@internal@protobuf@google@@AEBAPEAUContainerBase@0123@XZ ; google::protobuf::internal::InternalMetadata::PtrValue<google::protobuf::internal::InternalMetadata::ContainerBase>
PUBLIC	??$PtrValue@VArena@protobuf@google@@@InternalMetadata@internal@protobuf@google@@AEBAPEAVArena@23@XZ ; google::protobuf::internal::InternalMetadata::PtrValue<google::protobuf::Arena>
PUBLIC	??0MessageLite@protobuf@google@@QEAA@XZ		; google::protobuf::MessageLite::MessageLite
PUBLIC	??1MessageLite@protobuf@google@@UEAA@XZ		; google::protobuf::MessageLite::~MessageLite
PUBLIC	?_InternalParse@MessageLite@protobuf@google@@UEAAPEBDPEBDPEAVParseContext@internal@23@@Z ; google::protobuf::MessageLite::_InternalParse
PUBLIC	??0MessageLite@protobuf@google@@IEAA@PEAVArena@12@_N@Z ; google::protobuf::MessageLite::MessageLite
PUBLIC	?GetOwningArena@MessageLite@protobuf@google@@IEBAPEAVArena@23@XZ ; google::protobuf::MessageLite::GetOwningArena
PUBLIC	?GetArenaForAllocation@MessageLite@protobuf@google@@IEBAPEAVArena@23@XZ ; google::protobuf::MessageLite::GetArenaForAllocation
PUBLIC	??_GMessageLite@protobuf@google@@UEAAPEAXI@Z	; google::protobuf::MessageLite::`scalar deleting destructor'
PUBLIC	??0?$HasBits@$00@internal@protobuf@google@@QEAA@XZ ; google::protobuf::internal::HasBits<1>::HasBits<1>
PUBLIC	?Clear@?$HasBits@$00@internal@protobuf@google@@QEAAXXZ ; google::protobuf::internal::HasBits<1>::Clear
PUBLIC	??A?$HasBits@$00@internal@protobuf@google@@QEAAAEAIH@Z ; google::protobuf::internal::HasBits<1>::operator[]
PUBLIC	??A?$HasBits@$00@internal@protobuf@google@@QEBAAEBIH@Z ; google::protobuf::internal::HasBits<1>::operator[]
PUBLIC	?Or@?$HasBits@$00@internal@protobuf@google@@QEAAXAEBV1234@@Z ; google::protobuf::internal::HasBits<1>::Or
PUBLIC	??0RepeatedPtrFieldBase@internal@protobuf@google@@IEAA@XZ ; google::protobuf::internal::RepeatedPtrFieldBase::RepeatedPtrFieldBase
PUBLIC	??0RepeatedPtrFieldBase@internal@protobuf@google@@IEAA@PEAVArena@23@@Z ; google::protobuf::internal::RepeatedPtrFieldBase::RepeatedPtrFieldBase
PUBLIC	??1RepeatedPtrFieldBase@internal@protobuf@google@@IEAA@XZ ; google::protobuf::internal::RepeatedPtrFieldBase::~RepeatedPtrFieldBase
PUBLIC	?size@RepeatedPtrFieldBase@internal@protobuf@google@@IEBAHXZ ; google::protobuf::internal::RepeatedPtrFieldBase::size
PUBLIC	?NeedsDestroy@RepeatedPtrFieldBase@internal@protobuf@google@@IEBA_NXZ ; google::protobuf::internal::RepeatedPtrFieldBase::NeedsDestroy
PUBLIC	?InternalSwap@RepeatedPtrFieldBase@internal@protobuf@google@@QEAAXPEAV1234@@Z ; google::protobuf::internal::RepeatedPtrFieldBase::InternalSwap
PUBLIC	?raw_data@RepeatedPtrFieldBase@internal@protobuf@google@@IEBAPEBQEAXXZ ; google::protobuf::internal::RepeatedPtrFieldBase::raw_data
PUBLIC	?GetOwningArena@RepeatedPtrFieldBase@internal@protobuf@google@@IEBAPEAVArena@34@XZ ; google::protobuf::internal::RepeatedPtrFieldBase::GetOwningArena
PUBLIC	?MergeFromInternal@RepeatedPtrFieldBase@internal@protobuf@google@@AEAAXAEBV1234@P81234@EAAXPEAPEAX1HH@Z@Z ; google::protobuf::internal::RepeatedPtrFieldBase::MergeFromInternal
PUBLIC	??$make_tuple@AEAPEAVArena@protobuf@google@@AEAHAEAHAEAPEAURep@RepeatedPtrFieldBase@internal@23@@std@@YA?AV?$tuple@PEAVArena@protobuf@google@@HHPEAURep@RepeatedPtrFieldBase@internal@23@@0@AEAPEAVArena@protobuf@google@@AEAH1AEAPEAURep@RepeatedPtrFieldBase@internal@34@@Z ; std::make_tuple<google::protobuf::Arena * &,int &,int &,google::protobuf::internal::RepeatedPtrFieldBase::Rep * &>
PUBLIC	?_Get_rest@?$tuple@PEAURep@RepeatedPtrFieldBase@internal@protobuf@google@@@std@@QEAAAEAV?$tuple@$$V@2@XZ ; std::tuple<google::protobuf::internal::RepeatedPtrFieldBase::Rep *>::_Get_rest
PUBLIC	?_Get_rest@?$tuple@PEAURep@RepeatedPtrFieldBase@internal@protobuf@google@@@std@@QEBAAEBV?$tuple@$$V@2@XZ ; std::tuple<google::protobuf::internal::RepeatedPtrFieldBase::Rep *>::_Get_rest
PUBLIC	?_Get_rest@?$tuple@HPEAURep@RepeatedPtrFieldBase@internal@protobuf@google@@@std@@QEAAAEAV?$tuple@PEAURep@RepeatedPtrFieldBase@internal@protobuf@google@@@2@XZ ; std::tuple<int,google::protobuf::internal::RepeatedPtrFieldBase::Rep *>::_Get_rest
PUBLIC	?_Get_rest@?$tuple@HPEAURep@RepeatedPtrFieldBase@internal@protobuf@google@@@std@@QEBAAEBV?$tuple@PEAURep@RepeatedPtrFieldBase@internal@protobuf@google@@@2@XZ ; std::tuple<int,google::protobuf::internal::RepeatedPtrFieldBase::Rep *>::_Get_rest
PUBLIC	?_Get_rest@?$tuple@HHPEAURep@RepeatedPtrFieldBase@internal@protobuf@google@@@std@@QEAAAEAV?$tuple@HPEAURep@RepeatedPtrFieldBase@internal@protobuf@google@@@2@XZ ; std::tuple<int,int,google::protobuf::internal::RepeatedPtrFieldBase::Rep *>::_Get_rest
PUBLIC	?_Get_rest@?$tuple@HHPEAURep@RepeatedPtrFieldBase@internal@protobuf@google@@@std@@QEBAAEBV?$tuple@HPEAURep@RepeatedPtrFieldBase@internal@protobuf@google@@@2@XZ ; std::tuple<int,int,google::protobuf::internal::RepeatedPtrFieldBase::Rep *>::_Get_rest
PUBLIC	?_Get_rest@?$tuple@PEAVArena@protobuf@google@@HHPEAURep@RepeatedPtrFieldBase@internal@23@@std@@QEAAAEAV?$tuple@HHPEAURep@RepeatedPtrFieldBase@internal@protobuf@google@@@2@XZ ; std::tuple<google::protobuf::Arena *,int,int,google::protobuf::internal::RepeatedPtrFieldBase::Rep *>::_Get_rest
PUBLIC	?_Get_rest@?$tuple@PEAVArena@protobuf@google@@HHPEAURep@RepeatedPtrFieldBase@internal@23@@std@@QEBAAEBV?$tuple@HHPEAURep@RepeatedPtrFieldBase@internal@protobuf@google@@@2@XZ ; std::tuple<google::protobuf::Arena *,int,int,google::protobuf::internal::RepeatedPtrFieldBase::Rep *>::_Get_rest
PUBLIC	??$tie@PEAVArena@protobuf@google@@HHPEAURep@RepeatedPtrFieldBase@internal@23@@std@@YA?AV?$tuple@AEAPEAVArena@protobuf@google@@AEAHAEAHAEAPEAURep@RepeatedPtrFieldBase@internal@23@@0@AEAPEAVArena@protobuf@google@@AEAH1AEAPEAURep@RepeatedPtrFieldBase@internal@34@@Z ; std::tie<google::protobuf::Arena *,int,int,google::protobuf::internal::RepeatedPtrFieldBase::Rep *>
PUBLIC	?_Get_rest@?$tuple@AEAPEAURep@RepeatedPtrFieldBase@internal@protobuf@google@@@std@@QEAAAEAV?$tuple@$$V@2@XZ ; std::tuple<google::protobuf::internal::RepeatedPtrFieldBase::Rep * &>::_Get_rest
PUBLIC	?_Get_rest@?$tuple@AEAHAEAPEAURep@RepeatedPtrFieldBase@internal@protobuf@google@@@std@@QEAAAEAV?$tuple@AEAPEAURep@RepeatedPtrFieldBase@internal@protobuf@google@@@2@XZ ; std::tuple<int &,google::protobuf::internal::RepeatedPtrFieldBase::Rep * &>::_Get_rest
PUBLIC	?_Get_rest@?$tuple@AEAHAEAHAEAPEAURep@RepeatedPtrFieldBase@internal@protobuf@google@@@std@@QEAAAEAV?$tuple@AEAHAEAPEAURep@RepeatedPtrFieldBase@internal@protobuf@google@@@2@XZ ; std::tuple<int &,int &,google::protobuf::internal::RepeatedPtrFieldBase::Rep * &>::_Get_rest
PUBLIC	?_Get_rest@?$tuple@AEAPEAVArena@protobuf@google@@AEAHAEAHAEAPEAURep@RepeatedPtrFieldBase@internal@23@@std@@QEAAAEAV?$tuple@AEAHAEAHAEAPEAURep@RepeatedPtrFieldBase@internal@protobuf@google@@@2@XZ ; std::tuple<google::protobuf::Arena * &,int &,int &,google::protobuf::internal::RepeatedPtrFieldBase::Rep * &>::_Get_rest
PUBLIC	??$?4PEAVArena@protobuf@google@@HHPEAURep@RepeatedPtrFieldBase@internal@12@$0A@@?$tuple@AEAPEAVArena@protobuf@google@@AEAHAEAHAEAPEAURep@RepeatedPtrFieldBase@internal@23@@std@@QEAAAEAV01@$$QEAV?$tuple@PEAVArena@protobuf@google@@HHPEAURep@RepeatedPtrFieldBase@internal@23@@1@@Z ; std::tuple<google::protobuf::Arena * &,int &,int &,google::protobuf::internal::RepeatedPtrFieldBase::Rep * &>::operator=<google::protobuf::Arena *,int,int,google::protobuf::internal::RepeatedPtrFieldBase::Rep *,0>
PUBLIC	??$?4PEAVArena@protobuf@google@@HHPEAURep@RepeatedPtrFieldBase@internal@12@$0A@@?$tuple@AEAPEAVArena@protobuf@google@@AEAHAEAHAEAPEAURep@RepeatedPtrFieldBase@internal@23@@std@@QEAAAEAV01@AEBV?$tuple@PEAVArena@protobuf@google@@HHPEAURep@RepeatedPtrFieldBase@internal@23@@1@@Z ; std::tuple<google::protobuf::Arena * &,int &,int &,google::protobuf::internal::RepeatedPtrFieldBase::Rep * &>::operator=<google::protobuf::Arena *,int,int,google::protobuf::internal::RepeatedPtrFieldBase::Rep *,0>
PUBLIC	?MakeTag@WireFormatLite@internal@protobuf@google@@SAIHW4WireType@1234@@Z ; google::protobuf::internal::WireFormatLite::MakeTag
PUBLIC	?WriteTagToArray@WireFormatLite@internal@protobuf@google@@SAPEAEHW4WireType@1234@PEAE@Z ; google::protobuf::internal::WireFormatLite::WriteTagToArray
PUBLIC	?WriteInt32NoTagToArray@WireFormatLite@internal@protobuf@google@@SAPEAEHPEAE@Z ; google::protobuf::internal::WireFormatLite::WriteInt32NoTagToArray
PUBLIC	?WriteBoolNoTagToArray@WireFormatLite@internal@protobuf@google@@SAPEAE_NPEAE@Z ; google::protobuf::internal::WireFormatLite::WriteBoolNoTagToArray
PUBLIC	?WriteEnumNoTagToArray@WireFormatLite@internal@protobuf@google@@SAPEAEHPEAE@Z ; google::protobuf::internal::WireFormatLite::WriteEnumNoTagToArray
PUBLIC	?WriteInt32ToArray@WireFormatLite@internal@protobuf@google@@SAPEAEHHPEAE@Z ; google::protobuf::internal::WireFormatLite::WriteInt32ToArray
PUBLIC	?WriteBoolToArray@WireFormatLite@internal@protobuf@google@@SAPEAEH_NPEAE@Z ; google::protobuf::internal::WireFormatLite::WriteBoolToArray
PUBLIC	?WriteEnumToArray@WireFormatLite@internal@protobuf@google@@SAPEAEHHPEAE@Z ; google::protobuf::internal::WireFormatLite::WriteEnumToArray
PUBLIC	?EnumSize@WireFormatLite@internal@protobuf@google@@SA_KH@Z ; google::protobuf::internal::WireFormatLite::EnumSize
PUBLIC	?Int32SizePlusOne@WireFormatLite@internal@protobuf@google@@SA_KH@Z ; google::protobuf::internal::WireFormatLite::Int32SizePlusOne
PUBLIC	?LengthDelimitedSize@WireFormatLite@internal@protobuf@google@@SA_K_K@Z ; google::protobuf::internal::WireFormatLite::LengthDelimitedSize
PUBLIC	?Get@CachedSize@internal@protobuf@google@@QEBAHXZ ; google::protobuf::internal::CachedSize::Get
PUBLIC	?Set@CachedSize@internal@protobuf@google@@QEAAXH@Z ; google::protobuf::internal::CachedSize::Set
PUBLIC	??0?$_Atomic_storage@H$03@std@@QEAA@H@Z		; std::_Atomic_storage<int,4>::_Atomic_storage<int,4>
PUBLIC	?store@?$_Atomic_storage@H$03@std@@QEAAXH@Z	; std::_Atomic_storage<int,4>::store
PUBLIC	?store@?$_Atomic_storage@H$03@std@@QEAAXHW4memory_order@2@@Z ; std::_Atomic_storage<int,4>::store
PUBLIC	?load@?$_Atomic_storage@H$03@std@@QEBAHW4memory_order@2@@Z ; std::_Atomic_storage<int,4>::load
PUBLIC	??0?$_Atomic_integral@H$03@std@@QEAA@H@Z	; std::_Atomic_integral<int,4>::_Atomic_integral<int,4>
PUBLIC	??0?$_Atomic_integral_facade@H@std@@QEAA@H@Z	; std::_Atomic_integral_facade<int>::_Atomic_integral_facade<int>
PUBLIC	??0?$atomic@H@std@@QEAA@H@Z			; std::atomic<int>::atomic<int>
PUBLIC	??0CachedSize@internal@protobuf@google@@QEAA@XZ	; google::protobuf::internal::CachedSize::CachedSize
PUBLIC	?WriteVarint@internal@protobuf@google@@YAXI_KPEAVUnknownFieldSet@23@@Z ; google::protobuf::internal::WriteVarint
PUBLIC	?SetLastTag@EpsCopyInputStream@internal@protobuf@google@@QEAAXI@Z ; google::protobuf::internal::EpsCopyInputStream::SetLastTag
PUBLIC	?DataAvailable@EpsCopyInputStream@internal@protobuf@google@@QEAA_NPEBD@Z ; google::protobuf::internal::EpsCopyInputStream::DataAvailable
PUBLIC	?DoneWithCheck@EpsCopyInputStream@internal@protobuf@google@@IEAA_NPEAPEBDH@Z ; google::protobuf::internal::EpsCopyInputStream::DoneWithCheck
PUBLIC	?Done@ParseContext@internal@protobuf@google@@QEAA_NPEAPEBD@Z ; google::protobuf::internal::ParseContext::Done
PUBLIC	?VarintParseSlow@internal@protobuf@google@@YAPEBDPEBDIPEAI@Z ; google::protobuf::internal::VarintParseSlow
PUBLIC	?VarintParseSlow@internal@protobuf@google@@YAPEBDPEBDIPEA_K@Z ; google::protobuf::internal::VarintParseSlow
PUBLIC	?ReadTag@internal@protobuf@google@@YAPEBDPEBDPEAII@Z ; google::protobuf::internal::ReadTag
PUBLIC	?ReadVarint64@internal@protobuf@google@@YA_KPEAPEBD@Z ; google::protobuf::internal::ReadVarint64
PUBLIC	??$VarintParse@_K@internal@protobuf@google@@YAPEBDPEBDPEA_K@Z ; google::protobuf::internal::VarintParse<unsigned __int64>
PUBLIC	?ReadVarint32@internal@protobuf@google@@YAIPEAPEBD@Z ; google::protobuf::internal::ReadVarint32
PUBLIC	??$VarintParse@I@internal@protobuf@google@@YAPEBDPEBDPEAI@Z ; google::protobuf::internal::VarintParse<unsigned int>
PUBLIC	??0UnknownFieldSet@protobuf@google@@QEAA@XZ	; google::protobuf::UnknownFieldSet::UnknownFieldSet
PUBLIC	??1UnknownFieldSet@protobuf@google@@QEAA@XZ	; google::protobuf::UnknownFieldSet::~UnknownFieldSet
PUBLIC	?Clear@UnknownFieldSet@protobuf@google@@QEAAXXZ	; google::protobuf::UnknownFieldSet::Clear
PUBLIC	??0?$allocator@VUnknownField@protobuf@google@@@std@@QEAA@XZ ; std::allocator<google::protobuf::UnknownField>::allocator<google::protobuf::UnknownField>
PUBLIC	?deallocate@?$allocator@VUnknownField@protobuf@google@@@std@@QEAAXQEAVUnknownField@protobuf@google@@_K@Z ; std::allocator<google::protobuf::UnknownField>::deallocate
PUBLIC	??0?$vector@VUnknownField@protobuf@google@@V?$allocator@VUnknownField@protobuf@google@@@std@@@std@@QEAA@XZ ; std::vector<google::protobuf::UnknownField,std::allocator<google::protobuf::UnknownField> >::vector<google::protobuf::UnknownField,std::allocator<google::protobuf::UnknownField> >
PUBLIC	??1?$vector@VUnknownField@protobuf@google@@V?$allocator@VUnknownField@protobuf@google@@@std@@@std@@QEAA@XZ ; std::vector<google::protobuf::UnknownField,std::allocator<google::protobuf::UnknownField> >::~vector<google::protobuf::UnknownField,std::allocator<google::protobuf::UnknownField> >
PUBLIC	?empty@?$vector@VUnknownField@protobuf@google@@V?$allocator@VUnknownField@protobuf@google@@@std@@@std@@QEBA_NXZ ; std::vector<google::protobuf::UnknownField,std::allocator<google::protobuf::UnknownField> >::empty
PUBLIC	?_Tidy@?$vector@VUnknownField@protobuf@google@@V?$allocator@VUnknownField@protobuf@google@@@std@@@std@@AEAAXXZ ; std::vector<google::protobuf::UnknownField,std::allocator<google::protobuf::UnknownField> >::_Tidy
PUBLIC	?_Getal@?$vector@VUnknownField@protobuf@google@@V?$allocator@VUnknownField@protobuf@google@@@std@@@std@@AEAAAEAV?$allocator@VUnknownField@protobuf@google@@@2@XZ ; std::vector<google::protobuf::UnknownField,std::allocator<google::protobuf::UnknownField> >::_Getal
PUBLIC	??0?$_Vector_val@U?$_Simple_types@VUnknownField@protobuf@google@@@std@@@std@@QEAA@XZ ; std::_Vector_val<std::_Simple_types<google::protobuf::UnknownField> >::_Vector_val<std::_Simple_types<google::protobuf::UnknownField> >
PUBLIC	?_Get_first@?$_Compressed_pair@V?$allocator@VUnknownField@protobuf@google@@@std@@V?$_Vector_val@U?$_Simple_types@VUnknownField@protobuf@google@@@std@@@2@$00@std@@QEAAAEAV?$allocator@VUnknownField@protobuf@google@@@2@XZ ; std::_Compressed_pair<std::allocator<google::protobuf::UnknownField>,std::_Vector_val<std::_Simple_types<google::protobuf::UnknownField> >,1>::_Get_first
PUBLIC	??0Message@protobuf@google@@QEAA@XZ		; google::protobuf::Message::Message
PUBLIC	?GetClassData@Message@protobuf@google@@MEBAPEBUClassData@123@XZ ; google::protobuf::Message::GetClassData
PUBLIC	??0Message@protobuf@google@@IEAA@PEAVArena@12@_N@Z ; google::protobuf::Message::Message
PUBLIC	??1Message@protobuf@google@@UEAA@XZ		; google::protobuf::Message::~Message
PUBLIC	??_GMessage@protobuf@google@@UEAAPEAXI@Z	; google::protobuf::Message::`scalar deleting destructor'
PUBLIC	??$unknown_fields@VUnknownFieldSet@protobuf@google@@@InternalMetadata@internal@protobuf@google@@QEBAAEBVUnknownFieldSet@23@P6AAEBV423@XZ@Z ; google::protobuf::internal::InternalMetadata::unknown_fields<google::protobuf::UnknownFieldSet>
PUBLIC	??$mutable_unknown_fields@VUnknownFieldSet@protobuf@google@@@InternalMetadata@internal@protobuf@google@@QEAAPEAVUnknownFieldSet@23@XZ ; google::protobuf::internal::InternalMetadata::mutable_unknown_fields<google::protobuf::UnknownFieldSet>
PUBLIC	?MergeFrom@ImageData@SC2APIProtocol@@QEAAXAEBV12@@Z ; SC2APIProtocol::ImageData::MergeFrom
PUBLIC	?GetCachedSize@ImageData@SC2APIProtocol@@UEBAHXZ ; SC2APIProtocol::ImageData::GetCachedSize
PUBLIC	??_GImageData@SC2APIProtocol@@UEAAPEAXI@Z	; SC2APIProtocol::ImageData::`scalar deleting destructor'
PUBLIC	??$CreateMaybeMessage@VImageData@SC2APIProtocol@@@MessageLite@protobuf@google@@KAPEAVImageData@SC2APIProtocol@@PEAVArena@12@@Z ; google::protobuf::MessageLite::CreateMaybeMessage<SC2APIProtocol::ImageData>
PUBLIC	?MergeFrom@PointI@SC2APIProtocol@@QEAAXAEBV12@@Z ; SC2APIProtocol::PointI::MergeFrom
PUBLIC	?GetCachedSize@PointI@SC2APIProtocol@@UEBAHXZ	; SC2APIProtocol::PointI::GetCachedSize
PUBLIC	??_GPointI@SC2APIProtocol@@UEAAPEAXI@Z		; SC2APIProtocol::PointI::`scalar deleting destructor'
PUBLIC	??$CreateMaybeMessage@VPointI@SC2APIProtocol@@@MessageLite@protobuf@google@@KAPEAVPointI@SC2APIProtocol@@PEAVArena@12@@Z ; google::protobuf::MessageLite::CreateMaybeMessage<SC2APIProtocol::PointI>
PUBLIC	?MergeFrom@RectangleI@SC2APIProtocol@@QEAAXAEBV12@@Z ; SC2APIProtocol::RectangleI::MergeFrom
PUBLIC	?GetCachedSize@RectangleI@SC2APIProtocol@@UEBAHXZ ; SC2APIProtocol::RectangleI::GetCachedSize
PUBLIC	??$GetOwnedMessage@VPointI@SC2APIProtocol@@@internal@protobuf@google@@YAPEAVPointI@SC2APIProtocol@@PEAVArena@12@PEAV34@0@Z ; google::protobuf::internal::GetOwnedMessage<SC2APIProtocol::PointI>
PUBLIC	??$CreateMaybeMessage@VActionSpatial@SC2APIProtocol@@$$V@Arena@protobuf@google@@CAPEAVActionSpatial@SC2APIProtocol@@PEAV012@@Z ; google::protobuf::Arena::CreateMaybeMessage<SC2APIProtocol::ActionSpatial>
PUBLIC	??$CreateMaybeMessage@VActionSpatialCameraMove@SC2APIProtocol@@$$V@Arena@protobuf@google@@CAPEAVActionSpatialCameraMove@SC2APIProtocol@@PEAV012@@Z ; google::protobuf::Arena::CreateMaybeMessage<SC2APIProtocol::ActionSpatialCameraMove>
PUBLIC	??$CreateMaybeMessage@VActionSpatialUnitCommand@SC2APIProtocol@@$$V@Arena@protobuf@google@@CAPEAVActionSpatialUnitCommand@SC2APIProtocol@@PEAV012@@Z ; google::protobuf::Arena::CreateMaybeMessage<SC2APIProtocol::ActionSpatialUnitCommand>
PUBLIC	??$CreateMaybeMessage@VActionSpatialUnitSelectionPoint@SC2APIProtocol@@$$V@Arena@protobuf@google@@CAPEAVActionSpatialUnitSelectionPoint@SC2APIProtocol@@PEAV012@@Z ; google::protobuf::Arena::CreateMaybeMessage<SC2APIProtocol::ActionSpatialUnitSelectionPoint>
PUBLIC	??$CreateMaybeMessage@VActionSpatialUnitSelectionRect@SC2APIProtocol@@$$V@Arena@protobuf@google@@CAPEAVActionSpatialUnitSelectionRect@SC2APIProtocol@@PEAV012@@Z ; google::protobuf::Arena::CreateMaybeMessage<SC2APIProtocol::ActionSpatialUnitSelectionRect>
PUBLIC	??$CreateMaybeMessage@VFeatureLayers@SC2APIProtocol@@$$V@Arena@protobuf@google@@CAPEAVFeatureLayers@SC2APIProtocol@@PEAV012@@Z ; google::protobuf::Arena::CreateMaybeMessage<SC2APIProtocol::FeatureLayers>
PUBLIC	??$CreateMaybeMessage@VFeatureLayersMinimap@SC2APIProtocol@@$$V@Arena@protobuf@google@@CAPEAVFeatureLayersMinimap@SC2APIProtocol@@PEAV012@@Z ; google::protobuf::Arena::CreateMaybeMessage<SC2APIProtocol::FeatureLayersMinimap>
PUBLIC	??$CreateMaybeMessage@VObservationFeatureLayer@SC2APIProtocol@@$$V@Arena@protobuf@google@@CAPEAVObservationFeatureLayer@SC2APIProtocol@@PEAV012@@Z ; google::protobuf::Arena::CreateMaybeMessage<SC2APIProtocol::ObservationFeatureLayer>
PUBLIC	??$CreateMaybeMessage@VObservationRender@SC2APIProtocol@@$$V@Arena@protobuf@google@@CAPEAVObservationRender@SC2APIProtocol@@PEAV012@@Z ; google::protobuf::Arena::CreateMaybeMessage<SC2APIProtocol::ObservationRender>
PUBLIC	?ActionSpatialUnitSelectionPoint_Type_IsValid@SC2APIProtocol@@YA_NH@Z ; SC2APIProtocol::ActionSpatialUnitSelectionPoint_Type_IsValid
PUBLIC	?ActionSpatialUnitSelectionPoint_Type_descriptor@SC2APIProtocol@@YAPEBVEnumDescriptor@protobuf@google@@XZ ; SC2APIProtocol::ActionSpatialUnitSelectionPoint_Type_descriptor
PUBLIC	??1ObservationFeatureLayer@SC2APIProtocol@@UEAA@XZ ; SC2APIProtocol::ObservationFeatureLayer::~ObservationFeatureLayer
PUBLIC	??0ObservationFeatureLayer@SC2APIProtocol@@QEAA@AEBV01@@Z ; SC2APIProtocol::ObservationFeatureLayer::ObservationFeatureLayer
PUBLIC	?internal_default_instance@ObservationFeatureLayer@SC2APIProtocol@@SAPEBV12@XZ ; SC2APIProtocol::ObservationFeatureLayer::internal_default_instance
PUBLIC	?CopyFrom@ObservationFeatureLayer@SC2APIProtocol@@QEAAXAEBV12@@Z ; SC2APIProtocol::ObservationFeatureLayer::CopyFrom
PUBLIC	?MergeFrom@ObservationFeatureLayer@SC2APIProtocol@@QEAAXAEBV12@@Z ; SC2APIProtocol::ObservationFeatureLayer::MergeFrom
PUBLIC	?SharedCtor@ObservationFeatureLayer@SC2APIProtocol@@AEAAXPEAVArena@protobuf@google@@_N@Z ; SC2APIProtocol::ObservationFeatureLayer::SharedCtor
PUBLIC	?SharedDtor@ObservationFeatureLayer@SC2APIProtocol@@AEAAXXZ ; SC2APIProtocol::ObservationFeatureLayer::SharedDtor
PUBLIC	?InternalSwap@ObservationFeatureLayer@SC2APIProtocol@@AEAAXPEAV12@@Z ; SC2APIProtocol::ObservationFeatureLayer::InternalSwap
PUBLIC	??0ObservationFeatureLayer@SC2APIProtocol@@IEAA@PEAVArena@protobuf@google@@_N@Z ; SC2APIProtocol::ObservationFeatureLayer::ObservationFeatureLayer
PUBLIC	?_internal_has_renders@ObservationFeatureLayer@SC2APIProtocol@@AEBA_NXZ ; SC2APIProtocol::ObservationFeatureLayer::_internal_has_renders
PUBLIC	?_internal_renders@ObservationFeatureLayer@SC2APIProtocol@@AEBAAEBVFeatureLayers@2@XZ ; SC2APIProtocol::ObservationFeatureLayer::_internal_renders
PUBLIC	?_internal_mutable_renders@ObservationFeatureLayer@SC2APIProtocol@@AEAAPEAVFeatureLayers@2@XZ ; SC2APIProtocol::ObservationFeatureLayer::_internal_mutable_renders
PUBLIC	?_internal_has_minimap_renders@ObservationFeatureLayer@SC2APIProtocol@@AEBA_NXZ ; SC2APIProtocol::ObservationFeatureLayer::_internal_has_minimap_renders
PUBLIC	?_internal_minimap_renders@ObservationFeatureLayer@SC2APIProtocol@@AEBAAEBVFeatureLayersMinimap@2@XZ ; SC2APIProtocol::ObservationFeatureLayer::_internal_minimap_renders
PUBLIC	?_internal_mutable_minimap_renders@ObservationFeatureLayer@SC2APIProtocol@@AEAAPEAVFeatureLayersMinimap@2@XZ ; SC2APIProtocol::ObservationFeatureLayer::_internal_mutable_minimap_renders
PUBLIC	??$CreateMaybeMessage@VObservationFeatureLayer@SC2APIProtocol@@@MessageLite@protobuf@google@@KAPEAVObservationFeatureLayer@SC2APIProtocol@@PEAVArena@12@@Z ; google::protobuf::MessageLite::CreateMaybeMessage<SC2APIProtocol::ObservationFeatureLayer>
PUBLIC	??1FeatureLayers@SC2APIProtocol@@UEAA@XZ	; SC2APIProtocol::FeatureLayers::~FeatureLayers
PUBLIC	??0FeatureLayers@SC2APIProtocol@@QEAA@AEBV01@@Z	; SC2APIProtocol::FeatureLayers::FeatureLayers
PUBLIC	?internal_default_instance@FeatureLayers@SC2APIProtocol@@SAPEBV12@XZ ; SC2APIProtocol::FeatureLayers::internal_default_instance
PUBLIC	?CopyFrom@FeatureLayers@SC2APIProtocol@@QEAAXAEBV12@@Z ; SC2APIProtocol::FeatureLayers::CopyFrom
PUBLIC	?MergeFrom@FeatureLayers@SC2APIProtocol@@QEAAXAEBV12@@Z ; SC2APIProtocol::FeatureLayers::MergeFrom
PUBLIC	?SharedCtor@FeatureLayers@SC2APIProtocol@@AEAAXPEAVArena@protobuf@google@@_N@Z ; SC2APIProtocol::FeatureLayers::SharedCtor
PUBLIC	?SharedDtor@FeatureLayers@SC2APIProtocol@@AEAAXXZ ; SC2APIProtocol::FeatureLayers::SharedDtor
PUBLIC	?InternalSwap@FeatureLayers@SC2APIProtocol@@AEAAXPEAV12@@Z ; SC2APIProtocol::FeatureLayers::InternalSwap
PUBLIC	??0FeatureLayers@SC2APIProtocol@@IEAA@PEAVArena@protobuf@google@@_N@Z ; SC2APIProtocol::FeatureLayers::FeatureLayers
PUBLIC	?_internal_has_height_map@FeatureLayers@SC2APIProtocol@@AEBA_NXZ ; SC2APIProtocol::FeatureLayers::_internal_has_height_map
PUBLIC	?clear_height_map@FeatureLayers@SC2APIProtocol@@QEAAXXZ ; SC2APIProtocol::FeatureLayers::clear_height_map
PUBLIC	?_internal_height_map@FeatureLayers@SC2APIProtocol@@AEBAAEBVImageData@2@XZ ; SC2APIProtocol::FeatureLayers::_internal_height_map
PUBLIC	?_internal_mutable_height_map@FeatureLayers@SC2APIProtocol@@AEAAPEAVImageData@2@XZ ; SC2APIProtocol::FeatureLayers::_internal_mutable_height_map
PUBLIC	?_internal_has_visibility_map@FeatureLayers@SC2APIProtocol@@AEBA_NXZ ; SC2APIProtocol::FeatureLayers::_internal_has_visibility_map
PUBLIC	?clear_visibility_map@FeatureLayers@SC2APIProtocol@@QEAAXXZ ; SC2APIProtocol::FeatureLayers::clear_visibility_map
PUBLIC	?_internal_visibility_map@FeatureLayers@SC2APIProtocol@@AEBAAEBVImageData@2@XZ ; SC2APIProtocol::FeatureLayers::_internal_visibility_map
PUBLIC	?_internal_mutable_visibility_map@FeatureLayers@SC2APIProtocol@@AEAAPEAVImageData@2@XZ ; SC2APIProtocol::FeatureLayers::_internal_mutable_visibility_map
PUBLIC	?_internal_has_creep@FeatureLayers@SC2APIProtocol@@AEBA_NXZ ; SC2APIProtocol::FeatureLayers::_internal_has_creep
PUBLIC	?clear_creep@FeatureLayers@SC2APIProtocol@@QEAAXXZ ; SC2APIProtocol::FeatureLayers::clear_creep
PUBLIC	?_internal_creep@FeatureLayers@SC2APIProtocol@@AEBAAEBVImageData@2@XZ ; SC2APIProtocol::FeatureLayers::_internal_creep
PUBLIC	?_internal_mutable_creep@FeatureLayers@SC2APIProtocol@@AEAAPEAVImageData@2@XZ ; SC2APIProtocol::FeatureLayers::_internal_mutable_creep
PUBLIC	?_internal_has_power@FeatureLayers@SC2APIProtocol@@AEBA_NXZ ; SC2APIProtocol::FeatureLayers::_internal_has_power
PUBLIC	?clear_power@FeatureLayers@SC2APIProtocol@@QEAAXXZ ; SC2APIProtocol::FeatureLayers::clear_power
PUBLIC	?_internal_power@FeatureLayers@SC2APIProtocol@@AEBAAEBVImageData@2@XZ ; SC2APIProtocol::FeatureLayers::_internal_power
PUBLIC	?_internal_mutable_power@FeatureLayers@SC2APIProtocol@@AEAAPEAVImageData@2@XZ ; SC2APIProtocol::FeatureLayers::_internal_mutable_power
PUBLIC	?_internal_has_player_id@FeatureLayers@SC2APIProtocol@@AEBA_NXZ ; SC2APIProtocol::FeatureLayers::_internal_has_player_id
PUBLIC	?clear_player_id@FeatureLayers@SC2APIProtocol@@QEAAXXZ ; SC2APIProtocol::FeatureLayers::clear_player_id
PUBLIC	?_internal_player_id@FeatureLayers@SC2APIProtocol@@AEBAAEBVImageData@2@XZ ; SC2APIProtocol::FeatureLayers::_internal_player_id
PUBLIC	?_internal_mutable_player_id@FeatureLayers@SC2APIProtocol@@AEAAPEAVImageData@2@XZ ; SC2APIProtocol::FeatureLayers::_internal_mutable_player_id
PUBLIC	?_internal_has_unit_type@FeatureLayers@SC2APIProtocol@@AEBA_NXZ ; SC2APIProtocol::FeatureLayers::_internal_has_unit_type
PUBLIC	?clear_unit_type@FeatureLayers@SC2APIProtocol@@QEAAXXZ ; SC2APIProtocol::FeatureLayers::clear_unit_type
PUBLIC	?_internal_unit_type@FeatureLayers@SC2APIProtocol@@AEBAAEBVImageData@2@XZ ; SC2APIProtocol::FeatureLayers::_internal_unit_type
PUBLIC	?_internal_mutable_unit_type@FeatureLayers@SC2APIProtocol@@AEAAPEAVImageData@2@XZ ; SC2APIProtocol::FeatureLayers::_internal_mutable_unit_type
PUBLIC	?_internal_has_selected@FeatureLayers@SC2APIProtocol@@AEBA_NXZ ; SC2APIProtocol::FeatureLayers::_internal_has_selected
PUBLIC	?clear_selected@FeatureLayers@SC2APIProtocol@@QEAAXXZ ; SC2APIProtocol::FeatureLayers::clear_selected
PUBLIC	?_internal_selected@FeatureLayers@SC2APIProtocol@@AEBAAEBVImageData@2@XZ ; SC2APIProtocol::FeatureLayers::_internal_selected
PUBLIC	?_internal_mutable_selected@FeatureLayers@SC2APIProtocol@@AEAAPEAVImageData@2@XZ ; SC2APIProtocol::FeatureLayers::_internal_mutable_selected
PUBLIC	?_internal_has_unit_hit_points@FeatureLayers@SC2APIProtocol@@AEBA_NXZ ; SC2APIProtocol::FeatureLayers::_internal_has_unit_hit_points
PUBLIC	?clear_unit_hit_points@FeatureLayers@SC2APIProtocol@@QEAAXXZ ; SC2APIProtocol::FeatureLayers::clear_unit_hit_points
PUBLIC	?_internal_unit_hit_points@FeatureLayers@SC2APIProtocol@@AEBAAEBVImageData@2@XZ ; SC2APIProtocol::FeatureLayers::_internal_unit_hit_points
PUBLIC	?_internal_mutable_unit_hit_points@FeatureLayers@SC2APIProtocol@@AEAAPEAVImageData@2@XZ ; SC2APIProtocol::FeatureLayers::_internal_mutable_unit_hit_points
PUBLIC	?_internal_has_unit_energy@FeatureLayers@SC2APIProtocol@@AEBA_NXZ ; SC2APIProtocol::FeatureLayers::_internal_has_unit_energy
PUBLIC	?clear_unit_energy@FeatureLayers@SC2APIProtocol@@QEAAXXZ ; SC2APIProtocol::FeatureLayers::clear_unit_energy
PUBLIC	?_internal_unit_energy@FeatureLayers@SC2APIProtocol@@AEBAAEBVImageData@2@XZ ; SC2APIProtocol::FeatureLayers::_internal_unit_energy
PUBLIC	?_internal_mutable_unit_energy@FeatureLayers@SC2APIProtocol@@AEAAPEAVImageData@2@XZ ; SC2APIProtocol::FeatureLayers::_internal_mutable_unit_energy
PUBLIC	?_internal_has_unit_shields@FeatureLayers@SC2APIProtocol@@AEBA_NXZ ; SC2APIProtocol::FeatureLayers::_internal_has_unit_shields
PUBLIC	?clear_unit_shields@FeatureLayers@SC2APIProtocol@@QEAAXXZ ; SC2APIProtocol::FeatureLayers::clear_unit_shields
PUBLIC	?_internal_unit_shields@FeatureLayers@SC2APIProtocol@@AEBAAEBVImageData@2@XZ ; SC2APIProtocol::FeatureLayers::_internal_unit_shields
PUBLIC	?_internal_mutable_unit_shields@FeatureLayers@SC2APIProtocol@@AEAAPEAVImageData@2@XZ ; SC2APIProtocol::FeatureLayers::_internal_mutable_unit_shields
PUBLIC	?_internal_has_player_relative@FeatureLayers@SC2APIProtocol@@AEBA_NXZ ; SC2APIProtocol::FeatureLayers::_internal_has_player_relative
PUBLIC	?clear_player_relative@FeatureLayers@SC2APIProtocol@@QEAAXXZ ; SC2APIProtocol::FeatureLayers::clear_player_relative
PUBLIC	?_internal_player_relative@FeatureLayers@SC2APIProtocol@@AEBAAEBVImageData@2@XZ ; SC2APIProtocol::FeatureLayers::_internal_player_relative
PUBLIC	?_internal_mutable_player_relative@FeatureLayers@SC2APIProtocol@@AEAAPEAVImageData@2@XZ ; SC2APIProtocol::FeatureLayers::_internal_mutable_player_relative
PUBLIC	?_internal_has_unit_density_aa@FeatureLayers@SC2APIProtocol@@AEBA_NXZ ; SC2APIProtocol::FeatureLayers::_internal_has_unit_density_aa
PUBLIC	?clear_unit_density_aa@FeatureLayers@SC2APIProtocol@@QEAAXXZ ; SC2APIProtocol::FeatureLayers::clear_unit_density_aa
PUBLIC	?_internal_unit_density_aa@FeatureLayers@SC2APIProtocol@@AEBAAEBVImageData@2@XZ ; SC2APIProtocol::FeatureLayers::_internal_unit_density_aa
PUBLIC	?_internal_mutable_unit_density_aa@FeatureLayers@SC2APIProtocol@@AEAAPEAVImageData@2@XZ ; SC2APIProtocol::FeatureLayers::_internal_mutable_unit_density_aa
PUBLIC	?_internal_has_unit_density@FeatureLayers@SC2APIProtocol@@AEBA_NXZ ; SC2APIProtocol::FeatureLayers::_internal_has_unit_density
PUBLIC	?clear_unit_density@FeatureLayers@SC2APIProtocol@@QEAAXXZ ; SC2APIProtocol::FeatureLayers::clear_unit_density
PUBLIC	?_internal_unit_density@FeatureLayers@SC2APIProtocol@@AEBAAEBVImageData@2@XZ ; SC2APIProtocol::FeatureLayers::_internal_unit_density
PUBLIC	?_internal_mutable_unit_density@FeatureLayers@SC2APIProtocol@@AEAAPEAVImageData@2@XZ ; SC2APIProtocol::FeatureLayers::_internal_mutable_unit_density
PUBLIC	?_internal_has_unit_hit_points_ratio@FeatureLayers@SC2APIProtocol@@AEBA_NXZ ; SC2APIProtocol::FeatureLayers::_internal_has_unit_hit_points_ratio
PUBLIC	?clear_unit_hit_points_ratio@FeatureLayers@SC2APIProtocol@@QEAAXXZ ; SC2APIProtocol::FeatureLayers::clear_unit_hit_points_ratio
PUBLIC	?_internal_unit_hit_points_ratio@FeatureLayers@SC2APIProtocol@@AEBAAEBVImageData@2@XZ ; SC2APIProtocol::FeatureLayers::_internal_unit_hit_points_ratio
PUBLIC	?_internal_mutable_unit_hit_points_ratio@FeatureLayers@SC2APIProtocol@@AEAAPEAVImageData@2@XZ ; SC2APIProtocol::FeatureLayers::_internal_mutable_unit_hit_points_ratio
PUBLIC	?_internal_has_unit_energy_ratio@FeatureLayers@SC2APIProtocol@@AEBA_NXZ ; SC2APIProtocol::FeatureLayers::_internal_has_unit_energy_ratio
PUBLIC	?clear_unit_energy_ratio@FeatureLayers@SC2APIProtocol@@QEAAXXZ ; SC2APIProtocol::FeatureLayers::clear_unit_energy_ratio
PUBLIC	?_internal_unit_energy_ratio@FeatureLayers@SC2APIProtocol@@AEBAAEBVImageData@2@XZ ; SC2APIProtocol::FeatureLayers::_internal_unit_energy_ratio
PUBLIC	?_internal_mutable_unit_energy_ratio@FeatureLayers@SC2APIProtocol@@AEAAPEAVImageData@2@XZ ; SC2APIProtocol::FeatureLayers::_internal_mutable_unit_energy_ratio
PUBLIC	?_internal_has_unit_shields_ratio@FeatureLayers@SC2APIProtocol@@AEBA_NXZ ; SC2APIProtocol::FeatureLayers::_internal_has_unit_shields_ratio
PUBLIC	?clear_unit_shields_ratio@FeatureLayers@SC2APIProtocol@@QEAAXXZ ; SC2APIProtocol::FeatureLayers::clear_unit_shields_ratio
PUBLIC	?_internal_unit_shields_ratio@FeatureLayers@SC2APIProtocol@@AEBAAEBVImageData@2@XZ ; SC2APIProtocol::FeatureLayers::_internal_unit_shields_ratio
PUBLIC	?_internal_mutable_unit_shields_ratio@FeatureLayers@SC2APIProtocol@@AEAAPEAVImageData@2@XZ ; SC2APIProtocol::FeatureLayers::_internal_mutable_unit_shields_ratio
PUBLIC	?_internal_has_effects@FeatureLayers@SC2APIProtocol@@AEBA_NXZ ; SC2APIProtocol::FeatureLayers::_internal_has_effects
PUBLIC	?clear_effects@FeatureLayers@SC2APIProtocol@@QEAAXXZ ; SC2APIProtocol::FeatureLayers::clear_effects
PUBLIC	?_internal_effects@FeatureLayers@SC2APIProtocol@@AEBAAEBVImageData@2@XZ ; SC2APIProtocol::FeatureLayers::_internal_effects
PUBLIC	?_internal_mutable_effects@FeatureLayers@SC2APIProtocol@@AEAAPEAVImageData@2@XZ ; SC2APIProtocol::FeatureLayers::_internal_mutable_effects
PUBLIC	?_internal_has_hallucinations@FeatureLayers@SC2APIProtocol@@AEBA_NXZ ; SC2APIProtocol::FeatureLayers::_internal_has_hallucinations
PUBLIC	?clear_hallucinations@FeatureLayers@SC2APIProtocol@@QEAAXXZ ; SC2APIProtocol::FeatureLayers::clear_hallucinations
PUBLIC	?_internal_hallucinations@FeatureLayers@SC2APIProtocol@@AEBAAEBVImageData@2@XZ ; SC2APIProtocol::FeatureLayers::_internal_hallucinations
PUBLIC	?_internal_mutable_hallucinations@FeatureLayers@SC2APIProtocol@@AEAAPEAVImageData@2@XZ ; SC2APIProtocol::FeatureLayers::_internal_mutable_hallucinations
PUBLIC	?_internal_has_cloaked@FeatureLayers@SC2APIProtocol@@AEBA_NXZ ; SC2APIProtocol::FeatureLayers::_internal_has_cloaked
PUBLIC	?clear_cloaked@FeatureLayers@SC2APIProtocol@@QEAAXXZ ; SC2APIProtocol::FeatureLayers::clear_cloaked
PUBLIC	?_internal_cloaked@FeatureLayers@SC2APIProtocol@@AEBAAEBVImageData@2@XZ ; SC2APIProtocol::FeatureLayers::_internal_cloaked
PUBLIC	?_internal_mutable_cloaked@FeatureLayers@SC2APIProtocol@@AEAAPEAVImageData@2@XZ ; SC2APIProtocol::FeatureLayers::_internal_mutable_cloaked
PUBLIC	?_internal_has_blip@FeatureLayers@SC2APIProtocol@@AEBA_NXZ ; SC2APIProtocol::FeatureLayers::_internal_has_blip
PUBLIC	?clear_blip@FeatureLayers@SC2APIProtocol@@QEAAXXZ ; SC2APIProtocol::FeatureLayers::clear_blip
PUBLIC	?_internal_blip@FeatureLayers@SC2APIProtocol@@AEBAAEBVImageData@2@XZ ; SC2APIProtocol::FeatureLayers::_internal_blip
PUBLIC	?_internal_mutable_blip@FeatureLayers@SC2APIProtocol@@AEAAPEAVImageData@2@XZ ; SC2APIProtocol::FeatureLayers::_internal_mutable_blip
PUBLIC	?_internal_has_buffs@FeatureLayers@SC2APIProtocol@@AEBA_NXZ ; SC2APIProtocol::FeatureLayers::_internal_has_buffs
PUBLIC	?clear_buffs@FeatureLayers@SC2APIProtocol@@QEAAXXZ ; SC2APIProtocol::FeatureLayers::clear_buffs
PUBLIC	?_internal_buffs@FeatureLayers@SC2APIProtocol@@AEBAAEBVImageData@2@XZ ; SC2APIProtocol::FeatureLayers::_internal_buffs
PUBLIC	?_internal_mutable_buffs@FeatureLayers@SC2APIProtocol@@AEAAPEAVImageData@2@XZ ; SC2APIProtocol::FeatureLayers::_internal_mutable_buffs
PUBLIC	?_internal_has_active@FeatureLayers@SC2APIProtocol@@AEBA_NXZ ; SC2APIProtocol::FeatureLayers::_internal_has_active
PUBLIC	?clear_active@FeatureLayers@SC2APIProtocol@@QEAAXXZ ; SC2APIProtocol::FeatureLayers::clear_active
PUBLIC	?_internal_active@FeatureLayers@SC2APIProtocol@@AEBAAEBVImageData@2@XZ ; SC2APIProtocol::FeatureLayers::_internal_active
PUBLIC	?_internal_mutable_active@FeatureLayers@SC2APIProtocol@@AEAAPEAVImageData@2@XZ ; SC2APIProtocol::FeatureLayers::_internal_mutable_active
PUBLIC	?_internal_has_buff_duration@FeatureLayers@SC2APIProtocol@@AEBA_NXZ ; SC2APIProtocol::FeatureLayers::_internal_has_buff_duration
PUBLIC	?clear_buff_duration@FeatureLayers@SC2APIProtocol@@QEAAXXZ ; SC2APIProtocol::FeatureLayers::clear_buff_duration
PUBLIC	?_internal_buff_duration@FeatureLayers@SC2APIProtocol@@AEBAAEBVImageData@2@XZ ; SC2APIProtocol::FeatureLayers::_internal_buff_duration
PUBLIC	?_internal_mutable_buff_duration@FeatureLayers@SC2APIProtocol@@AEAAPEAVImageData@2@XZ ; SC2APIProtocol::FeatureLayers::_internal_mutable_buff_duration
PUBLIC	?_internal_has_build_progress@FeatureLayers@SC2APIProtocol@@AEBA_NXZ ; SC2APIProtocol::FeatureLayers::_internal_has_build_progress
PUBLIC	?clear_build_progress@FeatureLayers@SC2APIProtocol@@QEAAXXZ ; SC2APIProtocol::FeatureLayers::clear_build_progress
PUBLIC	?_internal_build_progress@FeatureLayers@SC2APIProtocol@@AEBAAEBVImageData@2@XZ ; SC2APIProtocol::FeatureLayers::_internal_build_progress
PUBLIC	?_internal_mutable_build_progress@FeatureLayers@SC2APIProtocol@@AEAAPEAVImageData@2@XZ ; SC2APIProtocol::FeatureLayers::_internal_mutable_build_progress
PUBLIC	?_internal_has_buildable@FeatureLayers@SC2APIProtocol@@AEBA_NXZ ; SC2APIProtocol::FeatureLayers::_internal_has_buildable
PUBLIC	?clear_buildable@FeatureLayers@SC2APIProtocol@@QEAAXXZ ; SC2APIProtocol::FeatureLayers::clear_buildable
PUBLIC	?_internal_buildable@FeatureLayers@SC2APIProtocol@@AEBAAEBVImageData@2@XZ ; SC2APIProtocol::FeatureLayers::_internal_buildable
PUBLIC	?_internal_mutable_buildable@FeatureLayers@SC2APIProtocol@@AEAAPEAVImageData@2@XZ ; SC2APIProtocol::FeatureLayers::_internal_mutable_buildable
PUBLIC	?_internal_has_pathable@FeatureLayers@SC2APIProtocol@@AEBA_NXZ ; SC2APIProtocol::FeatureLayers::_internal_has_pathable
PUBLIC	?clear_pathable@FeatureLayers@SC2APIProtocol@@QEAAXXZ ; SC2APIProtocol::FeatureLayers::clear_pathable
PUBLIC	?_internal_pathable@FeatureLayers@SC2APIProtocol@@AEBAAEBVImageData@2@XZ ; SC2APIProtocol::FeatureLayers::_internal_pathable
PUBLIC	?_internal_mutable_pathable@FeatureLayers@SC2APIProtocol@@AEAAPEAVImageData@2@XZ ; SC2APIProtocol::FeatureLayers::_internal_mutable_pathable
PUBLIC	?_internal_has_placeholder@FeatureLayers@SC2APIProtocol@@AEBA_NXZ ; SC2APIProtocol::FeatureLayers::_internal_has_placeholder
PUBLIC	?clear_placeholder@FeatureLayers@SC2APIProtocol@@QEAAXXZ ; SC2APIProtocol::FeatureLayers::clear_placeholder
PUBLIC	?_internal_placeholder@FeatureLayers@SC2APIProtocol@@AEBAAEBVImageData@2@XZ ; SC2APIProtocol::FeatureLayers::_internal_placeholder
PUBLIC	?_internal_mutable_placeholder@FeatureLayers@SC2APIProtocol@@AEAAPEAVImageData@2@XZ ; SC2APIProtocol::FeatureLayers::_internal_mutable_placeholder
PUBLIC	??$CreateMaybeMessage@VFeatureLayers@SC2APIProtocol@@@MessageLite@protobuf@google@@KAPEAVFeatureLayers@SC2APIProtocol@@PEAVArena@12@@Z ; google::protobuf::MessageLite::CreateMaybeMessage<SC2APIProtocol::FeatureLayers>
PUBLIC	??1FeatureLayersMinimap@SC2APIProtocol@@UEAA@XZ	; SC2APIProtocol::FeatureLayersMinimap::~FeatureLayersMinimap
PUBLIC	??0FeatureLayersMinimap@SC2APIProtocol@@QEAA@AEBV01@@Z ; SC2APIProtocol::FeatureLayersMinimap::FeatureLayersMinimap
PUBLIC	?internal_default_instance@FeatureLayersMinimap@SC2APIProtocol@@SAPEBV12@XZ ; SC2APIProtocol::FeatureLayersMinimap::internal_default_instance
PUBLIC	?CopyFrom@FeatureLayersMinimap@SC2APIProtocol@@QEAAXAEBV12@@Z ; SC2APIProtocol::FeatureLayersMinimap::CopyFrom
PUBLIC	?MergeFrom@FeatureLayersMinimap@SC2APIProtocol@@QEAAXAEBV12@@Z ; SC2APIProtocol::FeatureLayersMinimap::MergeFrom
PUBLIC	?SharedCtor@FeatureLayersMinimap@SC2APIProtocol@@AEAAXPEAVArena@protobuf@google@@_N@Z ; SC2APIProtocol::FeatureLayersMinimap::SharedCtor
PUBLIC	?SharedDtor@FeatureLayersMinimap@SC2APIProtocol@@AEAAXXZ ; SC2APIProtocol::FeatureLayersMinimap::SharedDtor
PUBLIC	?InternalSwap@FeatureLayersMinimap@SC2APIProtocol@@AEAAXPEAV12@@Z ; SC2APIProtocol::FeatureLayersMinimap::InternalSwap
PUBLIC	??0FeatureLayersMinimap@SC2APIProtocol@@IEAA@PEAVArena@protobuf@google@@_N@Z ; SC2APIProtocol::FeatureLayersMinimap::FeatureLayersMinimap
PUBLIC	?_internal_has_height_map@FeatureLayersMinimap@SC2APIProtocol@@AEBA_NXZ ; SC2APIProtocol::FeatureLayersMinimap::_internal_has_height_map
PUBLIC	?clear_height_map@FeatureLayersMinimap@SC2APIProtocol@@QEAAXXZ ; SC2APIProtocol::FeatureLayersMinimap::clear_height_map
PUBLIC	?_internal_height_map@FeatureLayersMinimap@SC2APIProtocol@@AEBAAEBVImageData@2@XZ ; SC2APIProtocol::FeatureLayersMinimap::_internal_height_map
PUBLIC	?_internal_mutable_height_map@FeatureLayersMinimap@SC2APIProtocol@@AEAAPEAVImageData@2@XZ ; SC2APIProtocol::FeatureLayersMinimap::_internal_mutable_height_map
PUBLIC	?_internal_has_visibility_map@FeatureLayersMinimap@SC2APIProtocol@@AEBA_NXZ ; SC2APIProtocol::FeatureLayersMinimap::_internal_has_visibility_map
PUBLIC	?clear_visibility_map@FeatureLayersMinimap@SC2APIProtocol@@QEAAXXZ ; SC2APIProtocol::FeatureLayersMinimap::clear_visibility_map
PUBLIC	?_internal_visibility_map@FeatureLayersMinimap@SC2APIProtocol@@AEBAAEBVImageData@2@XZ ; SC2APIProtocol::FeatureLayersMinimap::_internal_visibility_map
PUBLIC	?_internal_mutable_visibility_map@FeatureLayersMinimap@SC2APIProtocol@@AEAAPEAVImageData@2@XZ ; SC2APIProtocol::FeatureLayersMinimap::_internal_mutable_visibility_map
PUBLIC	?_internal_has_creep@FeatureLayersMinimap@SC2APIProtocol@@AEBA_NXZ ; SC2APIProtocol::FeatureLayersMinimap::_internal_has_creep
PUBLIC	?clear_creep@FeatureLayersMinimap@SC2APIProtocol@@QEAAXXZ ; SC2APIProtocol::FeatureLayersMinimap::clear_creep
PUBLIC	?_internal_creep@FeatureLayersMinimap@SC2APIProtocol@@AEBAAEBVImageData@2@XZ ; SC2APIProtocol::FeatureLayersMinimap::_internal_creep
PUBLIC	?_internal_mutable_creep@FeatureLayersMinimap@SC2APIProtocol@@AEAAPEAVImageData@2@XZ ; SC2APIProtocol::FeatureLayersMinimap::_internal_mutable_creep
PUBLIC	?_internal_has_camera@FeatureLayersMinimap@SC2APIProtocol@@AEBA_NXZ ; SC2APIProtocol::FeatureLayersMinimap::_internal_has_camera
PUBLIC	?clear_camera@FeatureLayersMinimap@SC2APIProtocol@@QEAAXXZ ; SC2APIProtocol::FeatureLayersMinimap::clear_camera
PUBLIC	?_internal_camera@FeatureLayersMinimap@SC2APIProtocol@@AEBAAEBVImageData@2@XZ ; SC2APIProtocol::FeatureLayersMinimap::_internal_camera
PUBLIC	?_internal_mutable_camera@FeatureLayersMinimap@SC2APIProtocol@@AEAAPEAVImageData@2@XZ ; SC2APIProtocol::FeatureLayersMinimap::_internal_mutable_camera
PUBLIC	?_internal_has_player_id@FeatureLayersMinimap@SC2APIProtocol@@AEBA_NXZ ; SC2APIProtocol::FeatureLayersMinimap::_internal_has_player_id
PUBLIC	?clear_player_id@FeatureLayersMinimap@SC2APIProtocol@@QEAAXXZ ; SC2APIProtocol::FeatureLayersMinimap::clear_player_id
PUBLIC	?_internal_player_id@FeatureLayersMinimap@SC2APIProtocol@@AEBAAEBVImageData@2@XZ ; SC2APIProtocol::FeatureLayersMinimap::_internal_player_id
PUBLIC	?_internal_mutable_player_id@FeatureLayersMinimap@SC2APIProtocol@@AEAAPEAVImageData@2@XZ ; SC2APIProtocol::FeatureLayersMinimap::_internal_mutable_player_id
PUBLIC	?_internal_has_player_relative@FeatureLayersMinimap@SC2APIProtocol@@AEBA_NXZ ; SC2APIProtocol::FeatureLayersMinimap::_internal_has_player_relative
PUBLIC	?clear_player_relative@FeatureLayersMinimap@SC2APIProtocol@@QEAAXXZ ; SC2APIProtocol::FeatureLayersMinimap::clear_player_relative
PUBLIC	?_internal_player_relative@FeatureLayersMinimap@SC2APIProtocol@@AEBAAEBVImageData@2@XZ ; SC2APIProtocol::FeatureLayersMinimap::_internal_player_relative
PUBLIC	?_internal_mutable_player_relative@FeatureLayersMinimap@SC2APIProtocol@@AEAAPEAVImageData@2@XZ ; SC2APIProtocol::FeatureLayersMinimap::_internal_mutable_player_relative
PUBLIC	?_internal_has_selected@FeatureLayersMinimap@SC2APIProtocol@@AEBA_NXZ ; SC2APIProtocol::FeatureLayersMinimap::_internal_has_selected
PUBLIC	?clear_selected@FeatureLayersMinimap@SC2APIProtocol@@QEAAXXZ ; SC2APIProtocol::FeatureLayersMinimap::clear_selected
PUBLIC	?_internal_selected@FeatureLayersMinimap@SC2APIProtocol@@AEBAAEBVImageData@2@XZ ; SC2APIProtocol::FeatureLayersMinimap::_internal_selected
PUBLIC	?_internal_mutable_selected@FeatureLayersMinimap@SC2APIProtocol@@AEAAPEAVImageData@2@XZ ; SC2APIProtocol::FeatureLayersMinimap::_internal_mutable_selected
PUBLIC	?_internal_has_unit_type@FeatureLayersMinimap@SC2APIProtocol@@AEBA_NXZ ; SC2APIProtocol::FeatureLayersMinimap::_internal_has_unit_type
PUBLIC	?clear_unit_type@FeatureLayersMinimap@SC2APIProtocol@@QEAAXXZ ; SC2APIProtocol::FeatureLayersMinimap::clear_unit_type
PUBLIC	?_internal_unit_type@FeatureLayersMinimap@SC2APIProtocol@@AEBAAEBVImageData@2@XZ ; SC2APIProtocol::FeatureLayersMinimap::_internal_unit_type
PUBLIC	?_internal_mutable_unit_type@FeatureLayersMinimap@SC2APIProtocol@@AEAAPEAVImageData@2@XZ ; SC2APIProtocol::FeatureLayersMinimap::_internal_mutable_unit_type
PUBLIC	?_internal_has_alerts@FeatureLayersMinimap@SC2APIProtocol@@AEBA_NXZ ; SC2APIProtocol::FeatureLayersMinimap::_internal_has_alerts
PUBLIC	?clear_alerts@FeatureLayersMinimap@SC2APIProtocol@@QEAAXXZ ; SC2APIProtocol::FeatureLayersMinimap::clear_alerts
PUBLIC	?_internal_alerts@FeatureLayersMinimap@SC2APIProtocol@@AEBAAEBVImageData@2@XZ ; SC2APIProtocol::FeatureLayersMinimap::_internal_alerts
PUBLIC	?_internal_mutable_alerts@FeatureLayersMinimap@SC2APIProtocol@@AEAAPEAVImageData@2@XZ ; SC2APIProtocol::FeatureLayersMinimap::_internal_mutable_alerts
PUBLIC	?_internal_has_buildable@FeatureLayersMinimap@SC2APIProtocol@@AEBA_NXZ ; SC2APIProtocol::FeatureLayersMinimap::_internal_has_buildable
PUBLIC	?clear_buildable@FeatureLayersMinimap@SC2APIProtocol@@QEAAXXZ ; SC2APIProtocol::FeatureLayersMinimap::clear_buildable
PUBLIC	?_internal_buildable@FeatureLayersMinimap@SC2APIProtocol@@AEBAAEBVImageData@2@XZ ; SC2APIProtocol::FeatureLayersMinimap::_internal_buildable
PUBLIC	?_internal_mutable_buildable@FeatureLayersMinimap@SC2APIProtocol@@AEAAPEAVImageData@2@XZ ; SC2APIProtocol::FeatureLayersMinimap::_internal_mutable_buildable
PUBLIC	?_internal_has_pathable@FeatureLayersMinimap@SC2APIProtocol@@AEBA_NXZ ; SC2APIProtocol::FeatureLayersMinimap::_internal_has_pathable
PUBLIC	?clear_pathable@FeatureLayersMinimap@SC2APIProtocol@@QEAAXXZ ; SC2APIProtocol::FeatureLayersMinimap::clear_pathable
PUBLIC	?_internal_pathable@FeatureLayersMinimap@SC2APIProtocol@@AEBAAEBVImageData@2@XZ ; SC2APIProtocol::FeatureLayersMinimap::_internal_pathable
PUBLIC	?_internal_mutable_pathable@FeatureLayersMinimap@SC2APIProtocol@@AEAAPEAVImageData@2@XZ ; SC2APIProtocol::FeatureLayersMinimap::_internal_mutable_pathable
PUBLIC	??$CreateMaybeMessage@VFeatureLayersMinimap@SC2APIProtocol@@@MessageLite@protobuf@google@@KAPEAVFeatureLayersMinimap@SC2APIProtocol@@PEAVArena@12@@Z ; google::protobuf::MessageLite::CreateMaybeMessage<SC2APIProtocol::FeatureLayersMinimap>
PUBLIC	??1ObservationRender@SC2APIProtocol@@UEAA@XZ	; SC2APIProtocol::ObservationRender::~ObservationRender
PUBLIC	??0ObservationRender@SC2APIProtocol@@QEAA@AEBV01@@Z ; SC2APIProtocol::ObservationRender::ObservationRender
PUBLIC	?internal_default_instance@ObservationRender@SC2APIProtocol@@SAPEBV12@XZ ; SC2APIProtocol::ObservationRender::internal_default_instance
PUBLIC	?CopyFrom@ObservationRender@SC2APIProtocol@@QEAAXAEBV12@@Z ; SC2APIProtocol::ObservationRender::CopyFrom
PUBLIC	?MergeFrom@ObservationRender@SC2APIProtocol@@QEAAXAEBV12@@Z ; SC2APIProtocol::ObservationRender::MergeFrom
PUBLIC	?SharedCtor@ObservationRender@SC2APIProtocol@@AEAAXPEAVArena@protobuf@google@@_N@Z ; SC2APIProtocol::ObservationRender::SharedCtor
PUBLIC	?SharedDtor@ObservationRender@SC2APIProtocol@@AEAAXXZ ; SC2APIProtocol::ObservationRender::SharedDtor
PUBLIC	?InternalSwap@ObservationRender@SC2APIProtocol@@AEAAXPEAV12@@Z ; SC2APIProtocol::ObservationRender::InternalSwap
PUBLIC	??0ObservationRender@SC2APIProtocol@@IEAA@PEAVArena@protobuf@google@@_N@Z ; SC2APIProtocol::ObservationRender::ObservationRender
PUBLIC	?_internal_has_map@ObservationRender@SC2APIProtocol@@AEBA_NXZ ; SC2APIProtocol::ObservationRender::_internal_has_map
PUBLIC	?clear_map@ObservationRender@SC2APIProtocol@@QEAAXXZ ; SC2APIProtocol::ObservationRender::clear_map
PUBLIC	?_internal_map@ObservationRender@SC2APIProtocol@@AEBAAEBVImageData@2@XZ ; SC2APIProtocol::ObservationRender::_internal_map
PUBLIC	?_internal_mutable_map@ObservationRender@SC2APIProtocol@@AEAAPEAVImageData@2@XZ ; SC2APIProtocol::ObservationRender::_internal_mutable_map
PUBLIC	?_internal_has_minimap@ObservationRender@SC2APIProtocol@@AEBA_NXZ ; SC2APIProtocol::ObservationRender::_internal_has_minimap
PUBLIC	?clear_minimap@ObservationRender@SC2APIProtocol@@QEAAXXZ ; SC2APIProtocol::ObservationRender::clear_minimap
PUBLIC	?_internal_minimap@ObservationRender@SC2APIProtocol@@AEBAAEBVImageData@2@XZ ; SC2APIProtocol::ObservationRender::_internal_minimap
PUBLIC	?_internal_mutable_minimap@ObservationRender@SC2APIProtocol@@AEAAPEAVImageData@2@XZ ; SC2APIProtocol::ObservationRender::_internal_mutable_minimap
PUBLIC	??$CreateMaybeMessage@VObservationRender@SC2APIProtocol@@@MessageLite@protobuf@google@@KAPEAVObservationRender@SC2APIProtocol@@PEAVArena@12@@Z ; google::protobuf::MessageLite::CreateMaybeMessage<SC2APIProtocol::ObservationRender>
PUBLIC	??1ActionSpatial@SC2APIProtocol@@UEAA@XZ	; SC2APIProtocol::ActionSpatial::~ActionSpatial
PUBLIC	??0ActionSpatial@SC2APIProtocol@@QEAA@AEBV01@@Z	; SC2APIProtocol::ActionSpatial::ActionSpatial
PUBLIC	?CopyFrom@ActionSpatial@SC2APIProtocol@@QEAAXAEBV12@@Z ; SC2APIProtocol::ActionSpatial::CopyFrom
PUBLIC	?MergeFrom@ActionSpatial@SC2APIProtocol@@QEAAXAEBV12@@Z ; SC2APIProtocol::ActionSpatial::MergeFrom
PUBLIC	?SharedCtor@ActionSpatial@SC2APIProtocol@@AEAAXPEAVArena@protobuf@google@@_N@Z ; SC2APIProtocol::ActionSpatial::SharedCtor
PUBLIC	?SharedDtor@ActionSpatial@SC2APIProtocol@@AEAAXXZ ; SC2APIProtocol::ActionSpatial::SharedDtor
PUBLIC	?InternalSwap@ActionSpatial@SC2APIProtocol@@AEAAXPEAV12@@Z ; SC2APIProtocol::ActionSpatial::InternalSwap
PUBLIC	??0ActionSpatial@SC2APIProtocol@@IEAA@PEAVArena@protobuf@google@@_N@Z ; SC2APIProtocol::ActionSpatial::ActionSpatial
PUBLIC	?_internal_has_unit_command@ActionSpatial@SC2APIProtocol@@AEBA_NXZ ; SC2APIProtocol::ActionSpatial::_internal_has_unit_command
PUBLIC	?set_allocated_unit_command@ActionSpatial@SC2APIProtocol@@QEAAXPEAVActionSpatialUnitCommand@2@@Z ; SC2APIProtocol::ActionSpatial::set_allocated_unit_command
PUBLIC	?_internal_unit_command@ActionSpatial@SC2APIProtocol@@AEBAAEBVActionSpatialUnitCommand@2@XZ ; SC2APIProtocol::ActionSpatial::_internal_unit_command
PUBLIC	?_internal_mutable_unit_command@ActionSpatial@SC2APIProtocol@@AEAAPEAVActionSpatialUnitCommand@2@XZ ; SC2APIProtocol::ActionSpatial::_internal_mutable_unit_command
PUBLIC	?_internal_has_camera_move@ActionSpatial@SC2APIProtocol@@AEBA_NXZ ; SC2APIProtocol::ActionSpatial::_internal_has_camera_move
PUBLIC	?set_allocated_camera_move@ActionSpatial@SC2APIProtocol@@QEAAXPEAVActionSpatialCameraMove@2@@Z ; SC2APIProtocol::ActionSpatial::set_allocated_camera_move
PUBLIC	?_internal_camera_move@ActionSpatial@SC2APIProtocol@@AEBAAEBVActionSpatialCameraMove@2@XZ ; SC2APIProtocol::ActionSpatial::_internal_camera_move
PUBLIC	?_internal_mutable_camera_move@ActionSpatial@SC2APIProtocol@@AEAAPEAVActionSpatialCameraMove@2@XZ ; SC2APIProtocol::ActionSpatial::_internal_mutable_camera_move
PUBLIC	?_internal_has_unit_selection_point@ActionSpatial@SC2APIProtocol@@AEBA_NXZ ; SC2APIProtocol::ActionSpatial::_internal_has_unit_selection_point
PUBLIC	?set_allocated_unit_selection_point@ActionSpatial@SC2APIProtocol@@QEAAXPEAVActionSpatialUnitSelectionPoint@2@@Z ; SC2APIProtocol::ActionSpatial::set_allocated_unit_selection_point
PUBLIC	?_internal_unit_selection_point@ActionSpatial@SC2APIProtocol@@AEBAAEBVActionSpatialUnitSelectionPoint@2@XZ ; SC2APIProtocol::ActionSpatial::_internal_unit_selection_point
PUBLIC	?_internal_mutable_unit_selection_point@ActionSpatial@SC2APIProtocol@@AEAAPEAVActionSpatialUnitSelectionPoint@2@XZ ; SC2APIProtocol::ActionSpatial::_internal_mutable_unit_selection_point
PUBLIC	?_internal_has_unit_selection_rect@ActionSpatial@SC2APIProtocol@@AEBA_NXZ ; SC2APIProtocol::ActionSpatial::_internal_has_unit_selection_rect
PUBLIC	?set_allocated_unit_selection_rect@ActionSpatial@SC2APIProtocol@@QEAAXPEAVActionSpatialUnitSelectionRect@2@@Z ; SC2APIProtocol::ActionSpatial::set_allocated_unit_selection_rect
PUBLIC	?_internal_unit_selection_rect@ActionSpatial@SC2APIProtocol@@AEBAAEBVActionSpatialUnitSelectionRect@2@XZ ; SC2APIProtocol::ActionSpatial::_internal_unit_selection_rect
PUBLIC	?_internal_mutable_unit_selection_rect@ActionSpatial@SC2APIProtocol@@AEAAPEAVActionSpatialUnitSelectionRect@2@XZ ; SC2APIProtocol::ActionSpatial::_internal_mutable_unit_selection_rect
PUBLIC	?clear_action@ActionSpatial@SC2APIProtocol@@QEAAXXZ ; SC2APIProtocol::ActionSpatial::clear_action
PUBLIC	?action_case@ActionSpatial@SC2APIProtocol@@QEBA?AW4ActionCase@12@XZ ; SC2APIProtocol::ActionSpatial::action_case
PUBLIC	?set_has_unit_command@ActionSpatial@SC2APIProtocol@@AEAAXXZ ; SC2APIProtocol::ActionSpatial::set_has_unit_command
PUBLIC	?set_has_camera_move@ActionSpatial@SC2APIProtocol@@AEAAXXZ ; SC2APIProtocol::ActionSpatial::set_has_camera_move
PUBLIC	?set_has_unit_selection_point@ActionSpatial@SC2APIProtocol@@AEAAXXZ ; SC2APIProtocol::ActionSpatial::set_has_unit_selection_point
PUBLIC	?set_has_unit_selection_rect@ActionSpatial@SC2APIProtocol@@AEAAXXZ ; SC2APIProtocol::ActionSpatial::set_has_unit_selection_rect
PUBLIC	?has_action@ActionSpatial@SC2APIProtocol@@AEBA_NXZ ; SC2APIProtocol::ActionSpatial::has_action
PUBLIC	?clear_has_action@ActionSpatial@SC2APIProtocol@@AEAAXXZ ; SC2APIProtocol::ActionSpatial::clear_has_action
PUBLIC	??0ActionUnion@Impl_@ActionSpatial@SC2APIProtocol@@QEAA@XZ ; SC2APIProtocol::ActionSpatial::Impl_::ActionUnion::ActionUnion
PUBLIC	??$CreateMaybeMessage@VActionSpatial@SC2APIProtocol@@@MessageLite@protobuf@google@@KAPEAVActionSpatial@SC2APIProtocol@@PEAVArena@12@@Z ; google::protobuf::MessageLite::CreateMaybeMessage<SC2APIProtocol::ActionSpatial>
PUBLIC	??1ActionSpatialUnitCommand@SC2APIProtocol@@UEAA@XZ ; SC2APIProtocol::ActionSpatialUnitCommand::~ActionSpatialUnitCommand
PUBLIC	??0ActionSpatialUnitCommand@SC2APIProtocol@@QEAA@AEBV01@@Z ; SC2APIProtocol::ActionSpatialUnitCommand::ActionSpatialUnitCommand
PUBLIC	?CopyFrom@ActionSpatialUnitCommand@SC2APIProtocol@@QEAAXAEBV12@@Z ; SC2APIProtocol::ActionSpatialUnitCommand::CopyFrom
PUBLIC	?MergeFrom@ActionSpatialUnitCommand@SC2APIProtocol@@QEAAXAEBV12@@Z ; SC2APIProtocol::ActionSpatialUnitCommand::MergeFrom
PUBLIC	?SharedCtor@ActionSpatialUnitCommand@SC2APIProtocol@@AEAAXPEAVArena@protobuf@google@@_N@Z ; SC2APIProtocol::ActionSpatialUnitCommand::SharedCtor
PUBLIC	?SharedDtor@ActionSpatialUnitCommand@SC2APIProtocol@@AEAAXXZ ; SC2APIProtocol::ActionSpatialUnitCommand::SharedDtor
PUBLIC	?InternalSwap@ActionSpatialUnitCommand@SC2APIProtocol@@AEAAXPEAV12@@Z ; SC2APIProtocol::ActionSpatialUnitCommand::InternalSwap
PUBLIC	??0ActionSpatialUnitCommand@SC2APIProtocol@@IEAA@PEAVArena@protobuf@google@@_N@Z ; SC2APIProtocol::ActionSpatialUnitCommand::ActionSpatialUnitCommand
PUBLIC	?_internal_ability_id@ActionSpatialUnitCommand@SC2APIProtocol@@AEBAHXZ ; SC2APIProtocol::ActionSpatialUnitCommand::_internal_ability_id
PUBLIC	?_internal_queue_command@ActionSpatialUnitCommand@SC2APIProtocol@@AEBA_NXZ ; SC2APIProtocol::ActionSpatialUnitCommand::_internal_queue_command
PUBLIC	?_internal_has_target_screen_coord@ActionSpatialUnitCommand@SC2APIProtocol@@AEBA_NXZ ; SC2APIProtocol::ActionSpatialUnitCommand::_internal_has_target_screen_coord
PUBLIC	?clear_target_screen_coord@ActionSpatialUnitCommand@SC2APIProtocol@@QEAAXXZ ; SC2APIProtocol::ActionSpatialUnitCommand::clear_target_screen_coord
PUBLIC	?set_allocated_target_screen_coord@ActionSpatialUnitCommand@SC2APIProtocol@@QEAAXPEAVPointI@2@@Z ; SC2APIProtocol::ActionSpatialUnitCommand::set_allocated_target_screen_coord
PUBLIC	?_internal_target_screen_coord@ActionSpatialUnitCommand@SC2APIProtocol@@AEBAAEBVPointI@2@XZ ; SC2APIProtocol::ActionSpatialUnitCommand::_internal_target_screen_coord
PUBLIC	?_internal_mutable_target_screen_coord@ActionSpatialUnitCommand@SC2APIProtocol@@AEAAPEAVPointI@2@XZ ; SC2APIProtocol::ActionSpatialUnitCommand::_internal_mutable_target_screen_coord
PUBLIC	?_internal_has_target_minimap_coord@ActionSpatialUnitCommand@SC2APIProtocol@@AEBA_NXZ ; SC2APIProtocol::ActionSpatialUnitCommand::_internal_has_target_minimap_coord
PUBLIC	?clear_target_minimap_coord@ActionSpatialUnitCommand@SC2APIProtocol@@QEAAXXZ ; SC2APIProtocol::ActionSpatialUnitCommand::clear_target_minimap_coord
PUBLIC	?set_allocated_target_minimap_coord@ActionSpatialUnitCommand@SC2APIProtocol@@QEAAXPEAVPointI@2@@Z ; SC2APIProtocol::ActionSpatialUnitCommand::set_allocated_target_minimap_coord
PUBLIC	?_internal_target_minimap_coord@ActionSpatialUnitCommand@SC2APIProtocol@@AEBAAEBVPointI@2@XZ ; SC2APIProtocol::ActionSpatialUnitCommand::_internal_target_minimap_coord
PUBLIC	?_internal_mutable_target_minimap_coord@ActionSpatialUnitCommand@SC2APIProtocol@@AEAAPEAVPointI@2@XZ ; SC2APIProtocol::ActionSpatialUnitCommand::_internal_mutable_target_minimap_coord
PUBLIC	?clear_target@ActionSpatialUnitCommand@SC2APIProtocol@@QEAAXXZ ; SC2APIProtocol::ActionSpatialUnitCommand::clear_target
PUBLIC	?target_case@ActionSpatialUnitCommand@SC2APIProtocol@@QEBA?AW4TargetCase@12@XZ ; SC2APIProtocol::ActionSpatialUnitCommand::target_case
PUBLIC	?set_has_target_screen_coord@ActionSpatialUnitCommand@SC2APIProtocol@@AEAAXXZ ; SC2APIProtocol::ActionSpatialUnitCommand::set_has_target_screen_coord
PUBLIC	?set_has_target_minimap_coord@ActionSpatialUnitCommand@SC2APIProtocol@@AEAAXXZ ; SC2APIProtocol::ActionSpatialUnitCommand::set_has_target_minimap_coord
PUBLIC	?has_target@ActionSpatialUnitCommand@SC2APIProtocol@@AEBA_NXZ ; SC2APIProtocol::ActionSpatialUnitCommand::has_target
PUBLIC	?clear_has_target@ActionSpatialUnitCommand@SC2APIProtocol@@AEAAXXZ ; SC2APIProtocol::ActionSpatialUnitCommand::clear_has_target
PUBLIC	??0TargetUnion@Impl_@ActionSpatialUnitCommand@SC2APIProtocol@@QEAA@XZ ; SC2APIProtocol::ActionSpatialUnitCommand::Impl_::TargetUnion::TargetUnion
PUBLIC	??$CreateMaybeMessage@VActionSpatialUnitCommand@SC2APIProtocol@@@MessageLite@protobuf@google@@KAPEAVActionSpatialUnitCommand@SC2APIProtocol@@PEAVArena@12@@Z ; google::protobuf::MessageLite::CreateMaybeMessage<SC2APIProtocol::ActionSpatialUnitCommand>
PUBLIC	??1ActionSpatialCameraMove@SC2APIProtocol@@UEAA@XZ ; SC2APIProtocol::ActionSpatialCameraMove::~ActionSpatialCameraMove
PUBLIC	??0ActionSpatialCameraMove@SC2APIProtocol@@QEAA@AEBV01@@Z ; SC2APIProtocol::ActionSpatialCameraMove::ActionSpatialCameraMove
PUBLIC	?internal_default_instance@ActionSpatialCameraMove@SC2APIProtocol@@SAPEBV12@XZ ; SC2APIProtocol::ActionSpatialCameraMove::internal_default_instance
PUBLIC	?CopyFrom@ActionSpatialCameraMove@SC2APIProtocol@@QEAAXAEBV12@@Z ; SC2APIProtocol::ActionSpatialCameraMove::CopyFrom
PUBLIC	?MergeFrom@ActionSpatialCameraMove@SC2APIProtocol@@QEAAXAEBV12@@Z ; SC2APIProtocol::ActionSpatialCameraMove::MergeFrom
PUBLIC	?SharedCtor@ActionSpatialCameraMove@SC2APIProtocol@@AEAAXPEAVArena@protobuf@google@@_N@Z ; SC2APIProtocol::ActionSpatialCameraMove::SharedCtor
PUBLIC	?SharedDtor@ActionSpatialCameraMove@SC2APIProtocol@@AEAAXXZ ; SC2APIProtocol::ActionSpatialCameraMove::SharedDtor
PUBLIC	?InternalSwap@ActionSpatialCameraMove@SC2APIProtocol@@AEAAXPEAV12@@Z ; SC2APIProtocol::ActionSpatialCameraMove::InternalSwap
PUBLIC	??0ActionSpatialCameraMove@SC2APIProtocol@@IEAA@PEAVArena@protobuf@google@@_N@Z ; SC2APIProtocol::ActionSpatialCameraMove::ActionSpatialCameraMove
PUBLIC	?_internal_has_center_minimap@ActionSpatialCameraMove@SC2APIProtocol@@AEBA_NXZ ; SC2APIProtocol::ActionSpatialCameraMove::_internal_has_center_minimap
PUBLIC	?clear_center_minimap@ActionSpatialCameraMove@SC2APIProtocol@@QEAAXXZ ; SC2APIProtocol::ActionSpatialCameraMove::clear_center_minimap
PUBLIC	?_internal_center_minimap@ActionSpatialCameraMove@SC2APIProtocol@@AEBAAEBVPointI@2@XZ ; SC2APIProtocol::ActionSpatialCameraMove::_internal_center_minimap
PUBLIC	?_internal_mutable_center_minimap@ActionSpatialCameraMove@SC2APIProtocol@@AEAAPEAVPointI@2@XZ ; SC2APIProtocol::ActionSpatialCameraMove::_internal_mutable_center_minimap
PUBLIC	??$CreateMaybeMessage@VActionSpatialCameraMove@SC2APIProtocol@@@MessageLite@protobuf@google@@KAPEAVActionSpatialCameraMove@SC2APIProtocol@@PEAVArena@12@@Z ; google::protobuf::MessageLite::CreateMaybeMessage<SC2APIProtocol::ActionSpatialCameraMove>
PUBLIC	??1ActionSpatialUnitSelectionPoint@SC2APIProtocol@@UEAA@XZ ; SC2APIProtocol::ActionSpatialUnitSelectionPoint::~ActionSpatialUnitSelectionPoint
PUBLIC	??0ActionSpatialUnitSelectionPoint@SC2APIProtocol@@QEAA@AEBV01@@Z ; SC2APIProtocol::ActionSpatialUnitSelectionPoint::ActionSpatialUnitSelectionPoint
PUBLIC	?mutable_unknown_fields@ActionSpatialUnitSelectionPoint@SC2APIProtocol@@QEAAPEAVUnknownFieldSet@protobuf@google@@XZ ; SC2APIProtocol::ActionSpatialUnitSelectionPoint::mutable_unknown_fields
PUBLIC	?internal_default_instance@ActionSpatialUnitSelectionPoint@SC2APIProtocol@@SAPEBV12@XZ ; SC2APIProtocol::ActionSpatialUnitSelectionPoint::internal_default_instance
PUBLIC	?CopyFrom@ActionSpatialUnitSelectionPoint@SC2APIProtocol@@QEAAXAEBV12@@Z ; SC2APIProtocol::ActionSpatialUnitSelectionPoint::CopyFrom
PUBLIC	?MergeFrom@ActionSpatialUnitSelectionPoint@SC2APIProtocol@@QEAAXAEBV12@@Z ; SC2APIProtocol::ActionSpatialUnitSelectionPoint::MergeFrom
PUBLIC	?SharedCtor@ActionSpatialUnitSelectionPoint@SC2APIProtocol@@AEAAXPEAVArena@protobuf@google@@_N@Z ; SC2APIProtocol::ActionSpatialUnitSelectionPoint::SharedCtor
PUBLIC	?SharedDtor@ActionSpatialUnitSelectionPoint@SC2APIProtocol@@AEAAXXZ ; SC2APIProtocol::ActionSpatialUnitSelectionPoint::SharedDtor
PUBLIC	?InternalSwap@ActionSpatialUnitSelectionPoint@SC2APIProtocol@@AEAAXPEAV12@@Z ; SC2APIProtocol::ActionSpatialUnitSelectionPoint::InternalSwap
PUBLIC	??0ActionSpatialUnitSelectionPoint@SC2APIProtocol@@IEAA@PEAVArena@protobuf@google@@_N@Z ; SC2APIProtocol::ActionSpatialUnitSelectionPoint::ActionSpatialUnitSelectionPoint
PUBLIC	?_internal_has_selection_screen_coord@ActionSpatialUnitSelectionPoint@SC2APIProtocol@@AEBA_NXZ ; SC2APIProtocol::ActionSpatialUnitSelectionPoint::_internal_has_selection_screen_coord
PUBLIC	?clear_selection_screen_coord@ActionSpatialUnitSelectionPoint@SC2APIProtocol@@QEAAXXZ ; SC2APIProtocol::ActionSpatialUnitSelectionPoint::clear_selection_screen_coord
PUBLIC	?_internal_selection_screen_coord@ActionSpatialUnitSelectionPoint@SC2APIProtocol@@AEBAAEBVPointI@2@XZ ; SC2APIProtocol::ActionSpatialUnitSelectionPoint::_internal_selection_screen_coord
PUBLIC	?_internal_mutable_selection_screen_coord@ActionSpatialUnitSelectionPoint@SC2APIProtocol@@AEAAPEAVPointI@2@XZ ; SC2APIProtocol::ActionSpatialUnitSelectionPoint::_internal_mutable_selection_screen_coord
PUBLIC	?_internal_type@ActionSpatialUnitSelectionPoint@SC2APIProtocol@@AEBA?AW4ActionSpatialUnitSelectionPoint_Type@2@XZ ; SC2APIProtocol::ActionSpatialUnitSelectionPoint::_internal_type
PUBLIC	?_internal_set_type@ActionSpatialUnitSelectionPoint@SC2APIProtocol@@AEAAXW4ActionSpatialUnitSelectionPoint_Type@2@@Z ; SC2APIProtocol::ActionSpatialUnitSelectionPoint::_internal_set_type
PUBLIC	??$CreateMaybeMessage@VActionSpatialUnitSelectionPoint@SC2APIProtocol@@@MessageLite@protobuf@google@@KAPEAVActionSpatialUnitSelectionPoint@SC2APIProtocol@@PEAVArena@12@@Z ; google::protobuf::MessageLite::CreateMaybeMessage<SC2APIProtocol::ActionSpatialUnitSelectionPoint>
PUBLIC	??1ActionSpatialUnitSelectionRect@SC2APIProtocol@@UEAA@XZ ; SC2APIProtocol::ActionSpatialUnitSelectionRect::~ActionSpatialUnitSelectionRect
PUBLIC	??0ActionSpatialUnitSelectionRect@SC2APIProtocol@@QEAA@UConstantInitialized@internal@protobuf@google@@@Z ; SC2APIProtocol::ActionSpatialUnitSelectionRect::ActionSpatialUnitSelectionRect
PUBLIC	??0ActionSpatialUnitSelectionRect@SC2APIProtocol@@QEAA@AEBV01@@Z ; SC2APIProtocol::ActionSpatialUnitSelectionRect::ActionSpatialUnitSelectionRect
PUBLIC	?New@ActionSpatialUnitSelectionRect@SC2APIProtocol@@UEBAPEAV12@PEAVArena@protobuf@google@@@Z ; SC2APIProtocol::ActionSpatialUnitSelectionRect::New
PUBLIC	?CopyFrom@ActionSpatialUnitSelectionRect@SC2APIProtocol@@QEAAXAEBV12@@Z ; SC2APIProtocol::ActionSpatialUnitSelectionRect::CopyFrom
PUBLIC	?MergeFrom@ActionSpatialUnitSelectionRect@SC2APIProtocol@@QEAAXAEBV12@@Z ; SC2APIProtocol::ActionSpatialUnitSelectionRect::MergeFrom
PUBLIC	?Clear@ActionSpatialUnitSelectionRect@SC2APIProtocol@@UEAAXXZ ; SC2APIProtocol::ActionSpatialUnitSelectionRect::Clear
PUBLIC	?IsInitialized@ActionSpatialUnitSelectionRect@SC2APIProtocol@@UEBA_NXZ ; SC2APIProtocol::ActionSpatialUnitSelectionRect::IsInitialized
PUBLIC	?ByteSizeLong@ActionSpatialUnitSelectionRect@SC2APIProtocol@@UEBA_KXZ ; SC2APIProtocol::ActionSpatialUnitSelectionRect::ByteSizeLong
PUBLIC	?_InternalParse@ActionSpatialUnitSelectionRect@SC2APIProtocol@@UEAAPEBDPEBDPEAVParseContext@internal@protobuf@google@@@Z ; SC2APIProtocol::ActionSpatialUnitSelectionRect::_InternalParse
PUBLIC	?_InternalSerialize@ActionSpatialUnitSelectionRect@SC2APIProtocol@@UEBAPEAEPEAEPEAVEpsCopyOutputStream@io@protobuf@google@@@Z ; SC2APIProtocol::ActionSpatialUnitSelectionRect::_InternalSerialize
PUBLIC	?GetCachedSize@ActionSpatialUnitSelectionRect@SC2APIProtocol@@UEBAHXZ ; SC2APIProtocol::ActionSpatialUnitSelectionRect::GetCachedSize
PUBLIC	?SharedCtor@ActionSpatialUnitSelectionRect@SC2APIProtocol@@AEAAXPEAVArena@protobuf@google@@_N@Z ; SC2APIProtocol::ActionSpatialUnitSelectionRect::SharedCtor
PUBLIC	?SharedDtor@ActionSpatialUnitSelectionRect@SC2APIProtocol@@AEAAXXZ ; SC2APIProtocol::ActionSpatialUnitSelectionRect::SharedDtor
PUBLIC	?SetCachedSize@ActionSpatialUnitSelectionRect@SC2APIProtocol@@EEBAXH@Z ; SC2APIProtocol::ActionSpatialUnitSelectionRect::SetCachedSize
PUBLIC	?InternalSwap@ActionSpatialUnitSelectionRect@SC2APIProtocol@@AEAAXPEAV12@@Z ; SC2APIProtocol::ActionSpatialUnitSelectionRect::InternalSwap
PUBLIC	??0ActionSpatialUnitSelectionRect@SC2APIProtocol@@IEAA@PEAVArena@protobuf@google@@_N@Z ; SC2APIProtocol::ActionSpatialUnitSelectionRect::ActionSpatialUnitSelectionRect
PUBLIC	?GetClassData@ActionSpatialUnitSelectionRect@SC2APIProtocol@@UEBAPEBUClassData@Message@protobuf@google@@XZ ; SC2APIProtocol::ActionSpatialUnitSelectionRect::GetClassData
PUBLIC	?GetMetadata@ActionSpatialUnitSelectionRect@SC2APIProtocol@@UEBA?AUMetadata@protobuf@google@@XZ ; SC2APIProtocol::ActionSpatialUnitSelectionRect::GetMetadata
PUBLIC	?_internal_selection_screen_coord_size@ActionSpatialUnitSelectionRect@SC2APIProtocol@@AEBAHXZ ; SC2APIProtocol::ActionSpatialUnitSelectionRect::_internal_selection_screen_coord_size
PUBLIC	?clear_selection_screen_coord@ActionSpatialUnitSelectionRect@SC2APIProtocol@@QEAAXXZ ; SC2APIProtocol::ActionSpatialUnitSelectionRect::clear_selection_screen_coord
PUBLIC	?_internal_selection_screen_coord@ActionSpatialUnitSelectionRect@SC2APIProtocol@@AEBAAEBVRectangleI@2@H@Z ; SC2APIProtocol::ActionSpatialUnitSelectionRect::_internal_selection_screen_coord
PUBLIC	?_internal_add_selection_screen_coord@ActionSpatialUnitSelectionRect@SC2APIProtocol@@AEAAPEAVRectangleI@2@XZ ; SC2APIProtocol::ActionSpatialUnitSelectionRect::_internal_add_selection_screen_coord
PUBLIC	?_internal_has_selection_add@ActionSpatialUnitSelectionRect@SC2APIProtocol@@AEBA_NXZ ; SC2APIProtocol::ActionSpatialUnitSelectionRect::_internal_has_selection_add
PUBLIC	?_internal_selection_add@ActionSpatialUnitSelectionRect@SC2APIProtocol@@AEBA_NXZ ; SC2APIProtocol::ActionSpatialUnitSelectionRect::_internal_selection_add
PUBLIC	?_internal_set_selection_add@ActionSpatialUnitSelectionRect@SC2APIProtocol@@AEAAX_N@Z ; SC2APIProtocol::ActionSpatialUnitSelectionRect::_internal_set_selection_add
PUBLIC	??0?$RepeatedPtrField@VRectangleI@SC2APIProtocol@@@protobuf@google@@QEAA@XZ ; google::protobuf::RepeatedPtrField<SC2APIProtocol::RectangleI>::RepeatedPtrField<SC2APIProtocol::RectangleI>
PUBLIC	??0?$RepeatedPtrField@VRectangleI@SC2APIProtocol@@@protobuf@google@@QEAA@PEAVArena@12@@Z ; google::protobuf::RepeatedPtrField<SC2APIProtocol::RectangleI>::RepeatedPtrField<SC2APIProtocol::RectangleI>
PUBLIC	??0?$RepeatedPtrField@VRectangleI@SC2APIProtocol@@@protobuf@google@@QEAA@AEBV012@@Z ; google::protobuf::RepeatedPtrField<SC2APIProtocol::RectangleI>::RepeatedPtrField<SC2APIProtocol::RectangleI>
PUBLIC	??1?$RepeatedPtrField@VRectangleI@SC2APIProtocol@@@protobuf@google@@QEAA@XZ ; google::protobuf::RepeatedPtrField<SC2APIProtocol::RectangleI>::~RepeatedPtrField<SC2APIProtocol::RectangleI>
PUBLIC	?size@?$RepeatedPtrField@VRectangleI@SC2APIProtocol@@@protobuf@google@@QEBAHXZ ; google::protobuf::RepeatedPtrField<SC2APIProtocol::RectangleI>::size
PUBLIC	?Get@?$RepeatedPtrField@VRectangleI@SC2APIProtocol@@@protobuf@google@@QEBAAEBVRectangleI@SC2APIProtocol@@H@Z ; google::protobuf::RepeatedPtrField<SC2APIProtocol::RectangleI>::Get
PUBLIC	?Add@?$RepeatedPtrField@VRectangleI@SC2APIProtocol@@@protobuf@google@@QEAAPEAVRectangleI@SC2APIProtocol@@XZ ; google::protobuf::RepeatedPtrField<SC2APIProtocol::RectangleI>::Add
PUBLIC	?Clear@?$RepeatedPtrField@VRectangleI@SC2APIProtocol@@@protobuf@google@@QEAAXXZ ; google::protobuf::RepeatedPtrField<SC2APIProtocol::RectangleI>::Clear
PUBLIC	?MergeFrom@?$RepeatedPtrField@VRectangleI@SC2APIProtocol@@@protobuf@google@@QEAAXAEBV123@@Z ; google::protobuf::RepeatedPtrField<SC2APIProtocol::RectangleI>::MergeFrom
PUBLIC	?begin@?$RepeatedPtrField@VRectangleI@SC2APIProtocol@@@protobuf@google@@QEBA?AV?$RepeatedPtrIterator@$$CBVRectangleI@SC2APIProtocol@@@internal@23@XZ ; google::protobuf::RepeatedPtrField<SC2APIProtocol::RectangleI>::begin
PUBLIC	?end@?$RepeatedPtrField@VRectangleI@SC2APIProtocol@@@protobuf@google@@QEBA?AV?$RepeatedPtrIterator@$$CBVRectangleI@SC2APIProtocol@@@internal@23@XZ ; google::protobuf::RepeatedPtrField<SC2APIProtocol::RectangleI>::end
PUBLIC	?InternalSwap@?$RepeatedPtrField@VRectangleI@SC2APIProtocol@@@protobuf@google@@QEAAXPEAV123@@Z ; google::protobuf::RepeatedPtrField<SC2APIProtocol::RectangleI>::InternalSwap
PUBLIC	??_G?$RepeatedPtrField@VRectangleI@SC2APIProtocol@@@protobuf@google@@QEAAPEAXI@Z ; google::protobuf::RepeatedPtrField<SC2APIProtocol::RectangleI>::`scalar deleting destructor'
PUBLIC	??_GActionSpatialUnitSelectionRect@SC2APIProtocol@@UEAAPEAXI@Z ; SC2APIProtocol::ActionSpatialUnitSelectionRect::`scalar deleting destructor'
PUBLIC	??$CreateMaybeMessage@VActionSpatialUnitSelectionRect@SC2APIProtocol@@@MessageLite@protobuf@google@@KAPEAVActionSpatialUnitSelectionRect@SC2APIProtocol@@PEAVArena@12@@Z ; google::protobuf::MessageLite::CreateMaybeMessage<SC2APIProtocol::ActionSpatialUnitSelectionRect>
PUBLIC	??$InternalGetOwningArena@VMessageLite@protobuf@google@@@Arena@protobuf@google@@SAPEAV012@PEBVMessageLite@12@@Z ; google::protobuf::Arena::InternalGetOwningArena<google::protobuf::MessageLite>
PUBLIC	??1ObservationFeatureLayerDefaultTypeInternal@SC2APIProtocol@@QEAA@XZ ; SC2APIProtocol::ObservationFeatureLayerDefaultTypeInternal::~ObservationFeatureLayerDefaultTypeInternal
PUBLIC	??1FeatureLayersDefaultTypeInternal@SC2APIProtocol@@QEAA@XZ ; SC2APIProtocol::FeatureLayersDefaultTypeInternal::~FeatureLayersDefaultTypeInternal
PUBLIC	??1FeatureLayersMinimapDefaultTypeInternal@SC2APIProtocol@@QEAA@XZ ; SC2APIProtocol::FeatureLayersMinimapDefaultTypeInternal::~FeatureLayersMinimapDefaultTypeInternal
PUBLIC	??1ObservationRenderDefaultTypeInternal@SC2APIProtocol@@QEAA@XZ ; SC2APIProtocol::ObservationRenderDefaultTypeInternal::~ObservationRenderDefaultTypeInternal
PUBLIC	??1ActionSpatialDefaultTypeInternal@SC2APIProtocol@@QEAA@XZ ; SC2APIProtocol::ActionSpatialDefaultTypeInternal::~ActionSpatialDefaultTypeInternal
PUBLIC	??1ActionSpatialUnitCommandDefaultTypeInternal@SC2APIProtocol@@QEAA@XZ ; SC2APIProtocol::ActionSpatialUnitCommandDefaultTypeInternal::~ActionSpatialUnitCommandDefaultTypeInternal
PUBLIC	??1ActionSpatialCameraMoveDefaultTypeInternal@SC2APIProtocol@@QEAA@XZ ; SC2APIProtocol::ActionSpatialCameraMoveDefaultTypeInternal::~ActionSpatialCameraMoveDefaultTypeInternal
PUBLIC	??1ActionSpatialUnitSelectionPointDefaultTypeInternal@SC2APIProtocol@@QEAA@XZ ; SC2APIProtocol::ActionSpatialUnitSelectionPointDefaultTypeInternal::~ActionSpatialUnitSelectionPointDefaultTypeInternal
PUBLIC	??0ActionSpatialUnitSelectionRectDefaultTypeInternal@SC2APIProtocol@@QEAA@XZ ; SC2APIProtocol::ActionSpatialUnitSelectionRectDefaultTypeInternal::ActionSpatialUnitSelectionRectDefaultTypeInternal
PUBLIC	??1ActionSpatialUnitSelectionRectDefaultTypeInternal@SC2APIProtocol@@QEAA@XZ ; SC2APIProtocol::ActionSpatialUnitSelectionRectDefaultTypeInternal::~ActionSpatialUnitSelectionRectDefaultTypeInternal
PUBLIC	?descriptor_table_s2clientprotocol_2fspatial_2eproto_getter@@YAPEBUDescriptorTable@internal@protobuf@google@@XZ ; descriptor_table_s2clientprotocol_2fspatial_2eproto_getter
PUBLIC	?renders@_Internal@ObservationFeatureLayer@SC2APIProtocol@@SAAEBVFeatureLayers@3@PEBV23@@Z ; SC2APIProtocol::ObservationFeatureLayer::_Internal::renders
PUBLIC	?minimap_renders@_Internal@ObservationFeatureLayer@SC2APIProtocol@@SAAEBVFeatureLayersMinimap@3@PEBV23@@Z ; SC2APIProtocol::ObservationFeatureLayer::_Internal::minimap_renders
PUBLIC	??$MergeFrom@VUnknownFieldSet@protobuf@google@@@InternalMetadata@internal@protobuf@google@@QEAAXAEBV0123@@Z ; google::protobuf::internal::InternalMetadata::MergeFrom<google::protobuf::UnknownFieldSet>
PUBLIC	??$DeleteReturnArena@VUnknownFieldSet@protobuf@google@@@InternalMetadata@internal@protobuf@google@@QEAAPEAVArena@23@XZ ; google::protobuf::internal::InternalMetadata::DeleteReturnArena<google::protobuf::UnknownFieldSet>
PUBLIC	??$Clear@VUnknownFieldSet@protobuf@google@@@InternalMetadata@internal@protobuf@google@@QEAAXXZ ; google::protobuf::internal::InternalMetadata::Clear<google::protobuf::UnknownFieldSet>
PUBLIC	??$MessageSize@VFeatureLayers@SC2APIProtocol@@@WireFormatLite@internal@protobuf@google@@SA_KAEBVFeatureLayers@SC2APIProtocol@@@Z ; google::protobuf::internal::WireFormatLite::MessageSize<SC2APIProtocol::FeatureLayers>
PUBLIC	??$MessageSize@VFeatureLayersMinimap@SC2APIProtocol@@@WireFormatLite@internal@protobuf@google@@SA_KAEBVFeatureLayersMinimap@SC2APIProtocol@@@Z ; google::protobuf::internal::WireFormatLite::MessageSize<SC2APIProtocol::FeatureLayersMinimap>
PUBLIC	??$swap@I$0A@@std@@YAXAEAI0@Z			; std::swap<unsigned int,0>
PUBLIC	??$memswap@$0BA@@internal@protobuf@google@@YAXPEAD0@Z ; google::protobuf::internal::memswap<16>
PUBLIC	?height_map@_Internal@FeatureLayers@SC2APIProtocol@@SAAEBVImageData@3@PEBV23@@Z ; SC2APIProtocol::FeatureLayers::_Internal::height_map
PUBLIC	?visibility_map@_Internal@FeatureLayers@SC2APIProtocol@@SAAEBVImageData@3@PEBV23@@Z ; SC2APIProtocol::FeatureLayers::_Internal::visibility_map
PUBLIC	?creep@_Internal@FeatureLayers@SC2APIProtocol@@SAAEBVImageData@3@PEBV23@@Z ; SC2APIProtocol::FeatureLayers::_Internal::creep
PUBLIC	?power@_Internal@FeatureLayers@SC2APIProtocol@@SAAEBVImageData@3@PEBV23@@Z ; SC2APIProtocol::FeatureLayers::_Internal::power
PUBLIC	?player_id@_Internal@FeatureLayers@SC2APIProtocol@@SAAEBVImageData@3@PEBV23@@Z ; SC2APIProtocol::FeatureLayers::_Internal::player_id
PUBLIC	?unit_type@_Internal@FeatureLayers@SC2APIProtocol@@SAAEBVImageData@3@PEBV23@@Z ; SC2APIProtocol::FeatureLayers::_Internal::unit_type
PUBLIC	?selected@_Internal@FeatureLayers@SC2APIProtocol@@SAAEBVImageData@3@PEBV23@@Z ; SC2APIProtocol::FeatureLayers::_Internal::selected
PUBLIC	?unit_hit_points@_Internal@FeatureLayers@SC2APIProtocol@@SAAEBVImageData@3@PEBV23@@Z ; SC2APIProtocol::FeatureLayers::_Internal::unit_hit_points
PUBLIC	?unit_hit_points_ratio@_Internal@FeatureLayers@SC2APIProtocol@@SAAEBVImageData@3@PEBV23@@Z ; SC2APIProtocol::FeatureLayers::_Internal::unit_hit_points_ratio
PUBLIC	?unit_energy@_Internal@FeatureLayers@SC2APIProtocol@@SAAEBVImageData@3@PEBV23@@Z ; SC2APIProtocol::FeatureLayers::_Internal::unit_energy
PUBLIC	?unit_energy_ratio@_Internal@FeatureLayers@SC2APIProtocol@@SAAEBVImageData@3@PEBV23@@Z ; SC2APIProtocol::FeatureLayers::_Internal::unit_energy_ratio
PUBLIC	?unit_shields@_Internal@FeatureLayers@SC2APIProtocol@@SAAEBVImageData@3@PEBV23@@Z ; SC2APIProtocol::FeatureLayers::_Internal::unit_shields
PUBLIC	?unit_shields_ratio@_Internal@FeatureLayers@SC2APIProtocol@@SAAEBVImageData@3@PEBV23@@Z ; SC2APIProtocol::FeatureLayers::_Internal::unit_shields_ratio
PUBLIC	?player_relative@_Internal@FeatureLayers@SC2APIProtocol@@SAAEBVImageData@3@PEBV23@@Z ; SC2APIProtocol::FeatureLayers::_Internal::player_relative
PUBLIC	?unit_density_aa@_Internal@FeatureLayers@SC2APIProtocol@@SAAEBVImageData@3@PEBV23@@Z ; SC2APIProtocol::FeatureLayers::_Internal::unit_density_aa
PUBLIC	?unit_density@_Internal@FeatureLayers@SC2APIProtocol@@SAAEBVImageData@3@PEBV23@@Z ; SC2APIProtocol::FeatureLayers::_Internal::unit_density
PUBLIC	?effects@_Internal@FeatureLayers@SC2APIProtocol@@SAAEBVImageData@3@PEBV23@@Z ; SC2APIProtocol::FeatureLayers::_Internal::effects
PUBLIC	?hallucinations@_Internal@FeatureLayers@SC2APIProtocol@@SAAEBVImageData@3@PEBV23@@Z ; SC2APIProtocol::FeatureLayers::_Internal::hallucinations
PUBLIC	?cloaked@_Internal@FeatureLayers@SC2APIProtocol@@SAAEBVImageData@3@PEBV23@@Z ; SC2APIProtocol::FeatureLayers::_Internal::cloaked
PUBLIC	?blip@_Internal@FeatureLayers@SC2APIProtocol@@SAAEBVImageData@3@PEBV23@@Z ; SC2APIProtocol::FeatureLayers::_Internal::blip
PUBLIC	?buffs@_Internal@FeatureLayers@SC2APIProtocol@@SAAEBVImageData@3@PEBV23@@Z ; SC2APIProtocol::FeatureLayers::_Internal::buffs
PUBLIC	?buff_duration@_Internal@FeatureLayers@SC2APIProtocol@@SAAEBVImageData@3@PEBV23@@Z ; SC2APIProtocol::FeatureLayers::_Internal::buff_duration
PUBLIC	?active@_Internal@FeatureLayers@SC2APIProtocol@@SAAEBVImageData@3@PEBV23@@Z ; SC2APIProtocol::FeatureLayers::_Internal::active
PUBLIC	?build_progress@_Internal@FeatureLayers@SC2APIProtocol@@SAAEBVImageData@3@PEBV23@@Z ; SC2APIProtocol::FeatureLayers::_Internal::build_progress
PUBLIC	?buildable@_Internal@FeatureLayers@SC2APIProtocol@@SAAEBVImageData@3@PEBV23@@Z ; SC2APIProtocol::FeatureLayers::_Internal::buildable
PUBLIC	?pathable@_Internal@FeatureLayers@SC2APIProtocol@@SAAEBVImageData@3@PEBV23@@Z ; SC2APIProtocol::FeatureLayers::_Internal::pathable
PUBLIC	?placeholder@_Internal@FeatureLayers@SC2APIProtocol@@SAAEBVImageData@3@PEBV23@@Z ; SC2APIProtocol::FeatureLayers::_Internal::placeholder
PUBLIC	??$MessageSize@VImageData@SC2APIProtocol@@@WireFormatLite@internal@protobuf@google@@SA_KAEBVImageData@SC2APIProtocol@@@Z ; google::protobuf::internal::WireFormatLite::MessageSize<SC2APIProtocol::ImageData>
PUBLIC	??$memswap@$0NI@@internal@protobuf@google@@YAXPEAD0@Z ; google::protobuf::internal::memswap<216>
PUBLIC	?height_map@_Internal@FeatureLayersMinimap@SC2APIProtocol@@SAAEBVImageData@3@PEBV23@@Z ; SC2APIProtocol::FeatureLayersMinimap::_Internal::height_map
PUBLIC	?visibility_map@_Internal@FeatureLayersMinimap@SC2APIProtocol@@SAAEBVImageData@3@PEBV23@@Z ; SC2APIProtocol::FeatureLayersMinimap::_Internal::visibility_map
PUBLIC	?creep@_Internal@FeatureLayersMinimap@SC2APIProtocol@@SAAEBVImageData@3@PEBV23@@Z ; SC2APIProtocol::FeatureLayersMinimap::_Internal::creep
PUBLIC	?camera@_Internal@FeatureLayersMinimap@SC2APIProtocol@@SAAEBVImageData@3@PEBV23@@Z ; SC2APIProtocol::FeatureLayersMinimap::_Internal::camera
PUBLIC	?player_id@_Internal@FeatureLayersMinimap@SC2APIProtocol@@SAAEBVImageData@3@PEBV23@@Z ; SC2APIProtocol::FeatureLayersMinimap::_Internal::player_id
PUBLIC	?player_relative@_Internal@FeatureLayersMinimap@SC2APIProtocol@@SAAEBVImageData@3@PEBV23@@Z ; SC2APIProtocol::FeatureLayersMinimap::_Internal::player_relative
PUBLIC	?selected@_Internal@FeatureLayersMinimap@SC2APIProtocol@@SAAEBVImageData@3@PEBV23@@Z ; SC2APIProtocol::FeatureLayersMinimap::_Internal::selected
PUBLIC	?alerts@_Internal@FeatureLayersMinimap@SC2APIProtocol@@SAAEBVImageData@3@PEBV23@@Z ; SC2APIProtocol::FeatureLayersMinimap::_Internal::alerts
PUBLIC	?buildable@_Internal@FeatureLayersMinimap@SC2APIProtocol@@SAAEBVImageData@3@PEBV23@@Z ; SC2APIProtocol::FeatureLayersMinimap::_Internal::buildable
PUBLIC	?pathable@_Internal@FeatureLayersMinimap@SC2APIProtocol@@SAAEBVImageData@3@PEBV23@@Z ; SC2APIProtocol::FeatureLayersMinimap::_Internal::pathable
PUBLIC	?unit_type@_Internal@FeatureLayersMinimap@SC2APIProtocol@@SAAEBVImageData@3@PEBV23@@Z ; SC2APIProtocol::FeatureLayersMinimap::_Internal::unit_type
PUBLIC	??$memswap@$0FI@@internal@protobuf@google@@YAXPEAD0@Z ; google::protobuf::internal::memswap<88>
PUBLIC	?map@_Internal@ObservationRender@SC2APIProtocol@@SAAEBVImageData@3@PEBV23@@Z ; SC2APIProtocol::ObservationRender::_Internal::map
PUBLIC	?minimap@_Internal@ObservationRender@SC2APIProtocol@@SAAEBVImageData@3@PEBV23@@Z ; SC2APIProtocol::ObservationRender::_Internal::minimap
PUBLIC	?unit_command@_Internal@ActionSpatial@SC2APIProtocol@@SAAEBVActionSpatialUnitCommand@3@PEBV23@@Z ; SC2APIProtocol::ActionSpatial::_Internal::unit_command
PUBLIC	?camera_move@_Internal@ActionSpatial@SC2APIProtocol@@SAAEBVActionSpatialCameraMove@3@PEBV23@@Z ; SC2APIProtocol::ActionSpatial::_Internal::camera_move
PUBLIC	?unit_selection_point@_Internal@ActionSpatial@SC2APIProtocol@@SAAEBVActionSpatialUnitSelectionPoint@3@PEBV23@@Z ; SC2APIProtocol::ActionSpatial::_Internal::unit_selection_point
PUBLIC	?unit_selection_rect@_Internal@ActionSpatial@SC2APIProtocol@@SAAEBVActionSpatialUnitSelectionRect@3@PEBV23@@Z ; SC2APIProtocol::ActionSpatial::_Internal::unit_selection_rect
PUBLIC	??$InternalGetOwningArena@VActionSpatialUnitCommand@SC2APIProtocol@@@Arena@protobuf@google@@SAPEAV012@PEBVActionSpatialUnitCommand@SC2APIProtocol@@@Z ; google::protobuf::Arena::InternalGetOwningArena<SC2APIProtocol::ActionSpatialUnitCommand>
PUBLIC	??$GetOwnedMessage@VActionSpatialUnitCommand@SC2APIProtocol@@@internal@protobuf@google@@YAPEAVActionSpatialUnitCommand@SC2APIProtocol@@PEAVArena@12@PEAV34@0@Z ; google::protobuf::internal::GetOwnedMessage<SC2APIProtocol::ActionSpatialUnitCommand>
PUBLIC	??$InternalGetOwningArena@VActionSpatialCameraMove@SC2APIProtocol@@@Arena@protobuf@google@@SAPEAV012@PEBVActionSpatialCameraMove@SC2APIProtocol@@@Z ; google::protobuf::Arena::InternalGetOwningArena<SC2APIProtocol::ActionSpatialCameraMove>
PUBLIC	??$GetOwnedMessage@VActionSpatialCameraMove@SC2APIProtocol@@@internal@protobuf@google@@YAPEAVActionSpatialCameraMove@SC2APIProtocol@@PEAVArena@12@PEAV34@0@Z ; google::protobuf::internal::GetOwnedMessage<SC2APIProtocol::ActionSpatialCameraMove>
PUBLIC	??$InternalGetOwningArena@VActionSpatialUnitSelectionPoint@SC2APIProtocol@@@Arena@protobuf@google@@SAPEAV012@PEBVActionSpatialUnitSelectionPoint@SC2APIProtocol@@@Z ; google::protobuf::Arena::InternalGetOwningArena<SC2APIProtocol::ActionSpatialUnitSelectionPoint>
PUBLIC	??$GetOwnedMessage@VActionSpatialUnitSelectionPoint@SC2APIProtocol@@@internal@protobuf@google@@YAPEAVActionSpatialUnitSelectionPoint@SC2APIProtocol@@PEAVArena@12@PEAV34@0@Z ; google::protobuf::internal::GetOwnedMessage<SC2APIProtocol::ActionSpatialUnitSelectionPoint>
PUBLIC	??$InternalGetOwningArena@VActionSpatialUnitSelectionRect@SC2APIProtocol@@@Arena@protobuf@google@@SAPEAV012@PEBVActionSpatialUnitSelectionRect@SC2APIProtocol@@@Z ; google::protobuf::Arena::InternalGetOwningArena<SC2APIProtocol::ActionSpatialUnitSelectionRect>
PUBLIC	??$GetOwnedMessage@VActionSpatialUnitSelectionRect@SC2APIProtocol@@@internal@protobuf@google@@YAPEAVActionSpatialUnitSelectionRect@SC2APIProtocol@@PEAVArena@12@PEAV34@0@Z ; google::protobuf::internal::GetOwnedMessage<SC2APIProtocol::ActionSpatialUnitSelectionRect>
PUBLIC	??$MessageSize@VActionSpatialUnitCommand@SC2APIProtocol@@@WireFormatLite@internal@protobuf@google@@SA_KAEBVActionSpatialUnitCommand@SC2APIProtocol@@@Z ; google::protobuf::internal::WireFormatLite::MessageSize<SC2APIProtocol::ActionSpatialUnitCommand>
PUBLIC	??$MessageSize@VActionSpatialCameraMove@SC2APIProtocol@@@WireFormatLite@internal@protobuf@google@@SA_KAEBVActionSpatialCameraMove@SC2APIProtocol@@@Z ; google::protobuf::internal::WireFormatLite::MessageSize<SC2APIProtocol::ActionSpatialCameraMove>
PUBLIC	??$MessageSize@VActionSpatialUnitSelectionPoint@SC2APIProtocol@@@WireFormatLite@internal@protobuf@google@@SA_KAEBVActionSpatialUnitSelectionPoint@SC2APIProtocol@@@Z ; google::protobuf::internal::WireFormatLite::MessageSize<SC2APIProtocol::ActionSpatialUnitSelectionPoint>
PUBLIC	??$MessageSize@VActionSpatialUnitSelectionRect@SC2APIProtocol@@@WireFormatLite@internal@protobuf@google@@SA_KAEBVActionSpatialUnitSelectionRect@SC2APIProtocol@@@Z ; google::protobuf::internal::WireFormatLite::MessageSize<SC2APIProtocol::ActionSpatialUnitSelectionRect>
PUBLIC	??$swap@TActionUnion@Impl_@ActionSpatial@SC2APIProtocol@@$0A@@std@@YAXAEATActionUnion@Impl_@ActionSpatial@SC2APIProtocol@@0@Z ; std::swap<SC2APIProtocol::ActionSpatial::Impl_::ActionUnion,0>
PUBLIC	?set_has_ability_id@_Internal@ActionSpatialUnitCommand@SC2APIProtocol@@SAXPEAV?$HasBits@$00@internal@protobuf@google@@@Z ; SC2APIProtocol::ActionSpatialUnitCommand::_Internal::set_has_ability_id
PUBLIC	?target_screen_coord@_Internal@ActionSpatialUnitCommand@SC2APIProtocol@@SAAEBVPointI@3@PEBV23@@Z ; SC2APIProtocol::ActionSpatialUnitCommand::_Internal::target_screen_coord
PUBLIC	?target_minimap_coord@_Internal@ActionSpatialUnitCommand@SC2APIProtocol@@SAAEBVPointI@3@PEBV23@@Z ; SC2APIProtocol::ActionSpatialUnitCommand::_Internal::target_minimap_coord
PUBLIC	?set_has_queue_command@_Internal@ActionSpatialUnitCommand@SC2APIProtocol@@SAXPEAV?$HasBits@$00@internal@protobuf@google@@@Z ; SC2APIProtocol::ActionSpatialUnitCommand::_Internal::set_has_queue_command
PUBLIC	??$MessageSize@VPointI@SC2APIProtocol@@@WireFormatLite@internal@protobuf@google@@SA_KAEBVPointI@SC2APIProtocol@@@Z ; google::protobuf::internal::WireFormatLite::MessageSize<SC2APIProtocol::PointI>
PUBLIC	??$memswap@$04@internal@protobuf@google@@YAXPEAD0@Z ; google::protobuf::internal::memswap<5>
PUBLIC	??$swap@TTargetUnion@Impl_@ActionSpatialUnitCommand@SC2APIProtocol@@$0A@@std@@YAXAEATTargetUnion@Impl_@ActionSpatialUnitCommand@SC2APIProtocol@@0@Z ; std::swap<SC2APIProtocol::ActionSpatialUnitCommand::Impl_::TargetUnion,0>
PUBLIC	?center_minimap@_Internal@ActionSpatialCameraMove@SC2APIProtocol@@SAAEBVPointI@3@PEBV23@@Z ; SC2APIProtocol::ActionSpatialCameraMove::_Internal::center_minimap
PUBLIC	??$swap@PEAVPointI@SC2APIProtocol@@$0A@@std@@YAXAEAPEAVPointI@SC2APIProtocol@@0@Z ; std::swap<SC2APIProtocol::PointI *,0>
PUBLIC	?selection_screen_coord@_Internal@ActionSpatialUnitSelectionPoint@SC2APIProtocol@@SAAEBVPointI@3@PEBV23@@Z ; SC2APIProtocol::ActionSpatialUnitSelectionPoint::_Internal::selection_screen_coord
PUBLIC	?set_has_selection_add@_Internal@ActionSpatialUnitSelectionRect@SC2APIProtocol@@SAXPEAV?$HasBits@$00@internal@protobuf@google@@@Z ; SC2APIProtocol::ActionSpatialUnitSelectionRect::_Internal::set_has_selection_add
PUBLIC	??$ExpectTag@$09@internal@protobuf@google@@YA_NPEBD@Z ; google::protobuf::internal::ExpectTag<10>
PUBLIC	??D?$RepeatedPtrIterator@$$CBVRectangleI@SC2APIProtocol@@@internal@protobuf@google@@QEBAAEBVRectangleI@SC2APIProtocol@@XZ ; google::protobuf::internal::RepeatedPtrIterator<SC2APIProtocol::RectangleI const >::operator*
PUBLIC	??E?$RepeatedPtrIterator@$$CBVRectangleI@SC2APIProtocol@@@internal@protobuf@google@@QEAAAEAV0123@XZ ; google::protobuf::internal::RepeatedPtrIterator<SC2APIProtocol::RectangleI const >::operator++
PUBLIC	??9internal@protobuf@google@@YA_NAEBV?$RepeatedPtrIterator@$$CBVRectangleI@SC2APIProtocol@@@012@0@Z ; google::protobuf::internal::operator!=
PUBLIC	??$MessageSize@VRectangleI@SC2APIProtocol@@@WireFormatLite@internal@protobuf@google@@SA_KAEBVRectangleI@SC2APIProtocol@@@Z ; google::protobuf::internal::WireFormatLite::MessageSize<SC2APIProtocol::RectangleI>
PUBLIC	??$swap@_N$0A@@std@@YAXAEA_N0@Z			; std::swap<bool,0>
PUBLIC	??$CreateMessageInternal@VObservationFeatureLayer@SC2APIProtocol@@@Arena@protobuf@google@@CAPEAVObservationFeatureLayer@SC2APIProtocol@@PEAV012@@Z ; google::protobuf::Arena::CreateMessageInternal<SC2APIProtocol::ObservationFeatureLayer>
PUBLIC	??$CreateMessageInternal@VFeatureLayers@SC2APIProtocol@@@Arena@protobuf@google@@CAPEAVFeatureLayers@SC2APIProtocol@@PEAV012@@Z ; google::protobuf::Arena::CreateMessageInternal<SC2APIProtocol::FeatureLayers>
PUBLIC	??$CreateMessageInternal@VFeatureLayersMinimap@SC2APIProtocol@@@Arena@protobuf@google@@CAPEAVFeatureLayersMinimap@SC2APIProtocol@@PEAV012@@Z ; google::protobuf::Arena::CreateMessageInternal<SC2APIProtocol::FeatureLayersMinimap>
PUBLIC	??$CreateMessageInternal@VObservationRender@SC2APIProtocol@@@Arena@protobuf@google@@CAPEAVObservationRender@SC2APIProtocol@@PEAV012@@Z ; google::protobuf::Arena::CreateMessageInternal<SC2APIProtocol::ObservationRender>
PUBLIC	??$CreateMessageInternal@VActionSpatial@SC2APIProtocol@@@Arena@protobuf@google@@CAPEAVActionSpatial@SC2APIProtocol@@PEAV012@@Z ; google::protobuf::Arena::CreateMessageInternal<SC2APIProtocol::ActionSpatial>
PUBLIC	??$CreateMessageInternal@VActionSpatialUnitCommand@SC2APIProtocol@@@Arena@protobuf@google@@CAPEAVActionSpatialUnitCommand@SC2APIProtocol@@PEAV012@@Z ; google::protobuf::Arena::CreateMessageInternal<SC2APIProtocol::ActionSpatialUnitCommand>
PUBLIC	??$CreateMessageInternal@VActionSpatialCameraMove@SC2APIProtocol@@@Arena@protobuf@google@@CAPEAVActionSpatialCameraMove@SC2APIProtocol@@PEAV012@@Z ; google::protobuf::Arena::CreateMessageInternal<SC2APIProtocol::ActionSpatialCameraMove>
PUBLIC	??$CreateMessageInternal@VActionSpatialUnitSelectionPoint@SC2APIProtocol@@@Arena@protobuf@google@@CAPEAVActionSpatialUnitSelectionPoint@SC2APIProtocol@@PEAV012@@Z ; google::protobuf::Arena::CreateMessageInternal<SC2APIProtocol::ActionSpatialUnitSelectionPoint>
PUBLIC	??$CreateMessageInternal@VActionSpatialUnitSelectionRect@SC2APIProtocol@@@Arena@protobuf@google@@CAPEAVActionSpatialUnitSelectionRect@SC2APIProtocol@@PEAV012@@Z ; google::protobuf::Arena::CreateMessageInternal<SC2APIProtocol::ActionSpatialUnitSelectionRect>
PUBLIC	?deallocate@?$allocator@U_Container_proxy@std@@@std@@QEAAXQEAU_Container_proxy@2@_K@Z ; std::allocator<std::_Container_proxy>::deallocate
PUBLIC	?allocate@?$allocator@U_Container_proxy@std@@@std@@QEAAPEAU_Container_proxy@2@_K@Z ; std::allocator<std::_Container_proxy>::allocate
PUBLIC	??$?0VUnknownField@protobuf@google@@@?$allocator@U_Container_proxy@std@@@std@@QEAA@AEBV?$allocator@VUnknownField@protobuf@google@@@1@@Z ; std::allocator<std::_Container_proxy>::allocator<std::_Container_proxy><google::protobuf::UnknownField>
PUBLIC	??$exchange@PEAU_Container_proxy@std@@$$T@std@@YAPEAU_Container_proxy@0@AEAPEAU10@$$QEA$$T@Z ; std::exchange<std::_Container_proxy *,std::nullptr_t>
PUBLIC	??$_Delete_plain_internal@V?$allocator@U_Container_proxy@std@@@std@@@std@@YAXAEAV?$allocator@U_Container_proxy@std@@@0@QEAU_Container_proxy@0@@Z ; std::_Delete_plain_internal<std::allocator<std::_Container_proxy> >
PUBLIC	??$?0$$V@?$_Compressed_pair@V?$allocator@VUnknownField@protobuf@google@@@std@@V?$_Vector_val@U?$_Simple_types@VUnknownField@protobuf@google@@@std@@@2@$00@std@@QEAA@U_Zero_then_variadic_args_t@1@@Z ; std::_Compressed_pair<std::allocator<google::protobuf::UnknownField>,std::_Vector_val<std::_Simple_types<google::protobuf::UnknownField> >,1>::_Compressed_pair<std::allocator<google::protobuf::UnknownField>,std::_Vector_val<std::_Simple_types<google::protobuf::UnknownField> >,1><>
PUBLIC	??$_Alloc_proxy@V?$allocator@U_Container_proxy@std@@@std@@@_Container_base12@std@@QEAAX$$QEAV?$allocator@U_Container_proxy@std@@@1@@Z ; std::_Container_base12::_Alloc_proxy<std::allocator<std::_Container_proxy> >
PUBLIC	??$_Atomic_address_as@HU?$_Atomic_padded@H@std@@@std@@YAPEDHAEBU?$_Atomic_padded@H@0@@Z ; std::_Atomic_address_as<int,std::_Atomic_padded<int> >
PUBLIC	??$_Atomic_address_as@HU?$_Atomic_padded@H@std@@@std@@YAPECHAEAU?$_Atomic_padded@H@0@@Z ; std::_Atomic_address_as<int,std::_Atomic_padded<int> >
PUBLIC	??$_Atomic_reinterpret_as@HH@std@@YAHAEBH@Z	; std::_Atomic_reinterpret_as<int,int>
PUBLIC	??$_Destroy_range@V?$allocator@VUnknownField@protobuf@google@@@std@@@std@@YAXPEAVUnknownField@protobuf@google@@QEAV123@AEAV?$allocator@VUnknownField@protobuf@google@@@0@@Z ; std::_Destroy_range<std::allocator<google::protobuf::UnknownField> >
PUBLIC	??$_Deallocate@$0BA@$0A@@std@@YAXPEAX_K@Z	; std::_Deallocate<16,0>
PUBLIC	??$addressof@U_Container_proxy@std@@@std@@YAPEAU_Container_proxy@0@AEAU10@@Z ; std::addressof<std::_Container_proxy>
PUBLIC	??$_Voidify_iter@PEAU_Container_proxy@std@@@std@@YAPEAXPEAU_Container_proxy@0@@Z ; std::_Voidify_iter<std::_Container_proxy *>
PUBLIC	??$forward@PEAU_Container_base12@std@@@std@@YA$$QEAPEAU_Container_base12@0@AEAPEAU10@@Z ; std::forward<std::_Container_base12 *>
PUBLIC	??$construct_at@U_Container_proxy@std@@PEAU_Container_base12@2@$0A@@std@@YAPEAU_Container_proxy@0@QEAU10@$$QEAPEAU_Container_base12@0@@Z ; std::construct_at<std::_Container_proxy,std::_Container_base12 *,0>
PUBLIC	??$move@AEAH@std@@YA$$QEAHAEAH@Z		; std::move<int &>
PUBLIC	??$move@AEA_J@std@@YA$$QEA_JAEA_J@Z		; std::move<__int64 &>
PUBLIC	??$forward@AEAPEAVArena@protobuf@google@@@std@@YAAEAPEAVArena@protobuf@google@@AEAPEAV123@@Z ; std::forward<google::protobuf::Arena * &>
PUBLIC	??$forward@AEAH@std@@YAAEAHAEAH@Z		; std::forward<int &>
PUBLIC	??$forward@AEAPEAURep@RepeatedPtrFieldBase@internal@protobuf@google@@@std@@YAAEAPEAURep@RepeatedPtrFieldBase@internal@protobuf@google@@AEAPEAU12345@@Z ; std::forward<google::protobuf::internal::RepeatedPtrFieldBase::Rep * &>
PUBLIC	??$?0AEAPEAVArena@protobuf@google@@AEAHAEAHAEAPEAURep@RepeatedPtrFieldBase@internal@12@$0A@@?$tuple@PEAVArena@protobuf@google@@HHPEAURep@RepeatedPtrFieldBase@internal@23@@std@@QEAA@AEAPEAVArena@protobuf@google@@AEAH1AEAPEAURep@RepeatedPtrFieldBase@internal@34@@Z ; std::tuple<google::protobuf::Arena *,int,int,google::protobuf::internal::RepeatedPtrFieldBase::Rep *>::tuple<google::protobuf::Arena *,int,int,google::protobuf::internal::RepeatedPtrFieldBase::Rep *><google::protobuf::Arena * &,int &,int &,google::protobuf::internal::RepeatedPtrFieldBase::Rep * &,0>
PUBLIC	??$?0AEAPEAVArena@protobuf@google@@$0A@@?$tuple@AEAPEAVArena@protobuf@google@@AEAHAEAHAEAPEAURep@RepeatedPtrFieldBase@internal@23@@std@@QEAA@AEAPEAVArena@protobuf@google@@AEAH1AEAPEAURep@RepeatedPtrFieldBase@internal@34@@Z ; std::tuple<google::protobuf::Arena * &,int &,int &,google::protobuf::internal::RepeatedPtrFieldBase::Rep * &>::tuple<google::protobuf::Arena * &,int &,int &,google::protobuf::internal::RepeatedPtrFieldBase::Rep * &><google::protobuf::Arena * &,0>
PUBLIC	??$forward@PEAVArena@protobuf@google@@@std@@YA$$QEAPEAVArena@protobuf@google@@AEAPEAV123@@Z ; std::forward<google::protobuf::Arena *>
PUBLIC	??$forward@V?$tuple@HHPEAURep@RepeatedPtrFieldBase@internal@protobuf@google@@@std@@@std@@YA$$QEAV?$tuple@HHPEAURep@RepeatedPtrFieldBase@internal@protobuf@google@@@0@AEAV10@@Z ; std::forward<std::tuple<int,int,google::protobuf::internal::RepeatedPtrFieldBase::Rep *> >
PUBLIC	??$?4HHPEAURep@RepeatedPtrFieldBase@internal@protobuf@google@@$0A@@?$tuple@AEAHAEAHAEAPEAURep@RepeatedPtrFieldBase@internal@protobuf@google@@@std@@QEAAAEAV01@$$QEAV?$tuple@HHPEAURep@RepeatedPtrFieldBase@internal@protobuf@google@@@1@@Z ; std::tuple<int &,int &,google::protobuf::internal::RepeatedPtrFieldBase::Rep * &>::operator=<int,int,google::protobuf::internal::RepeatedPtrFieldBase::Rep *,0>
PUBLIC	??$?4HHPEAURep@RepeatedPtrFieldBase@internal@protobuf@google@@$0A@@?$tuple@AEAHAEAHAEAPEAURep@RepeatedPtrFieldBase@internal@protobuf@google@@@std@@QEAAAEAV01@AEBV?$tuple@HHPEAURep@RepeatedPtrFieldBase@internal@protobuf@google@@@1@@Z ; std::tuple<int &,int &,google::protobuf::internal::RepeatedPtrFieldBase::Rep * &>::operator=<int,int,google::protobuf::internal::RepeatedPtrFieldBase::Rep *,0>
PUBLIC	??$PtrValue@U?$Container@VUnknownFieldSet@protobuf@google@@@InternalMetadata@internal@protobuf@google@@@InternalMetadata@internal@protobuf@google@@AEBAPEAU?$Container@VUnknownFieldSet@protobuf@google@@@0123@XZ ; google::protobuf::internal::InternalMetadata::PtrValue<google::protobuf::internal::InternalMetadata::Container<google::protobuf::UnknownFieldSet> >
PUBLIC	??0?$Container@VUnknownFieldSet@protobuf@google@@@InternalMetadata@internal@protobuf@google@@QEAA@XZ ; google::protobuf::internal::InternalMetadata::Container<google::protobuf::UnknownFieldSet>::Container<google::protobuf::UnknownFieldSet>
PUBLIC	??1?$Container@VUnknownFieldSet@protobuf@google@@@InternalMetadata@internal@protobuf@google@@QEAA@XZ ; google::protobuf::internal::InternalMetadata::Container<google::protobuf::UnknownFieldSet>::~Container<google::protobuf::UnknownFieldSet>
PUBLIC	??_G?$Container@VUnknownFieldSet@protobuf@google@@@InternalMetadata@internal@protobuf@google@@QEAAPEAXI@Z ; google::protobuf::internal::InternalMetadata::Container<google::protobuf::UnknownFieldSet>::`scalar deleting destructor'
PUBLIC	??$mutable_unknown_fields_slow@VUnknownFieldSet@protobuf@google@@@InternalMetadata@internal@protobuf@google@@AEAAPEAVUnknownFieldSet@23@XZ ; google::protobuf::internal::InternalMetadata::mutable_unknown_fields_slow<google::protobuf::UnknownFieldSet>
PUBLIC	?New@?$GenericTypeHandler@VRectangleI@SC2APIProtocol@@@internal@protobuf@google@@SAPEAVRectangleI@SC2APIProtocol@@PEAVArena@34@@Z ; google::protobuf::internal::GenericTypeHandler<SC2APIProtocol::RectangleI>::New
PUBLIC	?NewFromPrototype@?$GenericTypeHandler@VRectangleI@SC2APIProtocol@@@internal@protobuf@google@@SAPEAVRectangleI@SC2APIProtocol@@PEBV56@PEAVArena@34@@Z ; google::protobuf::internal::GenericTypeHandler<SC2APIProtocol::RectangleI>::NewFromPrototype
PUBLIC	?Clear@?$GenericTypeHandler@VRectangleI@SC2APIProtocol@@@internal@protobuf@google@@SAXPEAVRectangleI@SC2APIProtocol@@@Z ; google::protobuf::internal::GenericTypeHandler<SC2APIProtocol::RectangleI>::Clear
PUBLIC	?Merge@?$GenericTypeHandler@VRectangleI@SC2APIProtocol@@@internal@protobuf@google@@SAXAEBVRectangleI@SC2APIProtocol@@PEAV56@@Z ; google::protobuf::internal::GenericTypeHandler<SC2APIProtocol::RectangleI>::Merge
PUBLIC	??$Get@VTypeHandler@?$RepeatedPtrField@VRectangleI@SC2APIProtocol@@@protobuf@google@@@RepeatedPtrFieldBase@internal@protobuf@google@@QEBAAEBVRectangleI@SC2APIProtocol@@H@Z ; google::protobuf::internal::RepeatedPtrFieldBase::Get<google::protobuf::RepeatedPtrField<SC2APIProtocol::RectangleI>::TypeHandler>
PUBLIC	??$Add@VTypeHandler@?$RepeatedPtrField@VRectangleI@SC2APIProtocol@@@protobuf@google@@@RepeatedPtrFieldBase@internal@protobuf@google@@IEAAPEAVRectangleI@SC2APIProtocol@@PEBV45@@Z ; google::protobuf::internal::RepeatedPtrFieldBase::Add<google::protobuf::RepeatedPtrField<SC2APIProtocol::RectangleI>::TypeHandler>
PUBLIC	??$Clear@VTypeHandler@?$RepeatedPtrField@VRectangleI@SC2APIProtocol@@@protobuf@google@@@RepeatedPtrFieldBase@internal@protobuf@google@@QEAAXXZ ; google::protobuf::internal::RepeatedPtrFieldBase::Clear<google::protobuf::RepeatedPtrField<SC2APIProtocol::RectangleI>::TypeHandler>
PUBLIC	??$MergeFrom@VTypeHandler@?$RepeatedPtrField@VRectangleI@SC2APIProtocol@@@protobuf@google@@@RepeatedPtrFieldBase@internal@protobuf@google@@QEAAXAEBV0123@@Z ; google::protobuf::internal::RepeatedPtrFieldBase::MergeFrom<google::protobuf::RepeatedPtrField<SC2APIProtocol::RectangleI>::TypeHandler>
PUBLIC	??0?$RepeatedPtrIterator@VRectangleI@SC2APIProtocol@@@internal@protobuf@google@@QEAA@PEBQEAX@Z ; google::protobuf::internal::RepeatedPtrIterator<SC2APIProtocol::RectangleI>::RepeatedPtrIterator<SC2APIProtocol::RectangleI>
PUBLIC	??$?0VRectangleI@SC2APIProtocol@@$0A@@?$RepeatedPtrIterator@$$CBVRectangleI@SC2APIProtocol@@@internal@protobuf@google@@QEAA@AEBV?$RepeatedPtrIterator@VRectangleI@SC2APIProtocol@@@123@@Z ; google::protobuf::internal::RepeatedPtrIterator<SC2APIProtocol::RectangleI const >::RepeatedPtrIterator<SC2APIProtocol::RectangleI const ><SC2APIProtocol::RectangleI,0>
PUBLIC	?New@?$InternalHelper@VFeatureLayers@SC2APIProtocol@@@Arena@protobuf@google@@CAPEAVFeatureLayers@SC2APIProtocol@@XZ ; google::protobuf::Arena::InternalHelper<SC2APIProtocol::FeatureLayers>::New
PUBLIC	?New@?$InternalHelper@VFeatureLayersMinimap@SC2APIProtocol@@@Arena@protobuf@google@@CAPEAVFeatureLayersMinimap@SC2APIProtocol@@XZ ; google::protobuf::Arena::InternalHelper<SC2APIProtocol::FeatureLayersMinimap>::New
PUBLIC	?GetOwningArena@?$InternalHelper@VMessageLite@protobuf@google@@@Arena@protobuf@google@@CAPEAV234@PEBVMessageLite@34@@Z ; google::protobuf::Arena::InternalHelper<google::protobuf::MessageLite>::GetOwningArena
PUBLIC	??$DoMergeFrom@VUnknownFieldSet@protobuf@google@@@InternalMetadata@internal@protobuf@google@@AEAAXAEBVUnknownFieldSet@23@@Z ; google::protobuf::internal::InternalMetadata::DoMergeFrom<google::protobuf::UnknownFieldSet>
PUBLIC	??$DeleteOutOfLineHelper@VUnknownFieldSet@protobuf@google@@@InternalMetadata@internal@protobuf@google@@AEAAPEAVArena@23@XZ ; google::protobuf::internal::InternalMetadata::DeleteOutOfLineHelper<google::protobuf::UnknownFieldSet>
PUBLIC	??$DoClear@VUnknownFieldSet@protobuf@google@@@InternalMetadata@internal@protobuf@google@@AEAAXXZ ; google::protobuf::internal::InternalMetadata::DoClear<google::protobuf::UnknownFieldSet>
PUBLIC	??$move@AEAI@std@@YA$$QEAIAEAI@Z		; std::move<unsigned int &>
PUBLIC	??$SwapBlock@_K@internal@protobuf@google@@YAXPEAD0@Z ; google::protobuf::internal::SwapBlock<unsigned __int64>
PUBLIC	??$memswap@$07@internal@protobuf@google@@YAXPEAD0@Z ; google::protobuf::internal::memswap<8>
PUBLIC	??$memswap@$0NA@@internal@protobuf@google@@YAXPEAD0@Z ; google::protobuf::internal::memswap<208>
PUBLIC	??$memswap@$0FA@@internal@protobuf@google@@YAXPEAD0@Z ; google::protobuf::internal::memswap<80>
PUBLIC	?GetOwningArena@?$InternalHelper@VActionSpatialUnitCommand@SC2APIProtocol@@@Arena@protobuf@google@@CAPEAV234@PEBVActionSpatialUnitCommand@SC2APIProtocol@@@Z ; google::protobuf::Arena::InternalHelper<SC2APIProtocol::ActionSpatialUnitCommand>::GetOwningArena
PUBLIC	?New@?$InternalHelper@VActionSpatialUnitCommand@SC2APIProtocol@@@Arena@protobuf@google@@CAPEAVActionSpatialUnitCommand@SC2APIProtocol@@XZ ; google::protobuf::Arena::InternalHelper<SC2APIProtocol::ActionSpatialUnitCommand>::New
PUBLIC	?GetOwningArena@?$InternalHelper@VActionSpatialCameraMove@SC2APIProtocol@@@Arena@protobuf@google@@CAPEAV234@PEBVActionSpatialCameraMove@SC2APIProtocol@@@Z ; google::protobuf::Arena::InternalHelper<SC2APIProtocol::ActionSpatialCameraMove>::GetOwningArena
PUBLIC	?New@?$InternalHelper@VActionSpatialCameraMove@SC2APIProtocol@@@Arena@protobuf@google@@CAPEAVActionSpatialCameraMove@SC2APIProtocol@@XZ ; google::protobuf::Arena::InternalHelper<SC2APIProtocol::ActionSpatialCameraMove>::New
PUBLIC	?GetOwningArena@?$InternalHelper@VActionSpatialUnitSelectionPoint@SC2APIProtocol@@@Arena@protobuf@google@@CAPEAV234@PEBVActionSpatialUnitSelectionPoint@SC2APIProtocol@@@Z ; google::protobuf::Arena::InternalHelper<SC2APIProtocol::ActionSpatialUnitSelectionPoint>::GetOwningArena
PUBLIC	?New@?$InternalHelper@VActionSpatialUnitSelectionPoint@SC2APIProtocol@@@Arena@protobuf@google@@CAPEAVActionSpatialUnitSelectionPoint@SC2APIProtocol@@XZ ; google::protobuf::Arena::InternalHelper<SC2APIProtocol::ActionSpatialUnitSelectionPoint>::New
PUBLIC	?GetOwningArena@?$InternalHelper@VActionSpatialUnitSelectionRect@SC2APIProtocol@@@Arena@protobuf@google@@CAPEAV234@PEBVActionSpatialUnitSelectionRect@SC2APIProtocol@@@Z ; google::protobuf::Arena::InternalHelper<SC2APIProtocol::ActionSpatialUnitSelectionRect>::GetOwningArena
PUBLIC	?New@?$InternalHelper@VActionSpatialUnitSelectionRect@SC2APIProtocol@@@Arena@protobuf@google@@CAPEAVActionSpatialUnitSelectionRect@SC2APIProtocol@@XZ ; google::protobuf::Arena::InternalHelper<SC2APIProtocol::ActionSpatialUnitSelectionRect>::New
PUBLIC	??$move@AEATActionUnion@Impl_@ActionSpatial@SC2APIProtocol@@@std@@YA$$QEATActionUnion@Impl_@ActionSpatial@SC2APIProtocol@@AEAT1234@@Z ; std::move<SC2APIProtocol::ActionSpatial::Impl_::ActionUnion &>
PUBLIC	??$SwapBlock@I@internal@protobuf@google@@YAXPEAD0@Z ; google::protobuf::internal::SwapBlock<unsigned int>
PUBLIC	??$memswap@$00@internal@protobuf@google@@YAXPEAD0@Z ; google::protobuf::internal::memswap<1>
PUBLIC	??$move@AEATTargetUnion@Impl_@ActionSpatialUnitCommand@SC2APIProtocol@@@std@@YA$$QEATTargetUnion@Impl_@ActionSpatialUnitCommand@SC2APIProtocol@@AEAT1234@@Z ; std::move<SC2APIProtocol::ActionSpatialUnitCommand::Impl_::TargetUnion &>
PUBLIC	??$move@AEAPEAVPointI@SC2APIProtocol@@@std@@YA$$QEAPEAVPointI@SC2APIProtocol@@AEAPEAV12@@Z ; std::move<SC2APIProtocol::PointI * &>
PUBLIC	??$move@AEA_N@std@@YA$$QEA_NAEA_N@Z		; std::move<bool &>
PUBLIC	?New@?$InternalHelper@VObservationFeatureLayer@SC2APIProtocol@@@Arena@protobuf@google@@CAPEAVObservationFeatureLayer@SC2APIProtocol@@XZ ; google::protobuf::Arena::InternalHelper<SC2APIProtocol::ObservationFeatureLayer>::New
PUBLIC	??$DoCreateMessage@VObservationFeatureLayer@SC2APIProtocol@@$$V@Arena@protobuf@google@@AEAAPEAVObservationFeatureLayer@SC2APIProtocol@@XZ ; google::protobuf::Arena::DoCreateMessage<SC2APIProtocol::ObservationFeatureLayer>
PUBLIC	??$DoCreateMessage@VFeatureLayers@SC2APIProtocol@@$$V@Arena@protobuf@google@@AEAAPEAVFeatureLayers@SC2APIProtocol@@XZ ; google::protobuf::Arena::DoCreateMessage<SC2APIProtocol::FeatureLayers>
PUBLIC	??$DoCreateMessage@VFeatureLayersMinimap@SC2APIProtocol@@$$V@Arena@protobuf@google@@AEAAPEAVFeatureLayersMinimap@SC2APIProtocol@@XZ ; google::protobuf::Arena::DoCreateMessage<SC2APIProtocol::FeatureLayersMinimap>
PUBLIC	?New@?$InternalHelper@VObservationRender@SC2APIProtocol@@@Arena@protobuf@google@@CAPEAVObservationRender@SC2APIProtocol@@XZ ; google::protobuf::Arena::InternalHelper<SC2APIProtocol::ObservationRender>::New
PUBLIC	??$DoCreateMessage@VObservationRender@SC2APIProtocol@@$$V@Arena@protobuf@google@@AEAAPEAVObservationRender@SC2APIProtocol@@XZ ; google::protobuf::Arena::DoCreateMessage<SC2APIProtocol::ObservationRender>
PUBLIC	?New@?$InternalHelper@VActionSpatial@SC2APIProtocol@@@Arena@protobuf@google@@CAPEAVActionSpatial@SC2APIProtocol@@XZ ; google::protobuf::Arena::InternalHelper<SC2APIProtocol::ActionSpatial>::New
PUBLIC	??$DoCreateMessage@VActionSpatial@SC2APIProtocol@@$$V@Arena@protobuf@google@@AEAAPEAVActionSpatial@SC2APIProtocol@@XZ ; google::protobuf::Arena::DoCreateMessage<SC2APIProtocol::ActionSpatial>
PUBLIC	??$DoCreateMessage@VActionSpatialUnitCommand@SC2APIProtocol@@$$V@Arena@protobuf@google@@AEAAPEAVActionSpatialUnitCommand@SC2APIProtocol@@XZ ; google::protobuf::Arena::DoCreateMessage<SC2APIProtocol::ActionSpatialUnitCommand>
PUBLIC	??$DoCreateMessage@VActionSpatialCameraMove@SC2APIProtocol@@$$V@Arena@protobuf@google@@AEAAPEAVActionSpatialCameraMove@SC2APIProtocol@@XZ ; google::protobuf::Arena::DoCreateMessage<SC2APIProtocol::ActionSpatialCameraMove>
PUBLIC	??$DoCreateMessage@VActionSpatialUnitSelectionPoint@SC2APIProtocol@@$$V@Arena@protobuf@google@@AEAAPEAVActionSpatialUnitSelectionPoint@SC2APIProtocol@@XZ ; google::protobuf::Arena::DoCreateMessage<SC2APIProtocol::ActionSpatialUnitSelectionPoint>
PUBLIC	??$DoCreateMessage@VActionSpatialUnitSelectionRect@SC2APIProtocol@@$$V@Arena@protobuf@google@@AEAAPEAVActionSpatialUnitSelectionRect@SC2APIProtocol@@XZ ; google::protobuf::Arena::DoCreateMessage<SC2APIProtocol::ActionSpatialUnitSelectionRect>
PUBLIC	??$_Deallocate_plain@V?$allocator@U_Container_proxy@std@@@std@@@std@@YAXAEAV?$allocator@U_Container_proxy@std@@@0@QEAU_Container_proxy@0@@Z ; std::_Deallocate_plain<std::allocator<std::_Container_proxy> >
PUBLIC	??$_Unfancy@U_Container_proxy@std@@@std@@YAPEAU_Container_proxy@0@PEAU10@@Z ; std::_Unfancy<std::_Container_proxy>
PUBLIC	??$_Get_size_of_n@$0BA@@std@@YA_K_K@Z		; std::_Get_size_of_n<16>
PUBLIC	??$_Allocate@$0BA@U_Default_allocate_traits@std@@$0A@@std@@YAPEAX_K@Z ; std::_Allocate<16,std::_Default_allocate_traits,0>
PUBLIC	??$?0U_Exact_args_t@std@@AEAPEAVArena@protobuf@google@@AEAHAEAHAEAPEAURep@RepeatedPtrFieldBase@internal@34@$0A@@?$tuple@PEAVArena@protobuf@google@@HHPEAURep@RepeatedPtrFieldBase@internal@23@@std@@QEAA@U_Exact_args_t@1@AEAPEAVArena@protobuf@google@@AEAH2AEAPEAURep@RepeatedPtrFieldBase@internal@45@@Z ; std::tuple<google::protobuf::Arena *,int,int,google::protobuf::internal::RepeatedPtrFieldBase::Rep *>::tuple<google::protobuf::Arena *,int,int,google::protobuf::internal::RepeatedPtrFieldBase::Rep *><std::_Exact_args_t,google::protobuf::Arena * &,int &,int &,google::protobuf::internal::RepeatedPtrFieldBase::Rep * &,0>
PUBLIC	??$?0U_Exact_args_t@std@@AEAPEAVArena@protobuf@google@@AEAHAEAHAEAPEAURep@RepeatedPtrFieldBase@internal@34@$0A@@?$tuple@AEAPEAVArena@protobuf@google@@AEAHAEAHAEAPEAURep@RepeatedPtrFieldBase@internal@23@@std@@QEAA@U_Exact_args_t@1@AEAPEAVArena@protobuf@google@@AEAH2AEAPEAURep@RepeatedPtrFieldBase@internal@45@@Z ; std::tuple<google::protobuf::Arena * &,int &,int &,google::protobuf::internal::RepeatedPtrFieldBase::Rep * &>::tuple<google::protobuf::Arena * &,int &,int &,google::protobuf::internal::RepeatedPtrFieldBase::Rep * &><std::_Exact_args_t,google::protobuf::Arena * &,int &,int &,google::protobuf::internal::RepeatedPtrFieldBase::Rep * &,0>
PUBLIC	??$forward@H@std@@YA$$QEAHAEAH@Z		; std::forward<int>
PUBLIC	??$forward@V?$tuple@HPEAURep@RepeatedPtrFieldBase@internal@protobuf@google@@@std@@@std@@YA$$QEAV?$tuple@HPEAURep@RepeatedPtrFieldBase@internal@protobuf@google@@@0@AEAV10@@Z ; std::forward<std::tuple<int,google::protobuf::internal::RepeatedPtrFieldBase::Rep *> >
PUBLIC	??$?4HPEAURep@RepeatedPtrFieldBase@internal@protobuf@google@@$0A@@?$tuple@AEAHAEAPEAURep@RepeatedPtrFieldBase@internal@protobuf@google@@@std@@QEAAAEAV01@$$QEAV?$tuple@HPEAURep@RepeatedPtrFieldBase@internal@protobuf@google@@@1@@Z ; std::tuple<int &,google::protobuf::internal::RepeatedPtrFieldBase::Rep * &>::operator=<int,google::protobuf::internal::RepeatedPtrFieldBase::Rep *,0>
PUBLIC	??$?4HPEAURep@RepeatedPtrFieldBase@internal@protobuf@google@@$0A@@?$tuple@AEAHAEAPEAURep@RepeatedPtrFieldBase@internal@protobuf@google@@@std@@QEAAAEAV01@AEBV?$tuple@HPEAURep@RepeatedPtrFieldBase@internal@protobuf@google@@@1@@Z ; std::tuple<int &,google::protobuf::internal::RepeatedPtrFieldBase::Rep * &>::operator=<int,google::protobuf::internal::RepeatedPtrFieldBase::Rep *,0>
PUBLIC	??$Create@U?$Container@VUnknownFieldSet@protobuf@google@@@InternalMetadata@internal@protobuf@google@@$$V@Arena@protobuf@google@@SAPEAU?$Container@VUnknownFieldSet@protobuf@google@@@InternalMetadata@internal@12@PEAV012@@Z ; google::protobuf::Arena::Create<google::protobuf::internal::InternalMetadata::Container<google::protobuf::UnknownFieldSet> >
PUBLIC	??$cast@VTypeHandler@?$RepeatedPtrField@VRectangleI@SC2APIProtocol@@@protobuf@google@@@RepeatedPtrFieldBase@internal@protobuf@google@@CAPEAVRectangleI@SC2APIProtocol@@PEAX@Z ; google::protobuf::internal::RepeatedPtrFieldBase::cast<google::protobuf::RepeatedPtrField<SC2APIProtocol::RectangleI>::TypeHandler>
PUBLIC	??$MergeFromInnerLoop@VTypeHandler@?$RepeatedPtrField@VRectangleI@SC2APIProtocol@@@protobuf@google@@@RepeatedPtrFieldBase@internal@protobuf@google@@AEAAXPEAPEAX0HH@Z ; google::protobuf::internal::RepeatedPtrFieldBase::MergeFromInnerLoop<google::protobuf::RepeatedPtrField<SC2APIProtocol::RectangleI>::TypeHandler>
PUBLIC	??$memswap@$0A@@internal@protobuf@google@@YAXPEAD0@Z ; google::protobuf::internal::memswap<0>
PUBLIC	??$memswap@$0MI@@internal@protobuf@google@@YAXPEAD0@Z ; google::protobuf::internal::memswap<200>
PUBLIC	??$memswap@$0EI@@internal@protobuf@google@@YAXPEAD0@Z ; google::protobuf::internal::memswap<72>
PUBLIC	??$SwapBlock@E@internal@protobuf@google@@YAXPEAD0@Z ; google::protobuf::internal::SwapBlock<unsigned char>
PUBLIC	??$Construct@PEAVArena@protobuf@google@@@?$InternalHelper@VObservationFeatureLayer@SC2APIProtocol@@@Arena@protobuf@google@@CAPEAVObservationFeatureLayer@SC2APIProtocol@@PEAX$$QEAPEAV123@@Z ; google::protobuf::Arena::InternalHelper<SC2APIProtocol::ObservationFeatureLayer>::Construct<google::protobuf::Arena *>
PUBLIC	??$Construct@PEAVArena@protobuf@google@@@?$InternalHelper@VFeatureLayers@SC2APIProtocol@@@Arena@protobuf@google@@CAPEAVFeatureLayers@SC2APIProtocol@@PEAX$$QEAPEAV123@@Z ; google::protobuf::Arena::InternalHelper<SC2APIProtocol::FeatureLayers>::Construct<google::protobuf::Arena *>
PUBLIC	??$Construct@PEAVArena@protobuf@google@@@?$InternalHelper@VFeatureLayersMinimap@SC2APIProtocol@@@Arena@protobuf@google@@CAPEAVFeatureLayersMinimap@SC2APIProtocol@@PEAX$$QEAPEAV123@@Z ; google::protobuf::Arena::InternalHelper<SC2APIProtocol::FeatureLayersMinimap>::Construct<google::protobuf::Arena *>
PUBLIC	??$Construct@PEAVArena@protobuf@google@@@?$InternalHelper@VObservationRender@SC2APIProtocol@@@Arena@protobuf@google@@CAPEAVObservationRender@SC2APIProtocol@@PEAX$$QEAPEAV123@@Z ; google::protobuf::Arena::InternalHelper<SC2APIProtocol::ObservationRender>::Construct<google::protobuf::Arena *>
PUBLIC	??$Construct@PEAVArena@protobuf@google@@@?$InternalHelper@VActionSpatial@SC2APIProtocol@@@Arena@protobuf@google@@CAPEAVActionSpatial@SC2APIProtocol@@PEAX$$QEAPEAV123@@Z ; google::protobuf::Arena::InternalHelper<SC2APIProtocol::ActionSpatial>::Construct<google::protobuf::Arena *>
PUBLIC	??$Construct@PEAVArena@protobuf@google@@@?$InternalHelper@VActionSpatialUnitCommand@SC2APIProtocol@@@Arena@protobuf@google@@CAPEAVActionSpatialUnitCommand@SC2APIProtocol@@PEAX$$QEAPEAV123@@Z ; google::protobuf::Arena::InternalHelper<SC2APIProtocol::ActionSpatialUnitCommand>::Construct<google::protobuf::Arena *>
PUBLIC	??$Construct@PEAVArena@protobuf@google@@@?$InternalHelper@VActionSpatialCameraMove@SC2APIProtocol@@@Arena@protobuf@google@@CAPEAVActionSpatialCameraMove@SC2APIProtocol@@PEAX$$QEAPEAV123@@Z ; google::protobuf::Arena::InternalHelper<SC2APIProtocol::ActionSpatialCameraMove>::Construct<google::protobuf::Arena *>
PUBLIC	??$Construct@PEAVArena@protobuf@google@@@?$InternalHelper@VActionSpatialUnitSelectionPoint@SC2APIProtocol@@@Arena@protobuf@google@@CAPEAVActionSpatialUnitSelectionPoint@SC2APIProtocol@@PEAX$$QEAPEAV123@@Z ; google::protobuf::Arena::InternalHelper<SC2APIProtocol::ActionSpatialUnitSelectionPoint>::Construct<google::protobuf::Arena *>
PUBLIC	??$Construct@PEAVArena@protobuf@google@@@?$InternalHelper@VActionSpatialUnitSelectionRect@SC2APIProtocol@@@Arena@protobuf@google@@CAPEAVActionSpatialUnitSelectionRect@SC2APIProtocol@@PEAX$$QEAPEAV123@@Z ; google::protobuf::Arena::InternalHelper<SC2APIProtocol::ActionSpatialUnitSelectionRect>::Construct<google::protobuf::Arena *>
PUBLIC	?deallocate@?$_Default_allocator_traits@V?$allocator@U_Container_proxy@std@@@std@@@std@@SAXAEAV?$allocator@U_Container_proxy@std@@@2@QEAU_Container_proxy@2@_K@Z ; std::_Default_allocator_traits<std::allocator<std::_Container_proxy> >::deallocate
PUBLIC	??$_Allocate_manually_vector_aligned@U_Default_allocate_traits@std@@@std@@YAPEAX_K@Z ; std::_Allocate_manually_vector_aligned<std::_Default_allocate_traits>
PUBLIC	??$?0U_Exact_args_t@std@@AEAHAEAHAEAPEAURep@RepeatedPtrFieldBase@internal@protobuf@google@@$0A@@?$tuple@HHPEAURep@RepeatedPtrFieldBase@internal@protobuf@google@@@std@@QEAA@U_Exact_args_t@1@AEAH1AEAPEAURep@RepeatedPtrFieldBase@internal@protobuf@google@@@Z ; std::tuple<int,int,google::protobuf::internal::RepeatedPtrFieldBase::Rep *>::tuple<int,int,google::protobuf::internal::RepeatedPtrFieldBase::Rep *><std::_Exact_args_t,int &,int &,google::protobuf::internal::RepeatedPtrFieldBase::Rep * &,0>
PUBLIC	??$?0AEAPEAVArena@protobuf@google@@@?$_Tuple_val@PEAVArena@protobuf@google@@@std@@QEAA@AEAPEAVArena@protobuf@google@@@Z ; std::_Tuple_val<google::protobuf::Arena *>::_Tuple_val<google::protobuf::Arena *><google::protobuf::Arena * &>
PUBLIC	??$?0U_Exact_args_t@std@@AEAHAEAHAEAPEAURep@RepeatedPtrFieldBase@internal@protobuf@google@@$0A@@?$tuple@AEAHAEAHAEAPEAURep@RepeatedPtrFieldBase@internal@protobuf@google@@@std@@QEAA@U_Exact_args_t@1@AEAH1AEAPEAURep@RepeatedPtrFieldBase@internal@protobuf@google@@@Z ; std::tuple<int &,int &,google::protobuf::internal::RepeatedPtrFieldBase::Rep * &>::tuple<int &,int &,google::protobuf::internal::RepeatedPtrFieldBase::Rep * &><std::_Exact_args_t,int &,int &,google::protobuf::internal::RepeatedPtrFieldBase::Rep * &,0>
PUBLIC	??$?0AEAPEAVArena@protobuf@google@@@?$_Tuple_val@AEAPEAVArena@protobuf@google@@@std@@QEAA@AEAPEAVArena@protobuf@google@@@Z ; std::_Tuple_val<google::protobuf::Arena * &>::_Tuple_val<google::protobuf::Arena * &><google::protobuf::Arena * &>
PUBLIC	??$forward@V?$tuple@PEAURep@RepeatedPtrFieldBase@internal@protobuf@google@@@std@@@std@@YA$$QEAV?$tuple@PEAURep@RepeatedPtrFieldBase@internal@protobuf@google@@@0@AEAV10@@Z ; std::forward<std::tuple<google::protobuf::internal::RepeatedPtrFieldBase::Rep *> >
PUBLIC	??$?4PEAURep@RepeatedPtrFieldBase@internal@protobuf@google@@$0A@@?$tuple@AEAPEAURep@RepeatedPtrFieldBase@internal@protobuf@google@@@std@@QEAAAEAV01@$$QEAV?$tuple@PEAURep@RepeatedPtrFieldBase@internal@protobuf@google@@@1@@Z ; std::tuple<google::protobuf::internal::RepeatedPtrFieldBase::Rep * &>::operator=<google::protobuf::internal::RepeatedPtrFieldBase::Rep *,0>
PUBLIC	??$?4PEAURep@RepeatedPtrFieldBase@internal@protobuf@google@@$0A@@?$tuple@AEAPEAURep@RepeatedPtrFieldBase@internal@protobuf@google@@@std@@QEAAAEAV01@AEBV?$tuple@PEAURep@RepeatedPtrFieldBase@internal@protobuf@google@@@1@@Z ; std::tuple<google::protobuf::internal::RepeatedPtrFieldBase::Rep * &>::operator=<google::protobuf::internal::RepeatedPtrFieldBase::Rep *,0>
PUBLIC	??$CreateInternal@U?$Container@VUnknownFieldSet@protobuf@google@@@InternalMetadata@internal@protobuf@google@@$$V@Arena@protobuf@google@@CAPEAU?$Container@VUnknownFieldSet@protobuf@google@@@InternalMetadata@internal@12@PEAV012@U?$integral_constant@_N$0A@@std@@@Z ; google::protobuf::Arena::CreateInternal<google::protobuf::internal::InternalMetadata::Container<google::protobuf::UnknownFieldSet> >
PUBLIC	??$memswap@$0MA@@internal@protobuf@google@@YAXPEAD0@Z ; google::protobuf::internal::memswap<192>
PUBLIC	??$memswap@$0EA@@internal@protobuf@google@@YAXPEAD0@Z ; google::protobuf::internal::memswap<64>
PUBLIC	??$?0U_Exact_args_t@std@@AEAHAEAPEAURep@RepeatedPtrFieldBase@internal@protobuf@google@@$0A@@?$tuple@HPEAURep@RepeatedPtrFieldBase@internal@protobuf@google@@@std@@QEAA@U_Exact_args_t@1@AEAHAEAPEAURep@RepeatedPtrFieldBase@internal@protobuf@google@@@Z ; std::tuple<int,google::protobuf::internal::RepeatedPtrFieldBase::Rep *>::tuple<int,google::protobuf::internal::RepeatedPtrFieldBase::Rep *><std::_Exact_args_t,int &,google::protobuf::internal::RepeatedPtrFieldBase::Rep * &,0>
PUBLIC	??$?0AEAH@?$_Tuple_val@H@std@@QEAA@AEAH@Z	; std::_Tuple_val<int>::_Tuple_val<int><int &>
PUBLIC	??$?0U_Exact_args_t@std@@AEAHAEAPEAURep@RepeatedPtrFieldBase@internal@protobuf@google@@$0A@@?$tuple@AEAHAEAPEAURep@RepeatedPtrFieldBase@internal@protobuf@google@@@std@@QEAA@U_Exact_args_t@1@AEAHAEAPEAURep@RepeatedPtrFieldBase@internal@protobuf@google@@@Z ; std::tuple<int &,google::protobuf::internal::RepeatedPtrFieldBase::Rep * &>::tuple<int &,google::protobuf::internal::RepeatedPtrFieldBase::Rep * &><std::_Exact_args_t,int &,google::protobuf::internal::RepeatedPtrFieldBase::Rep * &,0>
PUBLIC	??$?0AEAH@?$_Tuple_val@AEAH@std@@QEAA@AEAH@Z	; std::_Tuple_val<int &>::_Tuple_val<int &><int &>
PUBLIC	??$forward@PEAURep@RepeatedPtrFieldBase@internal@protobuf@google@@@std@@YA$$QEAPEAURep@RepeatedPtrFieldBase@internal@protobuf@google@@AEAPEAU12345@@Z ; std::forward<google::protobuf::internal::RepeatedPtrFieldBase::Rep *>
PUBLIC	??$forward@V?$tuple@$$V@std@@@std@@YA$$QEAV?$tuple@$$V@0@AEAV10@@Z ; std::forward<std::tuple<> >
PUBLIC	??$arena_destruct_object@U?$Container@VUnknownFieldSet@protobuf@google@@@InternalMetadata@internal@protobuf@google@@@internal@protobuf@google@@YAXPEAX@Z ; google::protobuf::internal::arena_destruct_object<google::protobuf::internal::InternalMetadata::Container<google::protobuf::UnknownFieldSet> >
PUBLIC	??$memswap@$0LI@@internal@protobuf@google@@YAXPEAD0@Z ; google::protobuf::internal::memswap<184>
PUBLIC	??$memswap@$0DI@@internal@protobuf@google@@YAXPEAD0@Z ; google::protobuf::internal::memswap<56>
PUBLIC	??$?0U_Exact_args_t@std@@AEAPEAURep@RepeatedPtrFieldBase@internal@protobuf@google@@$$V$0A@@?$tuple@PEAURep@RepeatedPtrFieldBase@internal@protobuf@google@@@std@@QEAA@U_Exact_args_t@1@AEAPEAURep@RepeatedPtrFieldBase@internal@protobuf@google@@@Z ; std::tuple<google::protobuf::internal::RepeatedPtrFieldBase::Rep *>::tuple<google::protobuf::internal::RepeatedPtrFieldBase::Rep *><std::_Exact_args_t,google::protobuf::internal::RepeatedPtrFieldBase::Rep * &,0>
PUBLIC	??$?0U_Exact_args_t@std@@AEAPEAURep@RepeatedPtrFieldBase@internal@protobuf@google@@$$V$0A@@?$tuple@AEAPEAURep@RepeatedPtrFieldBase@internal@protobuf@google@@@std@@QEAA@U_Exact_args_t@1@AEAPEAURep@RepeatedPtrFieldBase@internal@protobuf@google@@@Z ; std::tuple<google::protobuf::internal::RepeatedPtrFieldBase::Rep * &>::tuple<google::protobuf::internal::RepeatedPtrFieldBase::Rep * &><std::_Exact_args_t,google::protobuf::internal::RepeatedPtrFieldBase::Rep * &,0>
PUBLIC	??$memswap@$0LA@@internal@protobuf@google@@YAXPEAD0@Z ; google::protobuf::internal::memswap<176>
PUBLIC	??$memswap@$0DA@@internal@protobuf@google@@YAXPEAD0@Z ; google::protobuf::internal::memswap<48>
PUBLIC	??$?0U_Exact_args_t@std@@$0A@@?$tuple@$$V@std@@QEAA@U_Exact_args_t@1@@Z ; std::tuple<>::tuple<><std::_Exact_args_t,0>
PUBLIC	??$?0AEAPEAURep@RepeatedPtrFieldBase@internal@protobuf@google@@@?$_Tuple_val@PEAURep@RepeatedPtrFieldBase@internal@protobuf@google@@@std@@QEAA@AEAPEAURep@RepeatedPtrFieldBase@internal@protobuf@google@@@Z ; std::_Tuple_val<google::protobuf::internal::RepeatedPtrFieldBase::Rep *>::_Tuple_val<google::protobuf::internal::RepeatedPtrFieldBase::Rep *><google::protobuf::internal::RepeatedPtrFieldBase::Rep * &>
PUBLIC	??$?0AEAPEAURep@RepeatedPtrFieldBase@internal@protobuf@google@@@?$_Tuple_val@AEAPEAURep@RepeatedPtrFieldBase@internal@protobuf@google@@@std@@QEAA@AEAPEAURep@RepeatedPtrFieldBase@internal@protobuf@google@@@Z ; std::_Tuple_val<google::protobuf::internal::RepeatedPtrFieldBase::Rep * &>::_Tuple_val<google::protobuf::internal::RepeatedPtrFieldBase::Rep * &><google::protobuf::internal::RepeatedPtrFieldBase::Rep * &>
PUBLIC	??$memswap@$0KI@@internal@protobuf@google@@YAXPEAD0@Z ; google::protobuf::internal::memswap<168>
PUBLIC	??$memswap@$0CI@@internal@protobuf@google@@YAXPEAD0@Z ; google::protobuf::internal::memswap<40>
PUBLIC	??$memswap@$0KA@@internal@protobuf@google@@YAXPEAD0@Z ; google::protobuf::internal::memswap<160>
PUBLIC	??$memswap@$0CA@@internal@protobuf@google@@YAXPEAD0@Z ; google::protobuf::internal::memswap<32>
PUBLIC	??$memswap@$0JI@@internal@protobuf@google@@YAXPEAD0@Z ; google::protobuf::internal::memswap<152>
PUBLIC	??$memswap@$0BI@@internal@protobuf@google@@YAXPEAD0@Z ; google::protobuf::internal::memswap<24>
PUBLIC	??$memswap@$0JA@@internal@protobuf@google@@YAXPEAD0@Z ; google::protobuf::internal::memswap<144>
PUBLIC	??$memswap@$0II@@internal@protobuf@google@@YAXPEAD0@Z ; google::protobuf::internal::memswap<136>
PUBLIC	??$memswap@$0IA@@internal@protobuf@google@@YAXPEAD0@Z ; google::protobuf::internal::memswap<128>
PUBLIC	??$memswap@$0HI@@internal@protobuf@google@@YAXPEAD0@Z ; google::protobuf::internal::memswap<120>
PUBLIC	??$memswap@$0HA@@internal@protobuf@google@@YAXPEAD0@Z ; google::protobuf::internal::memswap<112>
PUBLIC	??$memswap@$0GI@@internal@protobuf@google@@YAXPEAD0@Z ; google::protobuf::internal::memswap<104>
PUBLIC	??$memswap@$0GA@@internal@protobuf@google@@YAXPEAD0@Z ; google::protobuf::internal::memswap<96>
PUBLIC	??_7exception@std@@6B@				; std::exception::`vftable'
PUBLIC	??_C@_0BC@EOODALEL@Unknown?5exception@		; `string'
PUBLIC	??_7bad_alloc@std@@6B@				; std::bad_alloc::`vftable'
PUBLIC	??_7bad_array_new_length@std@@6B@		; std::bad_array_new_length::`vftable'
PUBLIC	??_C@_0BF@KINCDENJ@bad?5array?5new?5length@	; `string'
PUBLIC	_TI3?AVbad_array_new_length@std@@
PUBLIC	_CTA3?AVbad_array_new_length@std@@
PUBLIC	??_R0?AVbad_array_new_length@std@@@8		; std::bad_array_new_length `RTTI Type Descriptor'
PUBLIC	_CT??_R0?AVbad_array_new_length@std@@@8??0bad_array_new_length@std@@QEAA@AEBV01@@Z24
PUBLIC	??_R0?AVbad_alloc@std@@@8			; std::bad_alloc `RTTI Type Descriptor'
PUBLIC	_CT??_R0?AVbad_alloc@std@@@8??0bad_alloc@std@@QEAA@AEBV01@@Z24
PUBLIC	??_R0?AVexception@std@@@8			; std::exception `RTTI Type Descriptor'
PUBLIC	_CT??_R0?AVexception@std@@@8??0exception@std@@QEAA@AEBV01@@Z24
PUBLIC	??_C@_0BB@FCMFBGOM@invalid?5argument@		; `string'
PUBLIC	??_C@_02DKCKIIND@?$CFs@				; `string'
PUBLIC	??_C@_0GC@CCEOIIJI@D?3?2Program?5Files?2Microsoft?5Visu@ ; `string'
PUBLIC	??_C@_1ME@NKGGGHPH@?$AAD?$AA?3?$AA?2?$AAP?$AAr?$AAo?$AAg?$AAr?$AAa?$AAm?$AA?5?$AAF?$AAi?$AAl?$AAe@ ; `string'
PUBLIC	??_C@_11LOCGONAA@@				; `string'
PUBLIC	??_C@_1CG@JNLFBNGN@?$AA?$CC?$AAi?$AAn?$AAv?$AAa?$AAl?$AAi?$AAd?$AA?5?$AAa?$AAr?$AAg?$AAu?$AAm?$AAe@ ; `string'
PUBLIC	??_C@_0BF@FBDAHHJI@Invalid?5memory?5order@	; `string'
PUBLIC	??_C@_0GB@KODMCFGD@D?3?2Program?5Files?2Microsoft?5Visu@ ; `string'
PUBLIC	??_C@_1MC@OHOEOBJF@?$AAD?$AA?3?$AA?2?$AAP?$AAr?$AAo?$AAg?$AAr?$AAa?$AAm?$AA?5?$AAF?$AAi?$AAl?$AAe@ ; `string'
PUBLIC	??_C@_1CO@JOMFDNFG@?$AA?$CC?$AAI?$AAn?$AAv?$AAa?$AAl?$AAi?$AAd?$AA?5?$AAm?$AAe?$AAm?$AAo?$AAr?$AAy@ ; `string'
PUBLIC	??_C@_0EO@CLKFGFPJ@W?3?2cpp?2void?2alistar?2tests?2vendo@ ; `string'
PUBLIC	??_C@_0DG@IMBCBPAN@CHECK?5failed?3?5?$CBis_message_owned@ ; `string'
PUBLIC	??_7MessageLite@protobuf@google@@6B@		; google::protobuf::MessageLite::`vftable'
PUBLIC	??_C@_0FD@LNPCBKPF@W?3?2cpp?2void?2alistar?2tests?2vendo@ ; `string'
PUBLIC	??_C@_0BM@BDNKEFOF@CHECK?5failed?3?5this?5?$CB?$DN?5rhs?3?5@ ; `string'
PUBLIC	??_C@_0EO@MJOFNFMG@W?3?2cpp?2void?2alistar?2tests?2vendo@ ; `string'
PUBLIC	??_C@_0BF@DKGAPMDF@CHECK?5failed?3?5?$CKptr?3?5@ ; `string'
PUBLIC	??_C@_0CK@IMDPJFDF@CHECK?5failed?3?5?$CIoverrun?$CJ?5?$DM?$DN?5?$CIkSl@ ; `string'
PUBLIC	??_7Message@protobuf@google@@6B@		; google::protobuf::Message::`vftable'
PUBLIC	?_ActionSpatial_default_instance_@SC2APIProtocol@@3UActionSpatialDefaultTypeInternal@1@A ; SC2APIProtocol::_ActionSpatial_default_instance_
PUBLIC	?_ActionSpatialCameraMove_default_instance_@SC2APIProtocol@@3UActionSpatialCameraMoveDefaultTypeInternal@1@A ; SC2APIProtocol::_ActionSpatialCameraMove_default_instance_
PUBLIC	?_ActionSpatialUnitCommand_default_instance_@SC2APIProtocol@@3UActionSpatialUnitCommandDefaultTypeInternal@1@A ; SC2APIProtocol::_ActionSpatialUnitCommand_default_instance_
PUBLIC	?_ActionSpatialUnitSelectionPoint_default_instance_@SC2APIProtocol@@3UActionSpatialUnitSelectionPointDefaultTypeInternal@1@A ; SC2APIProtocol::_ActionSpatialUnitSelectionPoint_default_instance_
PUBLIC	?_ActionSpatialUnitSelectionRect_default_instance_@SC2APIProtocol@@3UActionSpatialUnitSelectionRectDefaultTypeInternal@1@A ; SC2APIProtocol::_ActionSpatialUnitSelectionRect_default_instance_
PUBLIC	?_FeatureLayers_default_instance_@SC2APIProtocol@@3UFeatureLayersDefaultTypeInternal@1@A ; SC2APIProtocol::_FeatureLayers_default_instance_
PUBLIC	?_FeatureLayersMinimap_default_instance_@SC2APIProtocol@@3UFeatureLayersMinimapDefaultTypeInternal@1@A ; SC2APIProtocol::_FeatureLayersMinimap_default_instance_
PUBLIC	?_ObservationFeatureLayer_default_instance_@SC2APIProtocol@@3UObservationFeatureLayerDefaultTypeInternal@1@A ; SC2APIProtocol::_ObservationFeatureLayer_default_instance_
PUBLIC	?_ObservationRender_default_instance_@SC2APIProtocol@@3UObservationRenderDefaultTypeInternal@1@A ; SC2APIProtocol::_ObservationRender_default_instance_
PUBLIC	??_C@_0FI@ODNOGIEM@W?3?2cpp?2void?2alistar?2tests?2vendo@ ; `string'
PUBLIC	??_7ActionSpatialUnitSelectionRect@SC2APIProtocol@@6B@ ; SC2APIProtocol::ActionSpatialUnitSelectionRect::`vftable'
PUBLIC	??_C@_0DF@JCONOENL@CHECK?5failed?3?5?$CBvalue?5?$HM?$HM?5_impl_?4@ ; `string'
PUBLIC	??_C@_0DN@KPHDGGLL@CHECK?5failed?3?5?$CBvalue?5?$HM?$HM?5_impl_?4@ ; `string'
PUBLIC	??_C@_0DI@LMCKBGFP@CHECK?5failed?3?5?$CBvalue?5?$HM?$HM?5_impl_?4@ ; `string'
PUBLIC	??_C@_0DM@HCEKLEDJ@CHECK?5failed?3?5?$CBvalue?5?$HM?$HM?5_impl_?4@ ; `string'
PUBLIC	??_C@_0DD@LJJDPMKH@CHECK?5failed?3?5?$CBvalue?5?$HM?$HM?5_impl_?4@ ; `string'
PUBLIC	??_C@_0DD@HOECKDIF@CHECK?5failed?3?5?$CBvalue?5?$HM?$HM?5_impl_?4@ ; `string'
PUBLIC	??_C@_0DH@DEPKJGFH@CHECK?5failed?3?5?$CBvalue?5?$HM?$HM?5_impl_?4@ ; `string'
PUBLIC	??_C@_0DH@JLJLMOBC@CHECK?5failed?3?5?$CBvalue?5?$HM?$HM?5_impl_?4@ ; `string'
PUBLIC	??_C@_0DG@MFLNEFJI@CHECK?5failed?3?5?$CBvalue?5?$HM?$HM?5_impl_?4@ ; `string'
PUBLIC	??_C@_0DN@NHDHPJGA@CHECK?5failed?3?5?$CBvalue?5?$HM?$HM?5_impl_?4@ ; `string'
PUBLIC	??_C@_0ED@EGCLKAPO@CHECK?5failed?3?5?$CBvalue?5?$HM?$HM?5_impl_?4@ ; `string'
PUBLIC	??_C@_0DJ@FACIOCJB@CHECK?5failed?3?5?$CBvalue?5?$HM?$HM?5_impl_?4@ ; `string'
PUBLIC	??_C@_0DP@GDNFIGBN@CHECK?5failed?3?5?$CBvalue?5?$HM?$HM?5_impl_?4@ ; `string'
PUBLIC	??_C@_0DK@COPEHGFL@CHECK?5failed?3?5?$CBvalue?5?$HM?$HM?5_impl_?4@ ; `string'
PUBLIC	??_C@_0EA@MFMNHJGE@CHECK?5failed?3?5?$CBvalue?5?$HM?$HM?5_impl_?4@ ; `string'
PUBLIC	??_C@_0DN@DGEONBDN@CHECK?5failed?3?5?$CBvalue?5?$HM?$HM?5_impl_?4@ ; `string'
PUBLIC	??_C@_0DN@BEFPBMBL@CHECK?5failed?3?5?$CBvalue?5?$HM?$HM?5_impl_?4@ ; `string'
PUBLIC	??_C@_0DK@CCMJFIDF@CHECK?5failed?3?5?$CBvalue?5?$HM?$HM?5_impl_?4@ ; `string'
PUBLIC	??_C@_0DF@MGKMEPFO@CHECK?5failed?3?5?$CBvalue?5?$HM?$HM?5_impl_?4@ ; `string'
PUBLIC	??_C@_0DM@BEKPKIEC@CHECK?5failed?3?5?$CBvalue?5?$HM?$HM?5_impl_?4@ ; `string'
PUBLIC	??_C@_0DF@PIMHMHBK@CHECK?5failed?3?5?$CBvalue?5?$HM?$HM?5_impl_?4@ ; `string'
PUBLIC	??_C@_0DC@FBFFBNMK@CHECK?5failed?3?5?$CBvalue?5?$HM?$HM?5_impl_?4@ ; `string'
PUBLIC	??_C@_0DD@GBOHOLO@CHECK?5failed?3?5?$CBvalue?5?$HM?$HM?5_impl_?4@ ; `string'
PUBLIC	??_C@_0DL@IMKCOGDH@CHECK?5failed?3?5?$CBvalue?5?$HM?$HM?5_impl_?4@ ; `string'
PUBLIC	??_C@_0DE@BFFADKEE@CHECK?5failed?3?5?$CBvalue?5?$HM?$HM?5_impl_?4@ ; `string'
PUBLIC	??_C@_0DM@ENMBHLKI@CHECK?5failed?3?5?$CBvalue?5?$HM?$HM?5_impl_?4@ ; `string'
PUBLIC	??_C@_0DH@HIGNGJCJ@CHECK?5failed?3?5?$CBvalue?5?$HM?$HM?5_impl_?4@ ; `string'
PUBLIC	??_C@_0DG@KMALABLC@CHECK?5failed?3?5?$CBvalue?5?$HM?$HM?5_impl_?4@ ; `string'
PUBLIC	??_C@_0DJ@KDLHJCPE@CHECK?5failed?3?5?$CBvalue?5?$HM?$HM?5_impl_?4@ ; `string'
PUBLIC	??_C@_0DE@ENJLPJCA@CHECK?5failed?3?5?$CBvalue?5?$HM?$HM?5_impl_?4@ ; `string'
PUBLIC	??_C@_0DE@BPJBBJPM@CHECK?5failed?3?5?$CBvalue?5?$HM?$HM?5_impl_?4@ ; `string'
PUBLIC	??_C@_0DB@BJPHDBKH@CHECK?5failed?3?5?$CBvalue?5?$HM?$HM?5_impl_?4@ ; `string'
PUBLIC	??_C@_0DF@JNPCPDCP@CHECK?5failed?3?5?$CBvalue?5?$HM?$HM?5_impl_?4@ ; `string'
PUBLIC	??_C@_0DM@DCAMDEON@CHECK?5failed?3?5?$CBvalue?5?$HM?$HM?5_impl_?4@ ; `string'
PUBLIC	??_C@_0EE@IJDBPGMJ@CHECK?5failed?3?5?$CBvalue?5?$HM?$HM?5_impl_?4@ ; `string'
PUBLIC	??_C@_1LA@NKAEPMDI@?$AAW?$AA?3?$AA?2?$AAc?$AAp?$AAp?$AA?2?$AAv?$AAo?$AAi?$AAd?$AA?2?$AAa?$AAl?$AAi@ ; `string'
PUBLIC	??_C@_1IM@CCIMFDKJ@?$AA?3?$AA?3?$AAS?$AAC?$AA2?$AAA?$AAP?$AAI?$AAP?$AAr?$AAo?$AAt?$AAo?$AAc?$AAo@ ; `string'
PUBLIC	??_C@_0DP@JLNCPAID@vendor?2s2clientprotocol?2include@ ; `string'
PUBLIC	??_C@_0DD@HMMAHKLJ@CHECK?5failed?3?5GetArenaForAlloca@ ; `string'
PUBLIC	??_C@_0DG@KGHKKGBC@null?5pointer?5cannot?5point?5to?5a?5@ ; `string'
PUBLIC	??_C@_1HA@FACCKGGH@?$AA?$CC?$AAn?$AAu?$AAl?$AAl?$AA?5?$AAp?$AAo?$AAi?$AAn?$AAt?$AAe?$AAr?$AA?5?$AAc@ ; `string'
PUBLIC	??_C@_0BP@MKIGJFJI@CHECK?5failed?3?5?$CIindex?$CJ?5?$DO?$DN?5?$CI0?$CJ?3?5@ ; `string'
PUBLIC	??_C@_0CK@HHGADLGG@CHECK?5failed?3?5?$CIindex?$CJ?5?$DM?5?$CIcurren@ ; `string'
PUBLIC	??_C@_0BL@BOGECGBP@CHECK?5failed?3?5?$CIn?$CJ?5?$DO?$DN?5?$CI0?$CJ?3?5@ ; `string'
PUBLIC	??_C@_0CD@INNKJBDJ@CHECK?5failed?3?5?$CI?$CGother?$CJ?5?$CB?$DN?5?$CIthis@ ; `string'
PUBLIC	??_R0?AVActionSpatialUnitSelectionRect@SC2APIProtocol@@@8 ; SC2APIProtocol::ActionSpatialUnitSelectionRect `RTTI Type Descriptor'
PUBLIC	?destructor@?$ObjectDestructor@$0A@U?$Container@VUnknownFieldSet@protobuf@google@@@InternalMetadata@internal@protobuf@google@@@internal@protobuf@google@@2Q6AXPEAX@ZEA ; google::protobuf::internal::ObjectDestructor<0,google::protobuf::internal::InternalMetadata::Container<google::protobuf::UnknownFieldSet> >::destructor
PUBLIC	??_R0?AU?$Container@VUnknownFieldSet@protobuf@google@@@InternalMetadata@internal@protobuf@google@@@8 ; google::protobuf::internal::InternalMetadata::Container<google::protobuf::UnknownFieldSet> `RTTI Type Descriptor'
PUBLIC	??_R4exception@std@@6B@				; std::exception::`RTTI Complete Object Locator'
PUBLIC	??_R3exception@std@@8				; std::exception::`RTTI Class Hierarchy Descriptor'
PUBLIC	??_R2exception@std@@8				; std::exception::`RTTI Base Class Array'
PUBLIC	??_R1A@?0A@EA@exception@std@@8			; std::exception::`RTTI Base Class Descriptor at (0,-1,0,64)'
PUBLIC	??_R4bad_alloc@std@@6B@				; std::bad_alloc::`RTTI Complete Object Locator'
PUBLIC	??_R3bad_alloc@std@@8				; std::bad_alloc::`RTTI Class Hierarchy Descriptor'
PUBLIC	??_R2bad_alloc@std@@8				; std::bad_alloc::`RTTI Base Class Array'
PUBLIC	??_R1A@?0A@EA@bad_alloc@std@@8			; std::bad_alloc::`RTTI Base Class Descriptor at (0,-1,0,64)'
PUBLIC	??_R4bad_array_new_length@std@@6B@		; std::bad_array_new_length::`RTTI Complete Object Locator'
PUBLIC	??_R3bad_array_new_length@std@@8		; std::bad_array_new_length::`RTTI Class Hierarchy Descriptor'
PUBLIC	??_R2bad_array_new_length@std@@8		; std::bad_array_new_length::`RTTI Base Class Array'
PUBLIC	??_R1A@?0A@EA@bad_array_new_length@std@@8	; std::bad_array_new_length::`RTTI Base Class Descriptor at (0,-1,0,64)'
PUBLIC	??_R4Message@protobuf@google@@6B@		; google::protobuf::Message::`RTTI Complete Object Locator'
PUBLIC	??_R4MessageLite@protobuf@google@@6B@		; google::protobuf::MessageLite::`RTTI Complete Object Locator'
PUBLIC	??_R4ActionSpatialUnitSelectionRect@SC2APIProtocol@@6B@ ; SC2APIProtocol::ActionSpatialUnitSelectionRect::`RTTI Complete Object Locator'
PUBLIC	??_R3ActionSpatialUnitSelectionRect@SC2APIProtocol@@8 ; SC2APIProtocol::ActionSpatialUnitSelectionRect::`RTTI Class Hierarchy Descriptor'
PUBLIC	??_R2ActionSpatialUnitSelectionRect@SC2APIProtocol@@8 ; SC2APIProtocol::ActionSpatialUnitSelectionRect::`RTTI Base Class Array'
PUBLIC	??_R1A@?0A@EA@ActionSpatialUnitSelectionRect@SC2APIProtocol@@8 ; SC2APIProtocol::ActionSpatialUnitSelectionRect::`RTTI Base Class Descriptor at (0,-1,0,64)'
EXTRN	_purecall:PROC
EXTRN	??2@YAPEAX_K@Z:PROC				; operator new
EXTRN	??3@YAXPEAX@Z:PROC				; operator delete
EXTRN	??3@YAXPEAX_K@Z:PROC				; operator delete
EXTRN	atexit:PROC
EXTRN	_invalid_parameter:PROC
EXTRN	memcmp:PROC
EXTRN	memcpy:PROC
EXTRN	memset:PROC
EXTRN	_CrtDbgReport:PROC
EXTRN	??0_Lockit@std@@QEAA@H@Z:PROC			; std::_Lockit::_Lockit
EXTRN	??1_Lockit@std@@QEAA@XZ:PROC			; std::_Lockit::~_Lockit
EXTRN	__std_exception_copy:PROC
EXTRN	__std_exception_destroy:PROC
EXTRN	??_Eexception@std@@UEAAPEAXI@Z:PROC		; std::exception::`vector deleting destructor'
EXTRN	??_Ebad_alloc@std@@UEAAPEAXI@Z:PROC		; std::bad_alloc::`vector deleting destructor'
EXTRN	??_Ebad_array_new_length@std@@UEAAPEAXI@Z:PROC	; std::bad_array_new_length::`vector deleting destructor'
EXTRN	_wassert:PROC
EXTRN	??0LogMessage@internal@protobuf@google@@QEAA@W4LogLevel@23@PEBDH@Z:PROC ; google::protobuf::internal::LogMessage::LogMessage
EXTRN	??1LogMessage@internal@protobuf@google@@QEAA@XZ:PROC ; google::protobuf::internal::LogMessage::~LogMessage
EXTRN	??6LogMessage@internal@protobuf@google@@QEAAAEAV0123@PEBD@Z:PROC ; google::protobuf::internal::LogMessage::operator<<
EXTRN	??4LogFinisher@internal@protobuf@google@@QEAAXAEAVLogMessage@123@@Z:PROC ; google::protobuf::internal::LogFinisher::operator=
EXTRN	?EnsureSpaceFallback@EpsCopyOutputStream@io@protobuf@google@@AEAAPEAEPEAE@Z:PROC ; google::protobuf::io::EpsCopyOutputStream::EnsureSpaceFallback
EXTRN	??1ThreadSafeArena@internal@protobuf@google@@QEAA@XZ:PROC ; google::protobuf::internal::ThreadSafeArena::~ThreadSafeArena
EXTRN	?SpaceAllocated@ThreadSafeArena@internal@protobuf@google@@QEBA_KXZ:PROC ; google::protobuf::internal::ThreadSafeArena::SpaceAllocated
EXTRN	?AllocateAlignedWithHook@Arena@protobuf@google@@AEAAPEAX_KPEBVtype_info@@@Z:PROC ; google::protobuf::Arena::AllocateAlignedWithHook
EXTRN	?AllocateAlignedWithCleanup@Arena@protobuf@google@@AEAA?AU?$pair@PEAXPEAUCleanupNode@SerialArena@internal@protobuf@google@@@std@@_KPEBVtype_info@@@Z:PROC ; google::protobuf::Arena::AllocateAlignedWithCleanup
EXTRN	?InitializationErrorString@MessageLite@protobuf@google@@UEBA?AV?$basic_string@DU?$char_traits@D@std@@V?$allocator@D@2@@std@@XZ:PROC ; google::protobuf::MessageLite::InitializationErrorString
EXTRN	??_EMessageLite@protobuf@google@@UEAAPEAXI@Z:PROC ; google::protobuf::MessageLite::`vector deleting destructor'
EXTRN	?DestroyProtos@RepeatedPtrFieldBase@internal@protobuf@google@@IEAAXXZ:PROC ; google::protobuf::internal::RepeatedPtrFieldBase::DestroyProtos
EXTRN	?InternalExtend@RepeatedPtrFieldBase@internal@protobuf@google@@AEAAPEAPEAXH@Z:PROC ; google::protobuf::internal::RepeatedPtrFieldBase::InternalExtend
EXTRN	?AddOutOfLineHelper@RepeatedPtrFieldBase@internal@protobuf@google@@AEAAPEAXPEAX@Z:PROC ; google::protobuf::internal::RepeatedPtrFieldBase::AddOutOfLineHelper
EXTRN	?InternalWriteMessage@WireFormatLite@internal@protobuf@google@@SAPEAEHAEBVMessageLite@34@HPEAEPEAVEpsCopyOutputStream@io@34@@Z:PROC ; google::protobuf::internal::WireFormatLite::InternalWriteMessage
EXTRN	?GetOwnedMessageInternal@internal@protobuf@google@@YAPEAVMessageLite@23@PEAVArena@23@PEAV423@0@Z:PROC ; google::protobuf::internal::GetOwnedMessageInternal
EXTRN	?DoneFallback@EpsCopyInputStream@internal@protobuf@google@@AEAA?AU?$pair@PEBD_N@std@@HH@Z:PROC ; google::protobuf::internal::EpsCopyInputStream::DoneFallback
EXTRN	?ParseMessage@ParseContext@internal@protobuf@google@@QEAAPEBDPEAVMessageLite@34@PEBD@Z:PROC ; google::protobuf::internal::ParseContext::ParseMessage
EXTRN	?VarintParseSlow32@internal@protobuf@google@@YA?AU?$pair@PEBDI@std@@PEBDI@Z:PROC ; google::protobuf::internal::VarintParseSlow32
EXTRN	?VarintParseSlow64@internal@protobuf@google@@YA?AU?$pair@PEBD_K@std@@PEBDI@Z:PROC ; google::protobuf::internal::VarintParseSlow64
EXTRN	?ReadTagFallback@internal@protobuf@google@@YA?AU?$pair@PEBDI@std@@PEBDI@Z:PROC ; google::protobuf::internal::ReadTagFallback
EXTRN	?MergeFrom@UnknownFieldSet@protobuf@google@@QEAAXAEBV123@@Z:PROC ; google::protobuf::UnknownFieldSet::MergeFrom
EXTRN	?AddVarint@UnknownFieldSet@protobuf@google@@QEAAXH_K@Z:PROC ; google::protobuf::UnknownFieldSet::AddVarint
EXTRN	?default_instance@UnknownFieldSet@protobuf@google@@SAAEBV123@XZ:PROC ; google::protobuf::UnknownFieldSet::default_instance
EXTRN	?ClearFallback@UnknownFieldSet@protobuf@google@@AEAAXXZ:PROC ; google::protobuf::UnknownFieldSet::ClearFallback
EXTRN	?UnknownFieldParse@internal@protobuf@google@@YAPEBD_KPEAVUnknownFieldSet@23@PEBDPEAVParseContext@123@@Z:PROC ; google::protobuf::internal::UnknownFieldParse
EXTRN	?AssignDescriptors@internal@protobuf@google@@YAXPEBUDescriptorTable@123@_N@Z:PROC ; google::protobuf::internal::AssignDescriptors
EXTRN	?AssignDescriptors@internal@protobuf@google@@YA?AUMetadata@23@P6APEBUDescriptorTable@123@XZPEAUonce_flag@std@@AEBU423@@Z:PROC ; google::protobuf::internal::AssignDescriptors
EXTRN	??0AddDescriptorsRunner@internal@protobuf@google@@QEAA@PEBUDescriptorTable@123@@Z:PROC ; google::protobuf::internal::AddDescriptorsRunner::AddDescriptorsRunner
EXTRN	?Clear@Message@protobuf@google@@UEAAXXZ:PROC	; google::protobuf::Message::Clear
EXTRN	?IsInitialized@Message@protobuf@google@@UEBA_NXZ:PROC ; google::protobuf::Message::IsInitialized
EXTRN	?_InternalParse@Message@protobuf@google@@UEAAPEBDPEBDPEAVParseContext@internal@23@@Z:PROC ; google::protobuf::Message::_InternalParse
EXTRN	?ByteSizeLong@Message@protobuf@google@@UEBA_KXZ:PROC ; google::protobuf::Message::ByteSizeLong
EXTRN	?_InternalSerialize@Message@protobuf@google@@UEBAPEAEPEAEPEAVEpsCopyOutputStream@io@23@@Z:PROC ; google::protobuf::Message::_InternalSerialize
EXTRN	?SetCachedSize@Message@protobuf@google@@EEBAXH@Z:PROC ; google::protobuf::Message::SetCachedSize
EXTRN	?MaybeComputeUnknownFieldsSize@Message@protobuf@google@@IEBA_K_KPEAVCachedSize@internal@23@@Z:PROC ; google::protobuf::Message::MaybeComputeUnknownFieldsSize
EXTRN	??_EMessage@protobuf@google@@UEAAPEAXI@Z:PROC	; google::protobuf::Message::`vector deleting destructor'
EXTRN	??$CreateMaybeMessage@VImageData@SC2APIProtocol@@$$V@Arena@protobuf@google@@CAPEAVImageData@SC2APIProtocol@@PEAV012@@Z:PROC ; google::protobuf::Arena::CreateMaybeMessage<SC2APIProtocol::ImageData>
EXTRN	??$CreateMaybeMessage@VPointI@SC2APIProtocol@@$$V@Arena@protobuf@google@@CAPEAVPointI@SC2APIProtocol@@PEAV012@@Z:PROC ; google::protobuf::Arena::CreateMaybeMessage<SC2APIProtocol::PointI>
EXTRN	??$CreateMaybeMessage@VRectangleI@SC2APIProtocol@@$$V@Arena@protobuf@google@@CAPEAVRectangleI@SC2APIProtocol@@PEAV012@@Z:PROC ; google::protobuf::Arena::CreateMaybeMessage<SC2APIProtocol::RectangleI>
EXTRN	??1ImageData@SC2APIProtocol@@UEAA@XZ:PROC	; SC2APIProtocol::ImageData::~ImageData
EXTRN	??0ImageData@SC2APIProtocol@@QEAA@AEBV01@@Z:PROC ; SC2APIProtocol::ImageData::ImageData
EXTRN	?MergeImpl@ImageData@SC2APIProtocol@@CAXAEAVMessage@protobuf@google@@AEBV345@@Z:PROC ; SC2APIProtocol::ImageData::MergeImpl
EXTRN	?Clear@ImageData@SC2APIProtocol@@UEAAXXZ:PROC	; SC2APIProtocol::ImageData::Clear
EXTRN	?ByteSizeLong@ImageData@SC2APIProtocol@@UEBA_KXZ:PROC ; SC2APIProtocol::ImageData::ByteSizeLong
EXTRN	??1PointI@SC2APIProtocol@@UEAA@XZ:PROC		; SC2APIProtocol::PointI::~PointI
EXTRN	??0PointI@SC2APIProtocol@@QEAA@AEBV01@@Z:PROC	; SC2APIProtocol::PointI::PointI
EXTRN	?MergeImpl@PointI@SC2APIProtocol@@CAXAEAVMessage@protobuf@google@@AEBV345@@Z:PROC ; SC2APIProtocol::PointI::MergeImpl
EXTRN	?Clear@PointI@SC2APIProtocol@@UEAAXXZ:PROC	; SC2APIProtocol::PointI::Clear
EXTRN	?ByteSizeLong@PointI@SC2APIProtocol@@UEBA_KXZ:PROC ; SC2APIProtocol::PointI::ByteSizeLong
EXTRN	?MergeImpl@RectangleI@SC2APIProtocol@@CAXAEAVMessage@protobuf@google@@AEBV345@@Z:PROC ; SC2APIProtocol::RectangleI::MergeImpl
EXTRN	?Clear@RectangleI@SC2APIProtocol@@UEAAXXZ:PROC	; SC2APIProtocol::RectangleI::Clear
EXTRN	?ByteSizeLong@RectangleI@SC2APIProtocol@@UEBA_KXZ:PROC ; SC2APIProtocol::RectangleI::ByteSizeLong
EXTRN	??_EActionSpatialUnitSelectionRect@SC2APIProtocol@@UEAAPEAXI@Z:PROC ; SC2APIProtocol::ActionSpatialUnitSelectionRect::`vector deleting destructor'
EXTRN	?InternalSerializeUnknownFieldsToArray@WireFormat@internal@protobuf@google@@SAPEAEAEBVUnknownFieldSet@34@PEAEPEAVEpsCopyOutputStream@io@34@@Z:PROC ; google::protobuf::internal::WireFormat::InternalSerializeUnknownFieldsToArray
EXTRN	_CxxThrowException:PROC
EXTRN	__CxxFrameHandler4:PROC
EXTRN	__GSHandlerCheck_EH4:PROC
EXTRN	__security_check_cookie:PROC
EXTRN	?_ImageData_default_instance_@SC2APIProtocol@@3UImageDataDefaultTypeInternal@1@A:BYTE ; SC2APIProtocol::_ImageData_default_instance_
EXTRN	?_PointI_default_instance_@SC2APIProtocol@@3UPointIDefaultTypeInternal@1@A:BYTE ; SC2APIProtocol::_PointI_default_instance_
EXTRN	__ImageBase:BYTE
EXTRN	__security_cookie:QWORD
_BSS	SEGMENT
?_ActionSpatialUnitSelectionRect_default_instance_@SC2APIProtocol@@3UActionSpatialUnitSelectionRectDefaultTypeInternal@1@A DB 038H DUP (?) ; SC2APIProtocol::_ActionSpatialUnitSelectionRect_default_instance_
?dynamic_init_dummy_s2clientprotocol_2fspatial_2eproto@@3UAddDescriptorsRunner@internal@protobuf@google@@A DB 01H DUP (?) ; dynamic_init_dummy_s2clientprotocol_2fspatial_2eproto
_BSS	ENDS
;	COMDAT pdata
pdata	SEGMENT
$pdata$??0exception@std@@QEAA@QEBDH@Z DD imagerel $LN3
	DD	imagerel $LN3+73
	DD	imagerel $unwind$??0exception@std@@QEAA@QEBDH@Z
pdata	ENDS
;	COMDAT pdata
pdata	SEGMENT
$pdata$??0exception@std@@QEAA@AEBV01@@Z DD imagerel $LN3
	DD	imagerel $LN3+88
	DD	imagerel $unwind$??0exception@std@@QEAA@AEBV01@@Z
pdata	ENDS
;	COMDAT pdata
pdata	SEGMENT
$pdata$??1exception@std@@UEAA@XZ DD imagerel $LN3
	DD	imagerel $LN3+46
	DD	imagerel $unwind$??1exception@std@@UEAA@XZ
pdata	ENDS
;	COMDAT pdata
pdata	SEGMENT
$pdata$?what@exception@std@@UEBAPEBDXZ DD imagerel $LN5
	DD	imagerel $LN5+56
	DD	imagerel $unwind$?what@exception@std@@UEBAPEBDXZ
pdata	ENDS
;	COMDAT pdata
pdata	SEGMENT
$pdata$??_Gexception@std@@UEAAPEAXI@Z DD imagerel $LN4
	DD	imagerel $LN4+59
	DD	imagerel $unwind$??_Gexception@std@@UEAAPEAXI@Z
pdata	ENDS
;	COMDAT pdata
pdata	SEGMENT
$pdata$??0bad_alloc@std@@AEAA@QEBD@Z DD imagerel $LN3
	DD	imagerel $LN3+60
	DD	imagerel $unwind$??0bad_alloc@std@@AEAA@QEBD@Z
pdata	ENDS
;	COMDAT pdata
pdata	SEGMENT
$pdata$??1bad_alloc@std@@UEAA@XZ DD imagerel $LN3
	DD	imagerel $LN3+24
	DD	imagerel $unwind$??1bad_alloc@std@@UEAA@XZ
pdata	ENDS
;	COMDAT pdata
pdata	SEGMENT
$pdata$??0bad_alloc@std@@QEAA@AEBV01@@Z DD imagerel $LN3
	DD	imagerel $LN3+54
	DD	imagerel $unwind$??0bad_alloc@std@@QEAA@AEBV01@@Z
pdata	ENDS
;	COMDAT pdata
pdata	SEGMENT
$pdata$??_Gbad_alloc@std@@UEAAPEAXI@Z DD imagerel $LN4
	DD	imagerel $LN4+59
	DD	imagerel $unwind$??_Gbad_alloc@std@@UEAAPEAXI@Z
pdata	ENDS
;	COMDAT pdata
pdata	SEGMENT
$pdata$??0bad_array_new_length@std@@QEAA@XZ DD imagerel $LN3
	DD	imagerel $LN3+51
	DD	imagerel $unwind$??0bad_array_new_length@std@@QEAA@XZ
pdata	ENDS
;	COMDAT pdata
pdata	SEGMENT
$pdata$??1bad_array_new_length@std@@UEAA@XZ DD imagerel $LN3
	DD	imagerel $LN3+24
	DD	imagerel $unwind$??1bad_array_new_length@std@@UEAA@XZ
pdata	ENDS
;	COMDAT pdata
pdata	SEGMENT
$pdata$??0bad_array_new_length@std@@QEAA@AEBV01@@Z DD imagerel $LN3
	DD	imagerel $LN3+54
	DD	imagerel $unwind$??0bad_array_new_length@std@@QEAA@AEBV01@@Z
pdata	ENDS
;	COMDAT pdata
pdata	SEGMENT
$pdata$??_Gbad_array_new_length@std@@UEAAPEAXI@Z DD imagerel $LN4
	DD	imagerel $LN4+59
	DD	imagerel $unwind$??_Gbad_array_new_length@std@@UEAAPEAXI@Z
pdata	ENDS
;	COMDAT pdata
pdata	SEGMENT
$pdata$?_Throw_bad_array_new_length@std@@YAXXZ DD imagerel $LN3
	DD	imagerel $LN3+36
	DD	imagerel $unwind$?_Throw_bad_array_new_length@std@@YAXXZ
pdata	ENDS
;	COMDAT pdata
pdata	SEGMENT
$pdata$?_Allocate@_Default_allocate_traits@std@@SAPEAX_K@Z DD imagerel $LN3
	DD	imagerel $LN3+24
	DD	imagerel $unwind$?_Allocate@_Default_allocate_traits@std@@SAPEAX_K@Z
pdata	ENDS
;	COMDAT pdata
pdata	SEGMENT
$pdata$?_Adjust_manually_vector_aligned@std@@YAXAEAPEAXAEA_K@Z DD imagerel $LN21
	DD	imagerel $LN21+398
	DD	imagerel $unwind$?_Adjust_manually_vector_aligned@std@@YAXAEAPEAXAEA_K@Z
pdata	ENDS
;	COMDAT pdata
pdata	SEGMENT
$pdata$?_Orphan_all@_Container_base12@std@@QEAAXXZ DD imagerel $LN5
	DD	imagerel $LN5+48
	DD	imagerel $unwind$?_Orphan_all@_Container_base12@std@@QEAAXXZ
pdata	ENDS
;	COMDAT pdata
pdata	SEGMENT
$pdata$?_Orphan_all_unlocked_v3@_Container_base12@std@@AEAAXXZ DD imagerel $LN7
	DD	imagerel $LN7+104
	DD	imagerel $unwind$?_Orphan_all_unlocked_v3@_Container_base12@std@@AEAAXXZ
pdata	ENDS
;	COMDAT pdata
pdata	SEGMENT
$pdata$?_Orphan_all_locked_v3@_Container_base12@std@@AEAAXXZ DD imagerel $LN3
	DD	imagerel $LN3+49
	DD	imagerel $unwind$?_Orphan_all_locked_v3@_Container_base12@std@@AEAAXXZ
pdata	ENDS
;	COMDAT pdata
pdata	SEGMENT
$pdata$??$exchange@PEAU_Iterator_base12@std@@$$T@std@@YAPEAU_Iterator_base12@0@AEAPEAU10@$$QEA$$T@Z DD imagerel $LN3
	DD	imagerel $LN3+51
	DD	imagerel $unwind$??$exchange@PEAU_Iterator_base12@std@@$$T@std@@YAPEAU_Iterator_base12@0@AEAPEAU10@$$QEA$$T@Z
pdata	ENDS
;	COMDAT pdata
pdata	SEGMENT
$pdata$??$_Construct_in_place@U_Container_proxy@std@@PEAU_Container_base12@2@@std@@YAXAEAU_Container_proxy@0@$$QEAPEAU_Container_base12@0@@Z DD imagerel $LN5
	DD	imagerel $LN5+147
	DD	imagerel $unwind$??$_Construct_in_place@U_Container_proxy@std@@PEAU_Container_base12@2@@std@@YAXAEAU_Container_proxy@0@$$QEAPEAU_Container_base12@0@@Z
pdata	ENDS
;	COMDAT pdata
pdata	SEGMENT
$pdata$??$swap@H$0A@@std@@YAXAEAH0@Z DD imagerel $LN3
	DD	imagerel $LN3+73
	DD	imagerel $unwind$??$swap@H$0A@@std@@YAXAEAH0@Z
pdata	ENDS
;	COMDAT pdata
pdata	SEGMENT
$pdata$??$swap@_J$0A@@std@@YAXAEA_J0@Z DD imagerel $LN3
	DD	imagerel $LN3+79
	DD	imagerel $unwind$??$swap@_J$0A@@std@@YAXAEA_J0@Z
pdata	ENDS
;	COMDAT pdata
pdata	SEGMENT
$pdata$?Log2FloorNonZero@Bits@protobuf@google@@SAII@Z DD imagerel $LN3
	DD	imagerel $LN3+26
	DD	imagerel $unwind$?Log2FloorNonZero@Bits@protobuf@google@@SAII@Z
pdata	ENDS
;	COMDAT pdata
pdata	SEGMENT
$pdata$?Log2FloorNonZero64@Bits@protobuf@google@@SAI_K@Z DD imagerel $LN3
	DD	imagerel $LN3+29
	DD	imagerel $unwind$?Log2FloorNonZero64@Bits@protobuf@google@@SAI_K@Z
pdata	ENDS
;	COMDAT pdata
pdata	SEGMENT
$pdata$?EnsureSpace@EpsCopyOutputStream@io@protobuf@google@@QEAAPEAEPEAE@Z DD imagerel $LN4
	DD	imagerel $LN4+56
	DD	imagerel $unwind$?EnsureSpace@EpsCopyOutputStream@io@protobuf@google@@QEAAPEAEPEAE@Z
pdata	ENDS
;	COMDAT pdata
pdata	SEGMENT
$pdata$?WriteVarint32ToArray@CodedOutputStream@io@protobuf@google@@SAPEAEIPEAE@Z DD imagerel $LN3
	DD	imagerel $LN3+32
	DD	imagerel $unwind$?WriteVarint32ToArray@CodedOutputStream@io@protobuf@google@@SAPEAEIPEAE@Z
pdata	ENDS
;	COMDAT pdata
pdata	SEGMENT
$pdata$?WriteVarint64ToArray@CodedOutputStream@io@protobuf@google@@SAPEAE_KPEAE@Z DD imagerel $LN3
	DD	imagerel $LN3+34
	DD	imagerel $unwind$?WriteVarint64ToArray@CodedOutputStream@io@protobuf@google@@SAPEAE_KPEAE@Z
pdata	ENDS
;	COMDAT pdata
pdata	SEGMENT
$pdata$?WriteVarint32SignExtendedToArray@CodedOutputStream@io@protobuf@google@@SAPEAEHPEAE@Z DD imagerel $LN3
	DD	imagerel $LN3+36
	DD	imagerel $unwind$?WriteVarint32SignExtendedToArray@CodedOutputStream@io@protobuf@google@@SAPEAEHPEAE@Z
pdata	ENDS
;	COMDAT pdata
pdata	SEGMENT
$pdata$?WriteTagToArray@CodedOutputStream@io@protobuf@google@@SAPEAEIPEAE@Z DD imagerel $LN3
	DD	imagerel $LN3+32
	DD	imagerel $unwind$?WriteTagToArray@CodedOutputStream@io@protobuf@google@@SAPEAEIPEAE@Z
pdata	ENDS
;	COMDAT pdata
pdata	SEGMENT
$pdata$?VarintSize32@CodedOutputStream@io@protobuf@google@@SA_KI@Z DD imagerel $LN3
	DD	imagerel $LN3+50
	DD	imagerel $unwind$?VarintSize32@CodedOutputStream@io@protobuf@google@@SA_KI@Z
pdata	ENDS
;	COMDAT pdata
pdata	SEGMENT
$pdata$?VarintSize64@CodedOutputStream@io@protobuf@google@@SA_K_K@Z DD imagerel $LN3
	DD	imagerel $LN3+54
	DD	imagerel $unwind$?VarintSize64@CodedOutputStream@io@protobuf@google@@SA_K_K@Z
pdata	ENDS
;	COMDAT pdata
pdata	SEGMENT
$pdata$?VarintSize32SignExtended@CodedOutputStream@io@protobuf@google@@SA_KH@Z DD imagerel $LN3
	DD	imagerel $LN3+26
	DD	imagerel $unwind$?VarintSize32SignExtended@CodedOutputStream@io@protobuf@google@@SA_KH@Z
pdata	ENDS
;	COMDAT pdata
pdata	SEGMENT
$pdata$?VarintSize64PlusOne@CodedOutputStream@io@protobuf@google@@SA_K_K@Z DD imagerel $LN3
	DD	imagerel $LN3+56
	DD	imagerel $unwind$?VarintSize64PlusOne@CodedOutputStream@io@protobuf@google@@SA_K_K@Z
pdata	ENDS
;	COMDAT pdata
pdata	SEGMENT
$pdata$?VarintSize32SignExtendedPlusOne@CodedOutputStream@io@protobuf@google@@SA_KH@Z DD imagerel $LN3
	DD	imagerel $LN3+26
	DD	imagerel $unwind$?VarintSize32SignExtendedPlusOne@CodedOutputStream@io@protobuf@google@@SA_KH@Z
pdata	ENDS
;	COMDAT pdata
pdata	SEGMENT
$pdata$??1Arena@protobuf@google@@QEAA@XZ DD imagerel $LN3
	DD	imagerel $LN3+27
	DD	imagerel $unwind$??1Arena@protobuf@google@@QEAA@XZ
pdata	ENDS
;	COMDAT pdata
pdata	SEGMENT
$pdata$?SpaceAllocated@Arena@protobuf@google@@QEBA_KXZ DD imagerel $LN3
	DD	imagerel $LN3+27
	DD	imagerel $unwind$?SpaceAllocated@Arena@protobuf@google@@QEBA_KXZ
pdata	ENDS
;	COMDAT pdata
pdata	SEGMENT
$pdata$?AllocateInternal@Arena@protobuf@google@@AEAAPEAX_K0P6AXPEAX@ZPEBVtype_info@@@Z DD imagerel $LN7
	DD	imagerel $LN7+248
	DD	imagerel $unwind$?AllocateInternal@Arena@protobuf@google@@AEAAPEAX_K0P6AXPEAX@ZPEBVtype_info@@@Z
pdata	ENDS
;	COMDAT pdata
pdata	SEGMENT
$pdata$?AllocateAlignedWithHook@Arena@protobuf@google@@AEAAPEAX_K0PEBVtype_info@@@Z DD imagerel $LN5
	DD	imagerel $LN5+115
	DD	imagerel $unwind$?AllocateAlignedWithHook@Arena@protobuf@google@@AEAAPEAX_K0PEBVtype_info@@@Z
pdata	ENDS
;	COMDAT pdata
pdata	SEGMENT
$pdata$??_GArena@protobuf@google@@QEAAPEAXI@Z DD imagerel $LN4
	DD	imagerel $LN4+59
	DD	imagerel $unwind$??_GArena@protobuf@google@@QEAAPEAXI@Z
pdata	ENDS
;	COMDAT pdata
pdata	SEGMENT
$pdata$??0InternalMetadata@internal@protobuf@google@@QEAA@PEAVArena@23@_N@Z DD imagerel $LN3
	DD	imagerel $LN3+50
	DD	imagerel $unwind$??0InternalMetadata@internal@protobuf@google@@QEAA@PEAVArena@23@_N@Z
pdata	ENDS
;	COMDAT pdata
pdata	SEGMENT
$pdata$?SetArena@InternalMetadata@internal@protobuf@google@@QEAAXPEAVArena@34@_N@Z DD imagerel $LN10
	DD	imagerel $LN10+276
	DD	imagerel $unwind$?SetArena@InternalMetadata@internal@protobuf@google@@QEAAXPEAVArena@34@_N@Z
pdata	ENDS
;	COMDAT pdata
pdata	SEGMENT
$pdata$?dtor$0@?0??SetArena@InternalMetadata@internal@protobuf@google@@QEAAXPEAVArena@34@_N@Z@4HA DD imagerel ?dtor$0@?0??SetArena@InternalMetadata@internal@protobuf@google@@QEAAXPEAVArena@34@_N@Z@4HA
	DD	imagerel ?dtor$0@?0??SetArena@InternalMetadata@internal@protobuf@google@@QEAAXPEAVArena@34@_N@Z@4HA+38
	DD	imagerel $unwind$?dtor$0@?0??SetArena@InternalMetadata@internal@protobuf@google@@QEAAXPEAVArena@34@_N@Z@4HA
pdata	ENDS
;	COMDAT pdata
pdata	SEGMENT
$pdata$??1InternalMetadata@internal@protobuf@google@@QEAA@XZ DD imagerel $LN6
	DD	imagerel $LN6+87
	DD	imagerel $unwind$??1InternalMetadata@internal@protobuf@google@@QEAA@XZ
pdata	ENDS
;	COMDAT pdata
pdata	SEGMENT
$pdata$?owning_arena@InternalMetadata@internal@protobuf@google@@QEBAPEAVArena@34@XZ DD imagerel $LN5
	DD	imagerel $LN5+62
	DD	imagerel $unwind$?owning_arena@InternalMetadata@internal@protobuf@google@@QEBAPEAVArena@34@XZ
pdata	ENDS
;	COMDAT pdata
pdata	SEGMENT
$pdata$?arena@InternalMetadata@internal@protobuf@google@@QEBAPEAVArena@34@XZ DD imagerel $LN5
	DD	imagerel $LN5+58
	DD	imagerel $unwind$?arena@InternalMetadata@internal@protobuf@google@@QEBAPEAVArena@34@XZ
pdata	ENDS
;	COMDAT pdata
pdata	SEGMENT
$pdata$?have_unknown_fields@InternalMetadata@internal@protobuf@google@@QEBA_NXZ DD imagerel $LN3
	DD	imagerel $LN3+24
	DD	imagerel $unwind$?have_unknown_fields@InternalMetadata@internal@protobuf@google@@QEBA_NXZ
pdata	ENDS
;	COMDAT pdata
pdata	SEGMENT
$pdata$?InternalSwap@InternalMetadata@internal@protobuf@google@@QEAAXPEAV1234@@Z DD imagerel $LN3
	DD	imagerel $LN3+37
	DD	imagerel $unwind$?InternalSwap@InternalMetadata@internal@protobuf@google@@QEAAXPEAV1234@@Z
pdata	ENDS
;	COMDAT pdata
pdata	SEGMENT
$pdata$?HasMessageOwnedArenaTag@InternalMetadata@internal@protobuf@google@@AEBA_NXZ DD imagerel $LN5
	DD	imagerel $LN5+45
	DD	imagerel $unwind$?HasMessageOwnedArenaTag@InternalMetadata@internal@protobuf@google@@AEBA_NXZ
pdata	ENDS
;	COMDAT pdata
pdata	SEGMENT
$pdata$??0MessageLite@protobuf@google@@QEAA@XZ DD imagerel $LN4
	DD	imagerel $LN4+51
	DD	imagerel $unwind$??0MessageLite@protobuf@google@@QEAA@XZ
pdata	ENDS
;	COMDAT pdata
pdata	SEGMENT
$pdata$??1MessageLite@protobuf@google@@UEAA@XZ DD imagerel $LN3
	DD	imagerel $LN3+31
	DD	imagerel $unwind$??1MessageLite@protobuf@google@@UEAA@XZ
pdata	ENDS
;	COMDAT pdata
pdata	SEGMENT
$pdata$??0MessageLite@protobuf@google@@IEAA@PEAVArena@12@_N@Z DD imagerel $LN4
	DD	imagerel $LN4+79
	DD	imagerel $unwind$??0MessageLite@protobuf@google@@IEAA@PEAVArena@12@_N@Z
pdata	ENDS
;	COMDAT pdata
pdata	SEGMENT
$pdata$?GetOwningArena@MessageLite@protobuf@google@@IEBAPEAVArena@23@XZ DD imagerel $LN3
	DD	imagerel $LN3+31
	DD	imagerel $unwind$?GetOwningArena@MessageLite@protobuf@google@@IEBAPEAVArena@23@XZ
pdata	ENDS
;	COMDAT pdata
pdata	SEGMENT
$pdata$?GetArenaForAllocation@MessageLite@protobuf@google@@IEBAPEAVArena@23@XZ DD imagerel $LN3
	DD	imagerel $LN3+31
	DD	imagerel $unwind$?GetArenaForAllocation@MessageLite@protobuf@google@@IEBAPEAVArena@23@XZ
pdata	ENDS
;	COMDAT pdata
pdata	SEGMENT
$pdata$??_GMessageLite@protobuf@google@@UEAAPEAXI@Z DD imagerel $LN4
	DD	imagerel $LN4+59
	DD	imagerel $unwind$??_GMessageLite@protobuf@google@@UEAAPEAXI@Z
pdata	ENDS
;	COMDAT pdata
pdata	SEGMENT
$pdata$??0?$HasBits@$00@internal@protobuf@google@@QEAA@XZ DD imagerel $LN3
	DD	imagerel $LN3+32
	DD	imagerel $unwind$??0?$HasBits@$00@internal@protobuf@google@@QEAA@XZ
pdata	ENDS
;	COMDAT pdata
pdata	SEGMENT
$pdata$?Clear@?$HasBits@$00@internal@protobuf@google@@QEAAXXZ DD imagerel $LN3
	DD	imagerel $LN3+35
	DD	imagerel $unwind$?Clear@?$HasBits@$00@internal@protobuf@google@@QEAAXXZ
pdata	ENDS
;	COMDAT pdata
pdata	SEGMENT
$pdata$?Or@?$HasBits@$00@internal@protobuf@google@@QEAAXAEBV1234@@Z DD imagerel $LN6
	DD	imagerel $LN6+115
	DD	imagerel $unwind$?Or@?$HasBits@$00@internal@protobuf@google@@QEAAXAEBV1234@@Z
pdata	ENDS
;	COMDAT pdata
pdata	SEGMENT
$pdata$??1RepeatedPtrFieldBase@internal@protobuf@google@@IEAA@XZ DD imagerel $LN4
	DD	imagerel $LN4+39
	DD	imagerel $unwind$??1RepeatedPtrFieldBase@internal@protobuf@google@@IEAA@XZ
pdata	ENDS
;	COMDAT pdata
pdata	SEGMENT
$pdata$?NeedsDestroy@RepeatedPtrFieldBase@internal@protobuf@google@@IEBA_NXZ DD imagerel $LN5
	DD	imagerel $LN5+57
	DD	imagerel $unwind$?NeedsDestroy@RepeatedPtrFieldBase@internal@protobuf@google@@IEBA_NXZ
pdata	ENDS
;	COMDAT pdata
pdata	SEGMENT
$pdata$?InternalSwap@RepeatedPtrFieldBase@internal@protobuf@google@@QEAAXPEAV1234@@Z DD imagerel $LN8
	DD	imagerel $LN8+566
	DD	imagerel $unwind$?InternalSwap@RepeatedPtrFieldBase@internal@protobuf@google@@QEAAXPEAV1234@@Z
pdata	ENDS
;	COMDAT pdata
pdata	SEGMENT
$pdata$?dtor$0@?0??InternalSwap@RepeatedPtrFieldBase@internal@protobuf@google@@QEAAXPEAV1234@@Z@4HA DD imagerel ?dtor$0@?0??InternalSwap@RepeatedPtrFieldBase@internal@protobuf@google@@QEAAXPEAV1234@@Z@4HA
	DD	imagerel ?dtor$0@?0??InternalSwap@RepeatedPtrFieldBase@internal@protobuf@google@@QEAAXPEAV1234@@Z@4HA+41
	DD	imagerel $unwind$?dtor$0@?0??InternalSwap@RepeatedPtrFieldBase@internal@protobuf@google@@QEAAXPEAV1234@@Z@4HA
pdata	ENDS
;	COMDAT pdata
pdata	SEGMENT
$pdata$?raw_data@RepeatedPtrFieldBase@internal@protobuf@google@@IEBAPEBQEAXXZ DD imagerel $LN5
	DD	imagerel $LN5+57
	DD	imagerel $unwind$?raw_data@RepeatedPtrFieldBase@internal@protobuf@google@@IEBAPEBQEAXXZ
pdata	ENDS
;	COMDAT pdata
pdata	SEGMENT
$pdata$?MergeFromInternal@RepeatedPtrFieldBase@internal@protobuf@google@@AEAAXAEBV1234@P81234@EAAXPEAPEAX1HH@Z@Z DD imagerel $LN4
	DD	imagerel $LN4+200
	DD	imagerel $unwind$?MergeFromInternal@RepeatedPtrFieldBase@internal@protobuf@google@@AEAAXAEBV1234@P81234@EAAXPEAPEAX1HH@Z@Z
pdata	ENDS
;	COMDAT pdata
pdata	SEGMENT
$pdata$??$make_tuple@AEAPEAVArena@protobuf@google@@AEAHAEAHAEAPEAURep@RepeatedPtrFieldBase@internal@23@@std@@YA?AV?$tuple@PEAVArena@protobuf@google@@HHPEAURep@RepeatedPtrFieldBase@internal@23@@0@AEAPEAVArena@protobuf@google@@AEAH1AEAPEAURep@RepeatedPtrFieldBase@internal@34@@Z DD imagerel $LN3
	DD	imagerel $LN3+132
	DD	imagerel $unwind$??$make_tuple@AEAPEAVArena@protobuf@google@@AEAHAEAHAEAPEAURep@RepeatedPtrFieldBase@internal@23@@std@@YA?AV?$tuple@PEAVArena@protobuf@google@@HHPEAURep@RepeatedPtrFieldBase@internal@23@@0@AEAPEAVArena@protobuf@google@@AEAH1AEAPEAURep@RepeatedPtrFieldBase@internal@34@@Z
pdata	ENDS
;	COMDAT pdata
pdata	SEGMENT
$pdata$??$tie@PEAVArena@protobuf@google@@HHPEAURep@RepeatedPtrFieldBase@internal@23@@std@@YA?AV?$tuple@AEAPEAVArena@protobuf@google@@AEAHAEAHAEAPEAURep@RepeatedPtrFieldBase@internal@23@@0@AEAPEAVArena@protobuf@google@@AEAH1AEAPEAURep@RepeatedPtrFieldBase@internal@34@@Z DD imagerel $LN3
	DD	imagerel $LN3+69
	DD	imagerel $unwind$??$tie@PEAVArena@protobuf@google@@HHPEAURep@RepeatedPtrFieldBase@internal@23@@std@@YA?AV?$tuple@AEAPEAVArena@protobuf@google@@AEAHAEAHAEAPEAURep@RepeatedPtrFieldBase@internal@23@@0@AEAPEAVArena@protobuf@google@@AEAH1AEAPEAURep@RepeatedPtrFieldBase@internal@34@@Z
pdata	ENDS
;	COMDAT pdata
pdata	SEGMENT
$pdata$??$?4PEAVArena@protobuf@google@@HHPEAURep@RepeatedPtrFieldBase@internal@12@$0A@@?$tuple@AEAPEAVArena@protobuf@google@@AEAHAEAHAEAPEAURep@RepeatedPtrFieldBase@internal@23@@std@@QEAAAEAV01@$$QEAV?$tuple@PEAVArena@protobuf@google@@HHPEAURep@RepeatedPtrFieldBase@internal@23@@1@@Z DD imagerel $LN3
	DD	imagerel $LN3+102
	DD	imagerel $unwind$??$?4PEAVArena@protobuf@google@@HHPEAURep@RepeatedPtrFieldBase@internal@12@$0A@@?$tuple@AEAPEAVArena@protobuf@google@@AEAHAEAHAEAPEAURep@RepeatedPtrFieldBase@internal@23@@std@@QEAAAEAV01@$$QEAV?$tuple@PEAVArena@protobuf@google@@HHPEAURep@RepeatedPtrFieldBase@internal@23@@1@@Z
pdata	ENDS
;	COMDAT pdata
pdata	SEGMENT
$pdata$??$?4PEAVArena@protobuf@google@@HHPEAURep@RepeatedPtrFieldBase@internal@12@$0A@@?$tuple@AEAPEAVArena@protobuf@google@@AEAHAEAHAEAPEAURep@RepeatedPtrFieldBase@internal@23@@std@@QEAAAEAV01@AEBV?$tuple@PEAVArena@protobuf@google@@HHPEAURep@RepeatedPtrFieldBase@internal@23@@1@@Z DD imagerel $LN3
	DD	imagerel $LN3+83
	DD	imagerel $unwind$??$?4PEAVArena@protobuf@google@@HHPEAURep@RepeatedPtrFieldBase@internal@12@$0A@@?$tuple@AEAPEAVArena@protobuf@google@@AEAHAEAHAEAPEAURep@RepeatedPtrFieldBase@internal@23@@std@@QEAAAEAV01@AEBV?$tuple@PEAVArena@protobuf@google@@HHPEAURep@RepeatedPtrFieldBase@internal@23@@1@@Z
pdata	ENDS
;	COMDAT pdata
pdata	SEGMENT
$pdata$?WriteTagToArray@WireFormatLite@internal@protobuf@google@@SAPEAEHW4WireType@1234@PEAE@Z DD imagerel $LN3
	DD	imagerel $LN3+47
	DD	imagerel $unwind$?WriteTagToArray@WireFormatLite@internal@protobuf@google@@SAPEAEHW4WireType@1234@PEAE@Z
pdata	ENDS
;	COMDAT pdata
pdata	SEGMENT
$pdata$?WriteInt32NoTagToArray@WireFormatLite@internal@protobuf@google@@SAPEAEHPEAE@Z DD imagerel $LN3
	DD	imagerel $LN3+32
	DD	imagerel $unwind$?WriteInt32NoTagToArray@WireFormatLite@internal@protobuf@google@@SAPEAEHPEAE@Z
pdata	ENDS
;	COMDAT pdata
pdata	SEGMENT
