; Listing generated by Microsoft (R) Optimizing Compiler Version 19.34.31937.0 

include listing.inc

INCLUDELIB LIBCMTD
INCLUDELIB OLDNAMES

PUBLIC	?offsets@TableStruct_s2clientprotocol_2fui_2eproto@@2QBIB ; TableStruct_s2clientprotocol_2fui_2eproto::offsets
PUBLIC	?descriptor_table_s2clientprotocol_2fui_2eproto@@3UDescriptorTable@internal@protobuf@google@@B ; descriptor_table_s2clientprotocol_2fui_2eproto
PUBLIC	?MergeImpl@ObservationUI@SC2APIProtocol@@CAXAEAVMessage@protobuf@google@@AEBV345@@Z ; SC2APIProtocol::ObservationUI::MergeImpl
PUBLIC	?_class_data_@ObservationUI@SC2APIProtocol@@2UClassData@Message@protobuf@google@@B ; SC2APIProtocol::ObservationUI::_class_data_
PUBLIC	??_R0?AVControlGroup@SC2APIProtocol@@@8		; SC2APIProtocol::ControlGroup `RTTI Type Descriptor'
PUBLIC	??_R0?AVUnitInfo@SC2APIProtocol@@@8		; SC2APIProtocol::UnitInfo `RTTI Type Descriptor'
PUBLIC	??_R0?AVBuildItem@SC2APIProtocol@@@8		; SC2APIProtocol::BuildItem `RTTI Type Descriptor'
PUBLIC	??_R0?AVActionUI@SC2APIProtocol@@@8		; SC2APIProtocol::ActionUI `RTTI Type Descriptor'
PUBLIC	??_R0?AVActionControlGroup@SC2APIProtocol@@@8	; SC2APIProtocol::ActionControlGroup `RTTI Type Descriptor'
PUBLIC	??_R0?AVActionSelectArmy@SC2APIProtocol@@@8	; SC2APIProtocol::ActionSelectArmy `RTTI Type Descriptor'
PUBLIC	??_R0?AVActionSelectWarpGates@SC2APIProtocol@@@8 ; SC2APIProtocol::ActionSelectWarpGates `RTTI Type Descriptor'
PUBLIC	??_R0?AVActionSelectLarva@SC2APIProtocol@@@8	; SC2APIProtocol::ActionSelectLarva `RTTI Type Descriptor'
PUBLIC	?New@ControlGroup@SC2APIProtocol@@UEBAPEAV12@PEAVArena@protobuf@google@@@Z ; SC2APIProtocol::ControlGroup::New
PUBLIC	?MergeImpl@ControlGroup@SC2APIProtocol@@CAXAEAVMessage@protobuf@google@@AEBV345@@Z ; SC2APIProtocol::ControlGroup::MergeImpl
PUBLIC	??_R0?AVActionSelectIdleWorker@SC2APIProtocol@@@8 ; SC2APIProtocol::ActionSelectIdleWorker `RTTI Type Descriptor'
PUBLIC	?Clear@ControlGroup@SC2APIProtocol@@UEAAXXZ	; SC2APIProtocol::ControlGroup::Clear
PUBLIC	?IsInitialized@ControlGroup@SC2APIProtocol@@UEBA_NXZ ; SC2APIProtocol::ControlGroup::IsInitialized
PUBLIC	?ByteSizeLong@ControlGroup@SC2APIProtocol@@UEBA_KXZ ; SC2APIProtocol::ControlGroup::ByteSizeLong
PUBLIC	?_InternalParse@ControlGroup@SC2APIProtocol@@UEAAPEBDPEBDPEAVParseContext@internal@protobuf@google@@@Z ; SC2APIProtocol::ControlGroup::_InternalParse
PUBLIC	?_InternalSerialize@ControlGroup@SC2APIProtocol@@UEBAPEAEPEAEPEAVEpsCopyOutputStream@io@protobuf@google@@@Z ; SC2APIProtocol::ControlGroup::_InternalSerialize
PUBLIC	?GetCachedSize@ControlGroup@SC2APIProtocol@@UEBAHXZ ; SC2APIProtocol::ControlGroup::GetCachedSize
PUBLIC	?SetCachedSize@ControlGroup@SC2APIProtocol@@EEBAXH@Z ; SC2APIProtocol::ControlGroup::SetCachedSize
PUBLIC	?OnDemandRegisterArenaDtor@MessageLite@protobuf@google@@UEAAXPEAVArena@23@@Z ; google::protobuf::MessageLite::OnDemandRegisterArenaDtor
PUBLIC	?_class_data_@ControlGroup@SC2APIProtocol@@2UClassData@Message@protobuf@google@@B ; SC2APIProtocol::ControlGroup::_class_data_
PUBLIC	?GetClassData@ControlGroup@SC2APIProtocol@@UEBAPEBUClassData@Message@protobuf@google@@XZ ; SC2APIProtocol::ControlGroup::GetClassData
PUBLIC	?GetMetadata@ControlGroup@SC2APIProtocol@@UEBA?AUMetadata@protobuf@google@@XZ ; SC2APIProtocol::ControlGroup::GetMetadata
PUBLIC	??_R0?AVActionMultiPanel@SC2APIProtocol@@@8	; SC2APIProtocol::ActionMultiPanel `RTTI Type Descriptor'
PUBLIC	??_R0?AVActionCargoPanelUnload@SC2APIProtocol@@@8 ; SC2APIProtocol::ActionCargoPanelUnload `RTTI Type Descriptor'
PUBLIC	??_R0?AVActionProductionPanelRemoveFromQueue@SC2APIProtocol@@@8 ; SC2APIProtocol::ActionProductionPanelRemoveFromQueue `RTTI Type Descriptor'
PUBLIC	??_7ControlGroup@SC2APIProtocol@@6B@		; SC2APIProtocol::ControlGroup::`vftable'
PUBLIC	??_GControlGroup@SC2APIProtocol@@UEAAPEAXI@Z	; SC2APIProtocol::ControlGroup::`scalar deleting destructor'
PUBLIC	??_R0?AVActionToggleAutocast@SC2APIProtocol@@@8	; SC2APIProtocol::ActionToggleAutocast `RTTI Type Descriptor'
PUBLIC	?New@UnitInfo@SC2APIProtocol@@UEBAPEAV12@PEAVArena@protobuf@google@@@Z ; SC2APIProtocol::UnitInfo::New
PUBLIC	?MergeImpl@UnitInfo@SC2APIProtocol@@CAXAEAVMessage@protobuf@google@@AEBV345@@Z ; SC2APIProtocol::UnitInfo::MergeImpl
PUBLIC	?Clear@UnitInfo@SC2APIProtocol@@UEAAXXZ		; SC2APIProtocol::UnitInfo::Clear
PUBLIC	?IsInitialized@UnitInfo@SC2APIProtocol@@UEBA_NXZ ; SC2APIProtocol::UnitInfo::IsInitialized
PUBLIC	?ByteSizeLong@UnitInfo@SC2APIProtocol@@UEBA_KXZ	; SC2APIProtocol::UnitInfo::ByteSizeLong
PUBLIC	?_InternalParse@UnitInfo@SC2APIProtocol@@UEAAPEBDPEBDPEAVParseContext@internal@protobuf@google@@@Z ; SC2APIProtocol::UnitInfo::_InternalParse
PUBLIC	?_InternalSerialize@UnitInfo@SC2APIProtocol@@UEBAPEAEPEAEPEAVEpsCopyOutputStream@io@protobuf@google@@@Z ; SC2APIProtocol::UnitInfo::_InternalSerialize
PUBLIC	?GetCachedSize@UnitInfo@SC2APIProtocol@@UEBAHXZ	; SC2APIProtocol::UnitInfo::GetCachedSize
PUBLIC	?SetCachedSize@UnitInfo@SC2APIProtocol@@EEBAXH@Z ; SC2APIProtocol::UnitInfo::SetCachedSize
PUBLIC	?_class_data_@UnitInfo@SC2APIProtocol@@2UClassData@Message@protobuf@google@@B ; SC2APIProtocol::UnitInfo::_class_data_
PUBLIC	?GetClassData@UnitInfo@SC2APIProtocol@@UEBAPEBUClassData@Message@protobuf@google@@XZ ; SC2APIProtocol::UnitInfo::GetClassData
PUBLIC	?GetMetadata@UnitInfo@SC2APIProtocol@@UEBA?AUMetadata@protobuf@google@@XZ ; SC2APIProtocol::UnitInfo::GetMetadata
PUBLIC	??_7UnitInfo@SC2APIProtocol@@6B@		; SC2APIProtocol::UnitInfo::`vftable'
PUBLIC	??_GUnitInfo@SC2APIProtocol@@UEAAPEAXI@Z	; SC2APIProtocol::UnitInfo::`scalar deleting destructor'
PUBLIC	?MergeImpl@SinglePanel@SC2APIProtocol@@CAXAEAVMessage@protobuf@google@@AEBV345@@Z ; SC2APIProtocol::SinglePanel::MergeImpl
PUBLIC	?_class_data_@SinglePanel@SC2APIProtocol@@2UClassData@Message@protobuf@google@@B ; SC2APIProtocol::SinglePanel::_class_data_
PUBLIC	?MergeImpl@MultiPanel@SC2APIProtocol@@CAXAEAVMessage@protobuf@google@@AEBV345@@Z ; SC2APIProtocol::MultiPanel::MergeImpl
PUBLIC	?_class_data_@MultiPanel@SC2APIProtocol@@2UClassData@Message@protobuf@google@@B ; SC2APIProtocol::MultiPanel::_class_data_
PUBLIC	?MergeImpl@CargoPanel@SC2APIProtocol@@CAXAEAVMessage@protobuf@google@@AEBV345@@Z ; SC2APIProtocol::CargoPanel::MergeImpl
PUBLIC	?_class_data_@CargoPanel@SC2APIProtocol@@2UClassData@Message@protobuf@google@@B ; SC2APIProtocol::CargoPanel::_class_data_
PUBLIC	?New@BuildItem@SC2APIProtocol@@UEBAPEAV12@PEAVArena@protobuf@google@@@Z ; SC2APIProtocol::BuildItem::New
PUBLIC	?MergeImpl@BuildItem@SC2APIProtocol@@CAXAEAVMessage@protobuf@google@@AEBV345@@Z ; SC2APIProtocol::BuildItem::MergeImpl
PUBLIC	?Clear@BuildItem@SC2APIProtocol@@UEAAXXZ	; SC2APIProtocol::BuildItem::Clear
PUBLIC	?IsInitialized@BuildItem@SC2APIProtocol@@UEBA_NXZ ; SC2APIProtocol::BuildItem::IsInitialized
PUBLIC	?ByteSizeLong@BuildItem@SC2APIProtocol@@UEBA_KXZ ; SC2APIProtocol::BuildItem::ByteSizeLong
PUBLIC	?_InternalParse@BuildItem@SC2APIProtocol@@UEAAPEBDPEBDPEAVParseContext@internal@protobuf@google@@@Z ; SC2APIProtocol::BuildItem::_InternalParse
PUBLIC	?_InternalSerialize@BuildItem@SC2APIProtocol@@UEBAPEAEPEAEPEAVEpsCopyOutputStream@io@protobuf@google@@@Z ; SC2APIProtocol::BuildItem::_InternalSerialize
PUBLIC	?GetCachedSize@BuildItem@SC2APIProtocol@@UEBAHXZ ; SC2APIProtocol::BuildItem::GetCachedSize
PUBLIC	?SetCachedSize@BuildItem@SC2APIProtocol@@EEBAXH@Z ; SC2APIProtocol::BuildItem::SetCachedSize
PUBLIC	?_class_data_@BuildItem@SC2APIProtocol@@2UClassData@Message@protobuf@google@@B ; SC2APIProtocol::BuildItem::_class_data_
PUBLIC	?GetClassData@BuildItem@SC2APIProtocol@@UEBAPEBUClassData@Message@protobuf@google@@XZ ; SC2APIProtocol::BuildItem::GetClassData
PUBLIC	?GetMetadata@BuildItem@SC2APIProtocol@@UEBA?AUMetadata@protobuf@google@@XZ ; SC2APIProtocol::BuildItem::GetMetadata
PUBLIC	??_7BuildItem@SC2APIProtocol@@6B@		; SC2APIProtocol::BuildItem::`vftable'
PUBLIC	??_GBuildItem@SC2APIProtocol@@UEAAPEAXI@Z	; SC2APIProtocol::BuildItem::`scalar deleting destructor'
PUBLIC	?MergeImpl@ProductionPanel@SC2APIProtocol@@CAXAEAVMessage@protobuf@google@@AEBV345@@Z ; SC2APIProtocol::ProductionPanel::MergeImpl
PUBLIC	?_class_data_@ProductionPanel@SC2APIProtocol@@2UClassData@Message@protobuf@google@@B ; SC2APIProtocol::ProductionPanel::_class_data_
PUBLIC	?New@ActionUI@SC2APIProtocol@@UEBAPEAV12@PEAVArena@protobuf@google@@@Z ; SC2APIProtocol::ActionUI::New
PUBLIC	?MergeImpl@ActionUI@SC2APIProtocol@@CAXAEAVMessage@protobuf@google@@AEBV345@@Z ; SC2APIProtocol::ActionUI::MergeImpl
PUBLIC	?Clear@ActionUI@SC2APIProtocol@@UEAAXXZ		; SC2APIProtocol::ActionUI::Clear
PUBLIC	?IsInitialized@ActionUI@SC2APIProtocol@@UEBA_NXZ ; SC2APIProtocol::ActionUI::IsInitialized
PUBLIC	?ByteSizeLong@ActionUI@SC2APIProtocol@@UEBA_KXZ	; SC2APIProtocol::ActionUI::ByteSizeLong
PUBLIC	?_InternalParse@ActionUI@SC2APIProtocol@@UEAAPEBDPEBDPEAVParseContext@internal@protobuf@google@@@Z ; SC2APIProtocol::ActionUI::_InternalParse
PUBLIC	?_InternalSerialize@ActionUI@SC2APIProtocol@@UEBAPEAEPEAEPEAVEpsCopyOutputStream@io@protobuf@google@@@Z ; SC2APIProtocol::ActionUI::_InternalSerialize
PUBLIC	?GetCachedSize@ActionUI@SC2APIProtocol@@UEBAHXZ	; SC2APIProtocol::ActionUI::GetCachedSize
PUBLIC	?SetCachedSize@ActionUI@SC2APIProtocol@@EEBAXH@Z ; SC2APIProtocol::ActionUI::SetCachedSize
PUBLIC	?_class_data_@ActionUI@SC2APIProtocol@@2UClassData@Message@protobuf@google@@B ; SC2APIProtocol::ActionUI::_class_data_
PUBLIC	?GetClassData@ActionUI@SC2APIProtocol@@UEBAPEBUClassData@Message@protobuf@google@@XZ ; SC2APIProtocol::ActionUI::GetClassData
PUBLIC	?GetMetadata@ActionUI@SC2APIProtocol@@UEBA?AUMetadata@protobuf@google@@XZ ; SC2APIProtocol::ActionUI::GetMetadata
PUBLIC	??_7ActionUI@SC2APIProtocol@@6B@		; SC2APIProtocol::ActionUI::`vftable'
PUBLIC	??_GActionUI@SC2APIProtocol@@UEAAPEAXI@Z	; SC2APIProtocol::ActionUI::`scalar deleting destructor'
PUBLIC	?New@ActionControlGroup@SC2APIProtocol@@UEBAPEAV12@PEAVArena@protobuf@google@@@Z ; SC2APIProtocol::ActionControlGroup::New
PUBLIC	?MergeImpl@ActionControlGroup@SC2APIProtocol@@CAXAEAVMessage@protobuf@google@@AEBV345@@Z ; SC2APIProtocol::ActionControlGroup::MergeImpl
PUBLIC	?Clear@ActionControlGroup@SC2APIProtocol@@UEAAXXZ ; SC2APIProtocol::ActionControlGroup::Clear
PUBLIC	?IsInitialized@ActionControlGroup@SC2APIProtocol@@UEBA_NXZ ; SC2APIProtocol::ActionControlGroup::IsInitialized
PUBLIC	?ByteSizeLong@ActionControlGroup@SC2APIProtocol@@UEBA_KXZ ; SC2APIProtocol::ActionControlGroup::ByteSizeLong
PUBLIC	?_InternalParse@ActionControlGroup@SC2APIProtocol@@UEAAPEBDPEBDPEAVParseContext@internal@protobuf@google@@@Z ; SC2APIProtocol::ActionControlGroup::_InternalParse
PUBLIC	?_InternalSerialize@ActionControlGroup@SC2APIProtocol@@UEBAPEAEPEAEPEAVEpsCopyOutputStream@io@protobuf@google@@@Z ; SC2APIProtocol::ActionControlGroup::_InternalSerialize
PUBLIC	?GetCachedSize@ActionControlGroup@SC2APIProtocol@@UEBAHXZ ; SC2APIProtocol::ActionControlGroup::GetCachedSize
PUBLIC	?SetCachedSize@ActionControlGroup@SC2APIProtocol@@EEBAXH@Z ; SC2APIProtocol::ActionControlGroup::SetCachedSize
PUBLIC	?_class_data_@ActionControlGroup@SC2APIProtocol@@2UClassData@Message@protobuf@google@@B ; SC2APIProtocol::ActionControlGroup::_class_data_
PUBLIC	?GetClassData@ActionControlGroup@SC2APIProtocol@@UEBAPEBUClassData@Message@protobuf@google@@XZ ; SC2APIProtocol::ActionControlGroup::GetClassData
PUBLIC	?GetMetadata@ActionControlGroup@SC2APIProtocol@@UEBA?AUMetadata@protobuf@google@@XZ ; SC2APIProtocol::ActionControlGroup::GetMetadata
PUBLIC	??_7ActionControlGroup@SC2APIProtocol@@6B@	; SC2APIProtocol::ActionControlGroup::`vftable'
PUBLIC	??_GActionControlGroup@SC2APIProtocol@@UEAAPEAXI@Z ; SC2APIProtocol::ActionControlGroup::`scalar deleting destructor'
PUBLIC	?New@ActionSelectArmy@SC2APIProtocol@@UEBAPEAV12@PEAVArena@protobuf@google@@@Z ; SC2APIProtocol::ActionSelectArmy::New
PUBLIC	?MergeImpl@ActionSelectArmy@SC2APIProtocol@@CAXAEAVMessage@protobuf@google@@AEBV345@@Z ; SC2APIProtocol::ActionSelectArmy::MergeImpl
PUBLIC	?Clear@ActionSelectArmy@SC2APIProtocol@@UEAAXXZ	; SC2APIProtocol::ActionSelectArmy::Clear
PUBLIC	?IsInitialized@ActionSelectArmy@SC2APIProtocol@@UEBA_NXZ ; SC2APIProtocol::ActionSelectArmy::IsInitialized
PUBLIC	?ByteSizeLong@ActionSelectArmy@SC2APIProtocol@@UEBA_KXZ ; SC2APIProtocol::ActionSelectArmy::ByteSizeLong
PUBLIC	?_InternalParse@ActionSelectArmy@SC2APIProtocol@@UEAAPEBDPEBDPEAVParseContext@internal@protobuf@google@@@Z ; SC2APIProtocol::ActionSelectArmy::_InternalParse
PUBLIC	?_InternalSerialize@ActionSelectArmy@SC2APIProtocol@@UEBAPEAEPEAEPEAVEpsCopyOutputStream@io@protobuf@google@@@Z ; SC2APIProtocol::ActionSelectArmy::_InternalSerialize
PUBLIC	?GetCachedSize@ActionSelectArmy@SC2APIProtocol@@UEBAHXZ ; SC2APIProtocol::ActionSelectArmy::GetCachedSize
PUBLIC	?SetCachedSize@ActionSelectArmy@SC2APIProtocol@@EEBAXH@Z ; SC2APIProtocol::ActionSelectArmy::SetCachedSize
PUBLIC	?_class_data_@ActionSelectArmy@SC2APIProtocol@@2UClassData@Message@protobuf@google@@B ; SC2APIProtocol::ActionSelectArmy::_class_data_
PUBLIC	?GetClassData@ActionSelectArmy@SC2APIProtocol@@UEBAPEBUClassData@Message@protobuf@google@@XZ ; SC2APIProtocol::ActionSelectArmy::GetClassData
PUBLIC	?GetMetadata@ActionSelectArmy@SC2APIProtocol@@UEBA?AUMetadata@protobuf@google@@XZ ; SC2APIProtocol::ActionSelectArmy::GetMetadata
PUBLIC	??_7ActionSelectArmy@SC2APIProtocol@@6B@	; SC2APIProtocol::ActionSelectArmy::`vftable'
PUBLIC	??_GActionSelectArmy@SC2APIProtocol@@UEAAPEAXI@Z ; SC2APIProtocol::ActionSelectArmy::`scalar deleting destructor'
PUBLIC	??_R0?AVMessage@protobuf@google@@@8		; google::protobuf::Message `RTTI Type Descriptor'
PUBLIC	??_R3Message@protobuf@google@@8			; google::protobuf::Message::`RTTI Class Hierarchy Descriptor'
PUBLIC	??_R2Message@protobuf@google@@8			; google::protobuf::Message::`RTTI Base Class Array'
PUBLIC	??_R1A@?0A@EA@Message@protobuf@google@@8	; google::protobuf::Message::`RTTI Base Class Descriptor at (0,-1,0,64)'
PUBLIC	??_R1A@?0A@EA@MessageLite@protobuf@google@@8	; google::protobuf::MessageLite::`RTTI Base Class Descriptor at (0,-1,0,64)'
PUBLIC	??_R0?AVMessageLite@protobuf@google@@@8		; google::protobuf::MessageLite `RTTI Type Descriptor'
PUBLIC	??_R3MessageLite@protobuf@google@@8		; google::protobuf::MessageLite::`RTTI Class Hierarchy Descriptor'
PUBLIC	??_R2MessageLite@protobuf@google@@8		; google::protobuf::MessageLite::`RTTI Base Class Array'
PUBLIC	?New@ActionSelectWarpGates@SC2APIProtocol@@UEBAPEAV12@PEAVArena@protobuf@google@@@Z ; SC2APIProtocol::ActionSelectWarpGates::New
PUBLIC	?MergeImpl@ActionSelectWarpGates@SC2APIProtocol@@CAXAEAVMessage@protobuf@google@@AEBV345@@Z ; SC2APIProtocol::ActionSelectWarpGates::MergeImpl
PUBLIC	?Clear@ActionSelectWarpGates@SC2APIProtocol@@UEAAXXZ ; SC2APIProtocol::ActionSelectWarpGates::Clear
PUBLIC	?IsInitialized@ActionSelectWarpGates@SC2APIProtocol@@UEBA_NXZ ; SC2APIProtocol::ActionSelectWarpGates::IsInitialized
PUBLIC	?ByteSizeLong@ActionSelectWarpGates@SC2APIProtocol@@UEBA_KXZ ; SC2APIProtocol::ActionSelectWarpGates::ByteSizeLong
PUBLIC	?_InternalParse@ActionSelectWarpGates@SC2APIProtocol@@UEAAPEBDPEBDPEAVParseContext@internal@protobuf@google@@@Z ; SC2APIProtocol::ActionSelectWarpGates::_InternalParse
PUBLIC	?_InternalSerialize@ActionSelectWarpGates@SC2APIProtocol@@UEBAPEAEPEAEPEAVEpsCopyOutputStream@io@protobuf@google@@@Z ; SC2APIProtocol::ActionSelectWarpGates::_InternalSerialize
PUBLIC	?GetCachedSize@ActionSelectWarpGates@SC2APIProtocol@@UEBAHXZ ; SC2APIProtocol::ActionSelectWarpGates::GetCachedSize
PUBLIC	?SetCachedSize@ActionSelectWarpGates@SC2APIProtocol@@EEBAXH@Z ; SC2APIProtocol::ActionSelectWarpGates::SetCachedSize
PUBLIC	?_class_data_@ActionSelectWarpGates@SC2APIProtocol@@2UClassData@Message@protobuf@google@@B ; SC2APIProtocol::ActionSelectWarpGates::_class_data_
PUBLIC	?GetClassData@ActionSelectWarpGates@SC2APIProtocol@@UEBAPEBUClassData@Message@protobuf@google@@XZ ; SC2APIProtocol::ActionSelectWarpGates::GetClassData
PUBLIC	?GetMetadata@ActionSelectWarpGates@SC2APIProtocol@@UEBA?AUMetadata@protobuf@google@@XZ ; SC2APIProtocol::ActionSelectWarpGates::GetMetadata
PUBLIC	??_R0?AVZeroFieldsBase@internal@protobuf@google@@@8 ; google::protobuf::internal::ZeroFieldsBase `RTTI Type Descriptor'
PUBLIC	??_R3ZeroFieldsBase@internal@protobuf@google@@8	; google::protobuf::internal::ZeroFieldsBase::`RTTI Class Hierarchy Descriptor'
PUBLIC	??_R2ZeroFieldsBase@internal@protobuf@google@@8	; google::protobuf::internal::ZeroFieldsBase::`RTTI Base Class Array'
PUBLIC	??_R1A@?0A@EA@ZeroFieldsBase@internal@protobuf@google@@8 ; google::protobuf::internal::ZeroFieldsBase::`RTTI Base Class Descriptor at (0,-1,0,64)'
PUBLIC	??_R4ActionCargoPanelUnload@SC2APIProtocol@@6B@	; SC2APIProtocol::ActionCargoPanelUnload::`RTTI Complete Object Locator'
PUBLIC	??_R3ActionCargoPanelUnload@SC2APIProtocol@@8	; SC2APIProtocol::ActionCargoPanelUnload::`RTTI Class Hierarchy Descriptor'
PUBLIC	??_R2ActionCargoPanelUnload@SC2APIProtocol@@8	; SC2APIProtocol::ActionCargoPanelUnload::`RTTI Base Class Array'
PUBLIC	??_R1A@?0A@EA@ActionCargoPanelUnload@SC2APIProtocol@@8 ; SC2APIProtocol::ActionCargoPanelUnload::`RTTI Base Class Descriptor at (0,-1,0,64)'
PUBLIC	??_R4ActionControlGroup@SC2APIProtocol@@6B@	; SC2APIProtocol::ActionControlGroup::`RTTI Complete Object Locator'
PUBLIC	??_R3ActionControlGroup@SC2APIProtocol@@8	; SC2APIProtocol::ActionControlGroup::`RTTI Class Hierarchy Descriptor'
PUBLIC	??_R2ActionControlGroup@SC2APIProtocol@@8	; SC2APIProtocol::ActionControlGroup::`RTTI Base Class Array'
PUBLIC	??_R1A@?0A@EA@ActionControlGroup@SC2APIProtocol@@8 ; SC2APIProtocol::ActionControlGroup::`RTTI Base Class Descriptor at (0,-1,0,64)'
PUBLIC	??_R4ActionMultiPanel@SC2APIProtocol@@6B@	; SC2APIProtocol::ActionMultiPanel::`RTTI Complete Object Locator'
PUBLIC	??_R3ActionMultiPanel@SC2APIProtocol@@8		; SC2APIProtocol::ActionMultiPanel::`RTTI Class Hierarchy Descriptor'
PUBLIC	??_R2ActionMultiPanel@SC2APIProtocol@@8		; SC2APIProtocol::ActionMultiPanel::`RTTI Base Class Array'
PUBLIC	??_R1A@?0A@EA@ActionMultiPanel@SC2APIProtocol@@8 ; SC2APIProtocol::ActionMultiPanel::`RTTI Base Class Descriptor at (0,-1,0,64)'
PUBLIC	??_R4ActionProductionPanelRemoveFromQueue@SC2APIProtocol@@6B@ ; SC2APIProtocol::ActionProductionPanelRemoveFromQueue::`RTTI Complete Object Locator'
PUBLIC	??_R3ActionProductionPanelRemoveFromQueue@SC2APIProtocol@@8 ; SC2APIProtocol::ActionProductionPanelRemoveFromQueue::`RTTI Class Hierarchy Descriptor'
PUBLIC	??_R2ActionProductionPanelRemoveFromQueue@SC2APIProtocol@@8 ; SC2APIProtocol::ActionProductionPanelRemoveFromQueue::`RTTI Base Class Array'
PUBLIC	??_R1A@?0A@EA@ActionProductionPanelRemoveFromQueue@SC2APIProtocol@@8 ; SC2APIProtocol::ActionProductionPanelRemoveFromQueue::`RTTI Base Class Descriptor at (0,-1,0,64)'
PUBLIC	??_R4ActionSelectArmy@SC2APIProtocol@@6B@	; SC2APIProtocol::ActionSelectArmy::`RTTI Complete Object Locator'
PUBLIC	??_R3ActionSelectArmy@SC2APIProtocol@@8		; SC2APIProtocol::ActionSelectArmy::`RTTI Class Hierarchy Descriptor'
PUBLIC	??_R2ActionSelectArmy@SC2APIProtocol@@8		; SC2APIProtocol::ActionSelectArmy::`RTTI Base Class Array'
PUBLIC	??_R1A@?0A@EA@ActionSelectArmy@SC2APIProtocol@@8 ; SC2APIProtocol::ActionSelectArmy::`RTTI Base Class Descriptor at (0,-1,0,64)'
PUBLIC	??_R4ActionSelectIdleWorker@SC2APIProtocol@@6B@	; SC2APIProtocol::ActionSelectIdleWorker::`RTTI Complete Object Locator'
PUBLIC	??_R3ActionSelectIdleWorker@SC2APIProtocol@@8	; SC2APIProtocol::ActionSelectIdleWorker::`RTTI Class Hierarchy Descriptor'
PUBLIC	??_R2ActionSelectIdleWorker@SC2APIProtocol@@8	; SC2APIProtocol::ActionSelectIdleWorker::`RTTI Base Class Array'
PUBLIC	??_R1A@?0A@EA@ActionSelectIdleWorker@SC2APIProtocol@@8 ; SC2APIProtocol::ActionSelectIdleWorker::`RTTI Base Class Descriptor at (0,-1,0,64)'
PUBLIC	??_R4ActionSelectLarva@SC2APIProtocol@@6B@	; SC2APIProtocol::ActionSelectLarva::`RTTI Complete Object Locator'
PUBLIC	??_R3ActionSelectLarva@SC2APIProtocol@@8	; SC2APIProtocol::ActionSelectLarva::`RTTI Class Hierarchy Descriptor'
PUBLIC	??_R2ActionSelectLarva@SC2APIProtocol@@8	; SC2APIProtocol::ActionSelectLarva::`RTTI Base Class Array'
PUBLIC	??_R1A@?0A@EA@ActionSelectLarva@SC2APIProtocol@@8 ; SC2APIProtocol::ActionSelectLarva::`RTTI Base Class Descriptor at (0,-1,0,64)'
PUBLIC	??_R4ActionSelectWarpGates@SC2APIProtocol@@6B@	; SC2APIProtocol::ActionSelectWarpGates::`RTTI Complete Object Locator'
PUBLIC	??_R3ActionSelectWarpGates@SC2APIProtocol@@8	; SC2APIProtocol::ActionSelectWarpGates::`RTTI Class Hierarchy Descriptor'
PUBLIC	??_7ActionSelectWarpGates@SC2APIProtocol@@6B@	; SC2APIProtocol::ActionSelectWarpGates::`vftable'
PUBLIC	??_R2ActionSelectWarpGates@SC2APIProtocol@@8	; SC2APIProtocol::ActionSelectWarpGates::`RTTI Base Class Array'
PUBLIC	??_R1A@?0A@EA@ActionSelectWarpGates@SC2APIProtocol@@8 ; SC2APIProtocol::ActionSelectWarpGates::`RTTI Base Class Descriptor at (0,-1,0,64)'
PUBLIC	??_R4ActionToggleAutocast@SC2APIProtocol@@6B@	; SC2APIProtocol::ActionToggleAutocast::`RTTI Complete Object Locator'
PUBLIC	??_GActionSelectWarpGates@SC2APIProtocol@@UEAAPEAXI@Z ; SC2APIProtocol::ActionSelectWarpGates::`scalar deleting destructor'
PUBLIC	??_R3ActionToggleAutocast@SC2APIProtocol@@8	; SC2APIProtocol::ActionToggleAutocast::`RTTI Class Hierarchy Descriptor'
PUBLIC	??_R2ActionToggleAutocast@SC2APIProtocol@@8	; SC2APIProtocol::ActionToggleAutocast::`RTTI Base Class Array'
PUBLIC	??_R1A@?0A@EA@ActionToggleAutocast@SC2APIProtocol@@8 ; SC2APIProtocol::ActionToggleAutocast::`RTTI Base Class Descriptor at (0,-1,0,64)'
PUBLIC	??_R4ActionUI@SC2APIProtocol@@6B@		; SC2APIProtocol::ActionUI::`RTTI Complete Object Locator'
PUBLIC	??_R3ActionUI@SC2APIProtocol@@8			; SC2APIProtocol::ActionUI::`RTTI Class Hierarchy Descriptor'
PUBLIC	??_R2ActionUI@SC2APIProtocol@@8			; SC2APIProtocol::ActionUI::`RTTI Base Class Array'
PUBLIC	??_R1A@?0A@EA@ActionUI@SC2APIProtocol@@8	; SC2APIProtocol::ActionUI::`RTTI Base Class Descriptor at (0,-1,0,64)'
PUBLIC	??_R4BuildItem@SC2APIProtocol@@6B@		; SC2APIProtocol::BuildItem::`RTTI Complete Object Locator'
PUBLIC	??_R3BuildItem@SC2APIProtocol@@8		; SC2APIProtocol::BuildItem::`RTTI Class Hierarchy Descriptor'
PUBLIC	??_R2BuildItem@SC2APIProtocol@@8		; SC2APIProtocol::BuildItem::`RTTI Base Class Array'
PUBLIC	??_R1A@?0A@EA@BuildItem@SC2APIProtocol@@8	; SC2APIProtocol::BuildItem::`RTTI Base Class Descriptor at (0,-1,0,64)'
PUBLIC	??_R4ControlGroup@SC2APIProtocol@@6B@		; SC2APIProtocol::ControlGroup::`RTTI Complete Object Locator'
PUBLIC	??_R3ControlGroup@SC2APIProtocol@@8		; SC2APIProtocol::ControlGroup::`RTTI Class Hierarchy Descriptor'
PUBLIC	??_R2ControlGroup@SC2APIProtocol@@8		; SC2APIProtocol::ControlGroup::`RTTI Base Class Array'
PUBLIC	??_R1A@?0A@EA@ControlGroup@SC2APIProtocol@@8	; SC2APIProtocol::ControlGroup::`RTTI Base Class Descriptor at (0,-1,0,64)'
PUBLIC	??_R4UnitInfo@SC2APIProtocol@@6B@		; SC2APIProtocol::UnitInfo::`RTTI Complete Object Locator'
PUBLIC	??_R3UnitInfo@SC2APIProtocol@@8			; SC2APIProtocol::UnitInfo::`RTTI Class Hierarchy Descriptor'
PUBLIC	??_R2UnitInfo@SC2APIProtocol@@8			; SC2APIProtocol::UnitInfo::`RTTI Base Class Array'
PUBLIC	??_R1A@?0A@EA@UnitInfo@SC2APIProtocol@@8	; SC2APIProtocol::UnitInfo::`RTTI Base Class Descriptor at (0,-1,0,64)'
PUBLIC	?New@ActionSelectLarva@SC2APIProtocol@@UEBAPEAV12@PEAVArena@protobuf@google@@@Z ; SC2APIProtocol::ActionSelectLarva::New
PUBLIC	?_class_data_@ActionSelectLarva@SC2APIProtocol@@2UClassData@Message@protobuf@google@@B ; SC2APIProtocol::ActionSelectLarva::_class_data_
PUBLIC	?GetClassData@ActionSelectLarva@SC2APIProtocol@@UEBAPEBUClassData@Message@protobuf@google@@XZ ; SC2APIProtocol::ActionSelectLarva::GetClassData
PUBLIC	?GetMetadata@ActionSelectLarva@SC2APIProtocol@@UEBA?AUMetadata@protobuf@google@@XZ ; SC2APIProtocol::ActionSelectLarva::GetMetadata
PUBLIC	??_7ActionSelectLarva@SC2APIProtocol@@6B@	; SC2APIProtocol::ActionSelectLarva::`vftable'
PUBLIC	??_GActionSelectLarva@SC2APIProtocol@@UEAAPEAXI@Z ; SC2APIProtocol::ActionSelectLarva::`scalar deleting destructor'
PUBLIC	?New@ActionSelectIdleWorker@SC2APIProtocol@@UEBAPEAV12@PEAVArena@protobuf@google@@@Z ; SC2APIProtocol::ActionSelectIdleWorker::New
PUBLIC	?MergeImpl@ActionSelectIdleWorker@SC2APIProtocol@@CAXAEAVMessage@protobuf@google@@AEBV345@@Z ; SC2APIProtocol::ActionSelectIdleWorker::MergeImpl
PUBLIC	?Clear@ActionSelectIdleWorker@SC2APIProtocol@@UEAAXXZ ; SC2APIProtocol::ActionSelectIdleWorker::Clear
PUBLIC	?IsInitialized@ActionSelectIdleWorker@SC2APIProtocol@@UEBA_NXZ ; SC2APIProtocol::ActionSelectIdleWorker::IsInitialized
PUBLIC	?ByteSizeLong@ActionSelectIdleWorker@SC2APIProtocol@@UEBA_KXZ ; SC2APIProtocol::ActionSelectIdleWorker::ByteSizeLong
PUBLIC	?_InternalParse@ActionSelectIdleWorker@SC2APIProtocol@@UEAAPEBDPEBDPEAVParseContext@internal@protobuf@google@@@Z ; SC2APIProtocol::ActionSelectIdleWorker::_InternalParse
PUBLIC	?_InternalSerialize@ActionSelectIdleWorker@SC2APIProtocol@@UEBAPEAEPEAEPEAVEpsCopyOutputStream@io@protobuf@google@@@Z ; SC2APIProtocol::ActionSelectIdleWorker::_InternalSerialize
PUBLIC	?GetCachedSize@ActionSelectIdleWorker@SC2APIProtocol@@UEBAHXZ ; SC2APIProtocol::ActionSelectIdleWorker::GetCachedSize
PUBLIC	?SetCachedSize@ActionSelectIdleWorker@SC2APIProtocol@@EEBAXH@Z ; SC2APIProtocol::ActionSelectIdleWorker::SetCachedSize
PUBLIC	?_class_data_@ActionSelectIdleWorker@SC2APIProtocol@@2UClassData@Message@protobuf@google@@B ; SC2APIProtocol::ActionSelectIdleWorker::_class_data_
PUBLIC	?GetClassData@ActionSelectIdleWorker@SC2APIProtocol@@UEBAPEBUClassData@Message@protobuf@google@@XZ ; SC2APIProtocol::ActionSelectIdleWorker::GetClassData
PUBLIC	?GetMetadata@ActionSelectIdleWorker@SC2APIProtocol@@UEBA?AUMetadata@protobuf@google@@XZ ; SC2APIProtocol::ActionSelectIdleWorker::GetMetadata
PUBLIC	??_7ActionSelectIdleWorker@SC2APIProtocol@@6B@	; SC2APIProtocol::ActionSelectIdleWorker::`vftable'
PUBLIC	??_GActionSelectIdleWorker@SC2APIProtocol@@UEAAPEAXI@Z ; SC2APIProtocol::ActionSelectIdleWorker::`scalar deleting destructor'
PUBLIC	?New@ActionMultiPanel@SC2APIProtocol@@UEBAPEAV12@PEAVArena@protobuf@google@@@Z ; SC2APIProtocol::ActionMultiPanel::New
PUBLIC	?MergeImpl@ActionMultiPanel@SC2APIProtocol@@CAXAEAVMessage@protobuf@google@@AEBV345@@Z ; SC2APIProtocol::ActionMultiPanel::MergeImpl
PUBLIC	?Clear@ActionMultiPanel@SC2APIProtocol@@UEAAXXZ	; SC2APIProtocol::ActionMultiPanel::Clear
PUBLIC	?IsInitialized@ActionMultiPanel@SC2APIProtocol@@UEBA_NXZ ; SC2APIProtocol::ActionMultiPanel::IsInitialized
PUBLIC	?ByteSizeLong@ActionMultiPanel@SC2APIProtocol@@UEBA_KXZ ; SC2APIProtocol::ActionMultiPanel::ByteSizeLong
PUBLIC	?_InternalParse@ActionMultiPanel@SC2APIProtocol@@UEAAPEBDPEBDPEAVParseContext@internal@protobuf@google@@@Z ; SC2APIProtocol::ActionMultiPanel::_InternalParse
PUBLIC	?_InternalSerialize@ActionMultiPanel@SC2APIProtocol@@UEBAPEAEPEAEPEAVEpsCopyOutputStream@io@protobuf@google@@@Z ; SC2APIProtocol::ActionMultiPanel::_InternalSerialize
PUBLIC	?GetCachedSize@ActionMultiPanel@SC2APIProtocol@@UEBAHXZ ; SC2APIProtocol::ActionMultiPanel::GetCachedSize
PUBLIC	?SetCachedSize@ActionMultiPanel@SC2APIProtocol@@EEBAXH@Z ; SC2APIProtocol::ActionMultiPanel::SetCachedSize
PUBLIC	?_class_data_@ActionMultiPanel@SC2APIProtocol@@2UClassData@Message@protobuf@google@@B ; SC2APIProtocol::ActionMultiPanel::_class_data_
PUBLIC	?GetClassData@ActionMultiPanel@SC2APIProtocol@@UEBAPEBUClassData@Message@protobuf@google@@XZ ; SC2APIProtocol::ActionMultiPanel::GetClassData
PUBLIC	?GetMetadata@ActionMultiPanel@SC2APIProtocol@@UEBA?AUMetadata@protobuf@google@@XZ ; SC2APIProtocol::ActionMultiPanel::GetMetadata
PUBLIC	??_7ActionMultiPanel@SC2APIProtocol@@6B@	; SC2APIProtocol::ActionMultiPanel::`vftable'
PUBLIC	??_GActionMultiPanel@SC2APIProtocol@@UEAAPEAXI@Z ; SC2APIProtocol::ActionMultiPanel::`scalar deleting destructor'
PUBLIC	?New@ActionCargoPanelUnload@SC2APIProtocol@@UEBAPEAV12@PEAVArena@protobuf@google@@@Z ; SC2APIProtocol::ActionCargoPanelUnload::New
PUBLIC	?MergeImpl@ActionCargoPanelUnload@SC2APIProtocol@@CAXAEAVMessage@protobuf@google@@AEBV345@@Z ; SC2APIProtocol::ActionCargoPanelUnload::MergeImpl
PUBLIC	?Clear@ActionCargoPanelUnload@SC2APIProtocol@@UEAAXXZ ; SC2APIProtocol::ActionCargoPanelUnload::Clear
PUBLIC	?IsInitialized@ActionCargoPanelUnload@SC2APIProtocol@@UEBA_NXZ ; SC2APIProtocol::ActionCargoPanelUnload::IsInitialized
PUBLIC	?ByteSizeLong@ActionCargoPanelUnload@SC2APIProtocol@@UEBA_KXZ ; SC2APIProtocol::ActionCargoPanelUnload::ByteSizeLong
PUBLIC	?_InternalParse@ActionCargoPanelUnload@SC2APIProtocol@@UEAAPEBDPEBDPEAVParseContext@internal@protobuf@google@@@Z ; SC2APIProtocol::ActionCargoPanelUnload::_InternalParse
PUBLIC	?_InternalSerialize@ActionCargoPanelUnload@SC2APIProtocol@@UEBAPEAEPEAEPEAVEpsCopyOutputStream@io@protobuf@google@@@Z ; SC2APIProtocol::ActionCargoPanelUnload::_InternalSerialize
PUBLIC	?GetCachedSize@ActionCargoPanelUnload@SC2APIProtocol@@UEBAHXZ ; SC2APIProtocol::ActionCargoPanelUnload::GetCachedSize
PUBLIC	?SetCachedSize@ActionCargoPanelUnload@SC2APIProtocol@@EEBAXH@Z ; SC2APIProtocol::ActionCargoPanelUnload::SetCachedSize
PUBLIC	?_class_data_@ActionCargoPanelUnload@SC2APIProtocol@@2UClassData@Message@protobuf@google@@B ; SC2APIProtocol::ActionCargoPanelUnload::_class_data_
PUBLIC	?GetClassData@ActionCargoPanelUnload@SC2APIProtocol@@UEBAPEBUClassData@Message@protobuf@google@@XZ ; SC2APIProtocol::ActionCargoPanelUnload::GetClassData
PUBLIC	?GetMetadata@ActionCargoPanelUnload@SC2APIProtocol@@UEBA?AUMetadata@protobuf@google@@XZ ; SC2APIProtocol::ActionCargoPanelUnload::GetMetadata
PUBLIC	??_7ActionCargoPanelUnload@SC2APIProtocol@@6B@	; SC2APIProtocol::ActionCargoPanelUnload::`vftable'
PUBLIC	??_GActionCargoPanelUnload@SC2APIProtocol@@UEAAPEAXI@Z ; SC2APIProtocol::ActionCargoPanelUnload::`scalar deleting destructor'
PUBLIC	?New@ActionProductionPanelRemoveFromQueue@SC2APIProtocol@@UEBAPEAV12@PEAVArena@protobuf@google@@@Z ; SC2APIProtocol::ActionProductionPanelRemoveFromQueue::New
PUBLIC	?MergeImpl@ActionProductionPanelRemoveFromQueue@SC2APIProtocol@@CAXAEAVMessage@protobuf@google@@AEBV345@@Z ; SC2APIProtocol::ActionProductionPanelRemoveFromQueue::MergeImpl
PUBLIC	?Clear@ActionProductionPanelRemoveFromQueue@SC2APIProtocol@@UEAAXXZ ; SC2APIProtocol::ActionProductionPanelRemoveFromQueue::Clear
PUBLIC	?IsInitialized@ActionProductionPanelRemoveFromQueue@SC2APIProtocol@@UEBA_NXZ ; SC2APIProtocol::ActionProductionPanelRemoveFromQueue::IsInitialized
PUBLIC	?ByteSizeLong@ActionProductionPanelRemoveFromQueue@SC2APIProtocol@@UEBA_KXZ ; SC2APIProtocol::ActionProductionPanelRemoveFromQueue::ByteSizeLong
PUBLIC	?_InternalParse@ActionProductionPanelRemoveFromQueue@SC2APIProtocol@@UEAAPEBDPEBDPEAVParseContext@internal@protobuf@google@@@Z ; SC2APIProtocol::ActionProductionPanelRemoveFromQueue::_InternalParse
PUBLIC	?_InternalSerialize@ActionProductionPanelRemoveFromQueue@SC2APIProtocol@@UEBAPEAEPEAEPEAVEpsCopyOutputStream@io@protobuf@google@@@Z ; SC2APIProtocol::ActionProductionPanelRemoveFromQueue::_InternalSerialize
PUBLIC	?GetCachedSize@ActionProductionPanelRemoveFromQueue@SC2APIProtocol@@UEBAHXZ ; SC2APIProtocol::ActionProductionPanelRemoveFromQueue::GetCachedSize
PUBLIC	?SetCachedSize@ActionProductionPanelRemoveFromQueue@SC2APIProtocol@@EEBAXH@Z ; SC2APIProtocol::ActionProductionPanelRemoveFromQueue::SetCachedSize
PUBLIC	?_class_data_@ActionProductionPanelRemoveFromQueue@SC2APIProtocol@@2UClassData@Message@protobuf@google@@B ; SC2APIProtocol::ActionProductionPanelRemoveFromQueue::_class_data_
PUBLIC	?GetClassData@ActionProductionPanelRemoveFromQueue@SC2APIProtocol@@UEBAPEBUClassData@Message@protobuf@google@@XZ ; SC2APIProtocol::ActionProductionPanelRemoveFromQueue::GetClassData
PUBLIC	?GetMetadata@ActionProductionPanelRemoveFromQueue@SC2APIProtocol@@UEBA?AUMetadata@protobuf@google@@XZ ; SC2APIProtocol::ActionProductionPanelRemoveFromQueue::GetMetadata
PUBLIC	??_7ActionProductionPanelRemoveFromQueue@SC2APIProtocol@@6B@ ; SC2APIProtocol::ActionProductionPanelRemoveFromQueue::`vftable'
PUBLIC	??_GActionProductionPanelRemoveFromQueue@SC2APIProtocol@@UEAAPEAXI@Z ; SC2APIProtocol::ActionProductionPanelRemoveFromQueue::`scalar deleting destructor'
PUBLIC	?New@ActionToggleAutocast@SC2APIProtocol@@UEBAPEAV12@PEAVArena@protobuf@google@@@Z ; SC2APIProtocol::ActionToggleAutocast::New
PUBLIC	?MergeImpl@ActionToggleAutocast@SC2APIProtocol@@CAXAEAVMessage@protobuf@google@@AEBV345@@Z ; SC2APIProtocol::ActionToggleAutocast::MergeImpl
PUBLIC	?Clear@ActionToggleAutocast@SC2APIProtocol@@UEAAXXZ ; SC2APIProtocol::ActionToggleAutocast::Clear
PUBLIC	?IsInitialized@ActionToggleAutocast@SC2APIProtocol@@UEBA_NXZ ; SC2APIProtocol::ActionToggleAutocast::IsInitialized
PUBLIC	?ByteSizeLong@ActionToggleAutocast@SC2APIProtocol@@UEBA_KXZ ; SC2APIProtocol::ActionToggleAutocast::ByteSizeLong
PUBLIC	?_InternalParse@ActionToggleAutocast@SC2APIProtocol@@UEAAPEBDPEBDPEAVParseContext@internal@protobuf@google@@@Z ; SC2APIProtocol::ActionToggleAutocast::_InternalParse
PUBLIC	?_InternalSerialize@ActionToggleAutocast@SC2APIProtocol@@UEBAPEAEPEAEPEAVEpsCopyOutputStream@io@protobuf@google@@@Z ; SC2APIProtocol::ActionToggleAutocast::_InternalSerialize
PUBLIC	?GetCachedSize@ActionToggleAutocast@SC2APIProtocol@@UEBAHXZ ; SC2APIProtocol::ActionToggleAutocast::GetCachedSize
PUBLIC	?SetCachedSize@ActionToggleAutocast@SC2APIProtocol@@EEBAXH@Z ; SC2APIProtocol::ActionToggleAutocast::SetCachedSize
PUBLIC	?_class_data_@ActionToggleAutocast@SC2APIProtocol@@2UClassData@Message@protobuf@google@@B ; SC2APIProtocol::ActionToggleAutocast::_class_data_
PUBLIC	?GetClassData@ActionToggleAutocast@SC2APIProtocol@@UEBAPEBUClassData@Message@protobuf@google@@XZ ; SC2APIProtocol::ActionToggleAutocast::GetClassData
PUBLIC	?GetMetadata@ActionToggleAutocast@SC2APIProtocol@@UEBA?AUMetadata@protobuf@google@@XZ ; SC2APIProtocol::ActionToggleAutocast::GetMetadata
PUBLIC	??_7ActionToggleAutocast@SC2APIProtocol@@6B@	; SC2APIProtocol::ActionToggleAutocast::`vftable'
PUBLIC	??_GActionToggleAutocast@SC2APIProtocol@@UEAAPEAXI@Z ; SC2APIProtocol::ActionToggleAutocast::`scalar deleting destructor'
PUBLIC	?IsInitialized@ZeroFieldsBase@internal@protobuf@google@@UEBA_NXZ ; google::protobuf::internal::ZeroFieldsBase::IsInitialized
PUBLIC	?GetCachedSize@ZeroFieldsBase@internal@protobuf@google@@UEBAHXZ ; google::protobuf::internal::ZeroFieldsBase::GetCachedSize
PUBLIC	?SetCachedSize@ZeroFieldsBase@internal@protobuf@google@@MEBAXH@Z ; google::protobuf::internal::ZeroFieldsBase::SetCachedSize
EXTRN	??_EControlGroup@SC2APIProtocol@@UEAAPEAXI@Z:PROC ; SC2APIProtocol::ControlGroup::`vector deleting destructor'
EXTRN	??_EUnitInfo@SC2APIProtocol@@UEAAPEAXI@Z:PROC	; SC2APIProtocol::UnitInfo::`vector deleting destructor'
EXTRN	??_EBuildItem@SC2APIProtocol@@UEAAPEAXI@Z:PROC	; SC2APIProtocol::BuildItem::`vector deleting destructor'
EXTRN	??_EActionUI@SC2APIProtocol@@UEAAPEAXI@Z:PROC	; SC2APIProtocol::ActionUI::`vector deleting destructor'
EXTRN	??_EActionControlGroup@SC2APIProtocol@@UEAAPEAXI@Z:PROC ; SC2APIProtocol::ActionControlGroup::`vector deleting destructor'
EXTRN	??_EActionSelectArmy@SC2APIProtocol@@UEAAPEAXI@Z:PROC ; SC2APIProtocol::ActionSelectArmy::`vector deleting destructor'
EXTRN	??_EActionSelectWarpGates@SC2APIProtocol@@UEAAPEAXI@Z:PROC ; SC2APIProtocol::ActionSelectWarpGates::`vector deleting destructor'
EXTRN	??_EActionSelectLarva@SC2APIProtocol@@UEAAPEAXI@Z:PROC ; SC2APIProtocol::ActionSelectLarva::`vector deleting destructor'
EXTRN	??_EActionSelectIdleWorker@SC2APIProtocol@@UEAAPEAXI@Z:PROC ; SC2APIProtocol::ActionSelectIdleWorker::`vector deleting destructor'
EXTRN	??_EActionMultiPanel@SC2APIProtocol@@UEAAPEAXI@Z:PROC ; SC2APIProtocol::ActionMultiPanel::`vector deleting destructor'
EXTRN	??_EActionCargoPanelUnload@SC2APIProtocol@@UEAAPEAXI@Z:PROC ; SC2APIProtocol::ActionCargoPanelUnload::`vector deleting destructor'
EXTRN	??_EActionProductionPanelRemoveFromQueue@SC2APIProtocol@@UEAAPEAXI@Z:PROC ; SC2APIProtocol::ActionProductionPanelRemoveFromQueue::`vector deleting destructor'
EXTRN	?MergeFrom@Message@protobuf@google@@UEAAXAEBV123@@Z:PROC ; google::protobuf::Message::MergeFrom
EXTRN	?InitializationErrorString@Message@protobuf@google@@UEBA?AV?$basic_string@DU?$char_traits@D@std@@V?$allocator@D@2@@std@@XZ:PROC ; google::protobuf::Message::InitializationErrorString
EXTRN	?SpaceUsedLong@Message@protobuf@google@@UEBA_KXZ:PROC ; google::protobuf::Message::SpaceUsedLong
EXTRN	?GetTypeName@Message@protobuf@google@@UEBA?AV?$basic_string@DU?$char_traits@D@std@@V?$allocator@D@2@@std@@XZ:PROC ; google::protobuf::Message::GetTypeName
EXTRN	?CheckTypeAndMergeFrom@Message@protobuf@google@@UEAAXAEBVMessageLite@23@@Z:PROC ; google::protobuf::Message::CheckTypeAndMergeFrom
EXTRN	?CopyWithSourceCheck@Message@protobuf@google@@KAXAEAV123@AEBV123@@Z:PROC ; google::protobuf::Message::CopyWithSourceCheck
EXTRN	??_EActionToggleAutocast@SC2APIProtocol@@UEAAPEAXI@Z:PROC ; SC2APIProtocol::ActionToggleAutocast::`vector deleting destructor'
EXTRN	??_7type_info@@6B@:BYTE				; type_info::`vftable'
EXTRN	?Clear@ZeroFieldsBase@internal@protobuf@google@@UEAAXXZ:PROC ; google::protobuf::internal::ZeroFieldsBase::Clear
EXTRN	?ByteSizeLong@ZeroFieldsBase@internal@protobuf@google@@UEBA_KXZ:PROC ; google::protobuf::internal::ZeroFieldsBase::ByteSizeLong
EXTRN	?_InternalParse@ZeroFieldsBase@internal@protobuf@google@@UEAAPEBDPEBDPEAVParseContext@234@@Z:PROC ; google::protobuf::internal::ZeroFieldsBase::_InternalParse
EXTRN	?_InternalSerialize@ZeroFieldsBase@internal@protobuf@google@@UEBAPEAEPEAEPEAVEpsCopyOutputStream@io@34@@Z:PROC ; google::protobuf::internal::ZeroFieldsBase::_InternalSerialize
EXTRN	?MergeImpl@ZeroFieldsBase@internal@protobuf@google@@KAXAEAVMessage@34@AEBV534@@Z:PROC ; google::protobuf::internal::ZeroFieldsBase::MergeImpl
EXTRN	?CopyImpl@ZeroFieldsBase@internal@protobuf@google@@KAXAEAVMessage@34@AEBV534@@Z:PROC ; google::protobuf::internal::ZeroFieldsBase::CopyImpl
_BSS	SEGMENT
?file_level_metadata_s2clientprotocol_2fui_2eproto@@3PAUMetadata@protobuf@google@@A DB 0120H DUP (?) ; file_level_metadata_s2clientprotocol_2fui_2eproto
?file_level_enum_descriptors_s2clientprotocol_2fui_2eproto@@3PAPEBVEnumDescriptor@protobuf@google@@A DQ 03H DUP (?) ; file_level_enum_descriptors_s2clientprotocol_2fui_2eproto
?descriptor_table_s2clientprotocol_2fui_2eproto_once@@3Uonce_flag@std@@A DQ 01H DUP (?) ; descriptor_table_s2clientprotocol_2fui_2eproto_once
_BSS	ENDS
;	COMDAT ??_7ActionToggleAutocast@SC2APIProtocol@@6B@
CONST	SEGMENT
??_7ActionToggleAutocast@SC2APIProtocol@@6B@ DQ FLAT:??_R4ActionToggleAutocast@SC2APIProtocol@@6B@ ; SC2APIProtocol::ActionToggleAutocast::`vftable'
	DQ	FLAT:??_EActionToggleAutocast@SC2APIProtocol@@UEAAPEAXI@Z
	DQ	FLAT:?GetTypeName@Message@protobuf@google@@UEBA?AV?$basic_string@DU?$char_traits@D@std@@V?$allocator@D@2@@std@@XZ
	DQ	FLAT:?New@ActionToggleAutocast@SC2APIProtocol@@UEBAPEAV12@PEAVArena@protobuf@google@@@Z
	DQ	FLAT:?Clear@ActionToggleAutocast@SC2APIProtocol@@UEAAXXZ
	DQ	FLAT:?IsInitialized@ActionToggleAutocast@SC2APIProtocol@@UEBA_NXZ
	DQ	FLAT:?InitializationErrorString@Message@protobuf@google@@UEBA?AV?$basic_string@DU?$char_traits@D@std@@V?$allocator@D@2@@std@@XZ
	DQ	FLAT:?CheckTypeAndMergeFrom@Message@protobuf@google@@UEAAXAEBVMessageLite@23@@Z
	DQ	FLAT:?ByteSizeLong@ActionToggleAutocast@SC2APIProtocol@@UEBA_KXZ
	DQ	FLAT:?GetCachedSize@ActionToggleAutocast@SC2APIProtocol@@UEBAHXZ
	DQ	FLAT:?_InternalParse@ActionToggleAutocast@SC2APIProtocol@@UEAAPEBDPEBDPEAVParseContext@internal@protobuf@google@@@Z
	DQ	FLAT:?OnDemandRegisterArenaDtor@MessageLite@protobuf@google@@UEAAXPEAVArena@23@@Z
	DQ	FLAT:?_InternalSerialize@ActionToggleAutocast@SC2APIProtocol@@UEBAPEAEPEAEPEAVEpsCopyOutputStream@io@protobuf@google@@@Z
	DQ	FLAT:?MergeFrom@Message@protobuf@google@@UEAAXAEBV123@@Z
	DQ	FLAT:?SpaceUsedLong@Message@protobuf@google@@UEBA_KXZ
	DQ	FLAT:?SetCachedSize@ActionToggleAutocast@SC2APIProtocol@@EEBAXH@Z
	DQ	FLAT:?GetMetadata@ActionToggleAutocast@SC2APIProtocol@@UEBA?AUMetadata@protobuf@google@@XZ
	DQ	FLAT:?GetClassData@ActionToggleAutocast@SC2APIProtocol@@UEBAPEBUClassData@Message@protobuf@google@@XZ
CONST	ENDS
;	COMDAT ??_7ActionProductionPanelRemoveFromQueue@SC2APIProtocol@@6B@
CONST	SEGMENT
??_7ActionProductionPanelRemoveFromQueue@SC2APIProtocol@@6B@ DQ FLAT:??_R4ActionProductionPanelRemoveFromQueue@SC2APIProtocol@@6B@ ; SC2APIProtocol::ActionProductionPanelRemoveFromQueue::`vftable'
	DQ	FLAT:??_EActionProductionPanelRemoveFromQueue@SC2APIProtocol@@UEAAPEAXI@Z
	DQ	FLAT:?GetTypeName@Message@protobuf@google@@UEBA?AV?$basic_string@DU?$char_traits@D@std@@V?$allocator@D@2@@std@@XZ
	DQ	FLAT:?New@ActionProductionPanelRemoveFromQueue@SC2APIProtocol@@UEBAPEAV12@PEAVArena@protobuf@google@@@Z
	DQ	FLAT:?Clear@ActionProductionPanelRemoveFromQueue@SC2APIProtocol@@UEAAXXZ
	DQ	FLAT:?IsInitialized@ActionProductionPanelRemoveFromQueue@SC2APIProtocol@@UEBA_NXZ
	DQ	FLAT:?InitializationErrorString@Message@protobuf@google@@UEBA?AV?$basic_string@DU?$char_traits@D@std@@V?$allocator@D@2@@std@@XZ
	DQ	FLAT:?CheckTypeAndMergeFrom@Message@protobuf@google@@UEAAXAEBVMessageLite@23@@Z
	DQ	FLAT:?ByteSizeLong@ActionProductionPanelRemoveFromQueue@SC2APIProtocol@@UEBA_KXZ
	DQ	FLAT:?GetCachedSize@ActionProductionPanelRemoveFromQueue@SC2APIProtocol@@UEBAHXZ
	DQ	FLAT:?_InternalParse@ActionProductionPanelRemoveFromQueue@SC2APIProtocol@@UEAAPEBDPEBDPEAVParseContext@internal@protobuf@google@@@Z
	DQ	FLAT:?OnDemandRegisterArenaDtor@MessageLite@protobuf@google@@UEAAXPEAVArena@23@@Z
	DQ	FLAT:?_InternalSerialize@ActionProductionPanelRemoveFromQueue@SC2APIProtocol@@UEBAPEAEPEAEPEAVEpsCopyOutputStream@io@protobuf@google@@@Z
	DQ	FLAT:?MergeFrom@Message@protobuf@google@@UEAAXAEBV123@@Z
	DQ	FLAT:?SpaceUsedLong@Message@protobuf@google@@UEBA_KXZ
	DQ	FLAT:?SetCachedSize@ActionProductionPanelRemoveFromQueue@SC2APIProtocol@@EEBAXH@Z
	DQ	FLAT:?GetMetadata@ActionProductionPanelRemoveFromQueue@SC2APIProtocol@@UEBA?AUMetadata@protobuf@google@@XZ
	DQ	FLAT:?GetClassData@ActionProductionPanelRemoveFromQueue@SC2APIProtocol@@UEBAPEBUClassData@Message@protobuf@google@@XZ
CONST	ENDS
;	COMDAT ??_7ActionCargoPanelUnload@SC2APIProtocol@@6B@
CONST	SEGMENT
??_7ActionCargoPanelUnload@SC2APIProtocol@@6B@ DQ FLAT:??_R4ActionCargoPanelUnload@SC2APIProtocol@@6B@ ; SC2APIProtocol::ActionCargoPanelUnload::`vftable'
	DQ	FLAT:??_EActionCargoPanelUnload@SC2APIProtocol@@UEAAPEAXI@Z
	DQ	FLAT:?GetTypeName@Message@protobuf@google@@UEBA?AV?$basic_string@DU?$char_traits@D@std@@V?$allocator@D@2@@std@@XZ
	DQ	FLAT:?New@ActionCargoPanelUnload@SC2APIProtocol@@UEBAPEAV12@PEAVArena@protobuf@google@@@Z
	DQ	FLAT:?Clear@ActionCargoPanelUnload@SC2APIProtocol@@UEAAXXZ
	DQ	FLAT:?IsInitialized@ActionCargoPanelUnload@SC2APIProtocol@@UEBA_NXZ
	DQ	FLAT:?InitializationErrorString@Message@protobuf@google@@UEBA?AV?$basic_string@DU?$char_traits@D@std@@V?$allocator@D@2@@std@@XZ
	DQ	FLAT:?CheckTypeAndMergeFrom@Message@protobuf@google@@UEAAXAEBVMessageLite@23@@Z
	DQ	FLAT:?ByteSizeLong@ActionCargoPanelUnload@SC2APIProtocol@@UEBA_KXZ
	DQ	FLAT:?GetCachedSize@ActionCargoPanelUnload@SC2APIProtocol@@UEBAHXZ
	DQ	FLAT:?_InternalParse@ActionCargoPanelUnload@SC2APIProtocol@@UEAAPEBDPEBDPEAVParseContext@internal@protobuf@google@@@Z
	DQ	FLAT:?OnDemandRegisterArenaDtor@MessageLite@protobuf@google@@UEAAXPEAVArena@23@@Z
	DQ	FLAT:?_InternalSerialize@ActionCargoPanelUnload@SC2APIProtocol@@UEBAPEAEPEAEPEAVEpsCopyOutputStream@io@protobuf@google@@@Z
	DQ	FLAT:?MergeFrom@Message@protobuf@google@@UEAAXAEBV123@@Z
	DQ	FLAT:?SpaceUsedLong@Message@protobuf@google@@UEBA_KXZ
	DQ	FLAT:?SetCachedSize@ActionCargoPanelUnload@SC2APIProtocol@@EEBAXH@Z
	DQ	FLAT:?GetMetadata@ActionCargoPanelUnload@SC2APIProtocol@@UEBA?AUMetadata@protobuf@google@@XZ
	DQ	FLAT:?GetClassData@ActionCargoPanelUnload@SC2APIProtocol@@UEBAPEBUClassData@Message@protobuf@google@@XZ
CONST	ENDS
;	COMDAT ??_7ActionMultiPanel@SC2APIProtocol@@6B@
CONST	SEGMENT
??_7ActionMultiPanel@SC2APIProtocol@@6B@ DQ FLAT:??_R4ActionMultiPanel@SC2APIProtocol@@6B@ ; SC2APIProtocol::ActionMultiPanel::`vftable'
	DQ	FLAT:??_EActionMultiPanel@SC2APIProtocol@@UEAAPEAXI@Z
	DQ	FLAT:?GetTypeName@Message@protobuf@google@@UEBA?AV?$basic_string@DU?$char_traits@D@std@@V?$allocator@D@2@@std@@XZ
	DQ	FLAT:?New@ActionMultiPanel@SC2APIProtocol@@UEBAPEAV12@PEAVArena@protobuf@google@@@Z
	DQ	FLAT:?Clear@ActionMultiPanel@SC2APIProtocol@@UEAAXXZ
	DQ	FLAT:?IsInitialized@ActionMultiPanel@SC2APIProtocol@@UEBA_NXZ
	DQ	FLAT:?InitializationErrorString@Message@protobuf@google@@UEBA?AV?$basic_string@DU?$char_traits@D@std@@V?$allocator@D@2@@std@@XZ
	DQ	FLAT:?CheckTypeAndMergeFrom@Message@protobuf@google@@UEAAXAEBVMessageLite@23@@Z
	DQ	FLAT:?ByteSizeLong@ActionMultiPanel@SC2APIProtocol@@UEBA_KXZ
	DQ	FLAT:?GetCachedSize@ActionMultiPanel@SC2APIProtocol@@UEBAHXZ
	DQ	FLAT:?_InternalParse@ActionMultiPanel@SC2APIProtocol@@UEAAPEBDPEBDPEAVParseContext@internal@protobuf@google@@@Z
	DQ	FLAT:?OnDemandRegisterArenaDtor@MessageLite@protobuf@google@@UEAAXPEAVArena@23@@Z
	DQ	FLAT:?_InternalSerialize@ActionMultiPanel@SC2APIProtocol@@UEBAPEAEPEAEPEAVEpsCopyOutputStream@io@protobuf@google@@@Z
	DQ	FLAT:?MergeFrom@Message@protobuf@google@@UEAAXAEBV123@@Z
	DQ	FLAT:?SpaceUsedLong@Message@protobuf@google@@UEBA_KXZ
	DQ	FLAT:?SetCachedSize@ActionMultiPanel@SC2APIProtocol@@EEBAXH@Z
	DQ	FLAT:?GetMetadata@ActionMultiPanel@SC2APIProtocol@@UEBA?AUMetadata@protobuf@google@@XZ
	DQ	FLAT:?GetClassData@ActionMultiPanel@SC2APIProtocol@@UEBAPEBUClassData@Message@protobuf@google@@XZ
CONST	ENDS
;	COMDAT ??_7ActionSelectIdleWorker@SC2APIProtocol@@6B@
CONST	SEGMENT
??_7ActionSelectIdleWorker@SC2APIProtocol@@6B@ DQ FLAT:??_R4ActionSelectIdleWorker@SC2APIProtocol@@6B@ ; SC2APIProtocol::ActionSelectIdleWorker::`vftable'
	DQ	FLAT:??_EActionSelectIdleWorker@SC2APIProtocol@@UEAAPEAXI@Z
	DQ	FLAT:?GetTypeName@Message@protobuf@google@@UEBA?AV?$basic_string@DU?$char_traits@D@std@@V?$allocator@D@2@@std@@XZ
	DQ	FLAT:?New@ActionSelectIdleWorker@SC2APIProtocol@@UEBAPEAV12@PEAVArena@protobuf@google@@@Z
	DQ	FLAT:?Clear@ActionSelectIdleWorker@SC2APIProtocol@@UEAAXXZ
	DQ	FLAT:?IsInitialized@ActionSelectIdleWorker@SC2APIProtocol@@UEBA_NXZ
	DQ	FLAT:?InitializationErrorString@Message@protobuf@google@@UEBA?AV?$basic_string@DU?$char_traits@D@std@@V?$allocator@D@2@@std@@XZ
	DQ	FLAT:?CheckTypeAndMergeFrom@Message@protobuf@google@@UEAAXAEBVMessageLite@23@@Z
	DQ	FLAT:?ByteSizeLong@ActionSelectIdleWorker@SC2APIProtocol@@UEBA_KXZ
	DQ	FLAT:?GetCachedSize@ActionSelectIdleWorker@SC2APIProtocol@@UEBAHXZ
	DQ	FLAT:?_InternalParse@ActionSelectIdleWorker@SC2APIProtocol@@UEAAPEBDPEBDPEAVParseContext@internal@protobuf@google@@@Z
	DQ	FLAT:?OnDemandRegisterArenaDtor@MessageLite@protobuf@google@@UEAAXPEAVArena@23@@Z
	DQ	FLAT:?_InternalSerialize@ActionSelectIdleWorker@SC2APIProtocol@@UEBAPEAEPEAEPEAVEpsCopyOutputStream@io@protobuf@google@@@Z
	DQ	FLAT:?MergeFrom@Message@protobuf@google@@UEAAXAEBV123@@Z
	DQ	FLAT:?SpaceUsedLong@Message@protobuf@google@@UEBA_KXZ
	DQ	FLAT:?SetCachedSize@ActionSelectIdleWorker@SC2APIProtocol@@EEBAXH@Z
	DQ	FLAT:?GetMetadata@ActionSelectIdleWorker@SC2APIProtocol@@UEBA?AUMetadata@protobuf@google@@XZ
	DQ	FLAT:?GetClassData@ActionSelectIdleWorker@SC2APIProtocol@@UEBAPEBUClassData@Message@protobuf@google@@XZ
CONST	ENDS
;	COMDAT ??_7ActionSelectLarva@SC2APIProtocol@@6B@
CONST	SEGMENT
??_7ActionSelectLarva@SC2APIProtocol@@6B@ DQ FLAT:??_R4ActionSelectLarva@SC2APIProtocol@@6B@ ; SC2APIProtocol::ActionSelectLarva::`vftable'
	DQ	FLAT:??_EActionSelectLarva@SC2APIProtocol@@UEAAPEAXI@Z
	DQ	FLAT:?GetTypeName@Message@protobuf@google@@UEBA?AV?$basic_string@DU?$char_traits@D@std@@V?$allocator@D@2@@std@@XZ
	DQ	FLAT:?New@ActionSelectLarva@SC2APIProtocol@@UEBAPEAV12@PEAVArena@protobuf@google@@@Z
	DQ	FLAT:?Clear@ZeroFieldsBase@internal@protobuf@google@@UEAAXXZ
	DQ	FLAT:?IsInitialized@ZeroFieldsBase@internal@protobuf@google@@UEBA_NXZ
	DQ	FLAT:?InitializationErrorString@Message@protobuf@google@@UEBA?AV?$basic_string@DU?$char_traits@D@std@@V?$allocator@D@2@@std@@XZ
	DQ	FLAT:?CheckTypeAndMergeFrom@Message@protobuf@google@@UEAAXAEBVMessageLite@23@@Z
	DQ	FLAT:?ByteSizeLong@ZeroFieldsBase@internal@protobuf@google@@UEBA_KXZ
	DQ	FLAT:?GetCachedSize@ZeroFieldsBase@internal@protobuf@google@@UEBAHXZ
	DQ	FLAT:?_InternalParse@ZeroFieldsBase@internal@protobuf@google@@UEAAPEBDPEBDPEAVParseContext@234@@Z
	DQ	FLAT:?OnDemandRegisterArenaDtor@MessageLite@protobuf@google@@UEAAXPEAVArena@23@@Z
	DQ	FLAT:?_InternalSerialize@ZeroFieldsBase@internal@protobuf@google@@UEBAPEAEPEAEPEAVEpsCopyOutputStream@io@34@@Z
	DQ	FLAT:?MergeFrom@Message@protobuf@google@@UEAAXAEBV123@@Z
	DQ	FLAT:?SpaceUsedLong@Message@protobuf@google@@UEBA_KXZ
	DQ	FLAT:?SetCachedSize@ZeroFieldsBase@internal@protobuf@google@@MEBAXH@Z
	DQ	FLAT:?GetMetadata@ActionSelectLarva@SC2APIProtocol@@UEBA?AUMetadata@protobuf@google@@XZ
	DQ	FLAT:?GetClassData@ActionSelectLarva@SC2APIProtocol@@UEBAPEBUClassData@Message@protobuf@google@@XZ
CONST	ENDS
;	COMDAT ??_R1A@?0A@EA@UnitInfo@SC2APIProtocol@@8
rdata$r	SEGMENT
??_R1A@?0A@EA@UnitInfo@SC2APIProtocol@@8 DD imagerel ??_R0?AVUnitInfo@SC2APIProtocol@@@8 ; SC2APIProtocol::UnitInfo::`RTTI Base Class Descriptor at (0,-1,0,64)'
	DD	02H
	DD	00H
	DD	0ffffffffH
	DD	00H
	DD	040H
	DD	imagerel ??_R3UnitInfo@SC2APIProtocol@@8
rdata$r	ENDS
;	COMDAT ??_R2UnitInfo@SC2APIProtocol@@8
rdata$r	SEGMENT
??_R2UnitInfo@SC2APIProtocol@@8 DD imagerel ??_R1A@?0A@EA@UnitInfo@SC2APIProtocol@@8 ; SC2APIProtocol::UnitInfo::`RTTI Base Class Array'
	DD	imagerel ??_R1A@?0A@EA@Message@protobuf@google@@8
	DD	imagerel ??_R1A@?0A@EA@MessageLite@protobuf@google@@8
	ORG $+3
rdata$r	ENDS
;	COMDAT ??_R3UnitInfo@SC2APIProtocol@@8
rdata$r	SEGMENT
??_R3UnitInfo@SC2APIProtocol@@8 DD 00H			; SC2APIProtocol::UnitInfo::`RTTI Class Hierarchy Descriptor'
	DD	00H
	DD	03H
	DD	imagerel ??_R2UnitInfo@SC2APIProtocol@@8
rdata$r	ENDS
;	COMDAT ??_R4UnitInfo@SC2APIProtocol@@6B@
rdata$r	SEGMENT
??_R4UnitInfo@SC2APIProtocol@@6B@ DD 01H		; SC2APIProtocol::UnitInfo::`RTTI Complete Object Locator'
	DD	00H
	DD	00H
	DD	imagerel ??_R0?AVUnitInfo@SC2APIProtocol@@@8
	DD	imagerel ??_R3UnitInfo@SC2APIProtocol@@8
	DD	imagerel ??_R4UnitInfo@SC2APIProtocol@@6B@
rdata$r	ENDS
;	COMDAT ??_R1A@?0A@EA@ControlGroup@SC2APIProtocol@@8
rdata$r	SEGMENT
??_R1A@?0A@EA@ControlGroup@SC2APIProtocol@@8 DD imagerel ??_R0?AVControlGroup@SC2APIProtocol@@@8 ; SC2APIProtocol::ControlGroup::`RTTI Base Class Descriptor at (0,-1,0,64)'
	DD	02H
	DD	00H
	DD	0ffffffffH
	DD	00H
	DD	040H
	DD	imagerel ??_R3ControlGroup@SC2APIProtocol@@8
rdata$r	ENDS
;	COMDAT ??_R2ControlGroup@SC2APIProtocol@@8
rdata$r	SEGMENT
??_R2ControlGroup@SC2APIProtocol@@8 DD imagerel ??_R1A@?0A@EA@ControlGroup@SC2APIProtocol@@8 ; SC2APIProtocol::ControlGroup::`RTTI Base Class Array'
	DD	imagerel ??_R1A@?0A@EA@Message@protobuf@google@@8
	DD	imagerel ??_R1A@?0A@EA@MessageLite@protobuf@google@@8
	ORG $+3
rdata$r	ENDS
;	COMDAT ??_R3ControlGroup@SC2APIProtocol@@8
rdata$r	SEGMENT
??_R3ControlGroup@SC2APIProtocol@@8 DD 00H		; SC2APIProtocol::ControlGroup::`RTTI Class Hierarchy Descriptor'
	DD	00H
	DD	03H
	DD	imagerel ??_R2ControlGroup@SC2APIProtocol@@8
rdata$r	ENDS
;	COMDAT ??_R4ControlGroup@SC2APIProtocol@@6B@
rdata$r	SEGMENT
??_R4ControlGroup@SC2APIProtocol@@6B@ DD 01H		; SC2APIProtocol::ControlGroup::`RTTI Complete Object Locator'
	DD	00H
	DD	00H
	DD	imagerel ??_R0?AVControlGroup@SC2APIProtocol@@@8
	DD	imagerel ??_R3ControlGroup@SC2APIProtocol@@8
	DD	imagerel ??_R4ControlGroup@SC2APIProtocol@@6B@
rdata$r	ENDS
;	COMDAT ??_R1A@?0A@EA@BuildItem@SC2APIProtocol@@8
rdata$r	SEGMENT
??_R1A@?0A@EA@BuildItem@SC2APIProtocol@@8 DD imagerel ??_R0?AVBuildItem@SC2APIProtocol@@@8 ; SC2APIProtocol::BuildItem::`RTTI Base Class Descriptor at (0,-1,0,64)'
	DD	02H
	DD	00H
	DD	0ffffffffH
	DD	00H
	DD	040H
	DD	imagerel ??_R3BuildItem@SC2APIProtocol@@8
rdata$r	ENDS
;	COMDAT ??_R2BuildItem@SC2APIProtocol@@8
rdata$r	SEGMENT
??_R2BuildItem@SC2APIProtocol@@8 DD imagerel ??_R1A@?0A@EA@BuildItem@SC2APIProtocol@@8 ; SC2APIProtocol::BuildItem::`RTTI Base Class Array'
	DD	imagerel ??_R1A@?0A@EA@Message@protobuf@google@@8
	DD	imagerel ??_R1A@?0A@EA@MessageLite@protobuf@google@@8
	ORG $+3
rdata$r	ENDS
;	COMDAT ??_R3BuildItem@SC2APIProtocol@@8
rdata$r	SEGMENT
??_R3BuildItem@SC2APIProtocol@@8 DD 00H			; SC2APIProtocol::BuildItem::`RTTI Class Hierarchy Descriptor'
	DD	00H
	DD	03H
	DD	imagerel ??_R2BuildItem@SC2APIProtocol@@8
rdata$r	ENDS
;	COMDAT ??_R4BuildItem@SC2APIProtocol@@6B@
rdata$r	SEGMENT
??_R4BuildItem@SC2APIProtocol@@6B@ DD 01H		; SC2APIProtocol::BuildItem::`RTTI Complete Object Locator'
	DD	00H
	DD	00H
	DD	imagerel ??_R0?AVBuildItem@SC2APIProtocol@@@8
	DD	imagerel ??_R3BuildItem@SC2APIProtocol@@8
	DD	imagerel ??_R4BuildItem@SC2APIProtocol@@6B@
rdata$r	ENDS
;	COMDAT ??_R1A@?0A@EA@ActionUI@SC2APIProtocol@@8
rdata$r	SEGMENT
??_R1A@?0A@EA@ActionUI@SC2APIProtocol@@8 DD imagerel ??_R0?AVActionUI@SC2APIProtocol@@@8 ; SC2APIProtocol::ActionUI::`RTTI Base Class Descriptor at (0,-1,0,64)'
	DD	02H
	DD	00H
	DD	0ffffffffH
	DD	00H
	DD	040H
	DD	imagerel ??_R3ActionUI@SC2APIProtocol@@8
rdata$r	ENDS
;	COMDAT ??_R2ActionUI@SC2APIProtocol@@8
rdata$r	SEGMENT
??_R2ActionUI@SC2APIProtocol@@8 DD imagerel ??_R1A@?0A@EA@ActionUI@SC2APIProtocol@@8 ; SC2APIProtocol::ActionUI::`RTTI Base Class Array'
	DD	imagerel ??_R1A@?0A@EA@Message@protobuf@google@@8
	DD	imagerel ??_R1A@?0A@EA@MessageLite@protobuf@google@@8
	ORG $+3
rdata$r	ENDS
;	COMDAT ??_R3ActionUI@SC2APIProtocol@@8
rdata$r	SEGMENT
??_R3ActionUI@SC2APIProtocol@@8 DD 00H			; SC2APIProtocol::ActionUI::`RTTI Class Hierarchy Descriptor'
	DD	00H
	DD	03H
	DD	imagerel ??_R2ActionUI@SC2APIProtocol@@8
rdata$r	ENDS
;	COMDAT ??_R4ActionUI@SC2APIProtocol@@6B@
rdata$r	SEGMENT
??_R4ActionUI@SC2APIProtocol@@6B@ DD 01H		; SC2APIProtocol::ActionUI::`RTTI Complete Object Locator'
	DD	00H
	DD	00H
	DD	imagerel ??_R0?AVActionUI@SC2APIProtocol@@@8
	DD	imagerel ??_R3ActionUI@SC2APIProtocol@@8
	DD	imagerel ??_R4ActionUI@SC2APIProtocol@@6B@
rdata$r	ENDS
;	COMDAT ??_R1A@?0A@EA@ActionToggleAutocast@SC2APIProtocol@@8
rdata$r	SEGMENT
??_R1A@?0A@EA@ActionToggleAutocast@SC2APIProtocol@@8 DD imagerel ??_R0?AVActionToggleAutocast@SC2APIProtocol@@@8 ; SC2APIProtocol::ActionToggleAutocast::`RTTI Base Class Descriptor at (0,-1,0,64)'
	DD	02H
	DD	00H
	DD	0ffffffffH
	DD	00H
	DD	040H
	DD	imagerel ??_R3ActionToggleAutocast@SC2APIProtocol@@8
rdata$r	ENDS
;	COMDAT ??_R2ActionToggleAutocast@SC2APIProtocol@@8
rdata$r	SEGMENT
??_R2ActionToggleAutocast@SC2APIProtocol@@8 DD imagerel ??_R1A@?0A@EA@ActionToggleAutocast@SC2APIProtocol@@8 ; SC2APIProtocol::ActionToggleAutocast::`RTTI Base Class Array'
	DD	imagerel ??_R1A@?0A@EA@Message@protobuf@google@@8
	DD	imagerel ??_R1A@?0A@EA@MessageLite@protobuf@google@@8
	ORG $+3
rdata$r	ENDS
;	COMDAT ??_R3ActionToggleAutocast@SC2APIProtocol@@8
rdata$r	SEGMENT
??_R3ActionToggleAutocast@SC2APIProtocol@@8 DD 00H	; SC2APIProtocol::ActionToggleAutocast::`RTTI Class Hierarchy Descriptor'
	DD	00H
	DD	03H
	DD	imagerel ??_R2ActionToggleAutocast@SC2APIProtocol@@8
rdata$r	ENDS
;	COMDAT ??_R4ActionToggleAutocast@SC2APIProtocol@@6B@
rdata$r	SEGMENT
??_R4ActionToggleAutocast@SC2APIProtocol@@6B@ DD 01H	; SC2APIProtocol::ActionToggleAutocast::`RTTI Complete Object Locator'
	DD	00H
	DD	00H
	DD	imagerel ??_R0?AVActionToggleAutocast@SC2APIProtocol@@@8
	DD	imagerel ??_R3ActionToggleAutocast@SC2APIProtocol@@8
	DD	imagerel ??_R4ActionToggleAutocast@SC2APIProtocol@@6B@
rdata$r	ENDS
;	COMDAT ??_R1A@?0A@EA@ActionSelectWarpGates@SC2APIProtocol@@8
rdata$r	SEGMENT
??_R1A@?0A@EA@ActionSelectWarpGates@SC2APIProtocol@@8 DD imagerel ??_R0?AVActionSelectWarpGates@SC2APIProtocol@@@8 ; SC2APIProtocol::ActionSelectWarpGates::`RTTI Base Class Descriptor at (0,-1,0,64)'
	DD	02H
	DD	00H
	DD	0ffffffffH
	DD	00H
	DD	040H
	DD	imagerel ??_R3ActionSelectWarpGates@SC2APIProtocol@@8
rdata$r	ENDS
;	COMDAT ??_R2ActionSelectWarpGates@SC2APIProtocol@@8
rdata$r	SEGMENT
??_R2ActionSelectWarpGates@SC2APIProtocol@@8 DD imagerel ??_R1A@?0A@EA@ActionSelectWarpGates@SC2APIProtocol@@8 ; SC2APIProtocol::ActionSelectWarpGates::`RTTI Base Class Array'
	DD	imagerel ??_R1A@?0A@EA@Message@protobuf@google@@8
	DD	imagerel ??_R1A@?0A@EA@MessageLite@protobuf@google@@8
	ORG $+3
rdata$r	ENDS
;	COMDAT ??_7ActionSelectWarpGates@SC2APIProtocol@@6B@
CONST	SEGMENT
??_7ActionSelectWarpGates@SC2APIProtocol@@6B@ DQ FLAT:??_R4ActionSelectWarpGates@SC2APIProtocol@@6B@ ; SC2APIProtocol::ActionSelectWarpGates::`vftable'
	DQ	FLAT:??_EActionSelectWarpGates@SC2APIProtocol@@UEAAPEAXI@Z
	DQ	FLAT:?GetTypeName@Message@protobuf@google@@UEBA?AV?$basic_string@DU?$char_traits@D@std@@V?$allocator@D@2@@std@@XZ
	DQ	FLAT:?New@ActionSelectWarpGates@SC2APIProtocol@@UEBAPEAV12@PEAVArena@protobuf@google@@@Z
	DQ	FLAT:?Clear@ActionSelectWarpGates@SC2APIProtocol@@UEAAXXZ
	DQ	FLAT:?IsInitialized@ActionSelectWarpGates@SC2APIProtocol@@UEBA_NXZ
	DQ	FLAT:?InitializationErrorString@Message@protobuf@google@@UEBA?AV?$basic_string@DU?$char_traits@D@std@@V?$allocator@D@2@@std@@XZ
	DQ	FLAT:?CheckTypeAndMergeFrom@Message@protobuf@google@@UEAAXAEBVMessageLite@23@@Z
	DQ	FLAT:?ByteSizeLong@ActionSelectWarpGates@SC2APIProtocol@@UEBA_KXZ
	DQ	FLAT:?GetCachedSize@ActionSelectWarpGates@SC2APIProtocol@@UEBAHXZ
	DQ	FLAT:?_InternalParse@ActionSelectWarpGates@SC2APIProtocol@@UEAAPEBDPEBDPEAVParseContext@internal@protobuf@google@@@Z
	DQ	FLAT:?OnDemandRegisterArenaDtor@MessageLite@protobuf@google@@UEAAXPEAVArena@23@@Z
	DQ	FLAT:?_InternalSerialize@ActionSelectWarpGates@SC2APIProtocol@@UEBAPEAEPEAEPEAVEpsCopyOutputStream@io@protobuf@google@@@Z
	DQ	FLAT:?MergeFrom@Message@protobuf@google@@UEAAXAEBV123@@Z
	DQ	FLAT:?SpaceUsedLong@Message@protobuf@google@@UEBA_KXZ
	DQ	FLAT:?SetCachedSize@ActionSelectWarpGates@SC2APIProtocol@@EEBAXH@Z
	DQ	FLAT:?GetMetadata@ActionSelectWarpGates@SC2APIProtocol@@UEBA?AUMetadata@protobuf@google@@XZ
	DQ	FLAT:?GetClassData@ActionSelectWarpGates@SC2APIProtocol@@UEBAPEBUClassData@Message@protobuf@google@@XZ
CONST	ENDS
;	COMDAT ??_R3ActionSelectWarpGates@SC2APIProtocol@@8
rdata$r	SEGMENT
??_R3ActionSelectWarpGates@SC2APIProtocol@@8 DD 00H	; SC2APIProtocol::ActionSelectWarpGates::`RTTI Class Hierarchy Descriptor'
	DD	00H
	DD	03H
	DD	imagerel ??_R2ActionSelectWarpGates@SC2APIProtocol@@8
rdata$r	ENDS
;	COMDAT ??_R4ActionSelectWarpGates@SC2APIProtocol@@6B@
rdata$r	SEGMENT
??_R4ActionSelectWarpGates@SC2APIProtocol@@6B@ DD 01H	; SC2APIProtocol::ActionSelectWarpGates::`RTTI Complete Object Locator'
	DD	00H
	DD	00H
	DD	imagerel ??_R0?AVActionSelectWarpGates@SC2APIProtocol@@@8
	DD	imagerel ??_R3ActionSelectWarpGates@SC2APIProtocol@@8
	DD	imagerel ??_R4ActionSelectWarpGates@SC2APIProtocol@@6B@
rdata$r	ENDS
;	COMDAT ??_R1A@?0A@EA@ActionSelectLarva@SC2APIProtocol@@8
rdata$r	SEGMENT
??_R1A@?0A@EA@ActionSelectLarva@SC2APIProtocol@@8 DD imagerel ??_R0?AVActionSelectLarva@SC2APIProtocol@@@8 ; SC2APIProtocol::ActionSelectLarva::`RTTI Base Class Descriptor at (0,-1,0,64)'
	DD	03H
	DD	00H
	DD	0ffffffffH
	DD	00H
	DD	040H
	DD	imagerel ??_R3ActionSelectLarva@SC2APIProtocol@@8
rdata$r	ENDS
;	COMDAT ??_R2ActionSelectLarva@SC2APIProtocol@@8
rdata$r	SEGMENT
??_R2ActionSelectLarva@SC2APIProtocol@@8 DD imagerel ??_R1A@?0A@EA@ActionSelectLarva@SC2APIProtocol@@8 ; SC2APIProtocol::ActionSelectLarva::`RTTI Base Class Array'
	DD	imagerel ??_R1A@?0A@EA@ZeroFieldsBase@internal@protobuf@google@@8
	DD	imagerel ??_R1A@?0A@EA@Message@protobuf@google@@8
	DD	imagerel ??_R1A@?0A@EA@MessageLite@protobuf@google@@8
	ORG $+3
rdata$r	ENDS
;	COMDAT ??_R3ActionSelectLarva@SC2APIProtocol@@8
rdata$r	SEGMENT
??_R3ActionSelectLarva@SC2APIProtocol@@8 DD 00H		; SC2APIProtocol::ActionSelectLarva::`RTTI Class Hierarchy Descriptor'
	DD	00H
	DD	04H
	DD	imagerel ??_R2ActionSelectLarva@SC2APIProtocol@@8
rdata$r	ENDS
;	COMDAT ??_R4ActionSelectLarva@SC2APIProtocol@@6B@
rdata$r	SEGMENT
??_R4ActionSelectLarva@SC2APIProtocol@@6B@ DD 01H	; SC2APIProtocol::ActionSelectLarva::`RTTI Complete Object Locator'
	DD	00H
	DD	00H
	DD	imagerel ??_R0?AVActionSelectLarva@SC2APIProtocol@@@8
	DD	imagerel ??_R3ActionSelectLarva@SC2APIProtocol@@8
	DD	imagerel ??_R4ActionSelectLarva@SC2APIProtocol@@6B@
rdata$r	ENDS
;	COMDAT ??_R1A@?0A@EA@ActionSelectIdleWorker@SC2APIProtocol@@8
rdata$r	SEGMENT
??_R1A@?0A@EA@ActionSelectIdleWorker@SC2APIProtocol@@8 DD imagerel ??_R0?AVActionSelectIdleWorker@SC2APIProtocol@@@8 ; SC2APIProtocol::ActionSelectIdleWorker::`RTTI Base Class Descriptor at (0,-1,0,64)'
	DD	02H
	DD	00H
	DD	0ffffffffH
	DD	00H
	DD	040H
	DD	imagerel ??_R3ActionSelectIdleWorker@SC2APIProtocol@@8
rdata$r	ENDS
;	COMDAT ??_R2ActionSelectIdleWorker@SC2APIProtocol@@8
rdata$r	SEGMENT
??_R2ActionSelectIdleWorker@SC2APIProtocol@@8 DD imagerel ??_R1A@?0A@EA@ActionSelectIdleWorker@SC2APIProtocol@@8 ; SC2APIProtocol::ActionSelectIdleWorker::`RTTI Base Class Array'
	DD	imagerel ??_R1A@?0A@EA@Message@protobuf@google@@8
	DD	imagerel ??_R1A@?0A@EA@MessageLite@protobuf@google@@8
	ORG $+3
rdata$r	ENDS
;	COMDAT ??_R3ActionSelectIdleWorker@SC2APIProtocol@@8
rdata$r	SEGMENT
??_R3ActionSelectIdleWorker@SC2APIProtocol@@8 DD 00H	; SC2APIProtocol::ActionSelectIdleWorker::`RTTI Class Hierarchy Descriptor'
	DD	00H
	DD	03H
	DD	imagerel ??_R2ActionSelectIdleWorker@SC2APIProtocol@@8
rdata$r	ENDS
;	COMDAT ??_R4ActionSelectIdleWorker@SC2APIProtocol@@6B@
rdata$r	SEGMENT
??_R4ActionSelectIdleWorker@SC2APIProtocol@@6B@ DD 01H	; SC2APIProtocol::ActionSelectIdleWorker::`RTTI Complete Object Locator'
	DD	00H
	DD	00H
	DD	imagerel ??_R0?AVActionSelectIdleWorker@SC2APIProtocol@@@8
	DD	imagerel ??_R3ActionSelectIdleWorker@SC2APIProtocol@@8
	DD	imagerel ??_R4ActionSelectIdleWorker@SC2APIProtocol@@6B@
rdata$r	ENDS
;	COMDAT ??_R1A@?0A@EA@ActionSelectArmy@SC2APIProtocol@@8
rdata$r	SEGMENT
??_R1A@?0A@EA@ActionSelectArmy@SC2APIProtocol@@8 DD imagerel ??_R0?AVActionSelectArmy@SC2APIProtocol@@@8 ; SC2APIProtocol::ActionSelectArmy::`RTTI Base Class Descriptor at (0,-1,0,64)'
	DD	02H
	DD	00H
	DD	0ffffffffH
	DD	00H
	DD	040H
	DD	imagerel ??_R3ActionSelectArmy@SC2APIProtocol@@8
rdata$r	ENDS
;	COMDAT ??_R2ActionSelectArmy@SC2APIProtocol@@8
rdata$r	SEGMENT
??_R2ActionSelectArmy@SC2APIProtocol@@8 DD imagerel ??_R1A@?0A@EA@ActionSelectArmy@SC2APIProtocol@@8 ; SC2APIProtocol::ActionSelectArmy::`RTTI Base Class Array'
	DD	imagerel ??_R1A@?0A@EA@Message@protobuf@google@@8
	DD	imagerel ??_R1A@?0A@EA@MessageLite@protobuf@google@@8
	ORG $+3
rdata$r	ENDS
;	COMDAT ??_R3ActionSelectArmy@SC2APIProtocol@@8
rdata$r	SEGMENT
??_R3ActionSelectArmy@SC2APIProtocol@@8 DD 00H		; SC2APIProtocol::ActionSelectArmy::`RTTI Class Hierarchy Descriptor'
	DD	00H
	DD	03H
	DD	imagerel ??_R2ActionSelectArmy@SC2APIProtocol@@8
rdata$r	ENDS
;	COMDAT ??_R4ActionSelectArmy@SC2APIProtocol@@6B@
rdata$r	SEGMENT
??_R4ActionSelectArmy@SC2APIProtocol@@6B@ DD 01H	; SC2APIProtocol::ActionSelectArmy::`RTTI Complete Object Locator'
	DD	00H
	DD	00H
	DD	imagerel ??_R0?AVActionSelectArmy@SC2APIProtocol@@@8
	DD	imagerel ??_R3ActionSelectArmy@SC2APIProtocol@@8
	DD	imagerel ??_R4ActionSelectArmy@SC2APIProtocol@@6B@
rdata$r	ENDS
;	COMDAT ??_R1A@?0A@EA@ActionProductionPanelRemoveFromQueue@SC2APIProtocol@@8
rdata$r	SEGMENT
??_R1A@?0A@EA@ActionProductionPanelRemoveFromQueue@SC2APIProtocol@@8 DD imagerel ??_R0?AVActionProductionPanelRemoveFromQueue@SC2APIProtocol@@@8 ; SC2APIProtocol::ActionProductionPanelRemoveFromQueue::`RTTI Base Class Descriptor at (0,-1,0,64)'
	DD	02H
	DD	00H
	DD	0ffffffffH
	DD	00H
	DD	040H
	DD	imagerel ??_R3ActionProductionPanelRemoveFromQueue@SC2APIProtocol@@8
rdata$r	ENDS
;	COMDAT ??_R2ActionProductionPanelRemoveFromQueue@SC2APIProtocol@@8
rdata$r	SEGMENT
??_R2ActionProductionPanelRemoveFromQueue@SC2APIProtocol@@8 DD imagerel ??_R1A@?0A@EA@ActionProductionPanelRemoveFromQueue@SC2APIProtocol@@8 ; SC2APIProtocol::ActionProductionPanelRemoveFromQueue::`RTTI Base Class Array'
	DD	imagerel ??_R1A@?0A@EA@Message@protobuf@google@@8
	DD	imagerel ??_R1A@?0A@EA@MessageLite@protobuf@google@@8
	ORG $+3
rdata$r	ENDS
;	COMDAT ??_R3ActionProductionPanelRemoveFromQueue@SC2APIProtocol@@8
rdata$r	SEGMENT
??_R3ActionProductionPanelRemoveFromQueue@SC2APIProtocol@@8 DD 00H ; SC2APIProtocol::ActionProductionPanelRemoveFromQueue::`RTTI Class Hierarchy Descriptor'
	DD	00H
	DD	03H
	DD	imagerel ??_R2ActionProductionPanelRemoveFromQueue@SC2APIProtocol@@8
rdata$r	ENDS
;	COMDAT ??_R4ActionProductionPanelRemoveFromQueue@SC2APIProtocol@@6B@
rdata$r	SEGMENT
??_R4ActionProductionPanelRemoveFromQueue@SC2APIProtocol@@6B@ DD 01H ; SC2APIProtocol::ActionProductionPanelRemoveFromQueue::`RTTI Complete Object Locator'
	DD	00H
	DD	00H
	DD	imagerel ??_R0?AVActionProductionPanelRemoveFromQueue@SC2APIProtocol@@@8
	DD	imagerel ??_R3ActionProductionPanelRemoveFromQueue@SC2APIProtocol@@8
	DD	imagerel ??_R4ActionProductionPanelRemoveFromQueue@SC2APIProtocol@@6B@
rdata$r	ENDS
;	COMDAT ??_R1A@?0A@EA@ActionMultiPanel@SC2APIProtocol@@8
rdata$r	SEGMENT
??_R1A@?0A@EA@ActionMultiPanel@SC2APIProtocol@@8 DD imagerel ??_R0?AVActionMultiPanel@SC2APIProtocol@@@8 ; SC2APIProtocol::ActionMultiPanel::`RTTI Base Class Descriptor at (0,-1,0,64)'
	DD	02H
	DD	00H
	DD	0ffffffffH
	DD	00H
	DD	040H
	DD	imagerel ??_R3ActionMultiPanel@SC2APIProtocol@@8
rdata$r	ENDS
;	COMDAT ??_R2ActionMultiPanel@SC2APIProtocol@@8
rdata$r	SEGMENT
??_R2ActionMultiPanel@SC2APIProtocol@@8 DD imagerel ??_R1A@?0A@EA@ActionMultiPanel@SC2APIProtocol@@8 ; SC2APIProtocol::ActionMultiPanel::`RTTI Base Class Array'
	DD	imagerel ??_R1A@?0A@EA@Message@protobuf@google@@8
	DD	imagerel ??_R1A@?0A@EA@MessageLite@protobuf@google@@8
	ORG $+3
rdata$r	ENDS
;	COMDAT ??_R3ActionMultiPanel@SC2APIProtocol@@8
rdata$r	SEGMENT
??_R3ActionMultiPanel@SC2APIProtocol@@8 DD 00H		; SC2APIProtocol::ActionMultiPanel::`RTTI Class Hierarchy Descriptor'
	DD	00H
	DD	03H
	DD	imagerel ??_R2ActionMultiPanel@SC2APIProtocol@@8
rdata$r	ENDS
;	COMDAT ??_R4ActionMultiPanel@SC2APIProtocol@@6B@
rdata$r	SEGMENT
??_R4ActionMultiPanel@SC2APIProtocol@@6B@ DD 01H	; SC2APIProtocol::ActionMultiPanel::`RTTI Complete Object Locator'
	DD	00H
	DD	00H
	DD	imagerel ??_R0?AVActionMultiPanel@SC2APIProtocol@@@8
	DD	imagerel ??_R3ActionMultiPanel@SC2APIProtocol@@8
	DD	imagerel ??_R4ActionMultiPanel@SC2APIProtocol@@6B@
rdata$r	ENDS
;	COMDAT ??_R1A@?0A@EA@ActionControlGroup@SC2APIProtocol@@8
rdata$r	SEGMENT
??_R1A@?0A@EA@ActionControlGroup@SC2APIProtocol@@8 DD imagerel ??_R0?AVActionControlGroup@SC2APIProtocol@@@8 ; SC2APIProtocol::ActionControlGroup::`RTTI Base Class Descriptor at (0,-1,0,64)'
	DD	02H
	DD	00H
	DD	0ffffffffH
	DD	00H
	DD	040H
	DD	imagerel ??_R3ActionControlGroup@SC2APIProtocol@@8
rdata$r	ENDS
;	COMDAT ??_R2ActionControlGroup@SC2APIProtocol@@8
rdata$r	SEGMENT
??_R2ActionControlGroup@SC2APIProtocol@@8 DD imagerel ??_R1A@?0A@EA@ActionControlGroup@SC2APIProtocol@@8 ; SC2APIProtocol::ActionControlGroup::`RTTI Base Class Array'
	DD	imagerel ??_R1A@?0A@EA@Message@protobuf@google@@8
	DD	imagerel ??_R1A@?0A@EA@MessageLite@protobuf@google@@8
	ORG $+3
rdata$r	ENDS
;	COMDAT ??_R3ActionControlGroup@SC2APIProtocol@@8
rdata$r	SEGMENT
??_R3ActionControlGroup@SC2APIProtocol@@8 DD 00H	; SC2APIProtocol::ActionControlGroup::`RTTI Class Hierarchy Descriptor'
	DD	00H
	DD	03H
	DD	imagerel ??_R2ActionControlGroup@SC2APIProtocol@@8
rdata$r	ENDS
;	COMDAT ??_R4ActionControlGroup@SC2APIProtocol@@6B@
rdata$r	SEGMENT
??_R4ActionControlGroup@SC2APIProtocol@@6B@ DD 01H	; SC2APIProtocol::ActionControlGroup::`RTTI Complete Object Locator'
	DD	00H
	DD	00H
	DD	imagerel ??_R0?AVActionControlGroup@SC2APIProtocol@@@8
	DD	imagerel ??_R3ActionControlGroup@SC2APIProtocol@@8
	DD	imagerel ??_R4ActionControlGroup@SC2APIProtocol@@6B@
rdata$r	ENDS
;	COMDAT ??_R1A@?0A@EA@ActionCargoPanelUnload@SC2APIProtocol@@8
rdata$r	SEGMENT
??_R1A@?0A@EA@ActionCargoPanelUnload@SC2APIProtocol@@8 DD imagerel ??_R0?AVActionCargoPanelUnload@SC2APIProtocol@@@8 ; SC2APIProtocol::ActionCargoPanelUnload::`RTTI Base Class Descriptor at (0,-1,0,64)'
	DD	02H
	DD	00H
	DD	0ffffffffH
	DD	00H
	DD	040H
	DD	imagerel ??_R3ActionCargoPanelUnload@SC2APIProtocol@@8
rdata$r	ENDS
;	COMDAT ??_R2ActionCargoPanelUnload@SC2APIProtocol@@8
rdata$r	SEGMENT
??_R2ActionCargoPanelUnload@SC2APIProtocol@@8 DD imagerel ??_R1A@?0A@EA@ActionCargoPanelUnload@SC2APIProtocol@@8 ; SC2APIProtocol::ActionCargoPanelUnload::`RTTI Base Class Array'
	DD	imagerel ??_R1A@?0A@EA@Message@protobuf@google@@8
	DD	imagerel ??_R1A@?0A@EA@MessageLite@protobuf@google@@8
	ORG $+3
rdata$r	ENDS
;	COMDAT ??_R3ActionCargoPanelUnload@SC2APIProtocol@@8
rdata$r	SEGMENT
??_R3ActionCargoPanelUnload@SC2APIProtocol@@8 DD 00H	; SC2APIProtocol::ActionCargoPanelUnload::`RTTI Class Hierarchy Descriptor'
	DD	00H
	DD	03H
	DD	imagerel ??_R2ActionCargoPanelUnload@SC2APIProtocol@@8
rdata$r	ENDS
;	COMDAT ??_R4ActionCargoPanelUnload@SC2APIProtocol@@6B@
rdata$r	SEGMENT
??_R4ActionCargoPanelUnload@SC2APIProtocol@@6B@ DD 01H	; SC2APIProtocol::ActionCargoPanelUnload::`RTTI Complete Object Locator'
	DD	00H
	DD	00H
	DD	imagerel ??_R0?AVActionCargoPanelUnload@SC2APIProtocol@@@8
	DD	imagerel ??_R3ActionCargoPanelUnload@SC2APIProtocol@@8
	DD	imagerel ??_R4ActionCargoPanelUnload@SC2APIProtocol@@6B@
rdata$r	ENDS
;	COMDAT ??_R1A@?0A@EA@ZeroFieldsBase@internal@protobuf@google@@8
rdata$r	SEGMENT
??_R1A@?0A@EA@ZeroFieldsBase@internal@protobuf@google@@8 DD imagerel ??_R0?AVZeroFieldsBase@internal@protobuf@google@@@8 ; google::protobuf::internal::ZeroFieldsBase::`RTTI Base Class Descriptor at (0,-1,0,64)'
	DD	02H
	DD	00H
	DD	0ffffffffH
	DD	00H
	DD	040H
	DD	imagerel ??_R3ZeroFieldsBase@internal@protobuf@google@@8
rdata$r	ENDS
;	COMDAT ??_R2ZeroFieldsBase@internal@protobuf@google@@8
rdata$r	SEGMENT
??_R2ZeroFieldsBase@internal@protobuf@google@@8 DD imagerel ??_R1A@?0A@EA@ZeroFieldsBase@internal@protobuf@google@@8 ; google::protobuf::internal::ZeroFieldsBase::`RTTI Base Class Array'
	DD	imagerel ??_R1A@?0A@EA@Message@protobuf@google@@8
	DD	imagerel ??_R1A@?0A@EA@MessageLite@protobuf@google@@8
	ORG $+3
rdata$r	ENDS
;	COMDAT ??_R3ZeroFieldsBase@internal@protobuf@google@@8
rdata$r	SEGMENT
??_R3ZeroFieldsBase@internal@protobuf@google@@8 DD 00H	; google::protobuf::internal::ZeroFieldsBase::`RTTI Class Hierarchy Descriptor'
	DD	00H
	DD	03H
	DD	imagerel ??_R2ZeroFieldsBase@internal@protobuf@google@@8
rdata$r	ENDS
;	COMDAT ??_R0?AVZeroFieldsBase@internal@protobuf@google@@@8
data$rs	SEGMENT
??_R0?AVZeroFieldsBase@internal@protobuf@google@@@8 DQ FLAT:??_7type_info@@6B@ ; google::protobuf::internal::ZeroFieldsBase `RTTI Type Descriptor'
	DQ	0000000000000000H
	DB	'.?AVZeroFieldsBase@internal@protobuf@google@@', 00H
data$rs	ENDS
;	COMDAT ??_R2MessageLite@protobuf@google@@8
rdata$r	SEGMENT
??_R2MessageLite@protobuf@google@@8 DD imagerel ??_R1A@?0A@EA@MessageLite@protobuf@google@@8 ; google::protobuf::MessageLite::`RTTI Base Class Array'
	ORG $+3
rdata$r	ENDS
;	COMDAT ??_R3MessageLite@protobuf@google@@8
rdata$r	SEGMENT
??_R3MessageLite@protobuf@google@@8 DD 00H		; google::protobuf::MessageLite::`RTTI Class Hierarchy Descriptor'
	DD	00H
	DD	01H
	DD	imagerel ??_R2MessageLite@protobuf@google@@8
rdata$r	ENDS
;	COMDAT ??_R0?AVMessageLite@protobuf@google@@@8
data$rs	SEGMENT
??_R0?AVMessageLite@protobuf@google@@@8 DQ FLAT:??_7type_info@@6B@ ; google::protobuf::MessageLite `RTTI Type Descriptor'
	DQ	0000000000000000H
	DB	'.?AVMessageLite@protobuf@google@@', 00H
data$rs	ENDS
;	COMDAT ??_R1A@?0A@EA@MessageLite@protobuf@google@@8
rdata$r	SEGMENT
??_R1A@?0A@EA@MessageLite@protobuf@google@@8 DD imagerel ??_R0?AVMessageLite@protobuf@google@@@8 ; google::protobuf::MessageLite::`RTTI Base Class Descriptor at (0,-1,0,64)'
	DD	00H
	DD	00H
	DD	0ffffffffH
	DD	00H
	DD	040H
	DD	imagerel ??_R3MessageLite@protobuf@google@@8
rdata$r	ENDS
;	COMDAT ??_R1A@?0A@EA@Message@protobuf@google@@8
rdata$r	SEGMENT
??_R1A@?0A@EA@Message@protobuf@google@@8 DD imagerel ??_R0?AVMessage@protobuf@google@@@8 ; google::protobuf::Message::`RTTI Base Class Descriptor at (0,-1,0,64)'
	DD	01H
	DD	00H
	DD	0ffffffffH
	DD	00H
	DD	040H
	DD	imagerel ??_R3Message@protobuf@google@@8
rdata$r	ENDS
;	COMDAT ??_R2Message@protobuf@google@@8
rdata$r	SEGMENT
??_R2Message@protobuf@google@@8 DD imagerel ??_R1A@?0A@EA@Message@protobuf@google@@8 ; google::protobuf::Message::`RTTI Base Class Array'
	DD	imagerel ??_R1A@?0A@EA@MessageLite@protobuf@google@@8
	ORG $+3
rdata$r	ENDS
;	COMDAT ??_R3Message@protobuf@google@@8
rdata$r	SEGMENT
??_R3Message@protobuf@google@@8 DD 00H			; google::protobuf::Message::`RTTI Class Hierarchy Descriptor'
	DD	00H
	DD	02H
	DD	imagerel ??_R2Message@protobuf@google@@8
rdata$r	ENDS
;	COMDAT ??_R0?AVMessage@protobuf@google@@@8
data$rs	SEGMENT
??_R0?AVMessage@protobuf@google@@@8 DQ FLAT:??_7type_info@@6B@ ; google::protobuf::Message `RTTI Type Descriptor'
	DQ	0000000000000000H
	DB	'.?AVMessage@protobuf@google@@', 00H
data$rs	ENDS
;	COMDAT ??_7ActionSelectArmy@SC2APIProtocol@@6B@
CONST	SEGMENT
??_7ActionSelectArmy@SC2APIProtocol@@6B@ DQ FLAT:??_R4ActionSelectArmy@SC2APIProtocol@@6B@ ; SC2APIProtocol::ActionSelectArmy::`vftable'
	DQ	FLAT:??_EActionSelectArmy@SC2APIProtocol@@UEAAPEAXI@Z
	DQ	FLAT:?GetTypeName@Message@protobuf@google@@UEBA?AV?$basic_string@DU?$char_traits@D@std@@V?$allocator@D@2@@std@@XZ
	DQ	FLAT:?New@ActionSelectArmy@SC2APIProtocol@@UEBAPEAV12@PEAVArena@protobuf@google@@@Z
	DQ	FLAT:?Clear@ActionSelectArmy@SC2APIProtocol@@UEAAXXZ
	DQ	FLAT:?IsInitialized@ActionSelectArmy@SC2APIProtocol@@UEBA_NXZ
	DQ	FLAT:?InitializationErrorString@Message@protobuf@google@@UEBA?AV?$basic_string@DU?$char_traits@D@std@@V?$allocator@D@2@@std@@XZ
	DQ	FLAT:?CheckTypeAndMergeFrom@Message@protobuf@google@@UEAAXAEBVMessageLite@23@@Z
	DQ	FLAT:?ByteSizeLong@ActionSelectArmy@SC2APIProtocol@@UEBA_KXZ
	DQ	FLAT:?GetCachedSize@ActionSelectArmy@SC2APIProtocol@@UEBAHXZ
	DQ	FLAT:?_InternalParse@ActionSelectArmy@SC2APIProtocol@@UEAAPEBDPEBDPEAVParseContext@internal@protobuf@google@@@Z
	DQ	FLAT:?OnDemandRegisterArenaDtor@MessageLite@protobuf@google@@UEAAXPEAVArena@23@@Z
	DQ	FLAT:?_InternalSerialize@ActionSelectArmy@SC2APIProtocol@@UEBAPEAEPEAEPEAVEpsCopyOutputStream@io@protobuf@google@@@Z
	DQ	FLAT:?MergeFrom@Message@protobuf@google@@UEAAXAEBV123@@Z
	DQ	FLAT:?SpaceUsedLong@Message@protobuf@google@@UEBA_KXZ
	DQ	FLAT:?SetCachedSize@ActionSelectArmy@SC2APIProtocol@@EEBAXH@Z
	DQ	FLAT:?GetMetadata@ActionSelectArmy@SC2APIProtocol@@UEBA?AUMetadata@protobuf@google@@XZ
	DQ	FLAT:?GetClassData@ActionSelectArmy@SC2APIProtocol@@UEBAPEBUClassData@Message@protobuf@google@@XZ
CONST	ENDS
;	COMDAT ??_7ActionControlGroup@SC2APIProtocol@@6B@
CONST	SEGMENT
??_7ActionControlGroup@SC2APIProtocol@@6B@ DQ FLAT:??_R4ActionControlGroup@SC2APIProtocol@@6B@ ; SC2APIProtocol::ActionControlGroup::`vftable'
	DQ	FLAT:??_EActionControlGroup@SC2APIProtocol@@UEAAPEAXI@Z
	DQ	FLAT:?GetTypeName@Message@protobuf@google@@UEBA?AV?$basic_string@DU?$char_traits@D@std@@V?$allocator@D@2@@std@@XZ
	DQ	FLAT:?New@ActionControlGroup@SC2APIProtocol@@UEBAPEAV12@PEAVArena@protobuf@google@@@Z
	DQ	FLAT:?Clear@ActionControlGroup@SC2APIProtocol@@UEAAXXZ
	DQ	FLAT:?IsInitialized@ActionControlGroup@SC2APIProtocol@@UEBA_NXZ
	DQ	FLAT:?InitializationErrorString@Message@protobuf@google@@UEBA?AV?$basic_string@DU?$char_traits@D@std@@V?$allocator@D@2@@std@@XZ
	DQ	FLAT:?CheckTypeAndMergeFrom@Message@protobuf@google@@UEAAXAEBVMessageLite@23@@Z
	DQ	FLAT:?ByteSizeLong@ActionControlGroup@SC2APIProtocol@@UEBA_KXZ
	DQ	FLAT:?GetCachedSize@ActionControlGroup@SC2APIProtocol@@UEBAHXZ
	DQ	FLAT:?_InternalParse@ActionControlGroup@SC2APIProtocol@@UEAAPEBDPEBDPEAVParseContext@internal@protobuf@google@@@Z
	DQ	FLAT:?OnDemandRegisterArenaDtor@MessageLite@protobuf@google@@UEAAXPEAVArena@23@@Z
	DQ	FLAT:?_InternalSerialize@ActionControlGroup@SC2APIProtocol@@UEBAPEAEPEAEPEAVEpsCopyOutputStream@io@protobuf@google@@@Z
	DQ	FLAT:?MergeFrom@Message@protobuf@google@@UEAAXAEBV123@@Z
	DQ	FLAT:?SpaceUsedLong@Message@protobuf@google@@UEBA_KXZ
	DQ	FLAT:?SetCachedSize@ActionControlGroup@SC2APIProtocol@@EEBAXH@Z
	DQ	FLAT:?GetMetadata@ActionControlGroup@SC2APIProtocol@@UEBA?AUMetadata@protobuf@google@@XZ
	DQ	FLAT:?GetClassData@ActionControlGroup@SC2APIProtocol@@UEBAPEBUClassData@Message@protobuf@google@@XZ
CONST	ENDS
;	COMDAT ??_7ActionUI@SC2APIProtocol@@6B@
CONST	SEGMENT
??_7ActionUI@SC2APIProtocol@@6B@ DQ FLAT:??_R4ActionUI@SC2APIProtocol@@6B@ ; SC2APIProtocol::ActionUI::`vftable'
	DQ	FLAT:??_EActionUI@SC2APIProtocol@@UEAAPEAXI@Z
	DQ	FLAT:?GetTypeName@Message@protobuf@google@@UEBA?AV?$basic_string@DU?$char_traits@D@std@@V?$allocator@D@2@@std@@XZ
	DQ	FLAT:?New@ActionUI@SC2APIProtocol@@UEBAPEAV12@PEAVArena@protobuf@google@@@Z
	DQ	FLAT:?Clear@ActionUI@SC2APIProtocol@@UEAAXXZ
	DQ	FLAT:?IsInitialized@ActionUI@SC2APIProtocol@@UEBA_NXZ
	DQ	FLAT:?InitializationErrorString@Message@protobuf@google@@UEBA?AV?$basic_string@DU?$char_traits@D@std@@V?$allocator@D@2@@std@@XZ
	DQ	FLAT:?CheckTypeAndMergeFrom@Message@protobuf@google@@UEAAXAEBVMessageLite@23@@Z
	DQ	FLAT:?ByteSizeLong@ActionUI@SC2APIProtocol@@UEBA_KXZ
	DQ	FLAT:?GetCachedSize@ActionUI@SC2APIProtocol@@UEBAHXZ
	DQ	FLAT:?_InternalParse@ActionUI@SC2APIProtocol@@UEAAPEBDPEBDPEAVParseContext@internal@protobuf@google@@@Z
	DQ	FLAT:?OnDemandRegisterArenaDtor@MessageLite@protobuf@google@@UEAAXPEAVArena@23@@Z
	DQ	FLAT:?_InternalSerialize@ActionUI@SC2APIProtocol@@UEBAPEAEPEAEPEAVEpsCopyOutputStream@io@protobuf@google@@@Z
	DQ	FLAT:?MergeFrom@Message@protobuf@google@@UEAAXAEBV123@@Z
	DQ	FLAT:?SpaceUsedLong@Message@protobuf@google@@UEBA_KXZ
	DQ	FLAT:?SetCachedSize@ActionUI@SC2APIProtocol@@EEBAXH@Z
	DQ	FLAT:?GetMetadata@ActionUI@SC2APIProtocol@@UEBA?AUMetadata@protobuf@google@@XZ
	DQ	FLAT:?GetClassData@ActionUI@SC2APIProtocol@@UEBAPEBUClassData@Message@protobuf@google@@XZ
CONST	ENDS
;	COMDAT ??_7BuildItem@SC2APIProtocol@@6B@
CONST	SEGMENT
??_7BuildItem@SC2APIProtocol@@6B@ DQ FLAT:??_R4BuildItem@SC2APIProtocol@@6B@ ; SC2APIProtocol::BuildItem::`vftable'
	DQ	FLAT:??_EBuildItem@SC2APIProtocol@@UEAAPEAXI@Z
	DQ	FLAT:?GetTypeName@Message@protobuf@google@@UEBA?AV?$basic_string@DU?$char_traits@D@std@@V?$allocator@D@2@@std@@XZ
	DQ	FLAT:?New@BuildItem@SC2APIProtocol@@UEBAPEAV12@PEAVArena@protobuf@google@@@Z
	DQ	FLAT:?Clear@BuildItem@SC2APIProtocol@@UEAAXXZ
	DQ	FLAT:?IsInitialized@BuildItem@SC2APIProtocol@@UEBA_NXZ
	DQ	FLAT:?InitializationErrorString@Message@protobuf@google@@UEBA?AV?$basic_string@DU?$char_traits@D@std@@V?$allocator@D@2@@std@@XZ
	DQ	FLAT:?CheckTypeAndMergeFrom@Message@protobuf@google@@UEAAXAEBVMessageLite@23@@Z
	DQ	FLAT:?ByteSizeLong@BuildItem@SC2APIProtocol@@UEBA_KXZ
	DQ	FLAT:?GetCachedSize@BuildItem@SC2APIProtocol@@UEBAHXZ
	DQ	FLAT:?_InternalParse@BuildItem@SC2APIProtocol@@UEAAPEBDPEBDPEAVParseContext@internal@protobuf@google@@@Z
	DQ	FLAT:?OnDemandRegisterArenaDtor@MessageLite@protobuf@google@@UEAAXPEAVArena@23@@Z
	DQ	FLAT:?_InternalSerialize@BuildItem@SC2APIProtocol@@UEBAPEAEPEAEPEAVEpsCopyOutputStream@io@protobuf@google@@@Z
	DQ	FLAT:?MergeFrom@Message@protobuf@google@@UEAAXAEBV123@@Z
	DQ	FLAT:?SpaceUsedLong@Message@protobuf@google@@UEBA_KXZ
	DQ	FLAT:?SetCachedSize@BuildItem@SC2APIProtocol@@EEBAXH@Z
	DQ	FLAT:?GetMetadata@BuildItem@SC2APIProtocol@@UEBA?AUMetadata@protobuf@google@@XZ
	DQ	FLAT:?GetClassData@BuildItem@SC2APIProtocol@@UEBAPEBUClassData@Message@protobuf@google@@XZ
CONST	ENDS
;	COMDAT ??_7UnitInfo@SC2APIProtocol@@6B@
CONST	SEGMENT
??_7UnitInfo@SC2APIProtocol@@6B@ DQ FLAT:??_R4UnitInfo@SC2APIProtocol@@6B@ ; SC2APIProtocol::UnitInfo::`vftable'
	DQ	FLAT:??_EUnitInfo@SC2APIProtocol@@UEAAPEAXI@Z
	DQ	FLAT:?GetTypeName@Message@protobuf@google@@UEBA?AV?$basic_string@DU?$char_traits@D@std@@V?$allocator@D@2@@std@@XZ
	DQ	FLAT:?New@UnitInfo@SC2APIProtocol@@UEBAPEAV12@PEAVArena@protobuf@google@@@Z
	DQ	FLAT:?Clear@UnitInfo@SC2APIProtocol@@UEAAXXZ
	DQ	FLAT:?IsInitialized@UnitInfo@SC2APIProtocol@@UEBA_NXZ
	DQ	FLAT:?InitializationErrorString@Message@protobuf@google@@UEBA?AV?$basic_string@DU?$char_traits@D@std@@V?$allocator@D@2@@std@@XZ
	DQ	FLAT:?CheckTypeAndMergeFrom@Message@protobuf@google@@UEAAXAEBVMessageLite@23@@Z
	DQ	FLAT:?ByteSizeLong@UnitInfo@SC2APIProtocol@@UEBA_KXZ
	DQ	FLAT:?GetCachedSize@UnitInfo@SC2APIProtocol@@UEBAHXZ
	DQ	FLAT:?_InternalParse@UnitInfo@SC2APIProtocol@@UEAAPEBDPEBDPEAVParseContext@internal@protobuf@google@@@Z
	DQ	FLAT:?OnDemandRegisterArenaDtor@MessageLite@protobuf@google@@UEAAXPEAVArena@23@@Z
	DQ	FLAT:?_InternalSerialize@UnitInfo@SC2APIProtocol@@UEBAPEAEPEAEPEAVEpsCopyOutputStream@io@protobuf@google@@@Z
	DQ	FLAT:?MergeFrom@Message@protobuf@google@@UEAAXAEBV123@@Z
	DQ	FLAT:?SpaceUsedLong@Message@protobuf@google@@UEBA_KXZ
	DQ	FLAT:?SetCachedSize@UnitInfo@SC2APIProtocol@@EEBAXH@Z
	DQ	FLAT:?GetMetadata@UnitInfo@SC2APIProtocol@@UEBA?AUMetadata@protobuf@google@@XZ
	DQ	FLAT:?GetClassData@UnitInfo@SC2APIProtocol@@UEBAPEBUClassData@Message@protobuf@google@@XZ
CONST	ENDS
;	COMDAT ??_R0?AVActionToggleAutocast@SC2APIProtocol@@@8
data$r	SEGMENT
??_R0?AVActionToggleAutocast@SC2APIProtocol@@@8 DQ FLAT:??_7type_info@@6B@ ; SC2APIProtocol::ActionToggleAutocast `RTTI Type Descriptor'
	DQ	0000000000000000H
	DB	'.?AVActionToggleAutocast@SC2APIProtocol@@', 00H
data$r	ENDS
;	COMDAT ??_7ControlGroup@SC2APIProtocol@@6B@
CONST	SEGMENT
??_7ControlGroup@SC2APIProtocol@@6B@ DQ FLAT:??_R4ControlGroup@SC2APIProtocol@@6B@ ; SC2APIProtocol::ControlGroup::`vftable'
	DQ	FLAT:??_EControlGroup@SC2APIProtocol@@UEAAPEAXI@Z
	DQ	FLAT:?GetTypeName@Message@protobuf@google@@UEBA?AV?$basic_string@DU?$char_traits@D@std@@V?$allocator@D@2@@std@@XZ
	DQ	FLAT:?New@ControlGroup@SC2APIProtocol@@UEBAPEAV12@PEAVArena@protobuf@google@@@Z
	DQ	FLAT:?Clear@ControlGroup@SC2APIProtocol@@UEAAXXZ
	DQ	FLAT:?IsInitialized@ControlGroup@SC2APIProtocol@@UEBA_NXZ
	DQ	FLAT:?InitializationErrorString@Message@protobuf@google@@UEBA?AV?$basic_string@DU?$char_traits@D@std@@V?$allocator@D@2@@std@@XZ
	DQ	FLAT:?CheckTypeAndMergeFrom@Message@protobuf@google@@UEAAXAEBVMessageLite@23@@Z
	DQ	FLAT:?ByteSizeLong@ControlGroup@SC2APIProtocol@@UEBA_KXZ
	DQ	FLAT:?GetCachedSize@ControlGroup@SC2APIProtocol@@UEBAHXZ
	DQ	FLAT:?_InternalParse@ControlGroup@SC2APIProtocol@@UEAAPEBDPEBDPEAVParseContext@internal@protobuf@google@@@Z
	DQ	FLAT:?OnDemandRegisterArenaDtor@MessageLite@protobuf@google@@UEAAXPEAVArena@23@@Z
	DQ	FLAT:?_InternalSerialize@ControlGroup@SC2APIProtocol@@UEBAPEAEPEAEPEAVEpsCopyOutputStream@io@protobuf@google@@@Z
	DQ	FLAT:?MergeFrom@Message@protobuf@google@@UEAAXAEBV123@@Z
	DQ	FLAT:?SpaceUsedLong@Message@protobuf@google@@UEBA_KXZ
	DQ	FLAT:?SetCachedSize@ControlGroup@SC2APIProtocol@@EEBAXH@Z
	DQ	FLAT:?GetMetadata@ControlGroup@SC2APIProtocol@@UEBA?AUMetadata@protobuf@google@@XZ
	DQ	FLAT:?GetClassData@ControlGroup@SC2APIProtocol@@UEBAPEBUClassData@Message@protobuf@google@@XZ
CONST	ENDS
;	COMDAT ??_R0?AVActionProductionPanelRemoveFromQueue@SC2APIProtocol@@@8
data$r	SEGMENT
??_R0?AVActionProductionPanelRemoveFromQueue@SC2APIProtocol@@@8 DQ FLAT:??_7type_info@@6B@ ; SC2APIProtocol::ActionProductionPanelRemoveFromQueue `RTTI Type Descriptor'
	DQ	0000000000000000H
	DB	'.?AVActionProductionPanelRemoveFromQueue@SC2APIProtocol@'
	DB	'@', 00H
data$r	ENDS
;	COMDAT ??_R0?AVActionCargoPanelUnload@SC2APIProtocol@@@8
data$r	SEGMENT
??_R0?AVActionCargoPanelUnload@SC2APIProtocol@@@8 DQ FLAT:??_7type_info@@6B@ ; SC2APIProtocol::ActionCargoPanelUnload `RTTI Type Descriptor'
	DQ	0000000000000000H
	DB	'.?AVActionCargoPanelUnload@SC2APIProtocol@@', 00H
data$r	ENDS
;	COMDAT ??_R0?AVActionMultiPanel@SC2APIProtocol@@@8
data$r	SEGMENT
??_R0?AVActionMultiPanel@SC2APIProtocol@@@8 DQ FLAT:??_7type_info@@6B@ ; SC2APIProtocol::ActionMultiPanel `RTTI Type Descriptor'
	DQ	0000000000000000H
	DB	'.?AVActionMultiPanel@SC2APIProtocol@@', 00H
data$r	ENDS
;	COMDAT ??_R0?AVActionSelectIdleWorker@SC2APIProtocol@@@8
data$r	SEGMENT
??_R0?AVActionSelectIdleWorker@SC2APIProtocol@@@8 DQ FLAT:??_7type_info@@6B@ ; SC2APIProtocol::ActionSelectIdleWorker `RTTI Type Descriptor'
	DQ	0000000000000000H
	DB	'.?AVActionSelectIdleWorker@SC2APIProtocol@@', 00H
data$r	ENDS
;	COMDAT ??_R0?AVActionSelectLarva@SC2APIProtocol@@@8
data$r	SEGMENT
??_R0?AVActionSelectLarva@SC2APIProtocol@@@8 DQ FLAT:??_7type_info@@6B@ ; SC2APIProtocol::ActionSelectLarva `RTTI Type Descriptor'
	DQ	0000000000000000H
	DB	'.?AVActionSelectLarva@SC2APIProtocol@@', 00H
data$r	ENDS
;	COMDAT ??_R0?AVActionSelectWarpGates@SC2APIProtocol@@@8
data$r	SEGMENT
??_R0?AVActionSelectWarpGates@SC2APIProtocol@@@8 DQ FLAT:??_7type_info@@6B@ ; SC2APIProtocol::ActionSelectWarpGates `RTTI Type Descriptor'
	DQ	0000000000000000H
	DB	'.?AVActionSelectWarpGates@SC2APIProtocol@@', 00H
data$r	ENDS
;	COMDAT ??_R0?AVActionSelectArmy@SC2APIProtocol@@@8
data$r	SEGMENT
??_R0?AVActionSelectArmy@SC2APIProtocol@@@8 DQ FLAT:??_7type_info@@6B@ ; SC2APIProtocol::ActionSelectArmy `RTTI Type Descriptor'
	DQ	0000000000000000H
	DB	'.?AVActionSelectArmy@SC2APIProtocol@@', 00H
data$r	ENDS
;	COMDAT ??_R0?AVActionControlGroup@SC2APIProtocol@@@8
data$r	SEGMENT
??_R0?AVActionControlGroup@SC2APIProtocol@@@8 DQ FLAT:??_7type_info@@6B@ ; SC2APIProtocol::ActionControlGroup `RTTI Type Descriptor'
	DQ	0000000000000000H
	DB	'.?AVActionControlGroup@SC2APIProtocol@@', 00H
data$r	ENDS
;	COMDAT ??_R0?AVActionUI@SC2APIProtocol@@@8
data$r	SEGMENT
??_R0?AVActionUI@SC2APIProtocol@@@8 DQ FLAT:??_7type_info@@6B@ ; SC2APIProtocol::ActionUI `RTTI Type Descriptor'
	DQ	0000000000000000H
	DB	'.?AVActionUI@SC2APIProtocol@@', 00H
data$r	ENDS
;	COMDAT ??_R0?AVBuildItem@SC2APIProtocol@@@8
data$r	SEGMENT
??_R0?AVBuildItem@SC2APIProtocol@@@8 DQ FLAT:??_7type_info@@6B@ ; SC2APIProtocol::BuildItem `RTTI Type Descriptor'
	DQ	0000000000000000H
	DB	'.?AVBuildItem@SC2APIProtocol@@', 00H
data$r	ENDS
;	COMDAT ??_R0?AVUnitInfo@SC2APIProtocol@@@8
data$r	SEGMENT
??_R0?AVUnitInfo@SC2APIProtocol@@@8 DQ FLAT:??_7type_info@@6B@ ; SC2APIProtocol::UnitInfo `RTTI Type Descriptor'
	DQ	0000000000000000H
	DB	'.?AVUnitInfo@SC2APIProtocol@@', 00H
data$r	ENDS
;	COMDAT ??_R0?AVControlGroup@SC2APIProtocol@@@8
data$r	SEGMENT
??_R0?AVControlGroup@SC2APIProtocol@@@8 DQ FLAT:??_7type_info@@6B@ ; SC2APIProtocol::ControlGroup `RTTI Type Descriptor'
	DQ	0000000000000000H
	DB	'.?AVControlGroup@SC2APIProtocol@@', 00H
data$r	ENDS
_DATA	SEGMENT
?descriptor_table_s2clientprotocol_2fui_2eproto@@3UDescriptorTable@internal@protobuf@google@@B DB 00H ; descriptor_table_s2clientprotocol_2fui_2eproto
	DB	00H
	ORG $+2
	DD	0a34H
	DQ	FLAT:?descriptor_table_protodef_s2clientprotocol_2fui_2eproto@@3QBDB
	DQ	FLAT:$SG130462
	DQ	FLAT:?descriptor_table_s2clientprotocol_2fui_2eproto_once@@3Uonce_flag@std@@A
	DQ	0000000000000000H
	DD	00H
	DD	012H
	DQ	FLAT:?schemas@@3QBUMigrationSchema@internal@protobuf@google@@B
	DQ	FLAT:?file_default_instances@@3QBQEBVMessage@protobuf@google@@B
	DQ	FLAT:?offsets@TableStruct_s2clientprotocol_2fui_2eproto@@2QBIB
	DQ	FLAT:?file_level_metadata_s2clientprotocol_2fui_2eproto@@3PAUMetadata@protobuf@google@@A
	DQ	FLAT:?file_level_enum_descriptors_s2clientprotocol_2fui_2eproto@@3PAPEBVEnumDescriptor@protobuf@google@@A
	DQ	0000000000000000H
_DATA	ENDS
CONST	SEGMENT
?offsets@TableStruct_s2clientprotocol_2fui_2eproto@@2QBIB DD 0ffffffffH ; TableStruct_s2clientprotocol_2fui_2eproto::offsets
	DD	08H
	DD	0ffffffffH
	DD	034H
	DD	0ffffffffH
	DD	0ffffffffH
	DD	010H
	DD	040000000H
	DD	040000000H
	DD	040000000H
	DD	040000000H
	DD	028H
	DD	010H
	DD	08H
	DD	0ffffffffH
	DD	0ffffffffH
	DD	0ffffffffH
	DD	0ffffffffH
	DD	018H
	DD	01cH
	DD	020H
	DD	00H
	DD	01H
	DD	02H
	DD	010H
	DD	08H
	DD	0ffffffffH
	DD	0ffffffffH
	DD	0ffffffffH
	DD	0ffffffffH
	DD	020H
	DD	024H
	DD	028H
	DD	02cH
	DD	030H
	DD	034H
	DD	038H
	DD	018H
	DD	03cH
	DD	040H
	DD	044H
	DD	01H
	DD	02H
	DD	03H
	DD	04H
	DD	05H
	DD	06H
	DD	07H
	DD	00H
	DD	08H
	DD	09H
	DD	0aH
	DD	010H
	DD	08H
	DD	0ffffffffH
	DD	0ffffffffH
	DD	0ffffffffH
	DD	0ffffffffH
	DD	028H
	DD	030H
	DD	034H
	DD	038H
	DD	018H
	DD	00H
	DD	01H
	DD	02H
	DD	03H
	DD	0ffffffffH
	DD	0ffffffffH
	DD	08H
	DD	0ffffffffH
	DD	0ffffffffH
	DD	0ffffffffH
	DD	0ffffffffH
	DD	010H
	DD	010H
	DD	08H
	DD	0ffffffffH
	DD	0ffffffffH
	DD	0ffffffffH
	DD	0ffffffffH
	DD	030H
	DD	018H
	DD	038H
	DD	00H
	DD	0ffffffffH
	DD	01H
	DD	010H
	DD	08H
	DD	0ffffffffH
	DD	0ffffffffH
	DD	0ffffffffH
	DD	0ffffffffH
	DD	018H
	DD	01cH
	DD	00H
	DD	01H
	DD	010H
	DD	08H
	DD	0ffffffffH
	DD	0ffffffffH
	DD	0ffffffffH
	DD	0ffffffffH
	DD	048H
	DD	018H
	DD	030H
	DD	00H
	DD	0ffffffffH
	DD	0ffffffffH
	DD	0ffffffffH
	DD	08H
	DD	0ffffffffH
	DD	01cH
	DD	0ffffffffH
	DD	0ffffffffH
	DD	040000000H
	DD	040000000H
	DD	040000000H
	DD	040000000H
	DD	040000000H
	DD	040000000H
	DD	040000000H
	DD	040000000H
	DD	040000000H
	DD	010H
	DD	010H
	DD	08H
	DD	0ffffffffH
	DD	0ffffffffH
	DD	0ffffffffH
	DD	0ffffffffH
	DD	01cH
	DD	018H
	DD	01H
	DD	00H
	DD	010H
	DD	08H
	DD	0ffffffffH
	DD	0ffffffffH
	DD	0ffffffffH
	DD	0ffffffffH
	DD	018H
	DD	00H
	DD	010H
	DD	08H
	DD	0ffffffffH
	DD	0ffffffffH
	DD	0ffffffffH
	DD	0ffffffffH
	DD	018H
	DD	00H
	DD	0ffffffffH
	DD	08H
	DD	0ffffffffH
	DD	0ffffffffH
	DD	0ffffffffH
	DD	0ffffffffH
	DD	010H
	DD	08H
	DD	0ffffffffH
	DD	0ffffffffH
	DD	0ffffffffH
	DD	0ffffffffH
	DD	018H
	DD	00H
	DD	010H
	DD	08H
	DD	0ffffffffH
	DD	0ffffffffH
	DD	0ffffffffH
	DD	0ffffffffH
	DD	01cH
	DD	018H
	DD	01H
	DD	00H
	DD	010H
	DD	08H
	DD	0ffffffffH
	DD	0ffffffffH
	DD	0ffffffffH
	DD	0ffffffffH
	DD	018H
	DD	00H
	DD	010H
	DD	08H
	DD	0ffffffffH
	DD	0ffffffffH
	DD	0ffffffffH
	DD	0ffffffffH
	DD	018H
	DD	00H
	DD	010H
	DD	08H
	DD	0ffffffffH
	DD	0ffffffffH
	DD	0ffffffffH
	DD	0ffffffffH
	DD	018H
	DD	00H
$SG149647 DB	'%s', 00H
	ORG $+1
$SG131155 DB	'vendor\s2clientprotocol\include\s2clientprotocol\ui.pb.c'
	DB	'c', 00H
	ORG $+2
$SG149650 DB	00H, 00H
	ORG $+2
$SG131156 DB	'CHECK failed: (&from) != (_this): ', 00H
	ORG $+5
$SG131330 DB	'vendor\s2clientprotocol\include\s2clientprotocol\ui.pb.c'
	DB	'c', 00H
	ORG $+6
$SG131331 DB	'CHECK failed: _impl_.add_on_ != nullptr: ', 00H
	ORG $+6
?_class_data_@ObservationUI@SC2APIProtocol@@2UClassData@Message@protobuf@google@@B DQ FLAT:?CopyWithSourceCheck@Message@protobuf@google@@KAXAEAV123@AEBV123@@Z ; SC2APIProtocol::ObservationUI::_class_data_
	DQ	FLAT:?MergeImpl@ObservationUI@SC2APIProtocol@@CAXAEAVMessage@protobuf@google@@AEBV345@@Z
$SG131496 DB	'vendor\s2clientprotocol\include\s2clientprotocol\ui.pb.c'
	DB	'c', 00H
	ORG $+6
$SG131497 DB	'CHECK failed: (&from) != (_this): ', 00H
	ORG $+5
$SG131646 DB	'vendor\s2clientprotocol\include\s2clientprotocol\ui.pb.c'
	DB	'c', 00H
	ORG $+6
$SG131647 DB	'CHECK failed: _impl_.unit_ != nullptr: ', 00H
$SG131768 DB	'vendor\s2clientprotocol\include\s2clientprotocol\ui.pb.c'
	DB	'c', 00H
	ORG $+6
$SG131769 DB	'CHECK failed: (&from) != (_this): ', 00H
	ORG $+5
?_class_data_@ControlGroup@SC2APIProtocol@@2UClassData@Message@protobuf@google@@B DQ FLAT:?CopyWithSourceCheck@Message@protobuf@google@@KAXAEAV123@AEBV123@@Z ; SC2APIProtocol::ControlGroup::_class_data_
	DQ	FLAT:?MergeImpl@ControlGroup@SC2APIProtocol@@CAXAEAVMessage@protobuf@google@@AEBV345@@Z
?_class_data_@UnitInfo@SC2APIProtocol@@2UClassData@Message@protobuf@google@@B DQ FLAT:?CopyWithSourceCheck@Message@protobuf@google@@KAXAEAV123@AEBV123@@Z ; SC2APIProtocol::UnitInfo::_class_data_
	DQ	FLAT:?MergeImpl@UnitInfo@SC2APIProtocol@@CAXAEAVMessage@protobuf@google@@AEBV345@@Z
$SG132053 DB	'vendor\s2clientprotocol\include\s2clientprotocol\ui.pb.c'
	DB	'c', 00H
	ORG $+6
$SG132054 DB	'CHECK failed: (&from) != (_this): ', 00H
	ORG $+5
$SG132158 DB	'vendor\s2clientprotocol\include\s2clientprotocol\ui.pb.c'
	DB	'c', 00H
	ORG $+6
$SG132159 DB	'CHECK failed: _impl_.unit_ != nullptr: ', 00H
?_class_data_@SinglePanel@SC2APIProtocol@@2UClassData@Message@protobuf@google@@B DQ FLAT:?CopyWithSourceCheck@Message@protobuf@google@@KAXAEAV123@AEBV123@@Z ; SC2APIProtocol::SinglePanel::_class_data_
	DQ	FLAT:?MergeImpl@SinglePanel@SC2APIProtocol@@CAXAEAVMessage@protobuf@google@@AEBV345@@Z
$SG132267 DB	'vendor\s2clientprotocol\include\s2clientprotocol\ui.pb.c'
	DB	'c', 00H
	ORG $+6
$SG132268 DB	'CHECK failed: (&from) != (_this): ', 00H
	ORG $+5
$SG132449 DB	'vendor\s2clientprotocol\include\s2clientprotocol\ui.pb.c'
	DB	'c', 00H
	ORG $+6
$SG132450 DB	'CHECK failed: (&from) != (_this): ', 00H
	ORG $+5
?_class_data_@MultiPanel@SC2APIProtocol@@2UClassData@Message@protobuf@google@@B DQ FLAT:?CopyWithSourceCheck@Message@protobuf@google@@KAXAEAV123@AEBV123@@Z ; SC2APIProtocol::MultiPanel::_class_data_
	DQ	FLAT:?MergeImpl@MultiPanel@SC2APIProtocol@@CAXAEAVMessage@protobuf@google@@AEBV345@@Z
$SG132574 DB	'vendor\s2clientprotocol\include\s2clientprotocol\ui.pb.c'
	DB	'c', 00H
	ORG $+6
$SG132575 DB	'CHECK failed: _impl_.unit_ != nullptr: ', 00H
?_class_data_@CargoPanel@SC2APIProtocol@@2UClassData@Message@protobuf@google@@B DQ FLAT:?CopyWithSourceCheck@Message@protobuf@google@@KAXAEAV123@AEBV123@@Z ; SC2APIProtocol::CargoPanel::_class_data_
	DQ	FLAT:?MergeImpl@CargoPanel@SC2APIProtocol@@CAXAEAVMessage@protobuf@google@@AEBV345@@Z
$SG132806 DB	'vendor\s2clientprotocol\include\s2clientprotocol\ui.pb.c'
	DB	'c', 00H
	ORG $+6
$SG132807 DB	'CHECK failed: (&from) != (_this): ', 00H
	ORG $+5
?_class_data_@BuildItem@SC2APIProtocol@@2UClassData@Message@protobuf@google@@B DQ FLAT:?CopyWithSourceCheck@Message@protobuf@google@@KAXAEAV123@AEBV123@@Z ; SC2APIProtocol::BuildItem::_class_data_
	DQ	FLAT:?MergeImpl@BuildItem@SC2APIProtocol@@CAXAEAVMessage@protobuf@google@@AEBV345@@Z
$SG141188 DB	'W:\cpp\void\alistar\tests\vendor\protobuf\src\google/pro'
	DB	'tobuf/wire_format_lite.h', 00H
	ORG $+15
$SG141189 DB	'CHECK failed: (UInt32Size(tag)) == (static_cast<size_t>('
	DB	'tag_size)): ', 00H
	ORG $+11
$SG141212 DB	'W:\cpp\void\alistar\tests\vendor\protobuf\src\google/pro'
	DB	'tobuf/wire_format_lite.h', 00H
	ORG $+15
$SG141213 DB	'CHECK failed: (UInt32Size(tag)) == (static_cast<size_t>('
	DB	'tag_size)): ', 00H
	ORG $+11
$SG141236 DB	'W:\cpp\void\alistar\tests\vendor\protobuf\src\google/pro'
	DB	'tobuf/wire_format_lite.h', 00H
	ORG $+15
$SG141237 DB	'CHECK failed: (UInt32Size(tag)) == (static_cast<size_t>('
	DB	'tag_size)): ', 00H
	ORG $+11
$SG141260 DB	'W:\cpp\void\alistar\tests\vendor\protobuf\src\google/pro'
	DB	'tobuf/wire_format_lite.h', 00H
	ORG $+15
$SG141261 DB	'CHECK failed: (UInt32Size(tag)) == (static_cast<size_t>('
	DB	'tag_size)): ', 00H
	ORG $+11
$SG141284 DB	'W:\cpp\void\alistar\tests\vendor\protobuf\src\google/pro'
	DB	'tobuf/wire_format_lite.h', 00H
	ORG $+15
$SG141285 DB	'CHECK failed: (UInt32Size(tag)) == (static_cast<size_t>('
	DB	'tag_size)): ', 00H
	ORG $+11
$SG141308 DB	'W:\cpp\void\alistar\tests\vendor\protobuf\src\google/pro'
	DB	'tobuf/wire_format_lite.h', 00H
	ORG $+15
$SG141309 DB	'CHECK failed: (UInt32Size(tag)) == (static_cast<size_t>('
	DB	'tag_size)): ', 00H
	ORG $+3
?_class_data_@ProductionPanel@SC2APIProtocol@@2UClassData@Message@protobuf@google@@B DQ FLAT:?CopyWithSourceCheck@Message@protobuf@google@@KAXAEAV123@AEBV123@@Z ; SC2APIProtocol::ProductionPanel::_class_data_
	DQ	FLAT:?MergeImpl@ProductionPanel@SC2APIProtocol@@CAXAEAVMessage@protobuf@google@@AEBV345@@Z
$SG149646 DB	'invalid argument', 00H
	ORG $+7
$SG149648 DB	'D:\Program Files\Microsoft Visual Studio\2022\Community\'
	DB	'VC\Tools\MSVC\14.34.31933\include\xmemory', 00H
	ORG $+14
$SG149649 DB	'D', 00H, ':', 00H, '\', 00H, 'P', 00H, 'r', 00H, 'o', 00H
	DB	'g', 00H, 'r', 00H, 'a', 00H, 'm', 00H, ' ', 00H, 'F', 00H, 'i'
	DB	00H, 'l', 00H, 'e', 00H, 's', 00H, '\', 00H, 'M', 00H, 'i', 00H
	DB	'c', 00H, 'r', 00H, 'o', 00H, 's', 00H, 'o', 00H, 'f', 00H, 't'
	DB	00H, ' ', 00H, 'V', 00H, 'i', 00H, 's', 00H, 'u', 00H, 'a', 00H
	DB	'l', 00H, ' ', 00H, 'S', 00H, 't', 00H, 'u', 00H, 'd', 00H, 'i'
	DB	00H, 'o', 00H, '\', 00H, '2', 00H, '0', 00H, '2', 00H, '2', 00H
	DB	'\', 00H, 'C', 00H, 'o', 00H, 'm', 00H, 'm', 00H, 'u', 00H, 'n'
	DB	00H, 'i', 00H, 't', 00H, 'y', 00H, '\', 00H, 'V', 00H, 'C', 00H
	DB	'\', 00H, 'T', 00H, 'o', 00H, 'o', 00H, 'l', 00H, 's', 00H, '\'
	DB	00H, 'M', 00H, 'S', 00H, 'V', 00H, 'C', 00H, '\', 00H, '1', 00H
	DB	'4', 00H, '.', 00H, '3', 00H, '4', 00H, '.', 00H, '3', 00H, '1'
	DB	00H, '9', 00H, '3', 00H, '3', 00H, '\', 00H, 'i', 00H, 'n', 00H
	DB	'c', 00H, 'l', 00H, 'u', 00H, 'd', 00H, 'e', 00H, '\', 00H, 'x'
	DB	00H, 'm', 00H, 'e', 00H, 'm', 00H, 'o', 00H, 'r', 00H, 'y', 00H
	DB	00H, 00H
	ORG $+4
$SG149651 DB	'"', 00H, 'i', 00H, 'n', 00H, 'v', 00H, 'a', 00H, 'l', 00H
	DB	'i', 00H, 'd', 00H, ' ', 00H, 'a', 00H, 'r', 00H, 'g', 00H, 'u'
	DB	00H, 'm', 00H, 'e', 00H, 'n', 00H, 't', 00H, '"', 00H, 00H, 00H
	ORG $+2
$SG141497 DB	'W:\cpp\void\alistar\tests\vendor\protobuf\src\google/pro'
	DB	'tobuf/wire_format_lite.h', 00H
	ORG $+7
$SG141498 DB	'CHECK failed: (n) > (0): ', 00H
	ORG $+14
$SG141509 DB	'W:\cpp\void\alistar\tests\vendor\protobuf\src\google/pro'
	DB	'tobuf/wire_format_lite.h', 00H
	ORG $+7
$SG141510 DB	'CHECK failed: (n) > (0): ', 00H
	ORG $+6
$SG133321 DB	'vendor\s2clientprotocol\include\s2clientprotocol\ui.pb.c'
	DB	'c', 00H
	ORG $+6
$SG133322 DB	'CHECK failed: (&from) != (_this): ', 00H
	ORG $+5
$SG141521 DB	'W:\cpp\void\alistar\tests\vendor\protobuf\src\google/pro'
	DB	'tobuf/wire_format_lite.h', 00H
	ORG $+7
$SG141522 DB	'CHECK failed: (n) > (0): ', 00H
	ORG $+14
$SG141533 DB	'W:\cpp\void\alistar\tests\vendor\protobuf\src\google/pro'
	DB	'tobuf/wire_format_lite.h', 00H
	ORG $+7
$SG141534 DB	'CHECK failed: (n) > (0): ', 00H
	ORG $+14
$SG141545 DB	'W:\cpp\void\alistar\tests\vendor\protobuf\src\google/pro'
	DB	'tobuf/wire_format_lite.h', 00H
	ORG $+7
$SG141546 DB	'CHECK failed: (n) > (0): ', 00H
	ORG $+14
$SG141557 DB	'W:\cpp\void\alistar\tests\vendor\protobuf\src\google/pro'
	DB	'tobuf/wire_format_lite.h', 00H
	ORG $+7
$SG141558 DB	'CHECK failed: (n) > (0): ', 00H
	ORG $+14
$SG141569 DB	'W:\cpp\void\alistar\tests\vendor\protobuf\src\google/pro'
	DB	'tobuf/wire_format_lite.h', 00H
	ORG $+7
$SG141570 DB	'CHECK failed: (n) > (0): ', 00H
	ORG $+14
$SG141581 DB	'W:\cpp\void\alistar\tests\vendor\protobuf\src\google/pro'
	DB	'tobuf/wire_format_lite.h', 00H
	ORG $+7
$SG141582 DB	'CHECK failed: (n) > (0): ', 00H
	ORG $+14
$SG141593 DB	'W:\cpp\void\alistar\tests\vendor\protobuf\src\google/pro'
	DB	'tobuf/wire_format_lite.h', 00H
	ORG $+7
$SG141594 DB	'CHECK failed: (n) > (0): ', 00H
	ORG $+14
$SG141605 DB	'W:\cpp\void\alistar\tests\vendor\protobuf\src\google/pro'
	DB	'tobuf/wire_format_lite.h', 00H
	ORG $+7
$SG141606 DB	'CHECK failed: (n) > (0): ', 00H
	ORG $+14
$SG141617 DB	'W:\cpp\void\alistar\tests\vendor\protobuf\src\google/pro'
	DB	'tobuf/wire_format_lite.h', 00H
	ORG $+7
$SG141618 DB	'CHECK failed: (n) > (0): ', 00H
	ORG $+6
?_class_data_@ActionUI@SC2APIProtocol@@2UClassData@Message@protobuf@google@@B DQ FLAT:?CopyWithSourceCheck@Message@protobuf@google@@KAXAEAV123@AEBV123@@Z ; SC2APIProtocol::ActionUI::_class_data_
	DQ	FLAT:?MergeImpl@ActionUI@SC2APIProtocol@@CAXAEAVMessage@protobuf@google@@AEBV345@@Z
$SG133516 DB	'vendor\s2clientprotocol\include\s2clientprotocol\ui.pb.c'
	DB	'c', 00H
	ORG $+6
$SG133517 DB	'CHECK failed: (&from) != (_this): ', 00H
	ORG $+5
$SG133669 DB	'vendor\s2clientprotocol\include\s2clientprotocol\ui.pb.c'
	DB	'c', 00H
	ORG $+6
$SG133670 DB	'CHECK failed: (&from) != (_this): ', 00H
	ORG $+5
?_class_data_@ActionControlGroup@SC2APIProtocol@@2UClassData@Message@protobuf@google@@B DQ FLAT:?CopyWithSourceCheck@Message@protobuf@google@@KAXAEAV123@AEBV123@@Z ; SC2APIProtocol::ActionControlGroup::_class_data_
	DQ	FLAT:?MergeImpl@ActionControlGroup@SC2APIProtocol@@CAXAEAVMessage@protobuf@google@@AEBV345@@Z
$SG133830 DB	'vendor\s2clientprotocol\include\s2clientprotocol\ui.pb.c'
	DB	'c', 00H
	ORG $+6
$SG133831 DB	'CHECK failed: (&from) != (_this): ', 00H
	ORG $+5
$SG134014 DB	'vendor\s2clientprotocol\include\s2clientprotocol\ui.pb.c'
	DB	'c', 00H
	ORG $+6
$SG134015 DB	'CHECK failed: (&from) != (_this): ', 00H
	ORG $+5
?_class_data_@ActionSelectArmy@SC2APIProtocol@@2UClassData@Message@protobuf@google@@B DQ FLAT:?CopyWithSourceCheck@Message@protobuf@google@@KAXAEAV123@AEBV123@@Z ; SC2APIProtocol::ActionSelectArmy::_class_data_
	DQ	FLAT:?MergeImpl@ActionSelectArmy@SC2APIProtocol@@CAXAEAVMessage@protobuf@google@@AEBV345@@Z
$SG134186 DB	'vendor\s2clientprotocol\include\s2clientprotocol\ui.pb.c'
	DB	'c', 00H
	ORG $+6
$SG134187 DB	'CHECK failed: (&from) != (_this): ', 00H
	ORG $+5
?_class_data_@ActionSelectWarpGates@SC2APIProtocol@@2UClassData@Message@protobuf@google@@B DQ FLAT:?CopyWithSourceCheck@Message@protobuf@google@@KAXAEAV123@AEBV123@@Z ; SC2APIProtocol::ActionSelectWarpGates::_class_data_
	DQ	FLAT:?MergeImpl@ActionSelectWarpGates@SC2APIProtocol@@CAXAEAVMessage@protobuf@google@@AEBV345@@Z
?_class_data_@ActionSelectLarva@SC2APIProtocol@@2UClassData@Message@protobuf@google@@B DQ FLAT:?CopyImpl@ZeroFieldsBase@internal@protobuf@google@@KAXAEAVMessage@34@AEBV534@@Z ; SC2APIProtocol::ActionSelectLarva::_class_data_
	DQ	FLAT:?MergeImpl@ZeroFieldsBase@internal@protobuf@google@@KAXAEAVMessage@34@AEBV534@@Z
$SG134339 DB	'vendor\s2clientprotocol\include\s2clientprotocol\ui.pb.c'
	DB	'c', 00H
	ORG $+6
$SG134340 DB	'CHECK failed: (&from) != (_this): ', 00H
	ORG $+5
?_class_data_@ActionSelectIdleWorker@SC2APIProtocol@@2UClassData@Message@protobuf@google@@B DQ FLAT:?CopyWithSourceCheck@Message@protobuf@google@@KAXAEAV123@AEBV123@@Z ; SC2APIProtocol::ActionSelectIdleWorker::_class_data_
	DQ	FLAT:?MergeImpl@ActionSelectIdleWorker@SC2APIProtocol@@CAXAEAVMessage@protobuf@google@@AEBV345@@Z
$SG134490 DB	'vendor\s2clientprotocol\include\s2clientprotocol\ui.pb.c'
	DB	'c', 00H
	ORG $+6
$SG134491 DB	'CHECK failed: (&from) != (_this): ', 00H
	ORG $+5
$SG134641 DB	'vendor\s2clientprotocol\include\s2clientprotocol\ui.pb.c'
	DB	'c', 00H
	ORG $+6
$SG134642 DB	'CHECK failed: (&from) != (_this): ', 00H
	ORG $+5
?_class_data_@ActionMultiPanel@SC2APIProtocol@@2UClassData@Message@protobuf@google@@B DQ FLAT:?CopyWithSourceCheck@Message@protobuf@google@@KAXAEAV123@AEBV123@@Z ; SC2APIProtocol::ActionMultiPanel::_class_data_
	DQ	FLAT:?MergeImpl@ActionMultiPanel@SC2APIProtocol@@CAXAEAVMessage@protobuf@google@@AEBV345@@Z
?_class_data_@ActionCargoPanelUnload@SC2APIProtocol@@2UClassData@Message@protobuf@google@@B DQ FLAT:?CopyWithSourceCheck@Message@protobuf@google@@KAXAEAV123@AEBV123@@Z ; SC2APIProtocol::ActionCargoPanelUnload::_class_data_
	DQ	FLAT:?MergeImpl@ActionCargoPanelUnload@SC2APIProtocol@@CAXAEAVMessage@protobuf@google@@AEBV345@@Z
?_class_data_@ActionProductionPanelRemoveFromQueue@SC2APIProtocol@@2UClassData@Message@protobuf@google@@B DQ FLAT:?CopyWithSourceCheck@Message@protobuf@google@@KAXAEAV123@AEBV123@@Z ; SC2APIProtocol::ActionProductionPanelRemoveFromQueue::_class_data_
	DQ	FLAT:?MergeImpl@ActionProductionPanelRemoveFromQueue@SC2APIProtocol@@CAXAEAVMessage@protobuf@google@@AEBV345@@Z
?_class_data_@ActionToggleAutocast@SC2APIProtocol@@2UClassData@Message@protobuf@google@@B DQ FLAT:?CopyWithSourceCheck@Message@protobuf@google@@KAXAEAV123@AEBV123@@Z ; SC2APIProtocol::ActionToggleAutocast::_class_data_
	DQ	FLAT:?MergeImpl@ActionToggleAutocast@SC2APIProtocol@@CAXAEAVMessage@protobuf@google@@AEBV345@@Z
	ORG $+8
?schemas@@3QBUMigrationSchema@internal@protobuf@google@@B DD 00H ; schemas
	DD	0ffffffffH
	DD	0ffffffffH
	DD	038H
	DD	0cH
	DD	015H
	DD	0ffffffffH
	DD	028H
	DD	018H
	DD	029H
	DD	0ffffffffH
	DD	048H
	DD	034H
	DD	03fH
	DD	0ffffffffH
	DD	040H
	DD	044H
	DD	0ffffffffH
	DD	0ffffffffH
	DD	030H
	DD	04bH
	DD	054H
	DD	0ffffffffH
	DD	040H
	DD	057H
	DD	05fH
	DD	0ffffffffH
	DD	020H
	DD	061H
	DD	06aH
	DD	0ffffffffH
	DD	050H
	DD	06dH
	DD	0ffffffffH
	DD	0ffffffffH
	DD	020H
	DD	07dH
	DD	085H
	DD	0ffffffffH
	DD	020H
	DD	087H
	DD	08eH
	DD	0ffffffffH
	DD	020H
	DD	08fH
	DD	096H
	DD	0ffffffffH
	DD	020H
	DD	097H
	DD	0ffffffffH
	DD	0ffffffffH
	DD	018H
	DD	09dH
	DD	0a4H
	DD	0ffffffffH
	DD	020H
	DD	0a5H
	DD	0adH
	DD	0ffffffffH
	DD	020H
	DD	0afH
	DD	0b6H
	DD	0ffffffffH
	DD	020H
	DD	0b7H
	DD	0beH
	DD	0ffffffffH
	DD	020H
	DD	0bfH
	DD	0c6H
	DD	0ffffffffH
	DD	020H
?file_default_instances@@3QBQEBVMessage@protobuf@google@@B DQ FLAT:?_ObservationUI_default_instance_@SC2APIProtocol@@3UObservationUIDefaultTypeInternal@1@A ; file_default_instances
	DQ	FLAT:?_ControlGroup_default_instance_@SC2APIProtocol@@3UControlGroupDefaultTypeInternal@1@A
	DQ	FLAT:?_UnitInfo_default_instance_@SC2APIProtocol@@3UUnitInfoDefaultTypeInternal@1@A
	DQ	FLAT:?_SinglePanel_default_instance_@SC2APIProtocol@@3USinglePanelDefaultTypeInternal@1@A
	DQ	FLAT:?_MultiPanel_default_instance_@SC2APIProtocol@@3UMultiPanelDefaultTypeInternal@1@A
	DQ	FLAT:?_CargoPanel_default_instance_@SC2APIProtocol@@3UCargoPanelDefaultTypeInternal@1@A
	DQ	FLAT:?_BuildItem_default_instance_@SC2APIProtocol@@3UBuildItemDefaultTypeInternal@1@A
	DQ	FLAT:?_ProductionPanel_default_instance_@SC2APIProtocol@@3UProductionPanelDefaultTypeInternal@1@A
	DQ	FLAT:?_ActionUI_default_instance_@SC2APIProtocol@@3UActionUIDefaultTypeInternal@1@A
	DQ	FLAT:?_ActionControlGroup_default_instance_@SC2APIProtocol@@3UActionControlGroupDefaultTypeInternal@1@A
	DQ	FLAT:?_ActionSelectArmy_default_instance_@SC2APIProtocol@@3UActionSelectArmyDefaultTypeInternal@1@A
	DQ	FLAT:?_ActionSelectWarpGates_default_instance_@SC2APIProtocol@@3UActionSelectWarpGatesDefaultTypeInternal@1@A
	DQ	FLAT:?_ActionSelectLarva_default_instance_@SC2APIProtocol@@3UActionSelectLarvaDefaultTypeInternal@1@A
	DQ	FLAT:?_ActionSelectIdleWorker_default_instance_@SC2APIProtocol@@3UActionSelectIdleWorkerDefaultTypeInternal@1@A
	DQ	FLAT:?_ActionMultiPanel_default_instance_@SC2APIProtocol@@3UActionMultiPanelDefaultTypeInternal@1@A
	DQ	FLAT:?_ActionCargoPanelUnload_default_instance_@SC2APIProtocol@@3UActionCargoPanelUnloadDefaultTypeInternal@1@A
	DQ	FLAT:?_ActionProductionPanelRemoveFromQueue_default_instance_@SC2APIProtocol@@3UActionProductionPanelRemoveFromQueueDefaultTypeInternal@1@A
	DQ	FLAT:?_ActionToggleAutocast_default_instance_@SC2APIProtocol@@3UActionToggleAutocastDefaultTypeInternal@1@A
?descriptor_table_protodef_s2clientprotocol_2fui_2eproto@@3QBDB DB 0aH, 019H
	DB	's2clientprotocol/ui.proto', 012H, 0eH, 'SC2APIProtocol"', 086H
	DB	02H, 0aH, 0dH, 'ObservationUI', 012H, ',', 0aH, 06H, 'groups', 018H
	DB	01H, ' ', 03H, '(', 0bH, '2', 01cH, '.SC2APIProtocol.ControlGr'
	DB	'oup', 012H, '-', 0aH, 06H, 'single', 018H, 02H, ' ', 01H, '(', 0bH
	DB	'2', 01bH, '.SC2APIProtocol.SinglePanelH', 00H, 012H, '+', 0aH
	DB	05H, 'multi', 018H, 03H, ' ', 01H, '(', 0bH, '2', 01aH, '.SC2A'
	DB	'PIProtocol.MultiPanelH', 00H, 012H, '+', 0aH, 05H, 'cargo', 018H
	DB	04H, ' ', 01H, '(', 0bH, '2', 01aH, '.SC2APIProtocol.CargoPane'
	DB	'lH', 00H, 012H, '5', 0aH, 0aH, 'production', 018H, 05H, ' ', 01H
	DB	'(', 0bH, '2', 01fH, '.SC2APIProtocol.ProductionPanelH', 00H, 'B'
	DB	07H, 0aH, 05H, 'panel"T', 0aH, 0cH, 'ControlGroup', 012H, 01bH
	DB	0aH, 013H, 'control_group_index', 018H, 01H, ' ', 01H, '(', 0dH
	DB	012H, 018H, 0aH, 010H, 'leader_unit_type', 018H, 02H, ' ', 01H
	DB	'(', 0dH, 012H, 0dH, 0aH, 05H, 'count', 018H, 03H, ' ', 01H, '('
	DB	0dH, '"', 085H, 02H, 0aH, 08H, 'UnitInfo', 012H, 011H, 0aH, 09H
	DB	'unit_type', 018H, 01H, ' ', 01H, '(', 0dH, 012H, 017H, 0aH, 0fH
	DB	'player_relative', 018H, 02H, ' ', 01H, '(', 0dH, 012H, 0eH, 0aH
	DB	06H, 'health', 018H, 03H, ' ', 01H, '(', 05H, 012H, 0fH, 0aH, 07H
	DB	'shields', 018H, 04H, ' ', 01H, '(', 05H, 012H, 0eH, 0aH, 06H, 'e'
	DB	'nergy', 018H, 05H, ' ', 01H, '(', 05H, 012H, 01dH, 0aH, 015H, 't'
	DB	'ransport_slots_taken', 018H, 06H, ' ', 01H, '(', 05H, 012H, 016H
	DB	0aH, 0eH, 'build_progress', 018H, 07H, ' ', 01H, '(', 02H, 012H
	DB	'(', 0aH, 06H, 'add_on', 018H, 08H, ' ', 01H, '(', 0bH, '2', 018H
	DB	'.SC2APIProtocol.UnitInfo', 012H, 012H, 0aH, 0aH, 'max_health', 018H
	DB	09H, ' ', 01H, '(', 05H, 012H, 013H, 0aH, 0bH, 'max_shields', 018H
	DB	0aH, ' ', 01H, '(', 05H, 012H, 012H, 0aH, 0aH, 'max_energy', 018H
	DB	0bH, ' ', 01H, '(', 05H, '"', 09dH, 01H, 0aH, 0bH, 'SinglePane'
	DB	'l', 012H, '&', 0aH, 04H, 'unit', 018H, 01H, ' ', 01H, '(', 0bH
	DB	'2', 018H, '.SC2APIProtocol.UnitInfo', 012H, 01cH, 0aH, 014H, 'a'
	DB	'ttack_upgrade_level', 018H, 02H, ' ', 01H, '(', 05H, 012H, 01bH
	DB	0aH, 013H, 'armor_upgrade_level', 018H, 03H, ' ', 01H, '(', 05H
	DB	012H, 01cH, 0aH, 014H, 'shield_upgrade_level', 018H, 04H, ' ', 01H
	DB	'(', 05H, 012H, 0dH, 0aH, 05H, 'buffs', 018H, 05H, ' ', 03H, '('
	DB	05H, '"5', 0aH, 0aH, 'MultiPanel', 012H, '''', 0aH, 05H, 'unit'
	DB	's', 018H, 01H, ' ', 03H, '(', 0bH, '2', 018H, '.SC2APIProtoco'
	DB	'l.UnitInfo"{', 0aH, 0aH, 'CargoPanel', 012H, '&', 0aH, 04H, 'u'
	DB	'nit', 018H, 01H, ' ', 01H, '(', 0bH, '2', 018H, '.SC2APIProto'
	DB	'col.UnitInfo', 012H, ',', 0aH, 0aH, 'passengers', 018H, 02H, ' '
	DB	03H, '(', 0bH, '2', 018H, '.SC2APIProtocol.UnitInfo', 012H, 017H
	DB	0aH, 0fH, 'slots_available', 018H, 03H, ' ', 01H, '(', 05H, '"'
	DB	'7', 0aH, 09H, 'BuildItem', 012H, 012H, 0aH, 0aH, 'ability_id', 018H
	DB	01H, ' ', 01H, '(', 0dH, 012H, 016H, 0aH, 0eH, 'build_progress'
	DB	018H, 02H, ' ', 01H, '(', 02H, '"', 09dH, 01H, 0aH, 0fH, 'Prod'
	DB	'uctionPanel', 012H, '&', 0aH, 04H, 'unit', 018H, 01H, ' ', 01H
	DB	'(', 0bH, '2', 018H, '.SC2APIProtocol.UnitInfo', 012H, '-', 0aH
	DB	0bH, 'build_queue', 018H, 02H, ' ', 03H, '(', 0bH, '2', 018H, '.'
	DB	'SC2APIProtocol.UnitInfo', 012H, '3', 0aH, 010H, 'production_q'
	DB	'ueue', 018H, 03H, ' ', 03H, '(', 0bH, '2', 019H, '.SC2APIProt'
	DB	'ocol.BuildItem"', 0daH, 04H, 0aH, 08H, 'ActionUI', 012H, ';', 0aH
	DB	0dH, 'control_group', 018H, 01H, ' ', 01H, '(', 0bH, '2".SC2AP'
	DB	'IProtocol.ActionControlGroupH', 00H, 012H, '7', 0aH, 0bH, 'se'
	DB	'lect_army', 018H, 02H, ' ', 01H, '(', 0bH, '2 .SC2APIProtocol'
	DB	'.ActionSelectArmyH', 00H, 012H, 'B', 0aH, 011H, 'select_warp_'
	DB	'gates', 018H, 03H, ' ', 01H, '(', 0bH, '2%.SC2APIProtocol.Act'
	DB	'ionSelectWarpGatesH', 00H, 012H, '9', 0aH, 0cH, 'select_larva'
	DB	018H, 04H, ' ', 01H, '(', 0bH, '2!.SC2APIProtocol.ActionSelect'
	DB	'LarvaH', 00H, 012H, 'D', 0aH, 012H, 'select_idle_worker', 018H
	DB	05H, ' ', 01H, '(', 0bH, '2&.SC2APIProtocol.ActionSelectIdleWo'
	DB	'rkerH', 00H, 012H, '7', 0aH, 0bH, 'multi_panel', 018H, 06H, ' '
	DB	01H, '(', 0bH, '2 .SC2APIProtocol.ActionMultiPanelH', 00H, 012H
	DB	'=', 0aH, 0bH, 'cargo_panel', 018H, 07H, ' ', 01H, '(', 0bH, '2'
	DB	'&.SC2APIProtocol.ActionCargoPanelUnloadH', 00H, 012H, 'P', 0aH
	DB	010H, 'production_panel', 018H, 08H, ' ', 01H, '(', 0bH, '24.S'
	DB	'C2APIProtocol.ActionProductionPanelRemoveFromQueueH', 00H, 012H
	DB	'?', 0aH, 0fH, 'toggle_autocast', 018H, 09H, ' ', 01H, '(', 0bH
	DB	'2$.SC2APIProtocol.ActionToggleAutocastH', 00H, 'B', 08H, 0aH, 06H
	DB	'action"', 0d4H, 01H, 0aH, 012H, 'ActionControlGroup', 012H, 'E'
	DB	0aH, 06H, 'action', 018H, 01H, ' ', 01H, '(', 0eH, '25.SC2APIP'
	DB	'rotocol.ActionControlGroup.ControlGroupAction', 012H, 01bH, 0aH
	DB	013H, 'control_group_index', 018H, 02H, ' ', 01H, '(', 0dH, '"'
	DB	'Z', 0aH, 012H, 'ControlGroupAction', 012H, 0aH, 0aH, 06H, 'Re'
	DB	'call', 010H, 01H, 012H, 07H, 0aH, 03H, 'Set', 010H, 02H, 012H
	DB	0aH, 0aH, 06H, 'Append', 010H, 03H, 012H, 0fH, 0aH, 0bH, 'SetA'
	DB	'ndSteal', 010H, 04H, 012H, 012H, 0aH, 0eH, 'AppendAndSteal', 010H
	DB	05H, '")', 0aH, 010H, 'ActionSelectArmy', 012H, 015H, 0aH, 0dH
	DB	'selection_add', 018H, 01H, ' ', 01H, '(', 08H, '".', 0aH, 015H
	DB	'ActionSelectWarpGates', 012H, 015H, 0aH, 0dH, 'selection_add', 018H
	DB	01H, ' ', 01H, '(', 08H, '"', 013H, 0aH, 011H, 'ActionSelectLa'
	DB	'rva"', 082H, 01H, 0aH, 016H, 'ActionSelectIdleWorker', 012H, '9'
	DB	0aH, 04H, 'type', 018H, 01H, ' ', 01H, '(', 0eH, '2+.SC2APIPro'
	DB	'tocol.ActionSelectIdleWorker.Type"-', 0aH, 04H, 'Type', 012H, 07H
	DB	0aH, 03H, 'Set', 010H, 01H, 012H, 07H, 0aH, 03H, 'Add', 010H, 02H
	DB	012H, 07H, 0aH, 03H, 'All', 010H, 03H, 012H, 0aH, 0aH, 06H, 'A'
	DB	'ddAll', 010H, 04H, '"', 0b3H, 01H, 0aH, 010H, 'ActionMultiPan'
	DB	'el', 012H, '3', 0aH, 04H, 'type', 018H, 01H, ' ', 01H, '(', 0eH
	DB	'2%.SC2APIProtocol.ActionMultiPanel.Type', 012H, 012H, 0aH, 0aH
	DB	'unit_index', 018H, 02H, ' ', 01H, '(', 05H, '"V', 0aH, 04H, 'T'
	DB	'ype', 012H, 010H, 0aH, 0cH, 'SingleSelect', 010H, 01H, 012H, 010H
	DB	0aH, 0cH, 'DeselectUnit', 010H, 02H, 012H, 013H, 0aH, 0fH, 'Se'
	DB	'lectAllOfType', 010H, 03H, 012H, 015H, 0aH, 011H, 'DeselectAl'
	DB	'lOfType', 010H, 04H, '",', 0aH, 016H, 'ActionCargoPanelUnload'
	DB	012H, 012H, 0aH, 0aH, 'unit_index', 018H, 01H, ' ', 01H, '(', 05H
	DB	'":', 0aH, '$ActionProductionPanelRemoveFromQueue', 012H, 012H
	DB	0aH, 0aH, 'unit_index', 018H, 01H, ' ', 01H, '(', 05H, '"*', 0aH
	DB	014H, 'ActionToggleAutocast', 012H, 012H, 0aH, 0aH, 'ability_i'
	DB	'd', 018H, 01H, ' ', 01H, '(', 05H, 00H	; descriptor_table_protodef_s2clientprotocol_2fui_2eproto
	ORG $+3
$SG130462 DB	's2clientprotocol/ui.proto', 00H
	ORG $+6
$SG130944 DB	'vendor\s2clientprotocol\include\s2clientprotocol\ui.pb.c'
	DB	'c', 00H
	ORG $+6
$SG130945 DB	'CHECK failed: (&from) != (_this): ', 00H
CONST	ENDS
PUBLIC	?__empty_global_delete@@YAXPEAX@Z		; __empty_global_delete
PUBLIC	?__empty_global_delete@@YAXPEAX_K@Z		; __empty_global_delete
PUBLIC	?__empty_global_delete@@YAXPEAXW4align_val_t@std@@@Z ; __empty_global_delete
PUBLIC	?__empty_global_delete@@YAXPEAX_KW4align_val_t@std@@@Z ; __empty_global_delete
PUBLIC	?is_constant_evaluated@std@@YA_NXZ		; std::is_constant_evaluated
PUBLIC	??2@YAPEAX_KPEAX@Z				; operator new
PUBLIC	??0exception@std@@QEAA@QEBDH@Z			; std::exception::exception
PUBLIC	??0exception@std@@QEAA@AEBV01@@Z		; std::exception::exception
PUBLIC	??1exception@std@@UEAA@XZ			; std::exception::~exception
PUBLIC	?what@exception@std@@UEBAPEBDXZ			; std::exception::what
PUBLIC	??_Gexception@std@@UEAAPEAXI@Z			; std::exception::`scalar deleting destructor'
PUBLIC	??0bad_alloc@std@@AEAA@QEBD@Z			; std::bad_alloc::bad_alloc
PUBLIC	??1bad_alloc@std@@UEAA@XZ			; std::bad_alloc::~bad_alloc
PUBLIC	??0bad_alloc@std@@QEAA@AEBV01@@Z		; std::bad_alloc::bad_alloc
PUBLIC	??_Gbad_alloc@std@@UEAAPEAXI@Z			; std::bad_alloc::`scalar deleting destructor'
PUBLIC	??0bad_array_new_length@std@@QEAA@XZ		; std::bad_array_new_length::bad_array_new_length
PUBLIC	??1bad_array_new_length@std@@UEAA@XZ		; std::bad_array_new_length::~bad_array_new_length
PUBLIC	??0bad_array_new_length@std@@QEAA@AEBV01@@Z	; std::bad_array_new_length::bad_array_new_length
PUBLIC	??_Gbad_array_new_length@std@@UEAAPEAXI@Z	; std::bad_array_new_length::`scalar deleting destructor'
PUBLIC	?_Throw_bad_array_new_length@std@@YAXXZ		; std::_Throw_bad_array_new_length
PUBLIC	?_Allocate@_Default_allocate_traits@std@@SAPEAX_K@Z ; std::_Default_allocate_traits::_Allocate
PUBLIC	?_Adjust_manually_vector_aligned@std@@YAXAEAPEAXAEA_K@Z ; std::_Adjust_manually_vector_aligned
PUBLIC	??0_Container_proxy@std@@QEAA@PEAU_Container_base12@1@@Z ; std::_Container_proxy::_Container_proxy
PUBLIC	??0_Container_base12@std@@QEAA@XZ		; std::_Container_base12::_Container_base12
PUBLIC	?_Orphan_all@_Container_base12@std@@QEAAXXZ	; std::_Container_base12::_Orphan_all
PUBLIC	?_Orphan_all_unlocked_v3@_Container_base12@std@@AEAAXXZ ; std::_Container_base12::_Orphan_all_unlocked_v3
PUBLIC	?_Orphan_all_locked_v3@_Container_base12@std@@AEAAXXZ ; std::_Container_base12::_Orphan_all_locked_v3
PUBLIC	??$exchange@PEAU_Iterator_base12@std@@$$T@std@@YAPEAU_Iterator_base12@0@AEAPEAU10@$$QEA$$T@Z ; std::exchange<std::_Iterator_base12 *,std::nullptr_t>
PUBLIC	??$_Construct_in_place@U_Container_proxy@std@@PEAU_Container_base12@2@@std@@YAXAEAU_Container_proxy@0@$$QEAPEAU_Container_base12@0@@Z ; std::_Construct_in_place<std::_Container_proxy,std::_Container_base12 *>
PUBLIC	??$swap@H$0A@@std@@YAXAEAH0@Z			; std::swap<int,0>
PUBLIC	??$swap@_J$0A@@std@@YAXAEA_J0@Z			; std::swap<__int64,0>
PUBLIC	?Log2FloorNonZero@Bits@protobuf@google@@SAII@Z	; google::protobuf::Bits::Log2FloorNonZero
PUBLIC	?Log2FloorNonZero64@Bits@protobuf@google@@SAI_K@Z ; google::protobuf::Bits::Log2FloorNonZero64
PUBLIC	?EnsureSpace@EpsCopyOutputStream@io@protobuf@google@@QEAAPEAEPEAE@Z ; google::protobuf::io::EpsCopyOutputStream::EnsureSpace
PUBLIC	??$UnsafeVarint@I@EpsCopyOutputStream@io@protobuf@google@@CAPEAEIPEAE@Z ; google::protobuf::io::EpsCopyOutputStream::UnsafeVarint<unsigned int>
PUBLIC	?WriteLittleEndian32ToArray@CodedOutputStream@io@protobuf@google@@SAPEAEIPEAE@Z ; google::protobuf::io::CodedOutputStream::WriteLittleEndian32ToArray
PUBLIC	?WriteVarint32ToArray@CodedOutputStream@io@protobuf@google@@SAPEAEIPEAE@Z ; google::protobuf::io::CodedOutputStream::WriteVarint32ToArray
PUBLIC	?WriteVarint64ToArray@CodedOutputStream@io@protobuf@google@@SAPEAE_KPEAE@Z ; google::protobuf::io::CodedOutputStream::WriteVarint64ToArray
PUBLIC	?WriteVarint32SignExtendedToArray@CodedOutputStream@io@protobuf@google@@SAPEAEHPEAE@Z ; google::protobuf::io::CodedOutputStream::WriteVarint32SignExtendedToArray
PUBLIC	?WriteTagToArray@CodedOutputStream@io@protobuf@google@@SAPEAEIPEAE@Z ; google::protobuf::io::CodedOutputStream::WriteTagToArray
PUBLIC	?VarintSize32@CodedOutputStream@io@protobuf@google@@SA_KI@Z ; google::protobuf::io::CodedOutputStream::VarintSize32
PUBLIC	?VarintSize64@CodedOutputStream@io@protobuf@google@@SA_K_K@Z ; google::protobuf::io::CodedOutputStream::VarintSize64
PUBLIC	?VarintSize32SignExtended@CodedOutputStream@io@protobuf@google@@SA_KH@Z ; google::protobuf::io::CodedOutputStream::VarintSize32SignExtended
PUBLIC	?VarintSize32PlusOne@CodedOutputStream@io@protobuf@google@@SA_KI@Z ; google::protobuf::io::CodedOutputStream::VarintSize32PlusOne
PUBLIC	?VarintSize64PlusOne@CodedOutputStream@io@protobuf@google@@SA_K_K@Z ; google::protobuf::io::CodedOutputStream::VarintSize64PlusOne
PUBLIC	?VarintSize32SignExtendedPlusOne@CodedOutputStream@io@protobuf@google@@SA_KH@Z ; google::protobuf::io::CodedOutputStream::VarintSize32SignExtendedPlusOne
PUBLIC	??$UnsafeVarint@_K@EpsCopyOutputStream@io@protobuf@google@@CAPEAE_KPEAE@Z ; google::protobuf::io::EpsCopyOutputStream::UnsafeVarint<unsigned __int64>
PUBLIC	?AlignUpTo8@internal@protobuf@google@@YA_K_K@Z	; google::protobuf::internal::AlignUpTo8
PUBLIC	?AlignTo@internal@protobuf@google@@YAPEAXPEAX_K@Z ; google::protobuf::internal::AlignTo
PUBLIC	??1Arena@protobuf@google@@QEAA@XZ		; google::protobuf::Arena::~Arena
PUBLIC	?SpaceAllocated@Arena@protobuf@google@@QEBA_KXZ	; google::protobuf::Arena::SpaceAllocated
PUBLIC	?AllocateInternal@Arena@protobuf@google@@AEAAPEAX_K0P6AXPEAX@ZPEBVtype_info@@@Z ; google::protobuf::Arena::AllocateInternal
PUBLIC	?AllocateAlignedWithHook@Arena@protobuf@google@@AEAAPEAX_K0PEBVtype_info@@@Z ; google::protobuf::Arena::AllocateAlignedWithHook
PUBLIC	??_GArena@protobuf@google@@QEAAPEAXI@Z		; google::protobuf::Arena::`scalar deleting destructor'
PUBLIC	??0InternalMetadata@internal@protobuf@google@@QEAA@XZ ; google::protobuf::internal::InternalMetadata::InternalMetadata
PUBLIC	??0InternalMetadata@internal@protobuf@google@@QEAA@PEAVArena@23@_N@Z ; google::protobuf::internal::InternalMetadata::InternalMetadata
PUBLIC	?SetArena@InternalMetadata@internal@protobuf@google@@QEAAXPEAVArena@34@_N@Z ; google::protobuf::internal::InternalMetadata::SetArena
PUBLIC	??1InternalMetadata@internal@protobuf@google@@QEAA@XZ ; google::protobuf::internal::InternalMetadata::~InternalMetadata
PUBLIC	?owning_arena@InternalMetadata@internal@protobuf@google@@QEBAPEAVArena@34@XZ ; google::protobuf::internal::InternalMetadata::owning_arena
PUBLIC	?arena@InternalMetadata@internal@protobuf@google@@QEBAPEAVArena@34@XZ ; google::protobuf::internal::InternalMetadata::arena
PUBLIC	?have_unknown_fields@InternalMetadata@internal@protobuf@google@@QEBA_NXZ ; google::protobuf::internal::InternalMetadata::have_unknown_fields
PUBLIC	?InternalSwap@InternalMetadata@internal@protobuf@google@@QEAAXPEAV1234@@Z ; google::protobuf::internal::InternalMetadata::InternalSwap
PUBLIC	?HasUnknownFieldsTag@InternalMetadata@internal@protobuf@google@@AEBA_NXZ ; google::protobuf::internal::InternalMetadata::HasUnknownFieldsTag
PUBLIC	?HasMessageOwnedArenaTag@InternalMetadata@internal@protobuf@google@@AEBA_NXZ ; google::protobuf::internal::InternalMetadata::HasMessageOwnedArenaTag
PUBLIC	??$PtrValue@UContainerBase@InternalMetadata@internal@protobuf@google@@@InternalMetadata@internal@protobuf@google@@AEBAPEAUContainerBase@0123@XZ ; google::protobuf::internal::InternalMetadata::PtrValue<google::protobuf::internal::InternalMetadata::ContainerBase>
PUBLIC	??$PtrValue@VArena@protobuf@google@@@InternalMetadata@internal@protobuf@google@@AEBAPEAVArena@23@XZ ; google::protobuf::internal::InternalMetadata::PtrValue<google::protobuf::Arena>
PUBLIC	?FromIntSize@internal@protobuf@google@@YA_KH@Z	; google::protobuf::internal::FromIntSize
PUBLIC	??0MessageLite@protobuf@google@@QEAA@XZ		; google::protobuf::MessageLite::MessageLite
PUBLIC	??1MessageLite@protobuf@google@@UEAA@XZ		; google::protobuf::MessageLite::~MessageLite
PUBLIC	?_InternalParse@MessageLite@protobuf@google@@UEAAPEBDPEBDPEAVParseContext@internal@23@@Z ; google::protobuf::MessageLite::_InternalParse
PUBLIC	??0MessageLite@protobuf@google@@IEAA@PEAVArena@12@_N@Z ; google::protobuf::MessageLite::MessageLite
PUBLIC	?GetOwningArena@MessageLite@protobuf@google@@IEBAPEAVArena@23@XZ ; google::protobuf::MessageLite::GetOwningArena
PUBLIC	?GetArenaForAllocation@MessageLite@protobuf@google@@IEBAPEAVArena@23@XZ ; google::protobuf::MessageLite::GetArenaForAllocation
PUBLIC	??_GMessageLite@protobuf@google@@UEAAPEAXI@Z	; google::protobuf::MessageLite::`scalar deleting destructor'
PUBLIC	??0?$HasBits@$00@internal@protobuf@google@@QEAA@XZ ; google::protobuf::internal::HasBits<1>::HasBits<1>
PUBLIC	?Clear@?$HasBits@$00@internal@protobuf@google@@QEAAXXZ ; google::protobuf::internal::HasBits<1>::Clear
PUBLIC	??A?$HasBits@$00@internal@protobuf@google@@QEAAAEAIH@Z ; google::protobuf::internal::HasBits<1>::operator[]
PUBLIC	??A?$HasBits@$00@internal@protobuf@google@@QEBAAEBIH@Z ; google::protobuf::internal::HasBits<1>::operator[]
PUBLIC	?Or@?$HasBits@$00@internal@protobuf@google@@QEAAXAEBV1234@@Z ; google::protobuf::internal::HasBits<1>::Or
PUBLIC	??0RepeatedPtrFieldBase@internal@protobuf@google@@IEAA@XZ ; google::protobuf::internal::RepeatedPtrFieldBase::RepeatedPtrFieldBase
PUBLIC	??0RepeatedPtrFieldBase@internal@protobuf@google@@IEAA@PEAVArena@23@@Z ; google::protobuf::internal::RepeatedPtrFieldBase::RepeatedPtrFieldBase
PUBLIC	??1RepeatedPtrFieldBase@internal@protobuf@google@@IEAA@XZ ; google::protobuf::internal::RepeatedPtrFieldBase::~RepeatedPtrFieldBase
PUBLIC	?size@RepeatedPtrFieldBase@internal@protobuf@google@@IEBAHXZ ; google::protobuf::internal::RepeatedPtrFieldBase::size
PUBLIC	?NeedsDestroy@RepeatedPtrFieldBase@internal@protobuf@google@@IEBA_NXZ ; google::protobuf::internal::RepeatedPtrFieldBase::NeedsDestroy
PUBLIC	?InternalSwap@RepeatedPtrFieldBase@internal@protobuf@google@@QEAAXPEAV1234@@Z ; google::protobuf::internal::RepeatedPtrFieldBase::InternalSwap
PUBLIC	?raw_data@RepeatedPtrFieldBase@internal@protobuf@google@@IEBAPEBQEAXXZ ; google::protobuf::internal::RepeatedPtrFieldBase::raw_data
PUBLIC	?GetOwningArena@RepeatedPtrFieldBase@internal@protobuf@google@@IEBAPEAVArena@34@XZ ; google::protobuf::internal::RepeatedPtrFieldBase::GetOwningArena
PUBLIC	?MergeFromInternal@RepeatedPtrFieldBase@internal@protobuf@google@@AEAAXAEBV1234@P81234@EAAXPEAPEAX1HH@Z@Z ; google::protobuf::internal::RepeatedPtrFieldBase::MergeFromInternal
PUBLIC	??$make_tuple@AEAPEAVArena@protobuf@google@@AEAHAEAHAEAPEAURep@RepeatedPtrFieldBase@internal@23@@std@@YA?AV?$tuple@PEAVArena@protobuf@google@@HHPEAURep@RepeatedPtrFieldBase@internal@23@@0@AEAPEAVArena@protobuf@google@@AEAH1AEAPEAURep@RepeatedPtrFieldBase@internal@34@@Z ; std::make_tuple<google::protobuf::Arena * &,int &,int &,google::protobuf::internal::RepeatedPtrFieldBase::Rep * &>
PUBLIC	?_Get_rest@?$tuple@PEAURep@RepeatedPtrFieldBase@internal@protobuf@google@@@std@@QEAAAEAV?$tuple@$$V@2@XZ ; std::tuple<google::protobuf::internal::RepeatedPtrFieldBase::Rep *>::_Get_rest
PUBLIC	?_Get_rest@?$tuple@PEAURep@RepeatedPtrFieldBase@internal@protobuf@google@@@std@@QEBAAEBV?$tuple@$$V@2@XZ ; std::tuple<google::protobuf::internal::RepeatedPtrFieldBase::Rep *>::_Get_rest
PUBLIC	?_Get_rest@?$tuple@HPEAURep@RepeatedPtrFieldBase@internal@protobuf@google@@@std@@QEAAAEAV?$tuple@PEAURep@RepeatedPtrFieldBase@internal@protobuf@google@@@2@XZ ; std::tuple<int,google::protobuf::internal::RepeatedPtrFieldBase::Rep *>::_Get_rest
PUBLIC	?_Get_rest@?$tuple@HPEAURep@RepeatedPtrFieldBase@internal@protobuf@google@@@std@@QEBAAEBV?$tuple@PEAURep@RepeatedPtrFieldBase@internal@protobuf@google@@@2@XZ ; std::tuple<int,google::protobuf::internal::RepeatedPtrFieldBase::Rep *>::_Get_rest
PUBLIC	?_Get_rest@?$tuple@HHPEAURep@RepeatedPtrFieldBase@internal@protobuf@google@@@std@@QEAAAEAV?$tuple@HPEAURep@RepeatedPtrFieldBase@internal@protobuf@google@@@2@XZ ; std::tuple<int,int,google::protobuf::internal::RepeatedPtrFieldBase::Rep *>::_Get_rest
PUBLIC	?_Get_rest@?$tuple@HHPEAURep@RepeatedPtrFieldBase@internal@protobuf@google@@@std@@QEBAAEBV?$tuple@HPEAURep@RepeatedPtrFieldBase@internal@protobuf@google@@@2@XZ ; std::tuple<int,int,google::protobuf::internal::RepeatedPtrFieldBase::Rep *>::_Get_rest
PUBLIC	?_Get_rest@?$tuple@PEAVArena@protobuf@google@@HHPEAURep@RepeatedPtrFieldBase@internal@23@@std@@QEAAAEAV?$tuple@HHPEAURep@RepeatedPtrFieldBase@internal@protobuf@google@@@2@XZ ; std::tuple<google::protobuf::Arena *,int,int,google::protobuf::internal::RepeatedPtrFieldBase::Rep *>::_Get_rest
PUBLIC	?_Get_rest@?$tuple@PEAVArena@protobuf@google@@HHPEAURep@RepeatedPtrFieldBase@internal@23@@std@@QEBAAEBV?$tuple@HHPEAURep@RepeatedPtrFieldBase@internal@protobuf@google@@@2@XZ ; std::tuple<google::protobuf::Arena *,int,int,google::protobuf::internal::RepeatedPtrFieldBase::Rep *>::_Get_rest
PUBLIC	??$tie@PEAVArena@protobuf@google@@HHPEAURep@RepeatedPtrFieldBase@internal@23@@std@@YA?AV?$tuple@AEAPEAVArena@protobuf@google@@AEAHAEAHAEAPEAURep@RepeatedPtrFieldBase@internal@23@@0@AEAPEAVArena@protobuf@google@@AEAH1AEAPEAURep@RepeatedPtrFieldBase@internal@34@@Z ; std::tie<google::protobuf::Arena *,int,int,google::protobuf::internal::RepeatedPtrFieldBase::Rep *>
PUBLIC	?_Get_rest@?$tuple@AEAPEAURep@RepeatedPtrFieldBase@internal@protobuf@google@@@std@@QEAAAEAV?$tuple@$$V@2@XZ ; std::tuple<google::protobuf::internal::RepeatedPtrFieldBase::Rep * &>::_Get_rest
PUBLIC	?_Get_rest@?$tuple@AEAHAEAPEAURep@RepeatedPtrFieldBase@internal@protobuf@google@@@std@@QEAAAEAV?$tuple@AEAPEAURep@RepeatedPtrFieldBase@internal@protobuf@google@@@2@XZ ; std::tuple<int &,google::protobuf::internal::RepeatedPtrFieldBase::Rep * &>::_Get_rest
PUBLIC	?_Get_rest@?$tuple@AEAHAEAHAEAPEAURep@RepeatedPtrFieldBase@internal@protobuf@google@@@std@@QEAAAEAV?$tuple@AEAHAEAPEAURep@RepeatedPtrFieldBase@internal@protobuf@google@@@2@XZ ; std::tuple<int &,int &,google::protobuf::internal::RepeatedPtrFieldBase::Rep * &>::_Get_rest
PUBLIC	?_Get_rest@?$tuple@AEAPEAVArena@protobuf@google@@AEAHAEAHAEAPEAURep@RepeatedPtrFieldBase@internal@23@@std@@QEAAAEAV?$tuple@AEAHAEAHAEAPEAURep@RepeatedPtrFieldBase@internal@protobuf@google@@@2@XZ ; std::tuple<google::protobuf::Arena * &,int &,int &,google::protobuf::internal::RepeatedPtrFieldBase::Rep * &>::_Get_rest
PUBLIC	??$?4PEAVArena@protobuf@google@@HHPEAURep@RepeatedPtrFieldBase@internal@12@$0A@@?$tuple@AEAPEAVArena@protobuf@google@@AEAHAEAHAEAPEAURep@RepeatedPtrFieldBase@internal@23@@std@@QEAAAEAV01@$$QEAV?$tuple@PEAVArena@protobuf@google@@HHPEAURep@RepeatedPtrFieldBase@internal@23@@1@@Z ; std::tuple<google::protobuf::Arena * &,int &,int &,google::protobuf::internal::RepeatedPtrFieldBase::Rep * &>::operator=<google::protobuf::Arena *,int,int,google::protobuf::internal::RepeatedPtrFieldBase::Rep *,0>
PUBLIC	??$?4PEAVArena@protobuf@google@@HHPEAURep@RepeatedPtrFieldBase@internal@12@$0A@@?$tuple@AEAPEAVArena@protobuf@google@@AEAHAEAHAEAPEAURep@RepeatedPtrFieldBase@internal@23@@std@@QEAAAEAV01@AEBV?$tuple@PEAVArena@protobuf@google@@HHPEAURep@RepeatedPtrFieldBase@internal@23@@1@@Z ; std::tuple<google::protobuf::Arena * &,int &,int &,google::protobuf::internal::RepeatedPtrFieldBase::Rep * &>::operator=<google::protobuf::Arena *,int,int,google::protobuf::internal::RepeatedPtrFieldBase::Rep *,0>
PUBLIC	??0?$RepeatedField@H@protobuf@google@@QEAA@XZ	; google::protobuf::RepeatedField<int>::RepeatedField<int>
PUBLIC	??_G?$RepeatedField@H@protobuf@google@@QEAAPEAXI@Z ; google::protobuf::RepeatedField<int>::`scalar deleting destructor'
PUBLIC	?MakeTag@WireFormatLite@internal@protobuf@google@@SAIHW4WireType@1234@@Z ; google::protobuf::internal::WireFormatLite::MakeTag
PUBLIC	?EncodeFloat@WireFormatLite@internal@protobuf@google@@SAIM@Z ; google::protobuf::internal::WireFormatLite::EncodeFloat
PUBLIC	?WriteTagToArray@WireFormatLite@internal@protobuf@google@@SAPEAEHW4WireType@1234@PEAE@Z ; google::protobuf::internal::WireFormatLite::WriteTagToArray
PUBLIC	?WriteInt32NoTagToArray@WireFormatLite@internal@protobuf@google@@SAPEAEHPEAE@Z ; google::protobuf::internal::WireFormatLite::WriteInt32NoTagToArray
PUBLIC	?WriteUInt32NoTagToArray@WireFormatLite@internal@protobuf@google@@SAPEAEIPEAE@Z ; google::protobuf::internal::WireFormatLite::WriteUInt32NoTagToArray
PUBLIC	?WriteFloatNoTagToArray@WireFormatLite@internal@protobuf@google@@SAPEAEMPEAE@Z ; google::protobuf::internal::WireFormatLite::WriteFloatNoTagToArray
PUBLIC	?WriteBoolNoTagToArray@WireFormatLite@internal@protobuf@google@@SAPEAE_NPEAE@Z ; google::protobuf::internal::WireFormatLite::WriteBoolNoTagToArray
PUBLIC	?WriteEnumNoTagToArray@WireFormatLite@internal@protobuf@google@@SAPEAEHPEAE@Z ; google::protobuf::internal::WireFormatLite::WriteEnumNoTagToArray
PUBLIC	?WriteInt32ToArray@WireFormatLite@internal@protobuf@google@@SAPEAEHHPEAE@Z ; google::protobuf::internal::WireFormatLite::WriteInt32ToArray
PUBLIC	?WriteUInt32ToArray@WireFormatLite@internal@protobuf@google@@SAPEAEHIPEAE@Z ; google::protobuf::internal::WireFormatLite::WriteUInt32ToArray
PUBLIC	?WriteFloatToArray@WireFormatLite@internal@protobuf@google@@SAPEAEHMPEAE@Z ; google::protobuf::internal::WireFormatLite::WriteFloatToArray
PUBLIC	?WriteBoolToArray@WireFormatLite@internal@protobuf@google@@SAPEAEH_NPEAE@Z ; google::protobuf::internal::WireFormatLite::WriteBoolToArray
PUBLIC	?WriteEnumToArray@WireFormatLite@internal@protobuf@google@@SAPEAEHHPEAE@Z ; google::protobuf::internal::WireFormatLite::WriteEnumToArray
PUBLIC	?EnumSize@WireFormatLite@internal@protobuf@google@@SA_KH@Z ; google::protobuf::internal::WireFormatLite::EnumSize
PUBLIC	?Int32SizePlusOne@WireFormatLite@internal@protobuf@google@@SA_KH@Z ; google::protobuf::internal::WireFormatLite::Int32SizePlusOne
PUBLIC	?UInt32SizePlusOne@WireFormatLite@internal@protobuf@google@@SA_KI@Z ; google::protobuf::internal::WireFormatLite::UInt32SizePlusOne
PUBLIC	?LengthDelimitedSize@WireFormatLite@internal@protobuf@google@@SA_K_K@Z ; google::protobuf::internal::WireFormatLite::LengthDelimitedSize
PUBLIC	??$bit_cast@IM@internal@protobuf@google@@YAIAEBM@Z ; google::protobuf::internal::bit_cast<unsigned int,float>
PUBLIC	?Get@CachedSize@internal@protobuf@google@@QEBAHXZ ; google::protobuf::internal::CachedSize::Get
PUBLIC	?Set@CachedSize@internal@protobuf@google@@QEAAXH@Z ; google::protobuf::internal::CachedSize::Set
PUBLIC	??0?$_Atomic_storage@H$03@std@@QEAA@H@Z		; std::_Atomic_storage<int,4>::_Atomic_storage<int,4>
PUBLIC	?store@?$_Atomic_storage@H$03@std@@QEAAXH@Z	; std::_Atomic_storage<int,4>::store
PUBLIC	?store@?$_Atomic_storage@H$03@std@@QEAAXHW4memory_order@2@@Z ; std::_Atomic_storage<int,4>::store
PUBLIC	?load@?$_Atomic_storage@H$03@std@@QEBAHW4memory_order@2@@Z ; std::_Atomic_storage<int,4>::load
PUBLIC	??0?$_Atomic_integral@H$03@std@@QEAA@H@Z	; std::_Atomic_integral<int,4>::_Atomic_integral<int,4>
PUBLIC	??0?$_Atomic_integral_facade@H@std@@QEAA@H@Z	; std::_Atomic_integral_facade<int>::_Atomic_integral_facade<int>
PUBLIC	??0?$atomic@H@std@@QEAA@H@Z			; std::atomic<int>::atomic<int>
PUBLIC	??0CachedSize@internal@protobuf@google@@QEAA@XZ	; google::protobuf::internal::CachedSize::CachedSize
PUBLIC	?ToHost@little_endian@internal@protobuf@google@@YAII@Z ; google::protobuf::internal::little_endian::ToHost
PUBLIC	?WriteVarint@internal@protobuf@google@@YAXI_KPEAVUnknownFieldSet@23@@Z ; google::protobuf::internal::WriteVarint
PUBLIC	?SetLastTag@EpsCopyInputStream@internal@protobuf@google@@QEAAXI@Z ; google::protobuf::internal::EpsCopyInputStream::SetLastTag
PUBLIC	?DataAvailable@EpsCopyInputStream@internal@protobuf@google@@QEAA_NPEBD@Z ; google::protobuf::internal::EpsCopyInputStream::DataAvailable
PUBLIC	?DoneWithCheck@EpsCopyInputStream@internal@protobuf@google@@IEAA_NPEAPEBDH@Z ; google::protobuf::internal::EpsCopyInputStream::DoneWithCheck
PUBLIC	?Done@ParseContext@internal@protobuf@google@@QEAA_NPEAPEBD@Z ; google::protobuf::internal::ParseContext::Done
PUBLIC	?Load@?$EndianHelper@$03@internal@protobuf@google@@SAIPEBX@Z ; google::protobuf::internal::EndianHelper<4>::Load
PUBLIC	?VarintParseSlow@internal@protobuf@google@@YAPEBDPEBDIPEAI@Z ; google::protobuf::internal::VarintParseSlow
PUBLIC	?VarintParseSlow@internal@protobuf@google@@YAPEBDPEBDIPEA_K@Z ; google::protobuf::internal::VarintParseSlow
PUBLIC	?ReadTag@internal@protobuf@google@@YAPEBDPEBDPEAII@Z ; google::protobuf::internal::ReadTag
PUBLIC	?ReadVarint64@internal@protobuf@google@@YA_KPEAPEBD@Z ; google::protobuf::internal::ReadVarint64
PUBLIC	??$VarintParse@_K@internal@protobuf@google@@YAPEBDPEBDPEA_K@Z ; google::protobuf::internal::VarintParse<unsigned __int64>
PUBLIC	?ReadVarint32@internal@protobuf@google@@YAIPEAPEBD@Z ; google::protobuf::internal::ReadVarint32
PUBLIC	??$VarintParse@I@internal@protobuf@google@@YAPEBDPEBDPEAI@Z ; google::protobuf::internal::VarintParse<unsigned int>
PUBLIC	??0UnknownFieldSet@protobuf@google@@QEAA@XZ	; google::protobuf::UnknownFieldSet::UnknownFieldSet
PUBLIC	??1UnknownFieldSet@protobuf@google@@QEAA@XZ	; google::protobuf::UnknownFieldSet::~UnknownFieldSet
PUBLIC	?Clear@UnknownFieldSet@protobuf@google@@QEAAXXZ	; google::protobuf::UnknownFieldSet::Clear
PUBLIC	??0?$allocator@VUnknownField@protobuf@google@@@std@@QEAA@XZ ; std::allocator<google::protobuf::UnknownField>::allocator<google::protobuf::UnknownField>
PUBLIC	?deallocate@?$allocator@VUnknownField@protobuf@google@@@std@@QEAAXQEAVUnknownField@protobuf@google@@_K@Z ; std::allocator<google::protobuf::UnknownField>::deallocate
PUBLIC	??0?$vector@VUnknownField@protobuf@google@@V?$allocator@VUnknownField@protobuf@google@@@std@@@std@@QEAA@XZ ; std::vector<google::protobuf::UnknownField,std::allocator<google::protobuf::UnknownField> >::vector<google::protobuf::UnknownField,std::allocator<google::protobuf::UnknownField> >
PUBLIC	??1?$vector@VUnknownField@protobuf@google@@V?$allocator@VUnknownField@protobuf@google@@@std@@@std@@QEAA@XZ ; std::vector<google::protobuf::UnknownField,std::allocator<google::protobuf::UnknownField> >::~vector<google::protobuf::UnknownField,std::allocator<google::protobuf::UnknownField> >
PUBLIC	?empty@?$vector@VUnknownField@protobuf@google@@V?$allocator@VUnknownField@protobuf@google@@@std@@@std@@QEBA_NXZ ; std::vector<google::protobuf::UnknownField,std::allocator<google::protobuf::UnknownField> >::empty
PUBLIC	?_Tidy@?$vector@VUnknownField@protobuf@google@@V?$allocator@VUnknownField@protobuf@google@@@std@@@std@@AEAAXXZ ; std::vector<google::protobuf::UnknownField,std::allocator<google::protobuf::UnknownField> >::_Tidy
PUBLIC	?_Getal@?$vector@VUnknownField@protobuf@google@@V?$allocator@VUnknownField@protobuf@google@@@std@@@std@@AEAAAEAV?$allocator@VUnknownField@protobuf@google@@@2@XZ ; std::vector<google::protobuf::UnknownField,std::allocator<google::protobuf::UnknownField> >::_Getal
PUBLIC	??0?$_Vector_val@U?$_Simple_types@VUnknownField@protobuf@google@@@std@@@std@@QEAA@XZ ; std::_Vector_val<std::_Simple_types<google::protobuf::UnknownField> >::_Vector_val<std::_Simple_types<google::protobuf::UnknownField> >
PUBLIC	?_Get_first@?$_Compressed_pair@V?$allocator@VUnknownField@protobuf@google@@@std@@V?$_Vector_val@U?$_Simple_types@VUnknownField@protobuf@google@@@std@@@2@$00@std@@QEAAAEAV?$allocator@VUnknownField@protobuf@google@@@2@XZ ; std::_Compressed_pair<std::allocator<google::protobuf::UnknownField>,std::_Vector_val<std::_Simple_types<google::protobuf::UnknownField> >,1>::_Get_first
PUBLIC	??0Message@protobuf@google@@QEAA@XZ		; google::protobuf::Message::Message
PUBLIC	?GetClassData@Message@protobuf@google@@MEBAPEBUClassData@123@XZ ; google::protobuf::Message::GetClassData
PUBLIC	??0Message@protobuf@google@@IEAA@PEAVArena@12@_N@Z ; google::protobuf::Message::Message
PUBLIC	??1Message@protobuf@google@@UEAA@XZ		; google::protobuf::Message::~Message
PUBLIC	??_GMessage@protobuf@google@@UEAAPEAXI@Z	; google::protobuf::Message::`scalar deleting destructor'
PUBLIC	??0ZeroFieldsBase@internal@protobuf@google@@IEAA@XZ ; google::protobuf::internal::ZeroFieldsBase::ZeroFieldsBase
PUBLIC	??0ZeroFieldsBase@internal@protobuf@google@@IEAA@PEAVArena@23@_N@Z ; google::protobuf::internal::ZeroFieldsBase::ZeroFieldsBase
PUBLIC	??_GZeroFieldsBase@internal@protobuf@google@@MEAAPEAXI@Z ; google::protobuf::internal::ZeroFieldsBase::`scalar deleting destructor'
PUBLIC	??$CreateMaybeMessage@VActionCargoPanelUnload@SC2APIProtocol@@$$V@Arena@protobuf@google@@CAPEAVActionCargoPanelUnload@SC2APIProtocol@@PEAV012@@Z ; google::protobuf::Arena::CreateMaybeMessage<SC2APIProtocol::ActionCargoPanelUnload>
PUBLIC	??$CreateMaybeMessage@VActionControlGroup@SC2APIProtocol@@$$V@Arena@protobuf@google@@CAPEAVActionControlGroup@SC2APIProtocol@@PEAV012@@Z ; google::protobuf::Arena::CreateMaybeMessage<SC2APIProtocol::ActionControlGroup>
PUBLIC	??$CreateMaybeMessage@VActionMultiPanel@SC2APIProtocol@@$$V@Arena@protobuf@google@@CAPEAVActionMultiPanel@SC2APIProtocol@@PEAV012@@Z ; google::protobuf::Arena::CreateMaybeMessage<SC2APIProtocol::ActionMultiPanel>
PUBLIC	??$CreateMaybeMessage@VActionProductionPanelRemoveFromQueue@SC2APIProtocol@@$$V@Arena@protobuf@google@@CAPEAVActionProductionPanelRemoveFromQueue@SC2APIProtocol@@PEAV012@@Z ; google::protobuf::Arena::CreateMaybeMessage<SC2APIProtocol::ActionProductionPanelRemoveFromQueue>
PUBLIC	??$CreateMaybeMessage@VActionSelectArmy@SC2APIProtocol@@$$V@Arena@protobuf@google@@CAPEAVActionSelectArmy@SC2APIProtocol@@PEAV012@@Z ; google::protobuf::Arena::CreateMaybeMessage<SC2APIProtocol::ActionSelectArmy>
PUBLIC	??$CreateMaybeMessage@VActionSelectIdleWorker@SC2APIProtocol@@$$V@Arena@protobuf@google@@CAPEAVActionSelectIdleWorker@SC2APIProtocol@@PEAV012@@Z ; google::protobuf::Arena::CreateMaybeMessage<SC2APIProtocol::ActionSelectIdleWorker>
PUBLIC	??$CreateMaybeMessage@VActionSelectLarva@SC2APIProtocol@@$$V@Arena@protobuf@google@@CAPEAVActionSelectLarva@SC2APIProtocol@@PEAV012@@Z ; google::protobuf::Arena::CreateMaybeMessage<SC2APIProtocol::ActionSelectLarva>
PUBLIC	??$CreateMaybeMessage@VActionSelectWarpGates@SC2APIProtocol@@$$V@Arena@protobuf@google@@CAPEAVActionSelectWarpGates@SC2APIProtocol@@PEAV012@@Z ; google::protobuf::Arena::CreateMaybeMessage<SC2APIProtocol::ActionSelectWarpGates>
PUBLIC	??$CreateMaybeMessage@VActionToggleAutocast@SC2APIProtocol@@$$V@Arena@protobuf@google@@CAPEAVActionToggleAutocast@SC2APIProtocol@@PEAV012@@Z ; google::protobuf::Arena::CreateMaybeMessage<SC2APIProtocol::ActionToggleAutocast>
PUBLIC	??$CreateMaybeMessage@VActionUI@SC2APIProtocol@@$$V@Arena@protobuf@google@@CAPEAVActionUI@SC2APIProtocol@@PEAV012@@Z ; google::protobuf::Arena::CreateMaybeMessage<SC2APIProtocol::ActionUI>
PUBLIC	??$CreateMaybeMessage@VBuildItem@SC2APIProtocol@@$$V@Arena@protobuf@google@@CAPEAVBuildItem@SC2APIProtocol@@PEAV012@@Z ; google::protobuf::Arena::CreateMaybeMessage<SC2APIProtocol::BuildItem>
PUBLIC	??$CreateMaybeMessage@VCargoPanel@SC2APIProtocol@@$$V@Arena@protobuf@google@@CAPEAVCargoPanel@SC2APIProtocol@@PEAV012@@Z ; google::protobuf::Arena::CreateMaybeMessage<SC2APIProtocol::CargoPanel>
PUBLIC	??$CreateMaybeMessage@VControlGroup@SC2APIProtocol@@$$V@Arena@protobuf@google@@CAPEAVControlGroup@SC2APIProtocol@@PEAV012@@Z ; google::protobuf::Arena::CreateMaybeMessage<SC2APIProtocol::ControlGroup>
PUBLIC	??$CreateMaybeMessage@VMultiPanel@SC2APIProtocol@@$$V@Arena@protobuf@google@@CAPEAVMultiPanel@SC2APIProtocol@@PEAV012@@Z ; google::protobuf::Arena::CreateMaybeMessage<SC2APIProtocol::MultiPanel>
PUBLIC	??$CreateMaybeMessage@VObservationUI@SC2APIProtocol@@$$V@Arena@protobuf@google@@CAPEAVObservationUI@SC2APIProtocol@@PEAV012@@Z ; google::protobuf::Arena::CreateMaybeMessage<SC2APIProtocol::ObservationUI>
PUBLIC	??$CreateMaybeMessage@VProductionPanel@SC2APIProtocol@@$$V@Arena@protobuf@google@@CAPEAVProductionPanel@SC2APIProtocol@@PEAV012@@Z ; google::protobuf::Arena::CreateMaybeMessage<SC2APIProtocol::ProductionPanel>
PUBLIC	??$CreateMaybeMessage@VSinglePanel@SC2APIProtocol@@$$V@Arena@protobuf@google@@CAPEAVSinglePanel@SC2APIProtocol@@PEAV012@@Z ; google::protobuf::Arena::CreateMaybeMessage<SC2APIProtocol::SinglePanel>
PUBLIC	??$CreateMaybeMessage@VUnitInfo@SC2APIProtocol@@$$V@Arena@protobuf@google@@CAPEAVUnitInfo@SC2APIProtocol@@PEAV012@@Z ; google::protobuf::Arena::CreateMaybeMessage<SC2APIProtocol::UnitInfo>
PUBLIC	?ActionControlGroup_ControlGroupAction_IsValid@SC2APIProtocol@@YA_NH@Z ; SC2APIProtocol::ActionControlGroup_ControlGroupAction_IsValid
PUBLIC	?ActionControlGroup_ControlGroupAction_descriptor@SC2APIProtocol@@YAPEBVEnumDescriptor@protobuf@google@@XZ ; SC2APIProtocol::ActionControlGroup_ControlGroupAction_descriptor
PUBLIC	?ActionSelectIdleWorker_Type_IsValid@SC2APIProtocol@@YA_NH@Z ; SC2APIProtocol::ActionSelectIdleWorker_Type_IsValid
PUBLIC	?ActionSelectIdleWorker_Type_descriptor@SC2APIProtocol@@YAPEBVEnumDescriptor@protobuf@google@@XZ ; SC2APIProtocol::ActionSelectIdleWorker_Type_descriptor
PUBLIC	?ActionMultiPanel_Type_IsValid@SC2APIProtocol@@YA_NH@Z ; SC2APIProtocol::ActionMultiPanel_Type_IsValid
PUBLIC	?ActionMultiPanel_Type_descriptor@SC2APIProtocol@@YAPEBVEnumDescriptor@protobuf@google@@XZ ; SC2APIProtocol::ActionMultiPanel_Type_descriptor
PUBLIC	??1ObservationUI@SC2APIProtocol@@UEAA@XZ	; SC2APIProtocol::ObservationUI::~ObservationUI
PUBLIC	??0ObservationUI@SC2APIProtocol@@QEAA@UConstantInitialized@internal@protobuf@google@@@Z ; SC2APIProtocol::ObservationUI::ObservationUI
PUBLIC	??0ObservationUI@SC2APIProtocol@@QEAA@AEBV01@@Z	; SC2APIProtocol::ObservationUI::ObservationUI
PUBLIC	?New@ObservationUI@SC2APIProtocol@@UEBAPEAV12@PEAVArena@protobuf@google@@@Z ; SC2APIProtocol::ObservationUI::New
PUBLIC	?CopyFrom@ObservationUI@SC2APIProtocol@@QEAAXAEBV12@@Z ; SC2APIProtocol::ObservationUI::CopyFrom
PUBLIC	?MergeFrom@ObservationUI@SC2APIProtocol@@QEAAXAEBV12@@Z ; SC2APIProtocol::ObservationUI::MergeFrom
PUBLIC	?Clear@ObservationUI@SC2APIProtocol@@UEAAXXZ	; SC2APIProtocol::ObservationUI::Clear
PUBLIC	?IsInitialized@ObservationUI@SC2APIProtocol@@UEBA_NXZ ; SC2APIProtocol::ObservationUI::IsInitialized
PUBLIC	?ByteSizeLong@ObservationUI@SC2APIProtocol@@UEBA_KXZ ; SC2APIProtocol::ObservationUI::ByteSizeLong
PUBLIC	?_InternalParse@ObservationUI@SC2APIProtocol@@UEAAPEBDPEBDPEAVParseContext@internal@protobuf@google@@@Z ; SC2APIProtocol::ObservationUI::_InternalParse
PUBLIC	?_InternalSerialize@ObservationUI@SC2APIProtocol@@UEBAPEAEPEAEPEAVEpsCopyOutputStream@io@protobuf@google@@@Z ; SC2APIProtocol::ObservationUI::_InternalSerialize
PUBLIC	?GetCachedSize@ObservationUI@SC2APIProtocol@@UEBAHXZ ; SC2APIProtocol::ObservationUI::GetCachedSize
PUBLIC	?SharedCtor@ObservationUI@SC2APIProtocol@@AEAAXPEAVArena@protobuf@google@@_N@Z ; SC2APIProtocol::ObservationUI::SharedCtor
PUBLIC	?SharedDtor@ObservationUI@SC2APIProtocol@@AEAAXXZ ; SC2APIProtocol::ObservationUI::SharedDtor
PUBLIC	?SetCachedSize@ObservationUI@SC2APIProtocol@@EEBAXH@Z ; SC2APIProtocol::ObservationUI::SetCachedSize
PUBLIC	?InternalSwap@ObservationUI@SC2APIProtocol@@AEAAXPEAV12@@Z ; SC2APIProtocol::ObservationUI::InternalSwap
PUBLIC	??0ObservationUI@SC2APIProtocol@@IEAA@PEAVArena@protobuf@google@@_N@Z ; SC2APIProtocol::ObservationUI::ObservationUI
PUBLIC	?GetClassData@ObservationUI@SC2APIProtocol@@UEBAPEBUClassData@Message@protobuf@google@@XZ ; SC2APIProtocol::ObservationUI::GetClassData
PUBLIC	?GetMetadata@ObservationUI@SC2APIProtocol@@UEBA?AUMetadata@protobuf@google@@XZ ; SC2APIProtocol::ObservationUI::GetMetadata
PUBLIC	?_internal_groups_size@ObservationUI@SC2APIProtocol@@AEBAHXZ ; SC2APIProtocol::ObservationUI::_internal_groups_size
PUBLIC	?_internal_groups@ObservationUI@SC2APIProtocol@@AEBAAEBVControlGroup@2@H@Z ; SC2APIProtocol::ObservationUI::_internal_groups
PUBLIC	?_internal_add_groups@ObservationUI@SC2APIProtocol@@AEAAPEAVControlGroup@2@XZ ; SC2APIProtocol::ObservationUI::_internal_add_groups
PUBLIC	?_internal_has_single@ObservationUI@SC2APIProtocol@@AEBA_NXZ ; SC2APIProtocol::ObservationUI::_internal_has_single
PUBLIC	?set_allocated_single@ObservationUI@SC2APIProtocol@@QEAAXPEAVSinglePanel@2@@Z ; SC2APIProtocol::ObservationUI::set_allocated_single
PUBLIC	?_internal_single@ObservationUI@SC2APIProtocol@@AEBAAEBVSinglePanel@2@XZ ; SC2APIProtocol::ObservationUI::_internal_single
PUBLIC	?_internal_mutable_single@ObservationUI@SC2APIProtocol@@AEAAPEAVSinglePanel@2@XZ ; SC2APIProtocol::ObservationUI::_internal_mutable_single
PUBLIC	?_internal_has_multi@ObservationUI@SC2APIProtocol@@AEBA_NXZ ; SC2APIProtocol::ObservationUI::_internal_has_multi
PUBLIC	?set_allocated_multi@ObservationUI@SC2APIProtocol@@QEAAXPEAVMultiPanel@2@@Z ; SC2APIProtocol::ObservationUI::set_allocated_multi
PUBLIC	?_internal_multi@ObservationUI@SC2APIProtocol@@AEBAAEBVMultiPanel@2@XZ ; SC2APIProtocol::ObservationUI::_internal_multi
PUBLIC	?_internal_mutable_multi@ObservationUI@SC2APIProtocol@@AEAAPEAVMultiPanel@2@XZ ; SC2APIProtocol::ObservationUI::_internal_mutable_multi
PUBLIC	?_internal_has_cargo@ObservationUI@SC2APIProtocol@@AEBA_NXZ ; SC2APIProtocol::ObservationUI::_internal_has_cargo
PUBLIC	?set_allocated_cargo@ObservationUI@SC2APIProtocol@@QEAAXPEAVCargoPanel@2@@Z ; SC2APIProtocol::ObservationUI::set_allocated_cargo
PUBLIC	?_internal_cargo@ObservationUI@SC2APIProtocol@@AEBAAEBVCargoPanel@2@XZ ; SC2APIProtocol::ObservationUI::_internal_cargo
PUBLIC	?_internal_mutable_cargo@ObservationUI@SC2APIProtocol@@AEAAPEAVCargoPanel@2@XZ ; SC2APIProtocol::ObservationUI::_internal_mutable_cargo
PUBLIC	?_internal_has_production@ObservationUI@SC2APIProtocol@@AEBA_NXZ ; SC2APIProtocol::ObservationUI::_internal_has_production
PUBLIC	?set_allocated_production@ObservationUI@SC2APIProtocol@@QEAAXPEAVProductionPanel@2@@Z ; SC2APIProtocol::ObservationUI::set_allocated_production
PUBLIC	?_internal_production@ObservationUI@SC2APIProtocol@@AEBAAEBVProductionPanel@2@XZ ; SC2APIProtocol::ObservationUI::_internal_production
PUBLIC	?_internal_mutable_production@ObservationUI@SC2APIProtocol@@AEAAPEAVProductionPanel@2@XZ ; SC2APIProtocol::ObservationUI::_internal_mutable_production
PUBLIC	?clear_panel@ObservationUI@SC2APIProtocol@@QEAAXXZ ; SC2APIProtocol::ObservationUI::clear_panel
PUBLIC	?panel_case@ObservationUI@SC2APIProtocol@@QEBA?AW4PanelCase@12@XZ ; SC2APIProtocol::ObservationUI::panel_case
PUBLIC	?set_has_single@ObservationUI@SC2APIProtocol@@AEAAXXZ ; SC2APIProtocol::ObservationUI::set_has_single
PUBLIC	?set_has_multi@ObservationUI@SC2APIProtocol@@AEAAXXZ ; SC2APIProtocol::ObservationUI::set_has_multi
PUBLIC	?set_has_cargo@ObservationUI@SC2APIProtocol@@AEAAXXZ ; SC2APIProtocol::ObservationUI::set_has_cargo
PUBLIC	?set_has_production@ObservationUI@SC2APIProtocol@@AEAAXXZ ; SC2APIProtocol::ObservationUI::set_has_production
PUBLIC	?has_panel@ObservationUI@SC2APIProtocol@@AEBA_NXZ ; SC2APIProtocol::ObservationUI::has_panel
PUBLIC	?clear_has_panel@ObservationUI@SC2APIProtocol@@AEAAXXZ ; SC2APIProtocol::ObservationUI::clear_has_panel
PUBLIC	??0?$RepeatedPtrField@VControlGroup@SC2APIProtocol@@@protobuf@google@@QEAA@XZ ; google::protobuf::RepeatedPtrField<SC2APIProtocol::ControlGroup>::RepeatedPtrField<SC2APIProtocol::ControlGroup>
PUBLIC	??0?$RepeatedPtrField@VControlGroup@SC2APIProtocol@@@protobuf@google@@QEAA@PEAVArena@12@@Z ; google::protobuf::RepeatedPtrField<SC2APIProtocol::ControlGroup>::RepeatedPtrField<SC2APIProtocol::ControlGroup>
PUBLIC	??0?$RepeatedPtrField@VControlGroup@SC2APIProtocol@@@protobuf@google@@QEAA@AEBV012@@Z ; google::protobuf::RepeatedPtrField<SC2APIProtocol::ControlGroup>::RepeatedPtrField<SC2APIProtocol::ControlGroup>
PUBLIC	??1?$RepeatedPtrField@VControlGroup@SC2APIProtocol@@@protobuf@google@@QEAA@XZ ; google::protobuf::RepeatedPtrField<SC2APIProtocol::ControlGroup>::~RepeatedPtrField<SC2APIProtocol::ControlGroup>
PUBLIC	?size@?$RepeatedPtrField@VControlGroup@SC2APIProtocol@@@protobuf@google@@QEBAHXZ ; google::protobuf::RepeatedPtrField<SC2APIProtocol::ControlGroup>::size
PUBLIC	?Get@?$RepeatedPtrField@VControlGroup@SC2APIProtocol@@@protobuf@google@@QEBAAEBVControlGroup@SC2APIProtocol@@H@Z ; google::protobuf::RepeatedPtrField<SC2APIProtocol::ControlGroup>::Get
PUBLIC	?Add@?$RepeatedPtrField@VControlGroup@SC2APIProtocol@@@protobuf@google@@QEAAPEAVControlGroup@SC2APIProtocol@@XZ ; google::protobuf::RepeatedPtrField<SC2APIProtocol::ControlGroup>::Add
PUBLIC	?Clear@?$RepeatedPtrField@VControlGroup@SC2APIProtocol@@@protobuf@google@@QEAAXXZ ; google::protobuf::RepeatedPtrField<SC2APIProtocol::ControlGroup>::Clear
PUBLIC	?MergeFrom@?$RepeatedPtrField@VControlGroup@SC2APIProtocol@@@protobuf@google@@QEAAXAEBV123@@Z ; google::protobuf::RepeatedPtrField<SC2APIProtocol::ControlGroup>::MergeFrom
PUBLIC	?begin@?$RepeatedPtrField@VControlGroup@SC2APIProtocol@@@protobuf@google@@QEBA?AV?$RepeatedPtrIterator@$$CBVControlGroup@SC2APIProtocol@@@internal@23@XZ ; google::protobuf::RepeatedPtrField<SC2APIProtocol::ControlGroup>::begin
PUBLIC	?end@?$RepeatedPtrField@VControlGroup@SC2APIProtocol@@@protobuf@google@@QEBA?AV?$RepeatedPtrIterator@$$CBVControlGroup@SC2APIProtocol@@@internal@23@XZ ; google::protobuf::RepeatedPtrField<SC2APIProtocol::ControlGroup>::end
PUBLIC	?InternalSwap@?$RepeatedPtrField@VControlGroup@SC2APIProtocol@@@protobuf@google@@QEAAXPEAV123@@Z ; google::protobuf::RepeatedPtrField<SC2APIProtocol::ControlGroup>::InternalSwap
PUBLIC	??_G?$RepeatedPtrField@VControlGroup@SC2APIProtocol@@@protobuf@google@@QEAAPEAXI@Z ; google::protobuf::RepeatedPtrField<SC2APIProtocol::ControlGroup>::`scalar deleting destructor'
PUBLIC	??0PanelUnion@Impl_@ObservationUI@SC2APIProtocol@@QEAA@XZ ; SC2APIProtocol::ObservationUI::Impl_::PanelUnion::PanelUnion
PUBLIC	??_GObservationUI@SC2APIProtocol@@UEAAPEAXI@Z	; SC2APIProtocol::ObservationUI::`scalar deleting destructor'
PUBLIC	??$unknown_fields@VUnknownFieldSet@protobuf@google@@@InternalMetadata@internal@protobuf@google@@QEBAAEBVUnknownFieldSet@23@P6AAEBV423@XZ@Z ; google::protobuf::internal::InternalMetadata::unknown_fields<google::protobuf::UnknownFieldSet>
PUBLIC	??$mutable_unknown_fields@VUnknownFieldSet@protobuf@google@@@InternalMetadata@internal@protobuf@google@@QEAAPEAVUnknownFieldSet@23@XZ ; google::protobuf::internal::InternalMetadata::mutable_unknown_fields<google::protobuf::UnknownFieldSet>
PUBLIC	??$CreateMaybeMessage@VObservationUI@SC2APIProtocol@@@MessageLite@protobuf@google@@KAPEAVObservationUI@SC2APIProtocol@@PEAVArena@12@@Z ; google::protobuf::MessageLite::CreateMaybeMessage<SC2APIProtocol::ObservationUI>
PUBLIC	??1ControlGroup@SC2APIProtocol@@UEAA@XZ		; SC2APIProtocol::ControlGroup::~ControlGroup
PUBLIC	??0ControlGroup@SC2APIProtocol@@QEAA@AEBV01@@Z	; SC2APIProtocol::ControlGroup::ControlGroup
PUBLIC	?CopyFrom@ControlGroup@SC2APIProtocol@@QEAAXAEBV12@@Z ; SC2APIProtocol::ControlGroup::CopyFrom
PUBLIC	?MergeFrom@ControlGroup@SC2APIProtocol@@QEAAXAEBV12@@Z ; SC2APIProtocol::ControlGroup::MergeFrom
PUBLIC	?SharedCtor@ControlGroup@SC2APIProtocol@@AEAAXPEAVArena@protobuf@google@@_N@Z ; SC2APIProtocol::ControlGroup::SharedCtor
PUBLIC	?SharedDtor@ControlGroup@SC2APIProtocol@@AEAAXXZ ; SC2APIProtocol::ControlGroup::SharedDtor
PUBLIC	?InternalSwap@ControlGroup@SC2APIProtocol@@AEAAXPEAV12@@Z ; SC2APIProtocol::ControlGroup::InternalSwap
PUBLIC	??0ControlGroup@SC2APIProtocol@@IEAA@PEAVArena@protobuf@google@@_N@Z ; SC2APIProtocol::ControlGroup::ControlGroup
PUBLIC	?_internal_control_group_index@ControlGroup@SC2APIProtocol@@AEBAIXZ ; SC2APIProtocol::ControlGroup::_internal_control_group_index
PUBLIC	?_internal_leader_unit_type@ControlGroup@SC2APIProtocol@@AEBAIXZ ; SC2APIProtocol::ControlGroup::_internal_leader_unit_type
PUBLIC	?_internal_count@ControlGroup@SC2APIProtocol@@AEBAIXZ ; SC2APIProtocol::ControlGroup::_internal_count
PUBLIC	??$CreateMaybeMessage@VControlGroup@SC2APIProtocol@@@MessageLite@protobuf@google@@KAPEAVControlGroup@SC2APIProtocol@@PEAVArena@12@@Z ; google::protobuf::MessageLite::CreateMaybeMessage<SC2APIProtocol::ControlGroup>
PUBLIC	??1UnitInfo@SC2APIProtocol@@UEAA@XZ		; SC2APIProtocol::UnitInfo::~UnitInfo
PUBLIC	??0UnitInfo@SC2APIProtocol@@QEAA@AEBV01@@Z	; SC2APIProtocol::UnitInfo::UnitInfo
PUBLIC	?internal_default_instance@UnitInfo@SC2APIProtocol@@SAPEBV12@XZ ; SC2APIProtocol::UnitInfo::internal_default_instance
PUBLIC	?CopyFrom@UnitInfo@SC2APIProtocol@@QEAAXAEBV12@@Z ; SC2APIProtocol::UnitInfo::CopyFrom
PUBLIC	?MergeFrom@UnitInfo@SC2APIProtocol@@QEAAXAEBV12@@Z ; SC2APIProtocol::UnitInfo::MergeFrom
PUBLIC	?SharedCtor@UnitInfo@SC2APIProtocol@@AEAAXPEAVArena@protobuf@google@@_N@Z ; SC2APIProtocol::UnitInfo::SharedCtor
PUBLIC	?SharedDtor@UnitInfo@SC2APIProtocol@@AEAAXXZ	; SC2APIProtocol::UnitInfo::SharedDtor
PUBLIC	?InternalSwap@UnitInfo@SC2APIProtocol@@AEAAXPEAV12@@Z ; SC2APIProtocol::UnitInfo::InternalSwap
PUBLIC	??0UnitInfo@SC2APIProtocol@@IEAA@PEAVArena@protobuf@google@@_N@Z ; SC2APIProtocol::UnitInfo::UnitInfo
PUBLIC	?_internal_has_add_on@UnitInfo@SC2APIProtocol@@AEBA_NXZ ; SC2APIProtocol::UnitInfo::_internal_has_add_on
PUBLIC	?_internal_add_on@UnitInfo@SC2APIProtocol@@AEBAAEBV12@XZ ; SC2APIProtocol::UnitInfo::_internal_add_on
PUBLIC	?_internal_mutable_add_on@UnitInfo@SC2APIProtocol@@AEAAPEAV12@XZ ; SC2APIProtocol::UnitInfo::_internal_mutable_add_on
PUBLIC	?_internal_unit_type@UnitInfo@SC2APIProtocol@@AEBAIXZ ; SC2APIProtocol::UnitInfo::_internal_unit_type
PUBLIC	?_internal_player_relative@UnitInfo@SC2APIProtocol@@AEBAIXZ ; SC2APIProtocol::UnitInfo::_internal_player_relative
PUBLIC	?_internal_health@UnitInfo@SC2APIProtocol@@AEBAHXZ ; SC2APIProtocol::UnitInfo::_internal_health
PUBLIC	?_internal_shields@UnitInfo@SC2APIProtocol@@AEBAHXZ ; SC2APIProtocol::UnitInfo::_internal_shields
PUBLIC	?_internal_energy@UnitInfo@SC2APIProtocol@@AEBAHXZ ; SC2APIProtocol::UnitInfo::_internal_energy
PUBLIC	?_internal_transport_slots_taken@UnitInfo@SC2APIProtocol@@AEBAHXZ ; SC2APIProtocol::UnitInfo::_internal_transport_slots_taken
PUBLIC	?_internal_build_progress@UnitInfo@SC2APIProtocol@@AEBAMXZ ; SC2APIProtocol::UnitInfo::_internal_build_progress
PUBLIC	?_internal_max_health@UnitInfo@SC2APIProtocol@@AEBAHXZ ; SC2APIProtocol::UnitInfo::_internal_max_health
PUBLIC	?_internal_max_shields@UnitInfo@SC2APIProtocol@@AEBAHXZ ; SC2APIProtocol::UnitInfo::_internal_max_shields
PUBLIC	?_internal_max_energy@UnitInfo@SC2APIProtocol@@AEBAHXZ ; SC2APIProtocol::UnitInfo::_internal_max_energy
PUBLIC	??$CreateMaybeMessage@VUnitInfo@SC2APIProtocol@@@MessageLite@protobuf@google@@KAPEAVUnitInfo@SC2APIProtocol@@PEAVArena@12@@Z ; google::protobuf::MessageLite::CreateMaybeMessage<SC2APIProtocol::UnitInfo>
PUBLIC	??1SinglePanel@SC2APIProtocol@@UEAA@XZ		; SC2APIProtocol::SinglePanel::~SinglePanel
PUBLIC	??0SinglePanel@SC2APIProtocol@@QEAA@UConstantInitialized@internal@protobuf@google@@@Z ; SC2APIProtocol::SinglePanel::SinglePanel
PUBLIC	??0SinglePanel@SC2APIProtocol@@QEAA@AEBV01@@Z	; SC2APIProtocol::SinglePanel::SinglePanel
PUBLIC	?internal_default_instance@SinglePanel@SC2APIProtocol@@SAPEBV12@XZ ; SC2APIProtocol::SinglePanel::internal_default_instance
PUBLIC	?New@SinglePanel@SC2APIProtocol@@UEBAPEAV12@PEAVArena@protobuf@google@@@Z ; SC2APIProtocol::SinglePanel::New
PUBLIC	?CopyFrom@SinglePanel@SC2APIProtocol@@QEAAXAEBV12@@Z ; SC2APIProtocol::SinglePanel::CopyFrom
PUBLIC	?MergeFrom@SinglePanel@SC2APIProtocol@@QEAAXAEBV12@@Z ; SC2APIProtocol::SinglePanel::MergeFrom
PUBLIC	?Clear@SinglePanel@SC2APIProtocol@@UEAAXXZ	; SC2APIProtocol::SinglePanel::Clear
PUBLIC	?IsInitialized@SinglePanel@SC2APIProtocol@@UEBA_NXZ ; SC2APIProtocol::SinglePanel::IsInitialized
PUBLIC	?ByteSizeLong@SinglePanel@SC2APIProtocol@@UEBA_KXZ ; SC2APIProtocol::SinglePanel::ByteSizeLong
PUBLIC	?_InternalParse@SinglePanel@SC2APIProtocol@@UEAAPEBDPEBDPEAVParseContext@internal@protobuf@google@@@Z ; SC2APIProtocol::SinglePanel::_InternalParse
PUBLIC	?_InternalSerialize@SinglePanel@SC2APIProtocol@@UEBAPEAEPEAEPEAVEpsCopyOutputStream@io@protobuf@google@@@Z ; SC2APIProtocol::SinglePanel::_InternalSerialize
PUBLIC	?GetCachedSize@SinglePanel@SC2APIProtocol@@UEBAHXZ ; SC2APIProtocol::SinglePanel::GetCachedSize
PUBLIC	?SharedCtor@SinglePanel@SC2APIProtocol@@AEAAXPEAVArena@protobuf@google@@_N@Z ; SC2APIProtocol::SinglePanel::SharedCtor
PUBLIC	?SharedDtor@SinglePanel@SC2APIProtocol@@AEAAXXZ	; SC2APIProtocol::SinglePanel::SharedDtor
PUBLIC	?SetCachedSize@SinglePanel@SC2APIProtocol@@EEBAXH@Z ; SC2APIProtocol::SinglePanel::SetCachedSize
PUBLIC	?InternalSwap@SinglePanel@SC2APIProtocol@@AEAAXPEAV12@@Z ; SC2APIProtocol::SinglePanel::InternalSwap
PUBLIC	??0SinglePanel@SC2APIProtocol@@IEAA@PEAVArena@protobuf@google@@_N@Z ; SC2APIProtocol::SinglePanel::SinglePanel
PUBLIC	?GetClassData@SinglePanel@SC2APIProtocol@@UEBAPEBUClassData@Message@protobuf@google@@XZ ; SC2APIProtocol::SinglePanel::GetClassData
PUBLIC	?GetMetadata@SinglePanel@SC2APIProtocol@@UEBA?AUMetadata@protobuf@google@@XZ ; SC2APIProtocol::SinglePanel::GetMetadata
PUBLIC	?_internal_buffs_size@SinglePanel@SC2APIProtocol@@AEBAHXZ ; SC2APIProtocol::SinglePanel::_internal_buffs_size
PUBLIC	?_internal_buffs@SinglePanel@SC2APIProtocol@@AEBAHH@Z ; SC2APIProtocol::SinglePanel::_internal_buffs
PUBLIC	?_internal_add_buffs@SinglePanel@SC2APIProtocol@@AEAAXH@Z ; SC2APIProtocol::SinglePanel::_internal_add_buffs
PUBLIC	?_internal_mutable_buffs@SinglePanel@SC2APIProtocol@@AEAAPEAV?$RepeatedField@H@protobuf@google@@XZ ; SC2APIProtocol::SinglePanel::_internal_mutable_buffs
PUBLIC	?_internal_has_unit@SinglePanel@SC2APIProtocol@@AEBA_NXZ ; SC2APIProtocol::SinglePanel::_internal_has_unit
PUBLIC	?_internal_unit@SinglePanel@SC2APIProtocol@@AEBAAEBVUnitInfo@2@XZ ; SC2APIProtocol::SinglePanel::_internal_unit
PUBLIC	?_internal_mutable_unit@SinglePanel@SC2APIProtocol@@AEAAPEAVUnitInfo@2@XZ ; SC2APIProtocol::SinglePanel::_internal_mutable_unit
PUBLIC	?_internal_attack_upgrade_level@SinglePanel@SC2APIProtocol@@AEBAHXZ ; SC2APIProtocol::SinglePanel::_internal_attack_upgrade_level
PUBLIC	?_internal_armor_upgrade_level@SinglePanel@SC2APIProtocol@@AEBAHXZ ; SC2APIProtocol::SinglePanel::_internal_armor_upgrade_level
PUBLIC	?_internal_shield_upgrade_level@SinglePanel@SC2APIProtocol@@AEBAHXZ ; SC2APIProtocol::SinglePanel::_internal_shield_upgrade_level
PUBLIC	??_GSinglePanel@SC2APIProtocol@@UEAAPEAXI@Z	; SC2APIProtocol::SinglePanel::`scalar deleting destructor'
PUBLIC	??$CreateMaybeMessage@VSinglePanel@SC2APIProtocol@@@MessageLite@protobuf@google@@KAPEAVSinglePanel@SC2APIProtocol@@PEAVArena@12@@Z ; google::protobuf::MessageLite::CreateMaybeMessage<SC2APIProtocol::SinglePanel>
PUBLIC	??1MultiPanel@SC2APIProtocol@@UEAA@XZ		; SC2APIProtocol::MultiPanel::~MultiPanel
PUBLIC	??0MultiPanel@SC2APIProtocol@@QEAA@UConstantInitialized@internal@protobuf@google@@@Z ; SC2APIProtocol::MultiPanel::MultiPanel
PUBLIC	??0MultiPanel@SC2APIProtocol@@QEAA@AEBV01@@Z	; SC2APIProtocol::MultiPanel::MultiPanel
PUBLIC	?New@MultiPanel@SC2APIProtocol@@UEBAPEAV12@PEAVArena@protobuf@google@@@Z ; SC2APIProtocol::MultiPanel::New
PUBLIC	?CopyFrom@MultiPanel@SC2APIProtocol@@QEAAXAEBV12@@Z ; SC2APIProtocol::MultiPanel::CopyFrom
PUBLIC	?MergeFrom@MultiPanel@SC2APIProtocol@@QEAAXAEBV12@@Z ; SC2APIProtocol::MultiPanel::MergeFrom
PUBLIC	?Clear@MultiPanel@SC2APIProtocol@@UEAAXXZ	; SC2APIProtocol::MultiPanel::Clear
PUBLIC	?IsInitialized@MultiPanel@SC2APIProtocol@@UEBA_NXZ ; SC2APIProtocol::MultiPanel::IsInitialized
PUBLIC	?ByteSizeLong@MultiPanel@SC2APIProtocol@@UEBA_KXZ ; SC2APIProtocol::MultiPanel::ByteSizeLong
PUBLIC	?_InternalParse@MultiPanel@SC2APIProtocol@@UEAAPEBDPEBDPEAVParseContext@internal@protobuf@google@@@Z ; SC2APIProtocol::MultiPanel::_InternalParse
PUBLIC	?_InternalSerialize@MultiPanel@SC2APIProtocol@@UEBAPEAEPEAEPEAVEpsCopyOutputStream@io@protobuf@google@@@Z ; SC2APIProtocol::MultiPanel::_InternalSerialize
PUBLIC	?GetCachedSize@MultiPanel@SC2APIProtocol@@UEBAHXZ ; SC2APIProtocol::MultiPanel::GetCachedSize
PUBLIC	?SharedCtor@MultiPanel@SC2APIProtocol@@AEAAXPEAVArena@protobuf@google@@_N@Z ; SC2APIProtocol::MultiPanel::SharedCtor
PUBLIC	?SharedDtor@MultiPanel@SC2APIProtocol@@AEAAXXZ	; SC2APIProtocol::MultiPanel::SharedDtor
PUBLIC	?SetCachedSize@MultiPanel@SC2APIProtocol@@EEBAXH@Z ; SC2APIProtocol::MultiPanel::SetCachedSize
PUBLIC	?InternalSwap@MultiPanel@SC2APIProtocol@@AEAAXPEAV12@@Z ; SC2APIProtocol::MultiPanel::InternalSwap
PUBLIC	??0MultiPanel@SC2APIProtocol@@IEAA@PEAVArena@protobuf@google@@_N@Z ; SC2APIProtocol::MultiPanel::MultiPanel
PUBLIC	?GetClassData@MultiPanel@SC2APIProtocol@@UEBAPEBUClassData@Message@protobuf@google@@XZ ; SC2APIProtocol::MultiPanel::GetClassData
PUBLIC	?GetMetadata@MultiPanel@SC2APIProtocol@@UEBA?AUMetadata@protobuf@google@@XZ ; SC2APIProtocol::MultiPanel::GetMetadata
PUBLIC	?_internal_units_size@MultiPanel@SC2APIProtocol@@AEBAHXZ ; SC2APIProtocol::MultiPanel::_internal_units_size
PUBLIC	?_internal_units@MultiPanel@SC2APIProtocol@@AEBAAEBVUnitInfo@2@H@Z ; SC2APIProtocol::MultiPanel::_internal_units
PUBLIC	?_internal_add_units@MultiPanel@SC2APIProtocol@@AEAAPEAVUnitInfo@2@XZ ; SC2APIProtocol::MultiPanel::_internal_add_units
PUBLIC	??0?$RepeatedPtrField@VUnitInfo@SC2APIProtocol@@@protobuf@google@@QEAA@XZ ; google::protobuf::RepeatedPtrField<SC2APIProtocol::UnitInfo>::RepeatedPtrField<SC2APIProtocol::UnitInfo>
PUBLIC	??0?$RepeatedPtrField@VUnitInfo@SC2APIProtocol@@@protobuf@google@@QEAA@PEAVArena@12@@Z ; google::protobuf::RepeatedPtrField<SC2APIProtocol::UnitInfo>::RepeatedPtrField<SC2APIProtocol::UnitInfo>
PUBLIC	??0?$RepeatedPtrField@VUnitInfo@SC2APIProtocol@@@protobuf@google@@QEAA@AEBV012@@Z ; google::protobuf::RepeatedPtrField<SC2APIProtocol::UnitInfo>::RepeatedPtrField<SC2APIProtocol::UnitInfo>
PUBLIC	??1?$RepeatedPtrField@VUnitInfo@SC2APIProtocol@@@protobuf@google@@QEAA@XZ ; google::protobuf::RepeatedPtrField<SC2APIProtocol::UnitInfo>::~RepeatedPtrField<SC2APIProtocol::UnitInfo>
PUBLIC	?size@?$RepeatedPtrField@VUnitInfo@SC2APIProtocol@@@protobuf@google@@QEBAHXZ ; google::protobuf::RepeatedPtrField<SC2APIProtocol::UnitInfo>::size
PUBLIC	?Get@?$RepeatedPtrField@VUnitInfo@SC2APIProtocol@@@protobuf@google@@QEBAAEBVUnitInfo@SC2APIProtocol@@H@Z ; google::protobuf::RepeatedPtrField<SC2APIProtocol::UnitInfo>::Get
PUBLIC	?Add@?$RepeatedPtrField@VUnitInfo@SC2APIProtocol@@@protobuf@google@@QEAAPEAVUnitInfo@SC2APIProtocol@@XZ ; google::protobuf::RepeatedPtrField<SC2APIProtocol::UnitInfo>::Add
PUBLIC	?Clear@?$RepeatedPtrField@VUnitInfo@SC2APIProtocol@@@protobuf@google@@QEAAXXZ ; google::protobuf::RepeatedPtrField<SC2APIProtocol::UnitInfo>::Clear
PUBLIC	?MergeFrom@?$RepeatedPtrField@VUnitInfo@SC2APIProtocol@@@protobuf@google@@QEAAXAEBV123@@Z ; google::protobuf::RepeatedPtrField<SC2APIProtocol::UnitInfo>::MergeFrom
PUBLIC	?begin@?$RepeatedPtrField@VUnitInfo@SC2APIProtocol@@@protobuf@google@@QEBA?AV?$RepeatedPtrIterator@$$CBVUnitInfo@SC2APIProtocol@@@internal@23@XZ ; google::protobuf::RepeatedPtrField<SC2APIProtocol::UnitInfo>::begin
PUBLIC	?end@?$RepeatedPtrField@VUnitInfo@SC2APIProtocol@@@protobuf@google@@QEBA?AV?$RepeatedPtrIterator@$$CBVUnitInfo@SC2APIProtocol@@@internal@23@XZ ; google::protobuf::RepeatedPtrField<SC2APIProtocol::UnitInfo>::end
PUBLIC	?InternalSwap@?$RepeatedPtrField@VUnitInfo@SC2APIProtocol@@@protobuf@google@@QEAAXPEAV123@@Z ; google::protobuf::RepeatedPtrField<SC2APIProtocol::UnitInfo>::InternalSwap
PUBLIC	??_G?$RepeatedPtrField@VUnitInfo@SC2APIProtocol@@@protobuf@google@@QEAAPEAXI@Z ; google::protobuf::RepeatedPtrField<SC2APIProtocol::UnitInfo>::`scalar deleting destructor'
PUBLIC	??_GMultiPanel@SC2APIProtocol@@UEAAPEAXI@Z	; SC2APIProtocol::MultiPanel::`scalar deleting destructor'
PUBLIC	??$CreateMaybeMessage@VMultiPanel@SC2APIProtocol@@@MessageLite@protobuf@google@@KAPEAVMultiPanel@SC2APIProtocol@@PEAVArena@12@@Z ; google::protobuf::MessageLite::CreateMaybeMessage<SC2APIProtocol::MultiPanel>
PUBLIC	??1CargoPanel@SC2APIProtocol@@UEAA@XZ		; SC2APIProtocol::CargoPanel::~CargoPanel
PUBLIC	??0CargoPanel@SC2APIProtocol@@QEAA@UConstantInitialized@internal@protobuf@google@@@Z ; SC2APIProtocol::CargoPanel::CargoPanel
PUBLIC	??0CargoPanel@SC2APIProtocol@@QEAA@AEBV01@@Z	; SC2APIProtocol::CargoPanel::CargoPanel
PUBLIC	?internal_default_instance@CargoPanel@SC2APIProtocol@@SAPEBV12@XZ ; SC2APIProtocol::CargoPanel::internal_default_instance
PUBLIC	?New@CargoPanel@SC2APIProtocol@@UEBAPEAV12@PEAVArena@protobuf@google@@@Z ; SC2APIProtocol::CargoPanel::New
PUBLIC	?CopyFrom@CargoPanel@SC2APIProtocol@@QEAAXAEBV12@@Z ; SC2APIProtocol::CargoPanel::CopyFrom
PUBLIC	?MergeFrom@CargoPanel@SC2APIProtocol@@QEAAXAEBV12@@Z ; SC2APIProtocol::CargoPanel::MergeFrom
PUBLIC	?Clear@CargoPanel@SC2APIProtocol@@UEAAXXZ	; SC2APIProtocol::CargoPanel::Clear
PUBLIC	?IsInitialized@CargoPanel@SC2APIProtocol@@UEBA_NXZ ; SC2APIProtocol::CargoPanel::IsInitialized
PUBLIC	?ByteSizeLong@CargoPanel@SC2APIProtocol@@UEBA_KXZ ; SC2APIProtocol::CargoPanel::ByteSizeLong
PUBLIC	?_InternalParse@CargoPanel@SC2APIProtocol@@UEAAPEBDPEBDPEAVParseContext@internal@protobuf@google@@@Z ; SC2APIProtocol::CargoPanel::_InternalParse
PUBLIC	?_InternalSerialize@CargoPanel@SC2APIProtocol@@UEBAPEAEPEAEPEAVEpsCopyOutputStream@io@protobuf@google@@@Z ; SC2APIProtocol::CargoPanel::_InternalSerialize
PUBLIC	?GetCachedSize@CargoPanel@SC2APIProtocol@@UEBAHXZ ; SC2APIProtocol::CargoPanel::GetCachedSize
PUBLIC	?SharedCtor@CargoPanel@SC2APIProtocol@@AEAAXPEAVArena@protobuf@google@@_N@Z ; SC2APIProtocol::CargoPanel::SharedCtor
PUBLIC	?SharedDtor@CargoPanel@SC2APIProtocol@@AEAAXXZ	; SC2APIProtocol::CargoPanel::SharedDtor
PUBLIC	?SetCachedSize@CargoPanel@SC2APIProtocol@@EEBAXH@Z ; SC2APIProtocol::CargoPanel::SetCachedSize
PUBLIC	?InternalSwap@CargoPanel@SC2APIProtocol@@AEAAXPEAV12@@Z ; SC2APIProtocol::CargoPanel::InternalSwap
PUBLIC	??0CargoPanel@SC2APIProtocol@@IEAA@PEAVArena@protobuf@google@@_N@Z ; SC2APIProtocol::CargoPanel::CargoPanel
PUBLIC	?GetClassData@CargoPanel@SC2APIProtocol@@UEBAPEBUClassData@Message@protobuf@google@@XZ ; SC2APIProtocol::CargoPanel::GetClassData
PUBLIC	?GetMetadata@CargoPanel@SC2APIProtocol@@UEBA?AUMetadata@protobuf@google@@XZ ; SC2APIProtocol::CargoPanel::GetMetadata
PUBLIC	?_internal_passengers_size@CargoPanel@SC2APIProtocol@@AEBAHXZ ; SC2APIProtocol::CargoPanel::_internal_passengers_size
PUBLIC	?_internal_passengers@CargoPanel@SC2APIProtocol@@AEBAAEBVUnitInfo@2@H@Z ; SC2APIProtocol::CargoPanel::_internal_passengers
PUBLIC	?_internal_add_passengers@CargoPanel@SC2APIProtocol@@AEAAPEAVUnitInfo@2@XZ ; SC2APIProtocol::CargoPanel::_internal_add_passengers
PUBLIC	?_internal_has_unit@CargoPanel@SC2APIProtocol@@AEBA_NXZ ; SC2APIProtocol::CargoPanel::_internal_has_unit
PUBLIC	?_internal_unit@CargoPanel@SC2APIProtocol@@AEBAAEBVUnitInfo@2@XZ ; SC2APIProtocol::CargoPanel::_internal_unit
PUBLIC	?_internal_mutable_unit@CargoPanel@SC2APIProtocol@@AEAAPEAVUnitInfo@2@XZ ; SC2APIProtocol::CargoPanel::_internal_mutable_unit
PUBLIC	?_internal_slots_available@CargoPanel@SC2APIProtocol@@AEBAHXZ ; SC2APIProtocol::CargoPanel::_internal_slots_available
PUBLIC	??_GCargoPanel@SC2APIProtocol@@UEAAPEAXI@Z	; SC2APIProtocol::CargoPanel::`scalar deleting destructor'
PUBLIC	??$CreateMaybeMessage@VCargoPanel@SC2APIProtocol@@@MessageLite@protobuf@google@@KAPEAVCargoPanel@SC2APIProtocol@@PEAVArena@12@@Z ; google::protobuf::MessageLite::CreateMaybeMessage<SC2APIProtocol::CargoPanel>
PUBLIC	??1BuildItem@SC2APIProtocol@@UEAA@XZ		; SC2APIProtocol::BuildItem::~BuildItem
PUBLIC	??0BuildItem@SC2APIProtocol@@QEAA@AEBV01@@Z	; SC2APIProtocol::BuildItem::BuildItem
PUBLIC	?CopyFrom@BuildItem@SC2APIProtocol@@QEAAXAEBV12@@Z ; SC2APIProtocol::BuildItem::CopyFrom
PUBLIC	?MergeFrom@BuildItem@SC2APIProtocol@@QEAAXAEBV12@@Z ; SC2APIProtocol::BuildItem::MergeFrom
PUBLIC	?SharedCtor@BuildItem@SC2APIProtocol@@AEAAXPEAVArena@protobuf@google@@_N@Z ; SC2APIProtocol::BuildItem::SharedCtor
PUBLIC	?SharedDtor@BuildItem@SC2APIProtocol@@AEAAXXZ	; SC2APIProtocol::BuildItem::SharedDtor
PUBLIC	?InternalSwap@BuildItem@SC2APIProtocol@@AEAAXPEAV12@@Z ; SC2APIProtocol::BuildItem::InternalSwap
PUBLIC	??0BuildItem@SC2APIProtocol@@IEAA@PEAVArena@protobuf@google@@_N@Z ; SC2APIProtocol::BuildItem::BuildItem
PUBLIC	?_internal_ability_id@BuildItem@SC2APIProtocol@@AEBAIXZ ; SC2APIProtocol::BuildItem::_internal_ability_id
PUBLIC	?_internal_build_progress@BuildItem@SC2APIProtocol@@AEBAMXZ ; SC2APIProtocol::BuildItem::_internal_build_progress
PUBLIC	??$CreateMaybeMessage@VBuildItem@SC2APIProtocol@@@MessageLite@protobuf@google@@KAPEAVBuildItem@SC2APIProtocol@@PEAVArena@12@@Z ; google::protobuf::MessageLite::CreateMaybeMessage<SC2APIProtocol::BuildItem>
PUBLIC	??1ProductionPanel@SC2APIProtocol@@UEAA@XZ	; SC2APIProtocol::ProductionPanel::~ProductionPanel
PUBLIC	??0ProductionPanel@SC2APIProtocol@@QEAA@UConstantInitialized@internal@protobuf@google@@@Z ; SC2APIProtocol::ProductionPanel::ProductionPanel
PUBLIC	??0ProductionPanel@SC2APIProtocol@@QEAA@AEBV01@@Z ; SC2APIProtocol::ProductionPanel::ProductionPanel
PUBLIC	?internal_default_instance@ProductionPanel@SC2APIProtocol@@SAPEBV12@XZ ; SC2APIProtocol::ProductionPanel::internal_default_instance
PUBLIC	?New@ProductionPanel@SC2APIProtocol@@UEBAPEAV12@PEAVArena@protobuf@google@@@Z ; SC2APIProtocol::ProductionPanel::New
PUBLIC	?CopyFrom@ProductionPanel@SC2APIProtocol@@QEAAXAEBV12@@Z ; SC2APIProtocol::ProductionPanel::CopyFrom
PUBLIC	?MergeFrom@ProductionPanel@SC2APIProtocol@@QEAAXAEBV12@@Z ; SC2APIProtocol::ProductionPanel::MergeFrom
PUBLIC	?Clear@ProductionPanel@SC2APIProtocol@@UEAAXXZ	; SC2APIProtocol::ProductionPanel::Clear
PUBLIC	?IsInitialized@ProductionPanel@SC2APIProtocol@@UEBA_NXZ ; SC2APIProtocol::ProductionPanel::IsInitialized
PUBLIC	?ByteSizeLong@ProductionPanel@SC2APIProtocol@@UEBA_KXZ ; SC2APIProtocol::ProductionPanel::ByteSizeLong
PUBLIC	?_InternalParse@ProductionPanel@SC2APIProtocol@@UEAAPEBDPEBDPEAVParseContext@internal@protobuf@google@@@Z ; SC2APIProtocol::ProductionPanel::_InternalParse
PUBLIC	?_InternalSerialize@ProductionPanel@SC2APIProtocol@@UEBAPEAEPEAEPEAVEpsCopyOutputStream@io@protobuf@google@@@Z ; SC2APIProtocol::ProductionPanel::_InternalSerialize
PUBLIC	?GetCachedSize@ProductionPanel@SC2APIProtocol@@UEBAHXZ ; SC2APIProtocol::ProductionPanel::GetCachedSize
PUBLIC	?SharedCtor@ProductionPanel@SC2APIProtocol@@AEAAXPEAVArena@protobuf@google@@_N@Z ; SC2APIProtocol::ProductionPanel::SharedCtor
PUBLIC	?SharedDtor@ProductionPanel@SC2APIProtocol@@AEAAXXZ ; SC2APIProtocol::ProductionPanel::SharedDtor
PUBLIC	?SetCachedSize@ProductionPanel@SC2APIProtocol@@EEBAXH@Z ; SC2APIProtocol::ProductionPanel::SetCachedSize
PUBLIC	?InternalSwap@ProductionPanel@SC2APIProtocol@@AEAAXPEAV12@@Z ; SC2APIProtocol::ProductionPanel::InternalSwap
PUBLIC	??0ProductionPanel@SC2APIProtocol@@IEAA@PEAVArena@protobuf@google@@_N@Z ; SC2APIProtocol::ProductionPanel::ProductionPanel
PUBLIC	?GetClassData@ProductionPanel@SC2APIProtocol@@UEBAPEBUClassData@Message@protobuf@google@@XZ ; SC2APIProtocol::ProductionPanel::GetClassData
PUBLIC	?GetMetadata@ProductionPanel@SC2APIProtocol@@UEBA?AUMetadata@protobuf@google@@XZ ; SC2APIProtocol::ProductionPanel::GetMetadata
PUBLIC	?_internal_build_queue_size@ProductionPanel@SC2APIProtocol@@AEBAHXZ ; SC2APIProtocol::ProductionPanel::_internal_build_queue_size
PUBLIC	?_internal_build_queue@ProductionPanel@SC2APIProtocol@@AEBAAEBVUnitInfo@2@H@Z ; SC2APIProtocol::ProductionPanel::_internal_build_queue
PUBLIC	?_internal_add_build_queue@ProductionPanel@SC2APIProtocol@@AEAAPEAVUnitInfo@2@XZ ; SC2APIProtocol::ProductionPanel::_internal_add_build_queue
PUBLIC	?_internal_production_queue_size@ProductionPanel@SC2APIProtocol@@AEBAHXZ ; SC2APIProtocol::ProductionPanel::_internal_production_queue_size
PUBLIC	?_internal_production_queue@ProductionPanel@SC2APIProtocol@@AEBAAEBVBuildItem@2@H@Z ; SC2APIProtocol::ProductionPanel::_internal_production_queue
PUBLIC	?_internal_add_production_queue@ProductionPanel@SC2APIProtocol@@AEAAPEAVBuildItem@2@XZ ; SC2APIProtocol::ProductionPanel::_internal_add_production_queue
PUBLIC	?_internal_has_unit@ProductionPanel@SC2APIProtocol@@AEBA_NXZ ; SC2APIProtocol::ProductionPanel::_internal_has_unit
PUBLIC	?_internal_unit@ProductionPanel@SC2APIProtocol@@AEBAAEBVUnitInfo@2@XZ ; SC2APIProtocol::ProductionPanel::_internal_unit
PUBLIC	?_internal_mutable_unit@ProductionPanel@SC2APIProtocol@@AEAAPEAVUnitInfo@2@XZ ; SC2APIProtocol::ProductionPanel::_internal_mutable_unit
PUBLIC	??0?$RepeatedPtrField@VBuildItem@SC2APIProtocol@@@protobuf@google@@QEAA@XZ ; google::protobuf::RepeatedPtrField<SC2APIProtocol::BuildItem>::RepeatedPtrField<SC2APIProtocol::BuildItem>
PUBLIC	??0?$RepeatedPtrField@VBuildItem@SC2APIProtocol@@@protobuf@google@@QEAA@PEAVArena@12@@Z ; google::protobuf::RepeatedPtrField<SC2APIProtocol::BuildItem>::RepeatedPtrField<SC2APIProtocol::BuildItem>
PUBLIC	??0?$RepeatedPtrField@VBuildItem@SC2APIProtocol@@@protobuf@google@@QEAA@AEBV012@@Z ; google::protobuf::RepeatedPtrField<SC2APIProtocol::BuildItem>::RepeatedPtrField<SC2APIProtocol::BuildItem>
PUBLIC	??1?$RepeatedPtrField@VBuildItem@SC2APIProtocol@@@protobuf@google@@QEAA@XZ ; google::protobuf::RepeatedPtrField<SC2APIProtocol::BuildItem>::~RepeatedPtrField<SC2APIProtocol::BuildItem>
PUBLIC	?size@?$RepeatedPtrField@VBuildItem@SC2APIProtocol@@@protobuf@google@@QEBAHXZ ; google::protobuf::RepeatedPtrField<SC2APIProtocol::BuildItem>::size
PUBLIC	?Get@?$RepeatedPtrField@VBuildItem@SC2APIProtocol@@@protobuf@google@@QEBAAEBVBuildItem@SC2APIProtocol@@H@Z ; google::protobuf::RepeatedPtrField<SC2APIProtocol::BuildItem>::Get
PUBLIC	?Add@?$RepeatedPtrField@VBuildItem@SC2APIProtocol@@@protobuf@google@@QEAAPEAVBuildItem@SC2APIProtocol@@XZ ; google::protobuf::RepeatedPtrField<SC2APIProtocol::BuildItem>::Add
PUBLIC	?Clear@?$RepeatedPtrField@VBuildItem@SC2APIProtocol@@@protobuf@google@@QEAAXXZ ; google::protobuf::RepeatedPtrField<SC2APIProtocol::BuildItem>::Clear
PUBLIC	?MergeFrom@?$RepeatedPtrField@VBuildItem@SC2APIProtocol@@@protobuf@google@@QEAAXAEBV123@@Z ; google::protobuf::RepeatedPtrField<SC2APIProtocol::BuildItem>::MergeFrom
PUBLIC	?begin@?$RepeatedPtrField@VBuildItem@SC2APIProtocol@@@protobuf@google@@QEBA?AV?$RepeatedPtrIterator@$$CBVBuildItem@SC2APIProtocol@@@internal@23@XZ ; google::protobuf::RepeatedPtrField<SC2APIProtocol::BuildItem>::begin
PUBLIC	?end@?$RepeatedPtrField@VBuildItem@SC2APIProtocol@@@protobuf@google@@QEBA?AV?$RepeatedPtrIterator@$$CBVBuildItem@SC2APIProtocol@@@internal@23@XZ ; google::protobuf::RepeatedPtrField<SC2APIProtocol::BuildItem>::end
PUBLIC	?InternalSwap@?$RepeatedPtrField@VBuildItem@SC2APIProtocol@@@protobuf@google@@QEAAXPEAV123@@Z ; google::protobuf::RepeatedPtrField<SC2APIProtocol::BuildItem>::InternalSwap
PUBLIC	??_G?$RepeatedPtrField@VBuildItem@SC2APIProtocol@@@protobuf@google@@QEAAPEAXI@Z ; google::protobuf::RepeatedPtrField<SC2APIProtocol::BuildItem>::`scalar deleting destructor'
PUBLIC	??_GProductionPanel@SC2APIProtocol@@UEAAPEAXI@Z	; SC2APIProtocol::ProductionPanel::`scalar deleting destructor'
PUBLIC	??$CreateMaybeMessage@VProductionPanel@SC2APIProtocol@@@MessageLite@protobuf@google@@KAPEAVProductionPanel@SC2APIProtocol@@PEAVArena@12@@Z ; google::protobuf::MessageLite::CreateMaybeMessage<SC2APIProtocol::ProductionPanel>
PUBLIC	??1ActionUI@SC2APIProtocol@@UEAA@XZ		; SC2APIProtocol::ActionUI::~ActionUI
PUBLIC	??0ActionUI@SC2APIProtocol@@QEAA@AEBV01@@Z	; SC2APIProtocol::ActionUI::ActionUI
PUBLIC	?CopyFrom@ActionUI@SC2APIProtocol@@QEAAXAEBV12@@Z ; SC2APIProtocol::ActionUI::CopyFrom
PUBLIC	?MergeFrom@ActionUI@SC2APIProtocol@@QEAAXAEBV12@@Z ; SC2APIProtocol::ActionUI::MergeFrom
PUBLIC	?SharedCtor@ActionUI@SC2APIProtocol@@AEAAXPEAVArena@protobuf@google@@_N@Z ; SC2APIProtocol::ActionUI::SharedCtor
PUBLIC	?SharedDtor@ActionUI@SC2APIProtocol@@AEAAXXZ	; SC2APIProtocol::ActionUI::SharedDtor
PUBLIC	?InternalSwap@ActionUI@SC2APIProtocol@@AEAAXPEAV12@@Z ; SC2APIProtocol::ActionUI::InternalSwap
PUBLIC	??0ActionUI@SC2APIProtocol@@IEAA@PEAVArena@protobuf@google@@_N@Z ; SC2APIProtocol::ActionUI::ActionUI
PUBLIC	?_internal_has_control_group@ActionUI@SC2APIProtocol@@AEBA_NXZ ; SC2APIProtocol::ActionUI::_internal_has_control_group
PUBLIC	?set_allocated_control_group@ActionUI@SC2APIProtocol@@QEAAXPEAVActionControlGroup@2@@Z ; SC2APIProtocol::ActionUI::set_allocated_control_group
PUBLIC	?_internal_control_group@ActionUI@SC2APIProtocol@@AEBAAEBVActionControlGroup@2@XZ ; SC2APIProtocol::ActionUI::_internal_control_group
PUBLIC	?_internal_mutable_control_group@ActionUI@SC2APIProtocol@@AEAAPEAVActionControlGroup@2@XZ ; SC2APIProtocol::ActionUI::_internal_mutable_control_group
PUBLIC	?_internal_has_select_army@ActionUI@SC2APIProtocol@@AEBA_NXZ ; SC2APIProtocol::ActionUI::_internal_has_select_army
PUBLIC	?set_allocated_select_army@ActionUI@SC2APIProtocol@@QEAAXPEAVActionSelectArmy@2@@Z ; SC2APIProtocol::ActionUI::set_allocated_select_army
PUBLIC	?_internal_select_army@ActionUI@SC2APIProtocol@@AEBAAEBVActionSelectArmy@2@XZ ; SC2APIProtocol::ActionUI::_internal_select_army
PUBLIC	?_internal_mutable_select_army@ActionUI@SC2APIProtocol@@AEAAPEAVActionSelectArmy@2@XZ ; SC2APIProtocol::ActionUI::_internal_mutable_select_army
PUBLIC	?_internal_has_select_warp_gates@ActionUI@SC2APIProtocol@@AEBA_NXZ ; SC2APIProtocol::ActionUI::_internal_has_select_warp_gates
PUBLIC	?set_allocated_select_warp_gates@ActionUI@SC2APIProtocol@@QEAAXPEAVActionSelectWarpGates@2@@Z ; SC2APIProtocol::ActionUI::set_allocated_select_warp_gates
PUBLIC	?_internal_select_warp_gates@ActionUI@SC2APIProtocol@@AEBAAEBVActionSelectWarpGates@2@XZ ; SC2APIProtocol::ActionUI::_internal_select_warp_gates
PUBLIC	?_internal_mutable_select_warp_gates@ActionUI@SC2APIProtocol@@AEAAPEAVActionSelectWarpGates@2@XZ ; SC2APIProtocol::ActionUI::_internal_mutable_select_warp_gates
PUBLIC	?_internal_has_select_larva@ActionUI@SC2APIProtocol@@AEBA_NXZ ; SC2APIProtocol::ActionUI::_internal_has_select_larva
PUBLIC	?set_allocated_select_larva@ActionUI@SC2APIProtocol@@QEAAXPEAVActionSelectLarva@2@@Z ; SC2APIProtocol::ActionUI::set_allocated_select_larva
PUBLIC	?_internal_select_larva@ActionUI@SC2APIProtocol@@AEBAAEBVActionSelectLarva@2@XZ ; SC2APIProtocol::ActionUI::_internal_select_larva
PUBLIC	?_internal_mutable_select_larva@ActionUI@SC2APIProtocol@@AEAAPEAVActionSelectLarva@2@XZ ; SC2APIProtocol::ActionUI::_internal_mutable_select_larva
PUBLIC	?_internal_has_select_idle_worker@ActionUI@SC2APIProtocol@@AEBA_NXZ ; SC2APIProtocol::ActionUI::_internal_has_select_idle_worker
PUBLIC	?set_allocated_select_idle_worker@ActionUI@SC2APIProtocol@@QEAAXPEAVActionSelectIdleWorker@2@@Z ; SC2APIProtocol::ActionUI::set_allocated_select_idle_worker
PUBLIC	?_internal_select_idle_worker@ActionUI@SC2APIProtocol@@AEBAAEBVActionSelectIdleWorker@2@XZ ; SC2APIProtocol::ActionUI::_internal_select_idle_worker
PUBLIC	?_internal_mutable_select_idle_worker@ActionUI@SC2APIProtocol@@AEAAPEAVActionSelectIdleWorker@2@XZ ; SC2APIProtocol::ActionUI::_internal_mutable_select_idle_worker
PUBLIC	?_internal_has_multi_panel@ActionUI@SC2APIProtocol@@AEBA_NXZ ; SC2APIProtocol::ActionUI::_internal_has_multi_panel
PUBLIC	?set_allocated_multi_panel@ActionUI@SC2APIProtocol@@QEAAXPEAVActionMultiPanel@2@@Z ; SC2APIProtocol::ActionUI::set_allocated_multi_panel
PUBLIC	?_internal_multi_panel@ActionUI@SC2APIProtocol@@AEBAAEBVActionMultiPanel@2@XZ ; SC2APIProtocol::ActionUI::_internal_multi_panel
PUBLIC	?_internal_mutable_multi_panel@ActionUI@SC2APIProtocol@@AEAAPEAVActionMultiPanel@2@XZ ; SC2APIProtocol::ActionUI::_internal_mutable_multi_panel
PUBLIC	?_internal_has_cargo_panel@ActionUI@SC2APIProtocol@@AEBA_NXZ ; SC2APIProtocol::ActionUI::_internal_has_cargo_panel
PUBLIC	?set_allocated_cargo_panel@ActionUI@SC2APIProtocol@@QEAAXPEAVActionCargoPanelUnload@2@@Z ; SC2APIProtocol::ActionUI::set_allocated_cargo_panel
PUBLIC	?_internal_cargo_panel@ActionUI@SC2APIProtocol@@AEBAAEBVActionCargoPanelUnload@2@XZ ; SC2APIProtocol::ActionUI::_internal_cargo_panel
PUBLIC	?_internal_mutable_cargo_panel@ActionUI@SC2APIProtocol@@AEAAPEAVActionCargoPanelUnload@2@XZ ; SC2APIProtocol::ActionUI::_internal_mutable_cargo_panel
PUBLIC	?_internal_has_production_panel@ActionUI@SC2APIProtocol@@AEBA_NXZ ; SC2APIProtocol::ActionUI::_internal_has_production_panel
PUBLIC	?set_allocated_production_panel@ActionUI@SC2APIProtocol@@QEAAXPEAVActionProductionPanelRemoveFromQueue@2@@Z ; SC2APIProtocol::ActionUI::set_allocated_production_panel
PUBLIC	?_internal_production_panel@ActionUI@SC2APIProtocol@@AEBAAEBVActionProductionPanelRemoveFromQueue@2@XZ ; SC2APIProtocol::ActionUI::_internal_production_panel
PUBLIC	?_internal_mutable_production_panel@ActionUI@SC2APIProtocol@@AEAAPEAVActionProductionPanelRemoveFromQueue@2@XZ ; SC2APIProtocol::ActionUI::_internal_mutable_production_panel
PUBLIC	?_internal_has_toggle_autocast@ActionUI@SC2APIProtocol@@AEBA_NXZ ; SC2APIProtocol::ActionUI::_internal_has_toggle_autocast
PUBLIC	?set_allocated_toggle_autocast@ActionUI@SC2APIProtocol@@QEAAXPEAVActionToggleAutocast@2@@Z ; SC2APIProtocol::ActionUI::set_allocated_toggle_autocast
PUBLIC	?_internal_toggle_autocast@ActionUI@SC2APIProtocol@@AEBAAEBVActionToggleAutocast@2@XZ ; SC2APIProtocol::ActionUI::_internal_toggle_autocast
PUBLIC	?_internal_mutable_toggle_autocast@ActionUI@SC2APIProtocol@@AEAAPEAVActionToggleAutocast@2@XZ ; SC2APIProtocol::ActionUI::_internal_mutable_toggle_autocast
PUBLIC	?clear_action@ActionUI@SC2APIProtocol@@QEAAXXZ	; SC2APIProtocol::ActionUI::clear_action
PUBLIC	?action_case@ActionUI@SC2APIProtocol@@QEBA?AW4ActionCase@12@XZ ; SC2APIProtocol::ActionUI::action_case
PUBLIC	?set_has_control_group@ActionUI@SC2APIProtocol@@AEAAXXZ ; SC2APIProtocol::ActionUI::set_has_control_group
PUBLIC	?set_has_select_army@ActionUI@SC2APIProtocol@@AEAAXXZ ; SC2APIProtocol::ActionUI::set_has_select_army
PUBLIC	?set_has_select_warp_gates@ActionUI@SC2APIProtocol@@AEAAXXZ ; SC2APIProtocol::ActionUI::set_has_select_warp_gates
PUBLIC	?set_has_select_larva@ActionUI@SC2APIProtocol@@AEAAXXZ ; SC2APIProtocol::ActionUI::set_has_select_larva
PUBLIC	?set_has_select_idle_worker@ActionUI@SC2APIProtocol@@AEAAXXZ ; SC2APIProtocol::ActionUI::set_has_select_idle_worker
PUBLIC	?set_has_multi_panel@ActionUI@SC2APIProtocol@@AEAAXXZ ; SC2APIProtocol::ActionUI::set_has_multi_panel
PUBLIC	?set_has_cargo_panel@ActionUI@SC2APIProtocol@@AEAAXXZ ; SC2APIProtocol::ActionUI::set_has_cargo_panel
PUBLIC	?set_has_production_panel@ActionUI@SC2APIProtocol@@AEAAXXZ ; SC2APIProtocol::ActionUI::set_has_production_panel
PUBLIC	?set_has_toggle_autocast@ActionUI@SC2APIProtocol@@AEAAXXZ ; SC2APIProtocol::ActionUI::set_has_toggle_autocast
PUBLIC	?has_action@ActionUI@SC2APIProtocol@@AEBA_NXZ	; SC2APIProtocol::ActionUI::has_action
PUBLIC	?clear_has_action@ActionUI@SC2APIProtocol@@AEAAXXZ ; SC2APIProtocol::ActionUI::clear_has_action
PUBLIC	??0ActionUnion@Impl_@ActionUI@SC2APIProtocol@@QEAA@XZ ; SC2APIProtocol::ActionUI::Impl_::ActionUnion::ActionUnion
PUBLIC	??$CreateMaybeMessage@VActionUI@SC2APIProtocol@@@MessageLite@protobuf@google@@KAPEAVActionUI@SC2APIProtocol@@PEAVArena@12@@Z ; google::protobuf::MessageLite::CreateMaybeMessage<SC2APIProtocol::ActionUI>
PUBLIC	??1ActionControlGroup@SC2APIProtocol@@UEAA@XZ	; SC2APIProtocol::ActionControlGroup::~ActionControlGroup
PUBLIC	??0ActionControlGroup@SC2APIProtocol@@QEAA@AEBV01@@Z ; SC2APIProtocol::ActionControlGroup::ActionControlGroup
PUBLIC	?mutable_unknown_fields@ActionControlGroup@SC2APIProtocol@@QEAAPEAVUnknownFieldSet@protobuf@google@@XZ ; SC2APIProtocol::ActionControlGroup::mutable_unknown_fields
PUBLIC	?CopyFrom@ActionControlGroup@SC2APIProtocol@@QEAAXAEBV12@@Z ; SC2APIProtocol::ActionControlGroup::CopyFrom
PUBLIC	?MergeFrom@ActionControlGroup@SC2APIProtocol@@QEAAXAEBV12@@Z ; SC2APIProtocol::ActionControlGroup::MergeFrom
PUBLIC	?SharedCtor@ActionControlGroup@SC2APIProtocol@@AEAAXPEAVArena@protobuf@google@@_N@Z ; SC2APIProtocol::ActionControlGroup::SharedCtor
PUBLIC	?SharedDtor@ActionControlGroup@SC2APIProtocol@@AEAAXXZ ; SC2APIProtocol::ActionControlGroup::SharedDtor
PUBLIC	?InternalSwap@ActionControlGroup@SC2APIProtocol@@AEAAXPEAV12@@Z ; SC2APIProtocol::ActionControlGroup::InternalSwap
PUBLIC	??0ActionControlGroup@SC2APIProtocol@@IEAA@PEAVArena@protobuf@google@@_N@Z ; SC2APIProtocol::ActionControlGroup::ActionControlGroup
PUBLIC	?_internal_control_group_index@ActionControlGroup@SC2APIProtocol@@AEBAIXZ ; SC2APIProtocol::ActionControlGroup::_internal_control_group_index
PUBLIC	?_internal_action@ActionControlGroup@SC2APIProtocol@@AEBA?AW4ActionControlGroup_ControlGroupAction@2@XZ ; SC2APIProtocol::ActionControlGroup::_internal_action
PUBLIC	?_internal_set_action@ActionControlGroup@SC2APIProtocol@@AEAAXW4ActionControlGroup_ControlGroupAction@2@@Z ; SC2APIProtocol::ActionControlGroup::_internal_set_action
PUBLIC	??$CreateMaybeMessage@VActionControlGroup@SC2APIProtocol@@@MessageLite@protobuf@google@@KAPEAVActionControlGroup@SC2APIProtocol@@PEAVArena@12@@Z ; google::protobuf::MessageLite::CreateMaybeMessage<SC2APIProtocol::ActionControlGroup>
PUBLIC	??1ActionSelectArmy@SC2APIProtocol@@UEAA@XZ	; SC2APIProtocol::ActionSelectArmy::~ActionSelectArmy
PUBLIC	??0ActionSelectArmy@SC2APIProtocol@@QEAA@AEBV01@@Z ; SC2APIProtocol::ActionSelectArmy::ActionSelectArmy
PUBLIC	?CopyFrom@ActionSelectArmy@SC2APIProtocol@@QEAAXAEBV12@@Z ; SC2APIProtocol::ActionSelectArmy::CopyFrom
PUBLIC	?MergeFrom@ActionSelectArmy@SC2APIProtocol@@QEAAXAEBV12@@Z ; SC2APIProtocol::ActionSelectArmy::MergeFrom
PUBLIC	?SharedCtor@ActionSelectArmy@SC2APIProtocol@@AEAAXPEAVArena@protobuf@google@@_N@Z ; SC2APIProtocol::ActionSelectArmy::SharedCtor
PUBLIC	?SharedDtor@ActionSelectArmy@SC2APIProtocol@@AEAAXXZ ; SC2APIProtocol::ActionSelectArmy::SharedDtor
PUBLIC	?InternalSwap@ActionSelectArmy@SC2APIProtocol@@AEAAXPEAV12@@Z ; SC2APIProtocol::ActionSelectArmy::InternalSwap
PUBLIC	??0ActionSelectArmy@SC2APIProtocol@@IEAA@PEAVArena@protobuf@google@@_N@Z ; SC2APIProtocol::ActionSelectArmy::ActionSelectArmy
PUBLIC	?_internal_has_selection_add@ActionSelectArmy@SC2APIProtocol@@AEBA_NXZ ; SC2APIProtocol::ActionSelectArmy::_internal_has_selection_add
PUBLIC	?_internal_selection_add@ActionSelectArmy@SC2APIProtocol@@AEBA_NXZ ; SC2APIProtocol::ActionSelectArmy::_internal_selection_add
PUBLIC	?_internal_set_selection_add@ActionSelectArmy@SC2APIProtocol@@AEAAX_N@Z ; SC2APIProtocol::ActionSelectArmy::_internal_set_selection_add
PUBLIC	??$CreateMaybeMessage@VActionSelectArmy@SC2APIProtocol@@@MessageLite@protobuf@google@@KAPEAVActionSelectArmy@SC2APIProtocol@@PEAVArena@12@@Z ; google::protobuf::MessageLite::CreateMaybeMessage<SC2APIProtocol::ActionSelectArmy>
PUBLIC	??1ActionSelectWarpGates@SC2APIProtocol@@UEAA@XZ ; SC2APIProtocol::ActionSelectWarpGates::~ActionSelectWarpGates
PUBLIC	??0ActionSelectWarpGates@SC2APIProtocol@@QEAA@AEBV01@@Z ; SC2APIProtocol::ActionSelectWarpGates::ActionSelectWarpGates
PUBLIC	?CopyFrom@ActionSelectWarpGates@SC2APIProtocol@@QEAAXAEBV12@@Z ; SC2APIProtocol::ActionSelectWarpGates::CopyFrom
PUBLIC	?MergeFrom@ActionSelectWarpGates@SC2APIProtocol@@QEAAXAEBV12@@Z ; SC2APIProtocol::ActionSelectWarpGates::MergeFrom
PUBLIC	?SharedCtor@ActionSelectWarpGates@SC2APIProtocol@@AEAAXPEAVArena@protobuf@google@@_N@Z ; SC2APIProtocol::ActionSelectWarpGates::SharedCtor
PUBLIC	?SharedDtor@ActionSelectWarpGates@SC2APIProtocol@@AEAAXXZ ; SC2APIProtocol::ActionSelectWarpGates::SharedDtor
PUBLIC	?InternalSwap@ActionSelectWarpGates@SC2APIProtocol@@AEAAXPEAV12@@Z ; SC2APIProtocol::ActionSelectWarpGates::InternalSwap
PUBLIC	??0ActionSelectWarpGates@SC2APIProtocol@@IEAA@PEAVArena@protobuf@google@@_N@Z ; SC2APIProtocol::ActionSelectWarpGates::ActionSelectWarpGates
PUBLIC	?_internal_has_selection_add@ActionSelectWarpGates@SC2APIProtocol@@AEBA_NXZ ; SC2APIProtocol::ActionSelectWarpGates::_internal_has_selection_add
PUBLIC	?_internal_selection_add@ActionSelectWarpGates@SC2APIProtocol@@AEBA_NXZ ; SC2APIProtocol::ActionSelectWarpGates::_internal_selection_add
PUBLIC	?_internal_set_selection_add@ActionSelectWarpGates@SC2APIProtocol@@AEAAX_N@Z ; SC2APIProtocol::ActionSelectWarpGates::_internal_set_selection_add
PUBLIC	??$CreateMaybeMessage@VActionSelectWarpGates@SC2APIProtocol@@@MessageLite@protobuf@google@@KAPEAVActionSelectWarpGates@SC2APIProtocol@@PEAVArena@12@@Z ; google::protobuf::MessageLite::CreateMaybeMessage<SC2APIProtocol::ActionSelectWarpGates>
PUBLIC	??0ActionSelectLarva@SC2APIProtocol@@QEAA@AEBV01@@Z ; SC2APIProtocol::ActionSelectLarva::ActionSelectLarva
PUBLIC	?MergeFrom@ActionSelectLarva@SC2APIProtocol@@QEAAXAEBV12@@Z ; SC2APIProtocol::ActionSelectLarva::MergeFrom
PUBLIC	??0ActionSelectLarva@SC2APIProtocol@@IEAA@PEAVArena@protobuf@google@@_N@Z ; SC2APIProtocol::ActionSelectLarva::ActionSelectLarva
PUBLIC	??1ActionSelectLarva@SC2APIProtocol@@UEAA@XZ	; SC2APIProtocol::ActionSelectLarva::~ActionSelectLarva
PUBLIC	??$CreateMaybeMessage@VActionSelectLarva@SC2APIProtocol@@@MessageLite@protobuf@google@@KAPEAVActionSelectLarva@SC2APIProtocol@@PEAVArena@12@@Z ; google::protobuf::MessageLite::CreateMaybeMessage<SC2APIProtocol::ActionSelectLarva>
PUBLIC	??1ActionSelectIdleWorker@SC2APIProtocol@@UEAA@XZ ; SC2APIProtocol::ActionSelectIdleWorker::~ActionSelectIdleWorker
PUBLIC	??0ActionSelectIdleWorker@SC2APIProtocol@@QEAA@AEBV01@@Z ; SC2APIProtocol::ActionSelectIdleWorker::ActionSelectIdleWorker
PUBLIC	?mutable_unknown_fields@ActionSelectIdleWorker@SC2APIProtocol@@QEAAPEAVUnknownFieldSet@protobuf@google@@XZ ; SC2APIProtocol::ActionSelectIdleWorker::mutable_unknown_fields
PUBLIC	?CopyFrom@ActionSelectIdleWorker@SC2APIProtocol@@QEAAXAEBV12@@Z ; SC2APIProtocol::ActionSelectIdleWorker::CopyFrom
PUBLIC	?MergeFrom@ActionSelectIdleWorker@SC2APIProtocol@@QEAAXAEBV12@@Z ; SC2APIProtocol::ActionSelectIdleWorker::MergeFrom
PUBLIC	?SharedCtor@ActionSelectIdleWorker@SC2APIProtocol@@AEAAXPEAVArena@protobuf@google@@_N@Z ; SC2APIProtocol::ActionSelectIdleWorker::SharedCtor
PUBLIC	?SharedDtor@ActionSelectIdleWorker@SC2APIProtocol@@AEAAXXZ ; SC2APIProtocol::ActionSelectIdleWorker::SharedDtor
PUBLIC	?InternalSwap@ActionSelectIdleWorker@SC2APIProtocol@@AEAAXPEAV12@@Z ; SC2APIProtocol::ActionSelectIdleWorker::InternalSwap
PUBLIC	??0ActionSelectIdleWorker@SC2APIProtocol@@IEAA@PEAVArena@protobuf@google@@_N@Z ; SC2APIProtocol::ActionSelectIdleWorker::ActionSelectIdleWorker
PUBLIC	?_internal_has_type@ActionSelectIdleWorker@SC2APIProtocol@@AEBA_NXZ ; SC2APIProtocol::ActionSelectIdleWorker::_internal_has_type
PUBLIC	?_internal_type@ActionSelectIdleWorker@SC2APIProtocol@@AEBA?AW4ActionSelectIdleWorker_Type@2@XZ ; SC2APIProtocol::ActionSelectIdleWorker::_internal_type
PUBLIC	?_internal_set_type@ActionSelectIdleWorker@SC2APIProtocol@@AEAAXW4ActionSelectIdleWorker_Type@2@@Z ; SC2APIProtocol::ActionSelectIdleWorker::_internal_set_type
PUBLIC	??$CreateMaybeMessage@VActionSelectIdleWorker@SC2APIProtocol@@@MessageLite@protobuf@google@@KAPEAVActionSelectIdleWorker@SC2APIProtocol@@PEAVArena@12@@Z ; google::protobuf::MessageLite::CreateMaybeMessage<SC2APIProtocol::ActionSelectIdleWorker>
PUBLIC	??1ActionMultiPanel@SC2APIProtocol@@UEAA@XZ	; SC2APIProtocol::ActionMultiPanel::~ActionMultiPanel
PUBLIC	??0ActionMultiPanel@SC2APIProtocol@@QEAA@AEBV01@@Z ; SC2APIProtocol::ActionMultiPanel::ActionMultiPanel
PUBLIC	?mutable_unknown_fields@ActionMultiPanel@SC2APIProtocol@@QEAAPEAVUnknownFieldSet@protobuf@google@@XZ ; SC2APIProtocol::ActionMultiPanel::mutable_unknown_fields
PUBLIC	?CopyFrom@ActionMultiPanel@SC2APIProtocol@@QEAAXAEBV12@@Z ; SC2APIProtocol::ActionMultiPanel::CopyFrom
PUBLIC	?MergeFrom@ActionMultiPanel@SC2APIProtocol@@QEAAXAEBV12@@Z ; SC2APIProtocol::ActionMultiPanel::MergeFrom
PUBLIC	?SharedCtor@ActionMultiPanel@SC2APIProtocol@@AEAAXPEAVArena@protobuf@google@@_N@Z ; SC2APIProtocol::ActionMultiPanel::SharedCtor
PUBLIC	?SharedDtor@ActionMultiPanel@SC2APIProtocol@@AEAAXXZ ; SC2APIProtocol::ActionMultiPanel::SharedDtor
PUBLIC	?InternalSwap@ActionMultiPanel@SC2APIProtocol@@AEAAXPEAV12@@Z ; SC2APIProtocol::ActionMultiPanel::InternalSwap
PUBLIC	??0ActionMultiPanel@SC2APIProtocol@@IEAA@PEAVArena@protobuf@google@@_N@Z ; SC2APIProtocol::ActionMultiPanel::ActionMultiPanel
PUBLIC	?_internal_unit_index@ActionMultiPanel@SC2APIProtocol@@AEBAHXZ ; SC2APIProtocol::ActionMultiPanel::_internal_unit_index
PUBLIC	?_internal_type@ActionMultiPanel@SC2APIProtocol@@AEBA?AW4ActionMultiPanel_Type@2@XZ ; SC2APIProtocol::ActionMultiPanel::_internal_type
PUBLIC	?_internal_set_type@ActionMultiPanel@SC2APIProtocol@@AEAAXW4ActionMultiPanel_Type@2@@Z ; SC2APIProtocol::ActionMultiPanel::_internal_set_type
PUBLIC	??$CreateMaybeMessage@VActionMultiPanel@SC2APIProtocol@@@MessageLite@protobuf@google@@KAPEAVActionMultiPanel@SC2APIProtocol@@PEAVArena@12@@Z ; google::protobuf::MessageLite::CreateMaybeMessage<SC2APIProtocol::ActionMultiPanel>
PUBLIC	??1ActionCargoPanelUnload@SC2APIProtocol@@UEAA@XZ ; SC2APIProtocol::ActionCargoPanelUnload::~ActionCargoPanelUnload
PUBLIC	??0ActionCargoPanelUnload@SC2APIProtocol@@QEAA@AEBV01@@Z ; SC2APIProtocol::ActionCargoPanelUnload::ActionCargoPanelUnload
PUBLIC	?CopyFrom@ActionCargoPanelUnload@SC2APIProtocol@@QEAAXAEBV12@@Z ; SC2APIProtocol::ActionCargoPanelUnload::CopyFrom
PUBLIC	?MergeFrom@ActionCargoPanelUnload@SC2APIProtocol@@QEAAXAEBV12@@Z ; SC2APIProtocol::ActionCargoPanelUnload::MergeFrom
PUBLIC	?SharedCtor@ActionCargoPanelUnload@SC2APIProtocol@@AEAAXPEAVArena@protobuf@google@@_N@Z ; SC2APIProtocol::ActionCargoPanelUnload::SharedCtor
PUBLIC	?SharedDtor@ActionCargoPanelUnload@SC2APIProtocol@@AEAAXXZ ; SC2APIProtocol::ActionCargoPanelUnload::SharedDtor
PUBLIC	?InternalSwap@ActionCargoPanelUnload@SC2APIProtocol@@AEAAXPEAV12@@Z ; SC2APIProtocol::ActionCargoPanelUnload::InternalSwap
PUBLIC	??0ActionCargoPanelUnload@SC2APIProtocol@@IEAA@PEAVArena@protobuf@google@@_N@Z ; SC2APIProtocol::ActionCargoPanelUnload::ActionCargoPanelUnload
PUBLIC	?_internal_has_unit_index@ActionCargoPanelUnload@SC2APIProtocol@@AEBA_NXZ ; SC2APIProtocol::ActionCargoPanelUnload::_internal_has_unit_index
PUBLIC	?_internal_unit_index@ActionCargoPanelUnload@SC2APIProtocol@@AEBAHXZ ; SC2APIProtocol::ActionCargoPanelUnload::_internal_unit_index
PUBLIC	?_internal_set_unit_index@ActionCargoPanelUnload@SC2APIProtocol@@AEAAXH@Z ; SC2APIProtocol::ActionCargoPanelUnload::_internal_set_unit_index
PUBLIC	??$CreateMaybeMessage@VActionCargoPanelUnload@SC2APIProtocol@@@MessageLite@protobuf@google@@KAPEAVActionCargoPanelUnload@SC2APIProtocol@@PEAVArena@12@@Z ; google::protobuf::MessageLite::CreateMaybeMessage<SC2APIProtocol::ActionCargoPanelUnload>
PUBLIC	??1ActionProductionPanelRemoveFromQueue@SC2APIProtocol@@UEAA@XZ ; SC2APIProtocol::ActionProductionPanelRemoveFromQueue::~ActionProductionPanelRemoveFromQueue
PUBLIC	??0ActionProductionPanelRemoveFromQueue@SC2APIProtocol@@QEAA@AEBV01@@Z ; SC2APIProtocol::ActionProductionPanelRemoveFromQueue::ActionProductionPanelRemoveFromQueue
PUBLIC	?CopyFrom@ActionProductionPanelRemoveFromQueue@SC2APIProtocol@@QEAAXAEBV12@@Z ; SC2APIProtocol::ActionProductionPanelRemoveFromQueue::CopyFrom
PUBLIC	?MergeFrom@ActionProductionPanelRemoveFromQueue@SC2APIProtocol@@QEAAXAEBV12@@Z ; SC2APIProtocol::ActionProductionPanelRemoveFromQueue::MergeFrom
PUBLIC	?SharedCtor@ActionProductionPanelRemoveFromQueue@SC2APIProtocol@@AEAAXPEAVArena@protobuf@google@@_N@Z ; SC2APIProtocol::ActionProductionPanelRemoveFromQueue::SharedCtor
PUBLIC	?SharedDtor@ActionProductionPanelRemoveFromQueue@SC2APIProtocol@@AEAAXXZ ; SC2APIProtocol::ActionProductionPanelRemoveFromQueue::SharedDtor
PUBLIC	?InternalSwap@ActionProductionPanelRemoveFromQueue@SC2APIProtocol@@AEAAXPEAV12@@Z ; SC2APIProtocol::ActionProductionPanelRemoveFromQueue::InternalSwap
PUBLIC	??0ActionProductionPanelRemoveFromQueue@SC2APIProtocol@@IEAA@PEAVArena@protobuf@google@@_N@Z ; SC2APIProtocol::ActionProductionPanelRemoveFromQueue::ActionProductionPanelRemoveFromQueue
PUBLIC	?_internal_has_unit_index@ActionProductionPanelRemoveFromQueue@SC2APIProtocol@@AEBA_NXZ ; SC2APIProtocol::ActionProductionPanelRemoveFromQueue::_internal_has_unit_index
PUBLIC	?_internal_unit_index@ActionProductionPanelRemoveFromQueue@SC2APIProtocol@@AEBAHXZ ; SC2APIProtocol::ActionProductionPanelRemoveFromQueue::_internal_unit_index
PUBLIC	?_internal_set_unit_index@ActionProductionPanelRemoveFromQueue@SC2APIProtocol@@AEAAXH@Z ; SC2APIProtocol::ActionProductionPanelRemoveFromQueue::_internal_set_unit_index
PUBLIC	??$CreateMaybeMessage@VActionProductionPanelRemoveFromQueue@SC2APIProtocol@@@MessageLite@protobuf@google@@KAPEAVActionProductionPanelRemoveFromQueue@SC2APIProtocol@@PEAVArena@12@@Z ; google::protobuf::MessageLite::CreateMaybeMessage<SC2APIProtocol::ActionProductionPanelRemoveFromQueue>
PUBLIC	??1ActionToggleAutocast@SC2APIProtocol@@UEAA@XZ	; SC2APIProtocol::ActionToggleAutocast::~ActionToggleAutocast
PUBLIC	??0ActionToggleAutocast@SC2APIProtocol@@QEAA@AEBV01@@Z ; SC2APIProtocol::ActionToggleAutocast::ActionToggleAutocast
PUBLIC	?CopyFrom@ActionToggleAutocast@SC2APIProtocol@@QEAAXAEBV12@@Z ; SC2APIProtocol::ActionToggleAutocast::CopyFrom
PUBLIC	?MergeFrom@ActionToggleAutocast@SC2APIProtocol@@QEAAXAEBV12@@Z ; SC2APIProtocol::ActionToggleAutocast::MergeFrom
PUBLIC	?SharedCtor@ActionToggleAutocast@SC2APIProtocol@@AEAAXPEAVArena@protobuf@google@@_N@Z ; SC2APIProtocol::ActionToggleAutocast::SharedCtor
PUBLIC	?SharedDtor@ActionToggleAutocast@SC2APIProtocol@@AEAAXXZ ; SC2APIProtocol::ActionToggleAutocast::SharedDtor
PUBLIC	?InternalSwap@ActionToggleAutocast@SC2APIProtocol@@AEAAXPEAV12@@Z ; SC2APIProtocol::ActionToggleAutocast::InternalSwap
PUBLIC	??0ActionToggleAutocast@SC2APIProtocol@@IEAA@PEAVArena@protobuf@google@@_N@Z ; SC2APIProtocol::ActionToggleAutocast::ActionToggleAutocast
PUBLIC	?_internal_has_ability_id@ActionToggleAutocast@SC2APIProtocol@@AEBA_NXZ ; SC2APIProtocol::ActionToggleAutocast::_internal_has_ability_id
PUBLIC	?_internal_ability_id@ActionToggleAutocast@SC2APIProtocol@@AEBAHXZ ; SC2APIProtocol::ActionToggleAutocast::_internal_ability_id
PUBLIC	?_internal_set_ability_id@ActionToggleAutocast@SC2APIProtocol@@AEAAXH@Z ; SC2APIProtocol::ActionToggleAutocast::_internal_set_ability_id
PUBLIC	??$CreateMaybeMessage@VActionToggleAutocast@SC2APIProtocol@@@MessageLite@protobuf@google@@KAPEAVActionToggleAutocast@SC2APIProtocol@@PEAVArena@12@@Z ; google::protobuf::MessageLite::CreateMaybeMessage<SC2APIProtocol::ActionToggleAutocast>
PUBLIC	??0ObservationUIDefaultTypeInternal@SC2APIProtocol@@QEAA@XZ ; SC2APIProtocol::ObservationUIDefaultTypeInternal::ObservationUIDefaultTypeInternal
PUBLIC	??1ObservationUIDefaultTypeInternal@SC2APIProtocol@@QEAA@XZ ; SC2APIProtocol::ObservationUIDefaultTypeInternal::~ObservationUIDefaultTypeInternal
PUBLIC	??1ControlGroupDefaultTypeInternal@SC2APIProtocol@@QEAA@XZ ; SC2APIProtocol::ControlGroupDefaultTypeInternal::~ControlGroupDefaultTypeInternal
PUBLIC	??1UnitInfoDefaultTypeInternal@SC2APIProtocol@@QEAA@XZ ; SC2APIProtocol::UnitInfoDefaultTypeInternal::~UnitInfoDefaultTypeInternal
PUBLIC	??0SinglePanelDefaultTypeInternal@SC2APIProtocol@@QEAA@XZ ; SC2APIProtocol::SinglePanelDefaultTypeInternal::SinglePanelDefaultTypeInternal
PUBLIC	??1SinglePanelDefaultTypeInternal@SC2APIProtocol@@QEAA@XZ ; SC2APIProtocol::SinglePanelDefaultTypeInternal::~SinglePanelDefaultTypeInternal
PUBLIC	??0MultiPanelDefaultTypeInternal@SC2APIProtocol@@QEAA@XZ ; SC2APIProtocol::MultiPanelDefaultTypeInternal::MultiPanelDefaultTypeInternal
PUBLIC	??1MultiPanelDefaultTypeInternal@SC2APIProtocol@@QEAA@XZ ; SC2APIProtocol::MultiPanelDefaultTypeInternal::~MultiPanelDefaultTypeInternal
PUBLIC	??0CargoPanelDefaultTypeInternal@SC2APIProtocol@@QEAA@XZ ; SC2APIProtocol::CargoPanelDefaultTypeInternal::CargoPanelDefaultTypeInternal
PUBLIC	??1CargoPanelDefaultTypeInternal@SC2APIProtocol@@QEAA@XZ ; SC2APIProtocol::CargoPanelDefaultTypeInternal::~CargoPanelDefaultTypeInternal
PUBLIC	??1BuildItemDefaultTypeInternal@SC2APIProtocol@@QEAA@XZ ; SC2APIProtocol::BuildItemDefaultTypeInternal::~BuildItemDefaultTypeInternal
PUBLIC	??0ProductionPanelDefaultTypeInternal@SC2APIProtocol@@QEAA@XZ ; SC2APIProtocol::ProductionPanelDefaultTypeInternal::ProductionPanelDefaultTypeInternal
PUBLIC	??1ProductionPanelDefaultTypeInternal@SC2APIProtocol@@QEAA@XZ ; SC2APIProtocol::ProductionPanelDefaultTypeInternal::~ProductionPanelDefaultTypeInternal
PUBLIC	??1ActionUIDefaultTypeInternal@SC2APIProtocol@@QEAA@XZ ; SC2APIProtocol::ActionUIDefaultTypeInternal::~ActionUIDefaultTypeInternal
PUBLIC	??1ActionControlGroupDefaultTypeInternal@SC2APIProtocol@@QEAA@XZ ; SC2APIProtocol::ActionControlGroupDefaultTypeInternal::~ActionControlGroupDefaultTypeInternal
PUBLIC	??1ActionSelectArmyDefaultTypeInternal@SC2APIProtocol@@QEAA@XZ ; SC2APIProtocol::ActionSelectArmyDefaultTypeInternal::~ActionSelectArmyDefaultTypeInternal
PUBLIC	??1ActionSelectWarpGatesDefaultTypeInternal@SC2APIProtocol@@QEAA@XZ ; SC2APIProtocol::ActionSelectWarpGatesDefaultTypeInternal::~ActionSelectWarpGatesDefaultTypeInternal
PUBLIC	??1ActionSelectLarvaDefaultTypeInternal@SC2APIProtocol@@QEAA@XZ ; SC2APIProtocol::ActionSelectLarvaDefaultTypeInternal::~ActionSelectLarvaDefaultTypeInternal
PUBLIC	??1ActionSelectIdleWorkerDefaultTypeInternal@SC2APIProtocol@@QEAA@XZ ; SC2APIProtocol::ActionSelectIdleWorkerDefaultTypeInternal::~ActionSelectIdleWorkerDefaultTypeInternal
PUBLIC	??1ActionMultiPanelDefaultTypeInternal@SC2APIProtocol@@QEAA@XZ ; SC2APIProtocol::ActionMultiPanelDefaultTypeInternal::~ActionMultiPanelDefaultTypeInternal
PUBLIC	??1ActionCargoPanelUnloadDefaultTypeInternal@SC2APIProtocol@@QEAA@XZ ; SC2APIProtocol::ActionCargoPanelUnloadDefaultTypeInternal::~ActionCargoPanelUnloadDefaultTypeInternal
PUBLIC	??1ActionProductionPanelRemoveFromQueueDefaultTypeInternal@SC2APIProtocol@@QEAA@XZ ; SC2APIProtocol::ActionProductionPanelRemoveFromQueueDefaultTypeInternal::~ActionProductionPanelRemoveFromQueueDefaultTypeInternal
PUBLIC	??1ActionToggleAutocastDefaultTypeInternal@SC2APIProtocol@@QEAA@XZ ; SC2APIProtocol::ActionToggleAutocastDefaultTypeInternal::~ActionToggleAutocastDefaultTypeInternal
PUBLIC	?descriptor_table_s2clientprotocol_2fui_2eproto_getter@@YAPEBUDescriptorTable@internal@protobuf@google@@XZ ; descriptor_table_s2clientprotocol_2fui_2eproto_getter
PUBLIC	?single@_Internal@ObservationUI@SC2APIProtocol@@SAAEBVSinglePanel@3@PEBV23@@Z ; SC2APIProtocol::ObservationUI::_Internal::single
PUBLIC	?multi@_Internal@ObservationUI@SC2APIProtocol@@SAAEBVMultiPanel@3@PEBV23@@Z ; SC2APIProtocol::ObservationUI::_Internal::multi
PUBLIC	?cargo@_Internal@ObservationUI@SC2APIProtocol@@SAAEBVCargoPanel@3@PEBV23@@Z ; SC2APIProtocol::ObservationUI::_Internal::cargo
PUBLIC	?production@_Internal@ObservationUI@SC2APIProtocol@@SAAEBVProductionPanel@3@PEBV23@@Z ; SC2APIProtocol::ObservationUI::_Internal::production
PUBLIC	??$InternalGetOwningArena@VSinglePanel@SC2APIProtocol@@@Arena@protobuf@google@@SAPEAV012@PEBVSinglePanel@SC2APIProtocol@@@Z ; google::protobuf::Arena::InternalGetOwningArena<SC2APIProtocol::SinglePanel>
PUBLIC	??$GetOwnedMessage@VSinglePanel@SC2APIProtocol@@@internal@protobuf@google@@YAPEAVSinglePanel@SC2APIProtocol@@PEAVArena@12@PEAV34@0@Z ; google::protobuf::internal::GetOwnedMessage<SC2APIProtocol::SinglePanel>
PUBLIC	??$InternalGetOwningArena@VMultiPanel@SC2APIProtocol@@@Arena@protobuf@google@@SAPEAV012@PEBVMultiPanel@SC2APIProtocol@@@Z ; google::protobuf::Arena::InternalGetOwningArena<SC2APIProtocol::MultiPanel>
PUBLIC	??$GetOwnedMessage@VMultiPanel@SC2APIProtocol@@@internal@protobuf@google@@YAPEAVMultiPanel@SC2APIProtocol@@PEAVArena@12@PEAV34@0@Z ; google::protobuf::internal::GetOwnedMessage<SC2APIProtocol::MultiPanel>
PUBLIC	??$InternalGetOwningArena@VCargoPanel@SC2APIProtocol@@@Arena@protobuf@google@@SAPEAV012@PEBVCargoPanel@SC2APIProtocol@@@Z ; google::protobuf::Arena::InternalGetOwningArena<SC2APIProtocol::CargoPanel>
PUBLIC	??$GetOwnedMessage@VCargoPanel@SC2APIProtocol@@@internal@protobuf@google@@YAPEAVCargoPanel@SC2APIProtocol@@PEAVArena@12@PEAV34@0@Z ; google::protobuf::internal::GetOwnedMessage<SC2APIProtocol::CargoPanel>
PUBLIC	??$InternalGetOwningArena@VProductionPanel@SC2APIProtocol@@@Arena@protobuf@google@@SAPEAV012@PEBVProductionPanel@SC2APIProtocol@@@Z ; google::protobuf::Arena::InternalGetOwningArena<SC2APIProtocol::ProductionPanel>
PUBLIC	??$GetOwnedMessage@VProductionPanel@SC2APIProtocol@@@internal@protobuf@google@@YAPEAVProductionPanel@SC2APIProtocol@@PEAVArena@12@PEAV34@0@Z ; google::protobuf::internal::GetOwnedMessage<SC2APIProtocol::ProductionPanel>
PUBLIC	??$MergeFrom@VUnknownFieldSet@protobuf@google@@@InternalMetadata@internal@protobuf@google@@QEAAXAEBV0123@@Z ; google::protobuf::internal::InternalMetadata::MergeFrom<google::protobuf::UnknownFieldSet>
PUBLIC	??$DeleteReturnArena@VUnknownFieldSet@protobuf@google@@@InternalMetadata@internal@protobuf@google@@QEAAPEAVArena@23@XZ ; google::protobuf::internal::InternalMetadata::DeleteReturnArena<google::protobuf::UnknownFieldSet>
PUBLIC	??$Clear@VUnknownFieldSet@protobuf@google@@@InternalMetadata@internal@protobuf@google@@QEAAXXZ ; google::protobuf::internal::InternalMetadata::Clear<google::protobuf::UnknownFieldSet>
PUBLIC	??$ExpectTag@$09@internal@protobuf@google@@YA_NPEBD@Z ; google::protobuf::internal::ExpectTag<10>
PUBLIC	??D?$RepeatedPtrIterator@$$CBVControlGroup@SC2APIProtocol@@@internal@protobuf@google@@QEBAAEBVControlGroup@SC2APIProtocol@@XZ ; google::protobuf::internal::RepeatedPtrIterator<SC2APIProtocol::ControlGroup const >::operator*
PUBLIC	??E?$RepeatedPtrIterator@$$CBVControlGroup@SC2APIProtocol@@@internal@protobuf@google@@QEAAAEAV0123@XZ ; google::protobuf::internal::RepeatedPtrIterator<SC2APIProtocol::ControlGroup const >::operator++
PUBLIC	??9internal@protobuf@google@@YA_NAEBV?$RepeatedPtrIterator@$$CBVControlGroup@SC2APIProtocol@@@012@0@Z ; google::protobuf::internal::operator!=
PUBLIC	??$MessageSize@VControlGroup@SC2APIProtocol@@@WireFormatLite@internal@protobuf@google@@SA_KAEBVControlGroup@SC2APIProtocol@@@Z ; google::protobuf::internal::WireFormatLite::MessageSize<SC2APIProtocol::ControlGroup>
PUBLIC	??$MessageSize@VSinglePanel@SC2APIProtocol@@@WireFormatLite@internal@protobuf@google@@SA_KAEBVSinglePanel@SC2APIProtocol@@@Z ; google::protobuf::internal::WireFormatLite::MessageSize<SC2APIProtocol::SinglePanel>
PUBLIC	??$MessageSize@VMultiPanel@SC2APIProtocol@@@WireFormatLite@internal@protobuf@google@@SA_KAEBVMultiPanel@SC2APIProtocol@@@Z ; google::protobuf::internal::WireFormatLite::MessageSize<SC2APIProtocol::MultiPanel>
PUBLIC	??$MessageSize@VCargoPanel@SC2APIProtocol@@@WireFormatLite@internal@protobuf@google@@SA_KAEBVCargoPanel@SC2APIProtocol@@@Z ; google::protobuf::internal::WireFormatLite::MessageSize<SC2APIProtocol::CargoPanel>
PUBLIC	??$MessageSize@VProductionPanel@SC2APIProtocol@@@WireFormatLite@internal@protobuf@google@@SA_KAEBVProductionPanel@SC2APIProtocol@@@Z ; google::protobuf::internal::WireFormatLite::MessageSize<SC2APIProtocol::ProductionPanel>
PUBLIC	??$swap@TPanelUnion@Impl_@ObservationUI@SC2APIProtocol@@$0A@@std@@YAXAEATPanelUnion@Impl_@ObservationUI@SC2APIProtocol@@0@Z ; std::swap<SC2APIProtocol::ObservationUI::Impl_::PanelUnion,0>
PUBLIC	??$swap@I$0A@@std@@YAXAEAI0@Z			; std::swap<unsigned int,0>
PUBLIC	?set_has_control_group_index@_Internal@ControlGroup@SC2APIProtocol@@SAXPEAV?$HasBits@$00@internal@protobuf@google@@@Z ; SC2APIProtocol::ControlGroup::_Internal::set_has_control_group_index
PUBLIC	?set_has_leader_unit_type@_Internal@ControlGroup@SC2APIProtocol@@SAXPEAV?$HasBits@$00@internal@protobuf@google@@@Z ; SC2APIProtocol::ControlGroup::_Internal::set_has_leader_unit_type
PUBLIC	?set_has_count@_Internal@ControlGroup@SC2APIProtocol@@SAXPEAV?$HasBits@$00@internal@protobuf@google@@@Z ; SC2APIProtocol::ControlGroup::_Internal::set_has_count
PUBLIC	??$memswap@$0M@@internal@protobuf@google@@YAXPEAD0@Z ; google::protobuf::internal::memswap<12>
PUBLIC	?set_has_unit_type@_Internal@UnitInfo@SC2APIProtocol@@SAXPEAV?$HasBits@$00@internal@protobuf@google@@@Z ; SC2APIProtocol::UnitInfo::_Internal::set_has_unit_type
PUBLIC	?set_has_player_relative@_Internal@UnitInfo@SC2APIProtocol@@SAXPEAV?$HasBits@$00@internal@protobuf@google@@@Z ; SC2APIProtocol::UnitInfo::_Internal::set_has_player_relative
PUBLIC	?set_has_health@_Internal@UnitInfo@SC2APIProtocol@@SAXPEAV?$HasBits@$00@internal@protobuf@google@@@Z ; SC2APIProtocol::UnitInfo::_Internal::set_has_health
PUBLIC	?set_has_shields@_Internal@UnitInfo@SC2APIProtocol@@SAXPEAV?$HasBits@$00@internal@protobuf@google@@@Z ; SC2APIProtocol::UnitInfo::_Internal::set_has_shields
PUBLIC	?set_has_energy@_Internal@UnitInfo@SC2APIProtocol@@SAXPEAV?$HasBits@$00@internal@protobuf@google@@@Z ; SC2APIProtocol::UnitInfo::_Internal::set_has_energy
PUBLIC	?set_has_transport_slots_taken@_Internal@UnitInfo@SC2APIProtocol@@SAXPEAV?$HasBits@$00@internal@protobuf@google@@@Z ; SC2APIProtocol::UnitInfo::_Internal::set_has_transport_slots_taken
PUBLIC	?set_has_build_progress@_Internal@UnitInfo@SC2APIProtocol@@SAXPEAV?$HasBits@$00@internal@protobuf@google@@@Z ; SC2APIProtocol::UnitInfo::_Internal::set_has_build_progress
PUBLIC	?add_on@_Internal@UnitInfo@SC2APIProtocol@@SAAEBV23@PEBV23@@Z ; SC2APIProtocol::UnitInfo::_Internal::add_on
PUBLIC	?set_has_max_health@_Internal@UnitInfo@SC2APIProtocol@@SAXPEAV?$HasBits@$00@internal@protobuf@google@@@Z ; SC2APIProtocol::UnitInfo::_Internal::set_has_max_health
PUBLIC	?set_has_max_shields@_Internal@UnitInfo@SC2APIProtocol@@SAXPEAV?$HasBits@$00@internal@protobuf@google@@@Z ; SC2APIProtocol::UnitInfo::_Internal::set_has_max_shields
PUBLIC	?set_has_max_energy@_Internal@UnitInfo@SC2APIProtocol@@SAXPEAV?$HasBits@$00@internal@protobuf@google@@@Z ; SC2APIProtocol::UnitInfo::_Internal::set_has_max_energy
PUBLIC	??$UnalignedLoad@M@internal@protobuf@google@@YAMPEBD@Z ; google::protobuf::internal::UnalignedLoad<float>
PUBLIC	??$MessageSize@VUnitInfo@SC2APIProtocol@@@WireFormatLite@internal@protobuf@google@@SA_KAEBVUnitInfo@SC2APIProtocol@@@Z ; google::protobuf::internal::WireFormatLite::MessageSize<SC2APIProtocol::UnitInfo>
PUBLIC	??$memswap@$0DA@@internal@protobuf@google@@YAXPEAD0@Z ; google::protobuf::internal::memswap<48>
PUBLIC	?unit@_Internal@SinglePanel@SC2APIProtocol@@SAAEBVUnitInfo@3@PEBV23@@Z ; SC2APIProtocol::SinglePanel::_Internal::unit
PUBLIC	?set_has_attack_upgrade_level@_Internal@SinglePanel@SC2APIProtocol@@SAXPEAV?$HasBits@$00@internal@protobuf@google@@@Z ; SC2APIProtocol::SinglePanel::_Internal::set_has_attack_upgrade_level
PUBLIC	?set_has_armor_upgrade_level@_Internal@SinglePanel@SC2APIProtocol@@SAXPEAV?$HasBits@$00@internal@protobuf@google@@@Z ; SC2APIProtocol::SinglePanel::_Internal::set_has_armor_upgrade_level
PUBLIC	?set_has_shield_upgrade_level@_Internal@SinglePanel@SC2APIProtocol@@SAXPEAV?$HasBits@$00@internal@protobuf@google@@@Z ; SC2APIProtocol::SinglePanel::_Internal::set_has_shield_upgrade_level
PUBLIC	??$ExpectTag@$0CI@@internal@protobuf@google@@YA_NPEBD@Z ; google::protobuf::internal::ExpectTag<40>
PUBLIC	??$memswap@$0BE@@internal@protobuf@google@@YAXPEAD0@Z ; google::protobuf::internal::memswap<20>
PUBLIC	??D?$RepeatedPtrIterator@$$CBVUnitInfo@SC2APIProtocol@@@internal@protobuf@google@@QEBAAEBVUnitInfo@SC2APIProtocol@@XZ ; google::protobuf::internal::RepeatedPtrIterator<SC2APIProtocol::UnitInfo const >::operator*
PUBLIC	??E?$RepeatedPtrIterator@$$CBVUnitInfo@SC2APIProtocol@@@internal@protobuf@google@@QEAAAEAV0123@XZ ; google::protobuf::internal::RepeatedPtrIterator<SC2APIProtocol::UnitInfo const >::operator++
PUBLIC	??9internal@protobuf@google@@YA_NAEBV?$RepeatedPtrIterator@$$CBVUnitInfo@SC2APIProtocol@@@012@0@Z ; google::protobuf::internal::operator!=
PUBLIC	?unit@_Internal@CargoPanel@SC2APIProtocol@@SAAEBVUnitInfo@3@PEBV23@@Z ; SC2APIProtocol::CargoPanel::_Internal::unit
PUBLIC	?set_has_slots_available@_Internal@CargoPanel@SC2APIProtocol@@SAXPEAV?$HasBits@$00@internal@protobuf@google@@@Z ; SC2APIProtocol::CargoPanel::_Internal::set_has_slots_available
PUBLIC	??$ExpectTag@$0BC@@internal@protobuf@google@@YA_NPEBD@Z ; google::protobuf::internal::ExpectTag<18>
PUBLIC	?set_has_ability_id@_Internal@BuildItem@SC2APIProtocol@@SAXPEAV?$HasBits@$00@internal@protobuf@google@@@Z ; SC2APIProtocol::BuildItem::_Internal::set_has_ability_id
PUBLIC	?set_has_build_progress@_Internal@BuildItem@SC2APIProtocol@@SAXPEAV?$HasBits@$00@internal@protobuf@google@@@Z ; SC2APIProtocol::BuildItem::_Internal::set_has_build_progress
PUBLIC	??$memswap@$07@internal@protobuf@google@@YAXPEAD0@Z ; google::protobuf::internal::memswap<8>
PUBLIC	?unit@_Internal@ProductionPanel@SC2APIProtocol@@SAAEBVUnitInfo@3@PEBV23@@Z ; SC2APIProtocol::ProductionPanel::_Internal::unit
PUBLIC	??$ExpectTag@$0BK@@internal@protobuf@google@@YA_NPEBD@Z ; google::protobuf::internal::ExpectTag<26>
PUBLIC	??D?$RepeatedPtrIterator@$$CBVBuildItem@SC2APIProtocol@@@internal@protobuf@google@@QEBAAEBVBuildItem@SC2APIProtocol@@XZ ; google::protobuf::internal::RepeatedPtrIterator<SC2APIProtocol::BuildItem const >::operator*
PUBLIC	??E?$RepeatedPtrIterator@$$CBVBuildItem@SC2APIProtocol@@@internal@protobuf@google@@QEAAAEAV0123@XZ ; google::protobuf::internal::RepeatedPtrIterator<SC2APIProtocol::BuildItem const >::operator++
PUBLIC	??9internal@protobuf@google@@YA_NAEBV?$RepeatedPtrIterator@$$CBVBuildItem@SC2APIProtocol@@@012@0@Z ; google::protobuf::internal::operator!=
PUBLIC	??$MessageSize@VBuildItem@SC2APIProtocol@@@WireFormatLite@internal@protobuf@google@@SA_KAEBVBuildItem@SC2APIProtocol@@@Z ; google::protobuf::internal::WireFormatLite::MessageSize<SC2APIProtocol::BuildItem>
PUBLIC	??$swap@PEAVUnitInfo@SC2APIProtocol@@$0A@@std@@YAXAEAPEAVUnitInfo@SC2APIProtocol@@0@Z ; std::swap<SC2APIProtocol::UnitInfo *,0>
PUBLIC	?control_group@_Internal@ActionUI@SC2APIProtocol@@SAAEBVActionControlGroup@3@PEBV23@@Z ; SC2APIProtocol::ActionUI::_Internal::control_group
PUBLIC	?select_army@_Internal@ActionUI@SC2APIProtocol@@SAAEBVActionSelectArmy@3@PEBV23@@Z ; SC2APIProtocol::ActionUI::_Internal::select_army
PUBLIC	?select_warp_gates@_Internal@ActionUI@SC2APIProtocol@@SAAEBVActionSelectWarpGates@3@PEBV23@@Z ; SC2APIProtocol::ActionUI::_Internal::select_warp_gates
PUBLIC	?select_larva@_Internal@ActionUI@SC2APIProtocol@@SAAEBVActionSelectLarva@3@PEBV23@@Z ; SC2APIProtocol::ActionUI::_Internal::select_larva
PUBLIC	?select_idle_worker@_Internal@ActionUI@SC2APIProtocol@@SAAEBVActionSelectIdleWorker@3@PEBV23@@Z ; SC2APIProtocol::ActionUI::_Internal::select_idle_worker
PUBLIC	?multi_panel@_Internal@ActionUI@SC2APIProtocol@@SAAEBVActionMultiPanel@3@PEBV23@@Z ; SC2APIProtocol::ActionUI::_Internal::multi_panel
PUBLIC	?cargo_panel@_Internal@ActionUI@SC2APIProtocol@@SAAEBVActionCargoPanelUnload@3@PEBV23@@Z ; SC2APIProtocol::ActionUI::_Internal::cargo_panel
PUBLIC	?production_panel@_Internal@ActionUI@SC2APIProtocol@@SAAEBVActionProductionPanelRemoveFromQueue@3@PEBV23@@Z ; SC2APIProtocol::ActionUI::_Internal::production_panel
PUBLIC	?toggle_autocast@_Internal@ActionUI@SC2APIProtocol@@SAAEBVActionToggleAutocast@3@PEBV23@@Z ; SC2APIProtocol::ActionUI::_Internal::toggle_autocast
PUBLIC	??$InternalGetOwningArena@VActionControlGroup@SC2APIProtocol@@@Arena@protobuf@google@@SAPEAV012@PEBVActionControlGroup@SC2APIProtocol@@@Z ; google::protobuf::Arena::InternalGetOwningArena<SC2APIProtocol::ActionControlGroup>
PUBLIC	??$GetOwnedMessage@VActionControlGroup@SC2APIProtocol@@@internal@protobuf@google@@YAPEAVActionControlGroup@SC2APIProtocol@@PEAVArena@12@PEAV34@0@Z ; google::protobuf::internal::GetOwnedMessage<SC2APIProtocol::ActionControlGroup>
PUBLIC	??$InternalGetOwningArena@VActionSelectArmy@SC2APIProtocol@@@Arena@protobuf@google@@SAPEAV012@PEBVActionSelectArmy@SC2APIProtocol@@@Z ; google::protobuf::Arena::InternalGetOwningArena<SC2APIProtocol::ActionSelectArmy>
PUBLIC	??$GetOwnedMessage@VActionSelectArmy@SC2APIProtocol@@@internal@protobuf@google@@YAPEAVActionSelectArmy@SC2APIProtocol@@PEAVArena@12@PEAV34@0@Z ; google::protobuf::internal::GetOwnedMessage<SC2APIProtocol::ActionSelectArmy>
PUBLIC	??$InternalGetOwningArena@VActionSelectWarpGates@SC2APIProtocol@@@Arena@protobuf@google@@SAPEAV012@PEBVActionSelectWarpGates@SC2APIProtocol@@@Z ; google::protobuf::Arena::InternalGetOwningArena<SC2APIProtocol::ActionSelectWarpGates>
PUBLIC	??$GetOwnedMessage@VActionSelectWarpGates@SC2APIProtocol@@@internal@protobuf@google@@YAPEAVActionSelectWarpGates@SC2APIProtocol@@PEAVArena@12@PEAV34@0@Z ; google::protobuf::internal::GetOwnedMessage<SC2APIProtocol::ActionSelectWarpGates>
PUBLIC	??$InternalGetOwningArena@VActionSelectLarva@SC2APIProtocol@@@Arena@protobuf@google@@SAPEAV012@PEBVActionSelectLarva@SC2APIProtocol@@@Z ; google::protobuf::Arena::InternalGetOwningArena<SC2APIProtocol::ActionSelectLarva>
PUBLIC	??$GetOwnedMessage@VActionSelectLarva@SC2APIProtocol@@@internal@protobuf@google@@YAPEAVActionSelectLarva@SC2APIProtocol@@PEAVArena@12@PEAV34@0@Z ; google::protobuf::internal::GetOwnedMessage<SC2APIProtocol::ActionSelectLarva>
PUBLIC	??$InternalGetOwningArena@VActionSelectIdleWorker@SC2APIProtocol@@@Arena@protobuf@google@@SAPEAV012@PEBVActionSelectIdleWorker@SC2APIProtocol@@@Z ; google::protobuf::Arena::InternalGetOwningArena<SC2APIProtocol::ActionSelectIdleWorker>
PUBLIC	??$GetOwnedMessage@VActionSelectIdleWorker@SC2APIProtocol@@@internal@protobuf@google@@YAPEAVActionSelectIdleWorker@SC2APIProtocol@@PEAVArena@12@PEAV34@0@Z ; google::protobuf::internal::GetOwnedMessage<SC2APIProtocol::ActionSelectIdleWorker>
PUBLIC	??$InternalGetOwningArena@VActionMultiPanel@SC2APIProtocol@@@Arena@protobuf@google@@SAPEAV012@PEBVActionMultiPanel@SC2APIProtocol@@@Z ; google::protobuf::Arena::InternalGetOwningArena<SC2APIProtocol::ActionMultiPanel>
PUBLIC	??$GetOwnedMessage@VActionMultiPanel@SC2APIProtocol@@@internal@protobuf@google@@YAPEAVActionMultiPanel@SC2APIProtocol@@PEAVArena@12@PEAV34@0@Z ; google::protobuf::internal::GetOwnedMessage<SC2APIProtocol::ActionMultiPanel>
PUBLIC	??$InternalGetOwningArena@VActionCargoPanelUnload@SC2APIProtocol@@@Arena@protobuf@google@@SAPEAV012@PEBVActionCargoPanelUnload@SC2APIProtocol@@@Z ; google::protobuf::Arena::InternalGetOwningArena<SC2APIProtocol::ActionCargoPanelUnload>
PUBLIC	??$GetOwnedMessage@VActionCargoPanelUnload@SC2APIProtocol@@@internal@protobuf@google@@YAPEAVActionCargoPanelUnload@SC2APIProtocol@@PEAVArena@12@PEAV34@0@Z ; google::protobuf::internal::GetOwnedMessage<SC2APIProtocol::ActionCargoPanelUnload>
PUBLIC	??$InternalGetOwningArena@VActionProductionPanelRemoveFromQueue@SC2APIProtocol@@@Arena@protobuf@google@@SAPEAV012@PEBVActionProductionPanelRemoveFromQueue@SC2APIProtocol@@@Z ; google::protobuf::Arena::InternalGetOwningArena<SC2APIProtocol::ActionProductionPanelRemoveFromQueue>
PUBLIC	??$GetOwnedMessage@VActionProductionPanelRemoveFromQueue@SC2APIProtocol@@@internal@protobuf@google@@YAPEAVActionProductionPanelRemoveFromQueue@SC2APIProtocol@@PEAVArena@12@PEAV34@0@Z ; google::protobuf::internal::GetOwnedMessage<SC2APIProtocol::ActionProductionPanelRemoveFromQueue>
PUBLIC	??$InternalGetOwningArena@VActionToggleAutocast@SC2APIProtocol@@@Arena@protobuf@google@@SAPEAV012@PEBVActionToggleAutocast@SC2APIProtocol@@@Z ; google::protobuf::Arena::InternalGetOwningArena<SC2APIProtocol::ActionToggleAutocast>
PUBLIC	??$GetOwnedMessage@VActionToggleAutocast@SC2APIProtocol@@@internal@protobuf@google@@YAPEAVActionToggleAutocast@SC2APIProtocol@@PEAVArena@12@PEAV34@0@Z ; google::protobuf::internal::GetOwnedMessage<SC2APIProtocol::ActionToggleAutocast>
PUBLIC	??$MessageSize@VActionControlGroup@SC2APIProtocol@@@WireFormatLite@internal@protobuf@google@@SA_KAEBVActionControlGroup@SC2APIProtocol@@@Z ; google::protobuf::internal::WireFormatLite::MessageSize<SC2APIProtocol::ActionControlGroup>
PUBLIC	??$MessageSize@VActionSelectArmy@SC2APIProtocol@@@WireFormatLite@internal@protobuf@google@@SA_KAEBVActionSelectArmy@SC2APIProtocol@@@Z ; google::protobuf::internal::WireFormatLite::MessageSize<SC2APIProtocol::ActionSelectArmy>
PUBLIC	??$MessageSize@VActionSelectWarpGates@SC2APIProtocol@@@WireFormatLite@internal@protobuf@google@@SA_KAEBVActionSelectWarpGates@SC2APIProtocol@@@Z ; google::protobuf::internal::WireFormatLite::MessageSize<SC2APIProtocol::ActionSelectWarpGates>
PUBLIC	??$MessageSize@VActionSelectLarva@SC2APIProtocol@@@WireFormatLite@internal@protobuf@google@@SA_KAEBVActionSelectLarva@SC2APIProtocol@@@Z ; google::protobuf::internal::WireFormatLite::MessageSize<SC2APIProtocol::ActionSelectLarva>
PUBLIC	??$MessageSize@VActionSelectIdleWorker@SC2APIProtocol@@@WireFormatLite@internal@protobuf@google@@SA_KAEBVActionSelectIdleWorker@SC2APIProtocol@@@Z ; google::protobuf::internal::WireFormatLite::MessageSize<SC2APIProtocol::ActionSelectIdleWorker>
PUBLIC	??$MessageSize@VActionMultiPanel@SC2APIProtocol@@@WireFormatLite@internal@protobuf@google@@SA_KAEBVActionMultiPanel@SC2APIProtocol@@@Z ; google::protobuf::internal::WireFormatLite::MessageSize<SC2APIProtocol::ActionMultiPanel>
PUBLIC	??$MessageSize@VActionCargoPanelUnload@SC2APIProtocol@@@WireFormatLite@internal@protobuf@google@@SA_KAEBVActionCargoPanelUnload@SC2APIProtocol@@@Z ; google::protobuf::internal::WireFormatLite::MessageSize<SC2APIProtocol::ActionCargoPanelUnload>
PUBLIC	??$MessageSize@VActionProductionPanelRemoveFromQueue@SC2APIProtocol@@@WireFormatLite@internal@protobuf@google@@SA_KAEBVActionProductionPanelRemoveFromQueue@SC2APIProtocol@@@Z ; google::protobuf::internal::WireFormatLite::MessageSize<SC2APIProtocol::ActionProductionPanelRemoveFromQueue>
PUBLIC	??$MessageSize@VActionToggleAutocast@SC2APIProtocol@@@WireFormatLite@internal@protobuf@google@@SA_KAEBVActionToggleAutocast@SC2APIProtocol@@@Z ; google::protobuf::internal::WireFormatLite::MessageSize<SC2APIProtocol::ActionToggleAutocast>
PUBLIC	??$swap@TActionUnion@Impl_@ActionUI@SC2APIProtocol@@$0A@@std@@YAXAEATActionUnion@Impl_@ActionUI@SC2APIProtocol@@0@Z ; std::swap<SC2APIProtocol::ActionUI::Impl_::ActionUnion,0>
PUBLIC	?set_has_control_group_index@_Internal@ActionControlGroup@SC2APIProtocol@@SAXPEAV?$HasBits@$00@internal@protobuf@google@@@Z ; SC2APIProtocol::ActionControlGroup::_Internal::set_has_control_group_index
PUBLIC	?set_has_selection_add@_Internal@ActionSelectArmy@SC2APIProtocol@@SAXPEAV?$HasBits@$00@internal@protobuf@google@@@Z ; SC2APIProtocol::ActionSelectArmy::_Internal::set_has_selection_add
PUBLIC	??$swap@_N$0A@@std@@YAXAEA_N0@Z			; std::swap<bool,0>
PUBLIC	?set_has_selection_add@_Internal@ActionSelectWarpGates@SC2APIProtocol@@SAXPEAV?$HasBits@$00@internal@protobuf@google@@@Z ; SC2APIProtocol::ActionSelectWarpGates::_Internal::set_has_selection_add
PUBLIC	?set_has_unit_index@_Internal@ActionMultiPanel@SC2APIProtocol@@SAXPEAV?$HasBits@$00@internal@protobuf@google@@@Z ; SC2APIProtocol::ActionMultiPanel::_Internal::set_has_unit_index
PUBLIC	?set_has_unit_index@_Internal@ActionCargoPanelUnload@SC2APIProtocol@@SAXPEAV?$HasBits@$00@internal@protobuf@google@@@Z ; SC2APIProtocol::ActionCargoPanelUnload::_Internal::set_has_unit_index
PUBLIC	?set_has_unit_index@_Internal@ActionProductionPanelRemoveFromQueue@SC2APIProtocol@@SAXPEAV?$HasBits@$00@internal@protobuf@google@@@Z ; SC2APIProtocol::ActionProductionPanelRemoveFromQueue::_Internal::set_has_unit_index
PUBLIC	?set_has_ability_id@_Internal@ActionToggleAutocast@SC2APIProtocol@@SAXPEAV?$HasBits@$00@internal@protobuf@google@@@Z ; SC2APIProtocol::ActionToggleAutocast::_Internal::set_has_ability_id
PUBLIC	??$CreateMessageInternal@VObservationUI@SC2APIProtocol@@@Arena@protobuf@google@@CAPEAVObservationUI@SC2APIProtocol@@PEAV012@@Z ; google::protobuf::Arena::CreateMessageInternal<SC2APIProtocol::ObservationUI>
PUBLIC	??$CreateMessageInternal@VControlGroup@SC2APIProtocol@@@Arena@protobuf@google@@CAPEAVControlGroup@SC2APIProtocol@@PEAV012@@Z ; google::protobuf::Arena::CreateMessageInternal<SC2APIProtocol::ControlGroup>
PUBLIC	??$CreateMessageInternal@VUnitInfo@SC2APIProtocol@@@Arena@protobuf@google@@CAPEAVUnitInfo@SC2APIProtocol@@PEAV012@@Z ; google::protobuf::Arena::CreateMessageInternal<SC2APIProtocol::UnitInfo>
PUBLIC	??$CreateMessageInternal@VSinglePanel@SC2APIProtocol@@@Arena@protobuf@google@@CAPEAVSinglePanel@SC2APIProtocol@@PEAV012@@Z ; google::protobuf::Arena::CreateMessageInternal<SC2APIProtocol::SinglePanel>
PUBLIC	??$CreateMessageInternal@VMultiPanel@SC2APIProtocol@@@Arena@protobuf@google@@CAPEAVMultiPanel@SC2APIProtocol@@PEAV012@@Z ; google::protobuf::Arena::CreateMessageInternal<SC2APIProtocol::MultiPanel>
PUBLIC	??$CreateMessageInternal@VCargoPanel@SC2APIProtocol@@@Arena@protobuf@google@@CAPEAVCargoPanel@SC2APIProtocol@@PEAV012@@Z ; google::protobuf::Arena::CreateMessageInternal<SC2APIProtocol::CargoPanel>
PUBLIC	??$CreateMessageInternal@VBuildItem@SC2APIProtocol@@@Arena@protobuf@google@@CAPEAVBuildItem@SC2APIProtocol@@PEAV012@@Z ; google::protobuf::Arena::CreateMessageInternal<SC2APIProtocol::BuildItem>
PUBLIC	??$CreateMessageInternal@VProductionPanel@SC2APIProtocol@@@Arena@protobuf@google@@CAPEAVProductionPanel@SC2APIProtocol@@PEAV012@@Z ; google::protobuf::Arena::CreateMessageInternal<SC2APIProtocol::ProductionPanel>
PUBLIC	??$CreateMessageInternal@VActionUI@SC2APIProtocol@@@Arena@protobuf@google@@CAPEAVActionUI@SC2APIProtocol@@PEAV012@@Z ; google::protobuf::Arena::CreateMessageInternal<SC2APIProtocol::ActionUI>
PUBLIC	??$CreateMessageInternal@VActionControlGroup@SC2APIProtocol@@@Arena@protobuf@google@@CAPEAVActionControlGroup@SC2APIProtocol@@PEAV012@@Z ; google::protobuf::Arena::CreateMessageInternal<SC2APIProtocol::ActionControlGroup>
PUBLIC	??$CreateMessageInternal@VActionSelectArmy@SC2APIProtocol@@@Arena@protobuf@google@@CAPEAVActionSelectArmy@SC2APIProtocol@@PEAV012@@Z ; google::protobuf::Arena::CreateMessageInternal<SC2APIProtocol::ActionSelectArmy>
PUBLIC	??$CreateMessageInternal@VActionSelectWarpGates@SC2APIProtocol@@@Arena@protobuf@google@@CAPEAVActionSelectWarpGates@SC2APIProtocol@@PEAV012@@Z ; google::protobuf::Arena::CreateMessageInternal<SC2APIProtocol::ActionSelectWarpGates>
PUBLIC	??$CreateMessageInternal@VActionSelectLarva@SC2APIProtocol@@@Arena@protobuf@google@@CAPEAVActionSelectLarva@SC2APIProtocol@@PEAV012@@Z ; google::protobuf::Arena::CreateMessageInternal<SC2APIProtocol::ActionSelectLarva>
PUBLIC	??$CreateMessageInternal@VActionSelectIdleWorker@SC2APIProtocol@@@Arena@protobuf@google@@CAPEAVActionSelectIdleWorker@SC2APIProtocol@@PEAV012@@Z ; google::protobuf::Arena::CreateMessageInternal<SC2APIProtocol::ActionSelectIdleWorker>
PUBLIC	??$CreateMessageInternal@VActionMultiPanel@SC2APIProtocol@@@Arena@protobuf@google@@CAPEAVActionMultiPanel@SC2APIProtocol@@PEAV012@@Z ; google::protobuf::Arena::CreateMessageInternal<SC2APIProtocol::ActionMultiPanel>
PUBLIC	??$CreateMessageInternal@VActionCargoPanelUnload@SC2APIProtocol@@@Arena@protobuf@google@@CAPEAVActionCargoPanelUnload@SC2APIProtocol@@PEAV012@@Z ; google::protobuf::Arena::CreateMessageInternal<SC2APIProtocol::ActionCargoPanelUnload>
PUBLIC	??$CreateMessageInternal@VActionProductionPanelRemoveFromQueue@SC2APIProtocol@@@Arena@protobuf@google@@CAPEAVActionProductionPanelRemoveFromQueue@SC2APIProtocol@@PEAV012@@Z ; google::protobuf::Arena::CreateMessageInternal<SC2APIProtocol::ActionProductionPanelRemoveFromQueue>
PUBLIC	??$CreateMessageInternal@VActionToggleAutocast@SC2APIProtocol@@@Arena@protobuf@google@@CAPEAVActionToggleAutocast@SC2APIProtocol@@PEAV012@@Z ; google::protobuf::Arena::CreateMessageInternal<SC2APIProtocol::ActionToggleAutocast>
PUBLIC	?deallocate@?$allocator@U_Container_proxy@std@@@std@@QEAAXQEAU_Container_proxy@2@_K@Z ; std::allocator<std::_Container_proxy>::deallocate
PUBLIC	?allocate@?$allocator@U_Container_proxy@std@@@std@@QEAAPEAU_Container_proxy@2@_K@Z ; std::allocator<std::_Container_proxy>::allocate
PUBLIC	??$?0VUnknownField@protobuf@google@@@?$allocator@U_Container_proxy@std@@@std@@QEAA@AEBV?$allocator@VUnknownField@protobuf@google@@@1@@Z ; std::allocator<std::_Container_proxy>::allocator<std::_Container_proxy><google::protobuf::UnknownField>
PUBLIC	??$exchange@PEAU_Container_proxy@std@@$$T@std@@YAPEAU_Container_proxy@0@AEAPEAU10@$$QEA$$T@Z ; std::exchange<std::_Container_proxy *,std::nullptr_t>
PUBLIC	??$_Delete_plain_internal@V?$allocator@U_Container_proxy@std@@@std@@@std@@YAXAEAV?$allocator@U_Container_proxy@std@@@0@QEAU_Container_proxy@0@@Z ; std::_Delete_plain_internal<std::allocator<std::_Container_proxy> >
PUBLIC	??$?0$$V@?$_Compressed_pair@V?$allocator@VUnknownField@protobuf@google@@@std@@V?$_Vector_val@U?$_Simple_types@VUnknownField@protobuf@google@@@std@@@2@$00@std@@QEAA@U_Zero_then_variadic_args_t@1@@Z ; std::_Compressed_pair<std::allocator<google::protobuf::UnknownField>,std::_Vector_val<std::_Simple_types<google::protobuf::UnknownField> >,1>::_Compressed_pair<std::allocator<google::protobuf::UnknownField>,std::_Vector_val<std::_Simple_types<google::protobuf::UnknownField> >,1><>
PUBLIC	??$_Alloc_proxy@V?$allocator@U_Container_proxy@std@@@std@@@_Container_base12@std@@QEAAX$$QEAV?$allocator@U_Container_proxy@std@@@1@@Z ; std::_Container_base12::_Alloc_proxy<std::allocator<std::_Container_proxy> >
PUBLIC	??$_Atomic_address_as@HU?$_Atomic_padded@H@std@@@std@@YAPEDHAEBU?$_Atomic_padded@H@0@@Z ; std::_Atomic_address_as<int,std::_Atomic_padded<int> >
PUBLIC	??$_Atomic_address_as@HU?$_Atomic_padded@H@std@@@std@@YAPECHAEAU?$_Atomic_padded@H@0@@Z ; std::_Atomic_address_as<int,std::_Atomic_padded<int> >
PUBLIC	??$_Atomic_reinterpret_as@HH@std@@YAHAEBH@Z	; std::_Atomic_reinterpret_as<int,int>
PUBLIC	??$_Destroy_range@V?$allocator@VUnknownField@protobuf@google@@@std@@@std@@YAXPEAVUnknownField@protobuf@google@@QEAV123@AEAV?$allocator@VUnknownField@protobuf@google@@@0@@Z ; std::_Destroy_range<std::allocator<google::protobuf::UnknownField> >
PUBLIC	??$_Deallocate@$0BA@$0A@@std@@YAXPEAX_K@Z	; std::_Deallocate<16,0>
PUBLIC	??$addressof@U_Container_proxy@std@@@std@@YAPEAU_Container_proxy@0@AEAU10@@Z ; std::addressof<std::_Container_proxy>
PUBLIC	??$_Voidify_iter@PEAU_Container_proxy@std@@@std@@YAPEAXPEAU_Container_proxy@0@@Z ; std::_Voidify_iter<std::_Container_proxy *>
PUBLIC	??$forward@PEAU_Container_base12@std@@@std@@YA$$QEAPEAU_Container_base12@0@AEAPEAU10@@Z ; std::forward<std::_Container_base12 *>
PUBLIC	??$construct_at@U_Container_proxy@std@@PEAU_Container_base12@2@$0A@@std@@YAPEAU_Container_proxy@0@QEAU10@$$QEAPEAU_Container_base12@0@@Z ; std::construct_at<std::_Container_proxy,std::_Container_base12 *,0>
PUBLIC	??$move@AEAH@std@@YA$$QEAHAEAH@Z		; std::move<int &>
PUBLIC	??$move@AEA_J@std@@YA$$QEA_JAEA_J@Z		; std::move<__int64 &>
PUBLIC	??$forward@AEAPEAVArena@protobuf@google@@@std@@YAAEAPEAVArena@protobuf@google@@AEAPEAV123@@Z ; std::forward<google::protobuf::Arena * &>
PUBLIC	??$forward@AEAH@std@@YAAEAHAEAH@Z		; std::forward<int &>
PUBLIC	??$forward@AEAPEAURep@RepeatedPtrFieldBase@internal@protobuf@google@@@std@@YAAEAPEAURep@RepeatedPtrFieldBase@internal@protobuf@google@@AEAPEAU12345@@Z ; std::forward<google::protobuf::internal::RepeatedPtrFieldBase::Rep * &>
PUBLIC	??$?0AEAPEAVArena@protobuf@google@@AEAHAEAHAEAPEAURep@RepeatedPtrFieldBase@internal@12@$0A@@?$tuple@PEAVArena@protobuf@google@@HHPEAURep@RepeatedPtrFieldBase@internal@23@@std@@QEAA@AEAPEAVArena@protobuf@google@@AEAH1AEAPEAURep@RepeatedPtrFieldBase@internal@34@@Z ; std::tuple<google::protobuf::Arena *,int,int,google::protobuf::internal::RepeatedPtrFieldBase::Rep *>::tuple<google::protobuf::Arena *,int,int,google::protobuf::internal::RepeatedPtrFieldBase::Rep *><google::protobuf::Arena * &,int &,int &,google::protobuf::internal::RepeatedPtrFieldBase::Rep * &,0>
PUBLIC	??$?0AEAPEAVArena@protobuf@google@@$0A@@?$tuple@AEAPEAVArena@protobuf@google@@AEAHAEAHAEAPEAURep@RepeatedPtrFieldBase@internal@23@@std@@QEAA@AEAPEAVArena@protobuf@google@@AEAH1AEAPEAURep@RepeatedPtrFieldBase@internal@34@@Z ; std::tuple<google::protobuf::Arena * &,int &,int &,google::protobuf::internal::RepeatedPtrFieldBase::Rep * &>::tuple<google::protobuf::Arena * &,int &,int &,google::protobuf::internal::RepeatedPtrFieldBase::Rep * &><google::protobuf::Arena * &,0>
PUBLIC	??$forward@PEAVArena@protobuf@google@@@std@@YA$$QEAPEAVArena@protobuf@google@@AEAPEAV123@@Z ; std::forward<google::protobuf::Arena *>
PUBLIC	??$forward@V?$tuple@HHPEAURep@RepeatedPtrFieldBase@internal@protobuf@google@@@std@@@std@@YA$$QEAV?$tuple@HHPEAURep@RepeatedPtrFieldBase@internal@protobuf@google@@@0@AEAV10@@Z ; std::forward<std::tuple<int,int,google::protobuf::internal::RepeatedPtrFieldBase::Rep *> >
PUBLIC	??$?4HHPEAURep@RepeatedPtrFieldBase@internal@protobuf@google@@$0A@@?$tuple@AEAHAEAHAEAPEAURep@RepeatedPtrFieldBase@internal@protobuf@google@@@std@@QEAAAEAV01@$$QEAV?$tuple@HHPEAURep@RepeatedPtrFieldBase@internal@protobuf@google@@@1@@Z ; std::tuple<int &,int &,google::protobuf::internal::RepeatedPtrFieldBase::Rep * &>::operator=<int,int,google::protobuf::internal::RepeatedPtrFieldBase::Rep *,0>
PUBLIC	??$?4HHPEAURep@RepeatedPtrFieldBase@internal@protobuf@google@@$0A@@?$tuple@AEAHAEAHAEAPEAURep@RepeatedPtrFieldBase@internal@protobuf@google@@@std@@QEAAAEAV01@AEBV?$tuple@HHPEAURep@RepeatedPtrFieldBase@internal@protobuf@google@@@1@@Z ; std::tuple<int &,int &,google::protobuf::internal::RepeatedPtrFieldBase::Rep * &>::operator=<int,int,google::protobuf::internal::RepeatedPtrFieldBase::Rep *,0>
PUBLIC	?New@?$GenericTypeHandler@VControlGroup@SC2APIProtocol@@@internal@protobuf@google@@SAPEAVControlGroup@SC2APIProtocol@@PEAVArena@34@@Z ; google::protobuf::internal::GenericTypeHandler<SC2APIProtocol::ControlGroup>::New
PUBLIC	?NewFromPrototype@?$GenericTypeHandler@VControlGroup@SC2APIProtocol@@@internal@protobuf@google@@SAPEAVControlGroup@SC2APIProtocol@@PEBV56@PEAVArena@34@@Z ; google::protobuf::internal::GenericTypeHandler<SC2APIProtocol::ControlGroup>::NewFromPrototype
PUBLIC	?Clear@?$GenericTypeHandler@VControlGroup@SC2APIProtocol@@@internal@protobuf@google@@SAXPEAVControlGroup@SC2APIProtocol@@@Z ; google::protobuf::internal::GenericTypeHandler<SC2APIProtocol::ControlGroup>::Clear
PUBLIC	?Merge@?$GenericTypeHandler@VControlGroup@SC2APIProtocol@@@internal@protobuf@google@@SAXAEBVControlGroup@SC2APIProtocol@@PEAV56@@Z ; google::protobuf::internal::GenericTypeHandler<SC2APIProtocol::ControlGroup>::Merge
PUBLIC	??$Get@VTypeHandler@?$RepeatedPtrField@VControlGroup@SC2APIProtocol@@@protobuf@google@@@RepeatedPtrFieldBase@internal@protobuf@google@@QEBAAEBVControlGroup@SC2APIProtocol@@H@Z ; google::protobuf::internal::RepeatedPtrFieldBase::Get<google::protobuf::RepeatedPtrField<SC2APIProtocol::ControlGroup>::TypeHandler>
PUBLIC	??$Add@VTypeHandler@?$RepeatedPtrField@VControlGroup@SC2APIProtocol@@@protobuf@google@@@RepeatedPtrFieldBase@internal@protobuf@google@@IEAAPEAVControlGroup@SC2APIProtocol@@PEBV45@@Z ; google::protobuf::internal::RepeatedPtrFieldBase::Add<google::protobuf::RepeatedPtrField<SC2APIProtocol::ControlGroup>::TypeHandler>
PUBLIC	??$Clear@VTypeHandler@?$RepeatedPtrField@VControlGroup@SC2APIProtocol@@@protobuf@google@@@RepeatedPtrFieldBase@internal@protobuf@google@@QEAAXXZ ; google::protobuf::internal::RepeatedPtrFieldBase::Clear<google::protobuf::RepeatedPtrField<SC2APIProtocol::ControlGroup>::TypeHandler>
PUBLIC	??$MergeFrom@VTypeHandler@?$RepeatedPtrField@VControlGroup@SC2APIProtocol@@@protobuf@google@@@RepeatedPtrFieldBase@internal@protobuf@google@@QEAAXAEBV0123@@Z ; google::protobuf::internal::RepeatedPtrFieldBase::MergeFrom<google::protobuf::RepeatedPtrField<SC2APIProtocol::ControlGroup>::TypeHandler>
PUBLIC	??0?$RepeatedPtrIterator@VControlGroup@SC2APIProtocol@@@internal@protobuf@google@@QEAA@PEBQEAX@Z ; google::protobuf::internal::RepeatedPtrIterator<SC2APIProtocol::ControlGroup>::RepeatedPtrIterator<SC2APIProtocol::ControlGroup>
PUBLIC	??$?0VControlGroup@SC2APIProtocol@@$0A@@?$RepeatedPtrIterator@$$CBVControlGroup@SC2APIProtocol@@@internal@protobuf@google@@QEAA@AEBV?$RepeatedPtrIterator@VControlGroup@SC2APIProtocol@@@123@@Z ; google::protobuf::internal::RepeatedPtrIterator<SC2APIProtocol::ControlGroup const >::RepeatedPtrIterator<SC2APIProtocol::ControlGroup const ><SC2APIProtocol::ControlGroup,0>
PUBLIC	??$PtrValue@U?$Container@VUnknownFieldSet@protobuf@google@@@InternalMetadata@internal@protobuf@google@@@InternalMetadata@internal@protobuf@google@@AEBAPEAU?$Container@VUnknownFieldSet@protobuf@google@@@0123@XZ ; google::protobuf::internal::InternalMetadata::PtrValue<google::protobuf::internal::InternalMetadata::Container<google::protobuf::UnknownFieldSet> >
PUBLIC	??0?$Container@VUnknownFieldSet@protobuf@google@@@InternalMetadata@internal@protobuf@google@@QEAA@XZ ; google::protobuf::internal::InternalMetadata::Container<google::protobuf::UnknownFieldSet>::Container<google::protobuf::UnknownFieldSet>
PUBLIC	??1?$Container@VUnknownFieldSet@protobuf@google@@@InternalMetadata@internal@protobuf@google@@QEAA@XZ ; google::protobuf::internal::InternalMetadata::Container<google::protobuf::UnknownFieldSet>::~Container<google::protobuf::UnknownFieldSet>
PUBLIC	??_G?$Container@VUnknownFieldSet@protobuf@google@@@InternalMetadata@internal@protobuf@google@@QEAAPEAXI@Z ; google::protobuf::internal::InternalMetadata::Container<google::protobuf::UnknownFieldSet>::`scalar deleting destructor'
PUBLIC	??$mutable_unknown_fields_slow@VUnknownFieldSet@protobuf@google@@@InternalMetadata@internal@protobuf@google@@AEAAPEAVUnknownFieldSet@23@XZ ; google::protobuf::internal::InternalMetadata::mutable_unknown_fields_slow<google::protobuf::UnknownFieldSet>
PUBLIC	?New@?$GenericTypeHandler@VUnitInfo@SC2APIProtocol@@@internal@protobuf@google@@SAPEAVUnitInfo@SC2APIProtocol@@PEAVArena@34@@Z ; google::protobuf::internal::GenericTypeHandler<SC2APIProtocol::UnitInfo>::New
PUBLIC	?NewFromPrototype@?$GenericTypeHandler@VUnitInfo@SC2APIProtocol@@@internal@protobuf@google@@SAPEAVUnitInfo@SC2APIProtocol@@PEBV56@PEAVArena@34@@Z ; google::protobuf::internal::GenericTypeHandler<SC2APIProtocol::UnitInfo>::NewFromPrototype
PUBLIC	?Clear@?$GenericTypeHandler@VUnitInfo@SC2APIProtocol@@@internal@protobuf@google@@SAXPEAVUnitInfo@SC2APIProtocol@@@Z ; google::protobuf::internal::GenericTypeHandler<SC2APIProtocol::UnitInfo>::Clear
PUBLIC	?Merge@?$GenericTypeHandler@VUnitInfo@SC2APIProtocol@@@internal@protobuf@google@@SAXAEBVUnitInfo@SC2APIProtocol@@PEAV56@@Z ; google::protobuf::internal::GenericTypeHandler<SC2APIProtocol::UnitInfo>::Merge
PUBLIC	??$Get@VTypeHandler@?$RepeatedPtrField@VUnitInfo@SC2APIProtocol@@@protobuf@google@@@RepeatedPtrFieldBase@internal@protobuf@google@@QEBAAEBVUnitInfo@SC2APIProtocol@@H@Z ; google::protobuf::internal::RepeatedPtrFieldBase::Get<google::protobuf::RepeatedPtrField<SC2APIProtocol::UnitInfo>::TypeHandler>
PUBLIC	??$Add@VTypeHandler@?$RepeatedPtrField@VUnitInfo@SC2APIProtocol@@@protobuf@google@@@RepeatedPtrFieldBase@internal@protobuf@google@@IEAAPEAVUnitInfo@SC2APIProtocol@@PEBV45@@Z ; google::protobuf::internal::RepeatedPtrFieldBase::Add<google::protobuf::RepeatedPtrField<SC2APIProtocol::UnitInfo>::TypeHandler>
PUBLIC	??$Clear@VTypeHandler@?$RepeatedPtrField@VUnitInfo@SC2APIProtocol@@@protobuf@google@@@RepeatedPtrFieldBase@internal@protobuf@google@@QEAAXXZ ; google::protobuf::internal::RepeatedPtrFieldBase::Clear<google::protobuf::RepeatedPtrField<SC2APIProtocol::UnitInfo>::TypeHandler>
PUBLIC	??$MergeFrom@VTypeHandler@?$RepeatedPtrField@VUnitInfo@SC2APIProtocol@@@protobuf@google@@@RepeatedPtrFieldBase@internal@protobuf@google@@QEAAXAEBV0123@@Z ; google::protobuf::internal::RepeatedPtrFieldBase::MergeFrom<google::protobuf::RepeatedPtrField<SC2APIProtocol::UnitInfo>::TypeHandler>
PUBLIC	??0?$RepeatedPtrIterator@VUnitInfo@SC2APIProtocol@@@internal@protobuf@google@@QEAA@PEBQEAX@Z ; google::protobuf::internal::RepeatedPtrIterator<SC2APIProtocol::UnitInfo>::RepeatedPtrIterator<SC2APIProtocol::UnitInfo>
PUBLIC	??$?0VUnitInfo@SC2APIProtocol@@$0A@@?$RepeatedPtrIterator@$$CBVUnitInfo@SC2APIProtocol@@@internal@protobuf@google@@QEAA@AEBV?$RepeatedPtrIterator@VUnitInfo@SC2APIProtocol@@@123@@Z ; google::protobuf::internal::RepeatedPtrIterator<SC2APIProtocol::UnitInfo const >::RepeatedPtrIterator<SC2APIProtocol::UnitInfo const ><SC2APIProtocol::UnitInfo,0>
PUBLIC	?New@?$GenericTypeHandler@VBuildItem@SC2APIProtocol@@@internal@protobuf@google@@SAPEAVBuildItem@SC2APIProtocol@@PEAVArena@34@@Z ; google::protobuf::internal::GenericTypeHandler<SC2APIProtocol::BuildItem>::New
PUBLIC	?NewFromPrototype@?$GenericTypeHandler@VBuildItem@SC2APIProtocol@@@internal@protobuf@google@@SAPEAVBuildItem@SC2APIProtocol@@PEBV56@PEAVArena@34@@Z ; google::protobuf::internal::GenericTypeHandler<SC2APIProtocol::BuildItem>::NewFromPrototype
PUBLIC	?Clear@?$GenericTypeHandler@VBuildItem@SC2APIProtocol@@@internal@protobuf@google@@SAXPEAVBuildItem@SC2APIProtocol@@@Z ; google::protobuf::internal::GenericTypeHandler<SC2APIProtocol::BuildItem>::Clear
PUBLIC	?Merge@?$GenericTypeHandler@VBuildItem@SC2APIProtocol@@@internal@protobuf@google@@SAXAEBVBuildItem@SC2APIProtocol@@PEAV56@@Z ; google::protobuf::internal::GenericTypeHandler<SC2APIProtocol::BuildItem>::Merge
PUBLIC	??$Get@VTypeHandler@?$RepeatedPtrField@VBuildItem@SC2APIProtocol@@@protobuf@google@@@RepeatedPtrFieldBase@internal@protobuf@google@@QEBAAEBVBuildItem@SC2APIProtocol@@H@Z ; google::protobuf::internal::RepeatedPtrFieldBase::Get<google::protobuf::RepeatedPtrField<SC2APIProtocol::BuildItem>::TypeHandler>
PUBLIC	??$Add@VTypeHandler@?$RepeatedPtrField@VBuildItem@SC2APIProtocol@@@protobuf@google@@@RepeatedPtrFieldBase@internal@protobuf@google@@IEAAPEAVBuildItem@SC2APIProtocol@@PEBV45@@Z ; google::protobuf::internal::RepeatedPtrFieldBase::Add<google::protobuf::RepeatedPtrField<SC2APIProtocol::BuildItem>::TypeHandler>
PUBLIC	??$Clear@VTypeHandler@?$RepeatedPtrField@VBuildItem@SC2APIProtocol@@@protobuf@google@@@RepeatedPtrFieldBase@internal@protobuf@google@@QEAAXXZ ; google::protobuf::internal::RepeatedPtrFieldBase::Clear<google::protobuf::RepeatedPtrField<SC2APIProtocol::BuildItem>::TypeHandler>
PUBLIC	??$MergeFrom@VTypeHandler@?$RepeatedPtrField@VBuildItem@SC2APIProtocol@@@protobuf@google@@@RepeatedPtrFieldBase@internal@protobuf@google@@QEAAXAEBV0123@@Z ; google::protobuf::internal::RepeatedPtrFieldBase::MergeFrom<google::protobuf::RepeatedPtrField<SC2APIProtocol::BuildItem>::TypeHandler>
PUBLIC	??0?$RepeatedPtrIterator@VBuildItem@SC2APIProtocol@@@internal@protobuf@google@@QEAA@PEBQEAX@Z ; google::protobuf::internal::RepeatedPtrIterator<SC2APIProtocol::BuildItem>::RepeatedPtrIterator<SC2APIProtocol::BuildItem>
PUBLIC	??$?0VBuildItem@SC2APIProtocol@@$0A@@?$RepeatedPtrIterator@$$CBVBuildItem@SC2APIProtocol@@@internal@protobuf@google@@QEAA@AEBV?$RepeatedPtrIterator@VBuildItem@SC2APIProtocol@@@123@@Z ; google::protobuf::internal::RepeatedPtrIterator<SC2APIProtocol::BuildItem const >::RepeatedPtrIterator<SC2APIProtocol::BuildItem const ><SC2APIProtocol::BuildItem,0>
PUBLIC	?New@?$InternalHelper@VUnitInfo@SC2APIProtocol@@@Arena@protobuf@google@@CAPEAVUnitInfo@SC2APIProtocol@@XZ ; google::protobuf::Arena::InternalHelper<SC2APIProtocol::UnitInfo>::New
PUBLIC	?GetOwningArena@?$InternalHelper@VSinglePanel@SC2APIProtocol@@@Arena@protobuf@google@@CAPEAV234@PEBVSinglePanel@SC2APIProtocol@@@Z ; google::protobuf::Arena::InternalHelper<SC2APIProtocol::SinglePanel>::GetOwningArena
PUBLIC	?New@?$InternalHelper@VSinglePanel@SC2APIProtocol@@@Arena@protobuf@google@@CAPEAVSinglePanel@SC2APIProtocol@@XZ ; google::protobuf::Arena::InternalHelper<SC2APIProtocol::SinglePanel>::New
PUBLIC	?GetOwningArena@?$InternalHelper@VMultiPanel@SC2APIProtocol@@@Arena@protobuf@google@@CAPEAV234@PEBVMultiPanel@SC2APIProtocol@@@Z ; google::protobuf::Arena::InternalHelper<SC2APIProtocol::MultiPanel>::GetOwningArena
PUBLIC	?New@?$InternalHelper@VMultiPanel@SC2APIProtocol@@@Arena@protobuf@google@@CAPEAVMultiPanel@SC2APIProtocol@@XZ ; google::protobuf::Arena::InternalHelper<SC2APIProtocol::MultiPanel>::New
PUBLIC	?GetOwningArena@?$InternalHelper@VCargoPanel@SC2APIProtocol@@@Arena@protobuf@google@@CAPEAV234@PEBVCargoPanel@SC2APIProtocol@@@Z ; google::protobuf::Arena::InternalHelper<SC2APIProtocol::CargoPanel>::GetOwningArena
PUBLIC	?New@?$InternalHelper@VCargoPanel@SC2APIProtocol@@@Arena@protobuf@google@@CAPEAVCargoPanel@SC2APIProtocol@@XZ ; google::protobuf::Arena::InternalHelper<SC2APIProtocol::CargoPanel>::New
PUBLIC	?GetOwningArena@?$InternalHelper@VProductionPanel@SC2APIProtocol@@@Arena@protobuf@google@@CAPEAV234@PEBVProductionPanel@SC2APIProtocol@@@Z ; google::protobuf::Arena::InternalHelper<SC2APIProtocol::ProductionPanel>::GetOwningArena
PUBLIC	?New@?$InternalHelper@VProductionPanel@SC2APIProtocol@@@Arena@protobuf@google@@CAPEAVProductionPanel@SC2APIProtocol@@XZ ; google::protobuf::Arena::InternalHelper<SC2APIProtocol::ProductionPanel>::New
PUBLIC	??$DoMergeFrom@VUnknownFieldSet@protobuf@google@@@InternalMetadata@internal@protobuf@google@@AEAAXAEBVUnknownFieldSet@23@@Z ; google::protobuf::internal::InternalMetadata::DoMergeFrom<google::protobuf::UnknownFieldSet>
PUBLIC	??$DeleteOutOfLineHelper@VUnknownFieldSet@protobuf@google@@@InternalMetadata@internal@protobuf@google@@AEAAPEAVArena@23@XZ ; google::protobuf::internal::InternalMetadata::DeleteOutOfLineHelper<google::protobuf::UnknownFieldSet>
PUBLIC	??$DoClear@VUnknownFieldSet@protobuf@google@@@InternalMetadata@internal@protobuf@google@@AEAAXXZ ; google::protobuf::internal::InternalMetadata::DoClear<google::protobuf::UnknownFieldSet>
PUBLIC	??$move@AEATPanelUnion@Impl_@ObservationUI@SC2APIProtocol@@@std@@YA$$QEATPanelUnion@Impl_@ObservationUI@SC2APIProtocol@@AEAT1234@@Z ; std::move<SC2APIProtocol::ObservationUI::Impl_::PanelUnion &>
PUBLIC	??$move@AEAI@std@@YA$$QEAIAEAI@Z		; std::move<unsigned int &>
PUBLIC	??$SwapBlock@_K@internal@protobuf@google@@YAXPEAD0@Z ; google::protobuf::internal::SwapBlock<unsigned __int64>
PUBLIC	??$memswap@$03@internal@protobuf@google@@YAXPEAD0@Z ; google::protobuf::internal::memswap<4>
PUBLIC	??$memswap@$0CI@@internal@protobuf@google@@YAXPEAD0@Z ; google::protobuf::internal::memswap<40>
PUBLIC	??$memswap@$0A@@internal@protobuf@google@@YAXPEAD0@Z ; google::protobuf::internal::memswap<0>
PUBLIC	??$move@AEAPEAVUnitInfo@SC2APIProtocol@@@std@@YA$$QEAPEAVUnitInfo@SC2APIProtocol@@AEAPEAV12@@Z ; std::move<SC2APIProtocol::UnitInfo * &>
PUBLIC	?GetOwningArena@?$InternalHelper@VActionControlGroup@SC2APIProtocol@@@Arena@protobuf@google@@CAPEAV234@PEBVActionControlGroup@SC2APIProtocol@@@Z ; google::protobuf::Arena::InternalHelper<SC2APIProtocol::ActionControlGroup>::GetOwningArena
PUBLIC	?New@?$InternalHelper@VActionControlGroup@SC2APIProtocol@@@Arena@protobuf@google@@CAPEAVActionControlGroup@SC2APIProtocol@@XZ ; google::protobuf::Arena::InternalHelper<SC2APIProtocol::ActionControlGroup>::New
PUBLIC	?GetOwningArena@?$InternalHelper@VActionSelectArmy@SC2APIProtocol@@@Arena@protobuf@google@@CAPEAV234@PEBVActionSelectArmy@SC2APIProtocol@@@Z ; google::protobuf::Arena::InternalHelper<SC2APIProtocol::ActionSelectArmy>::GetOwningArena
PUBLIC	?New@?$InternalHelper@VActionSelectArmy@SC2APIProtocol@@@Arena@protobuf@google@@CAPEAVActionSelectArmy@SC2APIProtocol@@XZ ; google::protobuf::Arena::InternalHelper<SC2APIProtocol::ActionSelectArmy>::New
PUBLIC	?GetOwningArena@?$InternalHelper@VActionSelectWarpGates@SC2APIProtocol@@@Arena@protobuf@google@@CAPEAV234@PEBVActionSelectWarpGates@SC2APIProtocol@@@Z ; google::protobuf::Arena::InternalHelper<SC2APIProtocol::ActionSelectWarpGates>::GetOwningArena
PUBLIC	?New@?$InternalHelper@VActionSelectWarpGates@SC2APIProtocol@@@Arena@protobuf@google@@CAPEAVActionSelectWarpGates@SC2APIProtocol@@XZ ; google::protobuf::Arena::InternalHelper<SC2APIProtocol::ActionSelectWarpGates>::New
PUBLIC	?GetOwningArena@?$InternalHelper@VActionSelectLarva@SC2APIProtocol@@@Arena@protobuf@google@@CAPEAV234@PEBVActionSelectLarva@SC2APIProtocol@@@Z ; google::protobuf::Arena::InternalHelper<SC2APIProtocol::ActionSelectLarva>::GetOwningArena
PUBLIC	?New@?$InternalHelper@VActionSelectLarva@SC2APIProtocol@@@Arena@protobuf@google@@CAPEAVActionSelectLarva@SC2APIProtocol@@XZ ; google::protobuf::Arena::InternalHelper<SC2APIProtocol::ActionSelectLarva>::New
PUBLIC	?GetOwningArena@?$InternalHelper@VActionSelectIdleWorker@SC2APIProtocol@@@Arena@protobuf@google@@CAPEAV234@PEBVActionSelectIdleWorker@SC2APIProtocol@@@Z ; google::protobuf::Arena::InternalHelper<SC2APIProtocol::ActionSelectIdleWorker>::GetOwningArena
PUBLIC	?New@?$InternalHelper@VActionSelectIdleWorker@SC2APIProtocol@@@Arena@protobuf@google@@CAPEAVActionSelectIdleWorker@SC2APIProtocol@@XZ ; google::protobuf::Arena::InternalHelper<SC2APIProtocol::ActionSelectIdleWorker>::New
PUBLIC	?GetOwningArena@?$InternalHelper@VActionMultiPanel@SC2APIProtocol@@@Arena@protobuf@google@@CAPEAV234@PEBVActionMultiPanel@SC2APIProtocol@@@Z ; google::protobuf::Arena::InternalHelper<SC2APIProtocol::ActionMultiPanel>::GetOwningArena
PUBLIC	?New@?$InternalHelper@VActionMultiPanel@SC2APIProtocol@@@Arena@protobuf@google@@CAPEAVActionMultiPanel@SC2APIProtocol@@XZ ; google::protobuf::Arena::InternalHelper<SC2APIProtocol::ActionMultiPanel>::New
PUBLIC	?GetOwningArena@?$InternalHelper@VActionCargoPanelUnload@SC2APIProtocol@@@Arena@protobuf@google@@CAPEAV234@PEBVActionCargoPanelUnload@SC2APIProtocol@@@Z ; google::protobuf::Arena::InternalHelper<SC2APIProtocol::ActionCargoPanelUnload>::GetOwningArena
PUBLIC	?New@?$InternalHelper@VActionCargoPanelUnload@SC2APIProtocol@@@Arena@protobuf@google@@CAPEAVActionCargoPanelUnload@SC2APIProtocol@@XZ ; google::protobuf::Arena::InternalHelper<SC2APIProtocol::ActionCargoPanelUnload>::New
PUBLIC	?GetOwningArena@?$InternalHelper@VActionProductionPanelRemoveFromQueue@SC2APIProtocol@@@Arena@protobuf@google@@CAPEAV234@PEBVActionProductionPanelRemoveFromQueue@SC2APIProtocol@@@Z ; google::protobuf::Arena::InternalHelper<SC2APIProtocol::ActionProductionPanelRemoveFromQueue>::GetOwningArena
PUBLIC	?New@?$InternalHelper@VActionProductionPanelRemoveFromQueue@SC2APIProtocol@@@Arena@protobuf@google@@CAPEAVActionProductionPanelRemoveFromQueue@SC2APIProtocol@@XZ ; google::protobuf::Arena::InternalHelper<SC2APIProtocol::ActionProductionPanelRemoveFromQueue>::New
PUBLIC	?GetOwningArena@?$InternalHelper@VActionToggleAutocast@SC2APIProtocol@@@Arena@protobuf@google@@CAPEAV234@PEBVActionToggleAutocast@SC2APIProtocol@@@Z ; google::protobuf::Arena::InternalHelper<SC2APIProtocol::ActionToggleAutocast>::GetOwningArena
PUBLIC	?New@?$InternalHelper@VActionToggleAutocast@SC2APIProtocol@@@Arena@protobuf@google@@CAPEAVActionToggleAutocast@SC2APIProtocol@@XZ ; google::protobuf::Arena::InternalHelper<SC2APIProtocol::ActionToggleAutocast>::New
PUBLIC	??$move@AEATActionUnion@Impl_@ActionUI@SC2APIProtocol@@@std@@YA$$QEATActionUnion@Impl_@ActionUI@SC2APIProtocol@@AEAT1234@@Z ; std::move<SC2APIProtocol::ActionUI::Impl_::ActionUnion &>
PUBLIC	??$move@AEA_N@std@@YA$$QEA_NAEA_N@Z		; std::move<bool &>
PUBLIC	?New@?$InternalHelper@VObservationUI@SC2APIProtocol@@@Arena@protobuf@google@@CAPEAVObservationUI@SC2APIProtocol@@XZ ; google::protobuf::Arena::InternalHelper<SC2APIProtocol::ObservationUI>::New
PUBLIC	??$DoCreateMessage@VObservationUI@SC2APIProtocol@@$$V@Arena@protobuf@google@@AEAAPEAVObservationUI@SC2APIProtocol@@XZ ; google::protobuf::Arena::DoCreateMessage<SC2APIProtocol::ObservationUI>
PUBLIC	?New@?$InternalHelper@VControlGroup@SC2APIProtocol@@@Arena@protobuf@google@@CAPEAVControlGroup@SC2APIProtocol@@XZ ; google::protobuf::Arena::InternalHelper<SC2APIProtocol::ControlGroup>::New
