; Listing generated by Microsoft (R) Optimizing Compiler Version 19.32.31329.0 

include listing.inc

INCLUDELIB MSVCRTD
INCLUDELIB OLDNAMES

PUBLIC	?stb__log_filename@@3PEBDEB			; stb__log_filename
PUBLIC	?stb__source_path@@3PEADEA			; stb__source_path
PUBLIC	?stb_alloc_chunk_size@@3HA			; stb_alloc_chunk_size
PUBLIC	?stb_alloc_count_free@@3HA			; stb_alloc_count_free
PUBLIC	?stb_alloc_count_alloc@@3HA			; stb_alloc_count_alloc
PUBLIC	?stb_alloc_alignment@@3HA			; stb_alloc_alignment
PUBLIC	?fdata@@3PAUZenGlyph@@A				; fdata
PUBLIC	stbi_write_tga_with_rle
PUBLIC	stbi_write_png_compression_level
PUBLIC	stbi_write_force_png_filter
PUBLIC	?stb__rec_max@@3HA				; stb__rec_max
PUBLIC	?hlog@@3PEAU_iobuf@@EA				; hlog
PUBLIC	?stb__allocations@@3PEAUstb_malloc_record@@EA	; stb__allocations
PUBLIC	?stb__alloc_count@@3HA				; stb__alloc_count
PUBLIC	?stb__alloc_history@@3PAUstb_malloc_record@@A	; stb__alloc_history
PUBLIC	?stb__history_pos@@3HA				; stb__history_pos
PUBLIC	?stb__mt_index@@3HA				; stb__mt_index
PUBLIC	?stb__mt_buffer@@3PAIA				; stb__mt_buffer
_BSS	SEGMENT
?stb__source_path@@3PEADEA DQ 01H DUP (?)		; stb__source_path
?stb_alloc_count_free@@3HA DD 01H DUP (?)		; stb_alloc_count_free
?stb_alloc_count_alloc@@3HA DD 01H DUP (?)		; stb_alloc_count_alloc
?fdata@@3PAUZenGlyph@@A DB 0e00H DUP (?)		; fdata
?hlog@@3PEAU_iobuf@@EA DQ 01H DUP (?)			; hlog
?stb__allocations@@3PEAUstb_malloc_record@@EA DQ 01H DUP (?) ; stb__allocations
?stb__alloc_count@@3HA DD 01H DUP (?)			; stb__alloc_count
?stb__alloc_history@@3PAUstb_malloc_record@@A DB 0640H DUP (?) ; stb__alloc_history
?stb__history_pos@@3HA DD 01H DUP (?)			; stb__history_pos
?stb__mt_buffer@@3PAIA DD 0270H DUP (?)			; stb__mt_buffer
_BSS	ENDS
_DATA	SEGMENT
?stb__log_filename@@3PEBDEB DQ FLAT:$SG83281		; stb__log_filename
?stb_alloc_chunk_size@@3HA DD 010000H			; stb_alloc_chunk_size
?stb_alloc_alignment@@3HA DD 0fffffff0H			; stb_alloc_alignment
stbi_write_tga_with_rle DD 01H
stbi_write_png_compression_level DD 08H
stbi_write_force_png_filter DD 0ffffffffH
?stb__rec_max@@3HA DD 07fffffffH			; stb__rec_max
?stb__mt_index@@3HA DD 09c1H				; stb__mt_index
_DATA	ENDS
CONST	SEGMENT
$SG90174 DB	'W', 00H, ':', 00H, '\', 00H, 'c', 00H, 'p', 00H, 'p', 00H
	DB	'\', 00H, 'v', 00H, 'o', 00H, 'i', 00H, 'd', 00H, '\', 00H, 'v'
	DB	00H, 'e', 00H, 'n', 00H, 'd', 00H, 'o', 00H, 'r', 00H, '\', 00H
	DB	's', 00H, 't', 00H, 'b', 00H, '\', 00H, 's', 00H, 't', 00H, 'b'
	DB	00H, '.', 00H, 'h', 00H, 00H, 00H
$SG8309	DB	00H
$SG84023 DB	00H
$SG8323	DB	00H, 00H
$SG101399 DB	00H
$SG87301 DB	00H
$SG90175 DB	'!', 00H, '(', 00H, '(', 00H, 'm', 00H, 'a', 00H, 't', 00H
	DB	'c', 00H, 'h', 00H, 'e', 00H, 'r', 00H, '-', 00H, '>', 00H, 'n'
	DB	00H, 'o', 00H, 'd', 00H, 'e', 00H, 's', 00H, ')', 00H, ')', 00H
	DB	' ', 00H, '|', 00H, '|', 00H, ' ', 00H, 's', 00H, 't', 00H, 'b'
	DB	00H, '_', 00H, 'a', 00H, 'r', 00H, 'r', 00H, 'h', 00H, 'e', 00H
	DB	'a', 00H, 'd', 00H, '(', 00H, '(', 00H, '(', 00H, 'm', 00H, 'a'
	DB	00H, 't', 00H, 'c', 00H, 'h', 00H, 'e', 00H, 'r', 00H, '-', 00H
	DB	'>', 00H, 'n', 00H, 'o', 00H, 'd', 00H, 'e', 00H, 's', 00H, ')'
	DB	00H, ')', 00H, ')', 00H, '-', 00H, '>', 00H, 's', 00H, 'i', 00H
	DB	'g', 00H, 'n', 00H, 'a', 00H, 't', 00H, 'u', 00H, 'r', 00H, 'e'
	DB	00H, ' ', 00H, '=', 00H, '=', 00H, ' ', 00H, 's', 00H, 't', 00H
	DB	'b', 00H, '_', 00H, 'a', 00H, 'r', 00H, 'r', 00H, '_', 00H, 's'
	DB	00H, 'i', 00H, 'g', 00H, 'n', 00H, 'a', 00H, 't', 00H, 'u', 00H
	DB	'r', 00H, 'e', 00H, 00H, 00H
$SG87660 DB	00H
$SG88287 DB	00H
$SG90192 DB	'W', 00H, ':', 00H, '\', 00H, 'c', 00H, 'p', 00H, 'p', 00H
	DB	'\', 00H, 'v', 00H, 'o', 00H, 'i', 00H, 'd', 00H, '\', 00H, 'v'
	DB	00H, 'e', 00H, 'n', 00H, 'd', 00H, 'o', 00H, 'r', 00H, '\', 00H
	DB	's', 00H, 't', 00H, 'b', 00H, '\', 00H, 's', 00H, 't', 00H, 'b'
	DB	00H, '.', 00H, 'h', 00H, 00H, 00H
	ORG $+6
$SG90193 DB	'f', 00H, 'r', 00H, 'o', 00H, 'm', 00H, ' ', 00H, '!', 00H
	DB	'=', 00H, ' ', 00H, 't', 00H, 'o', 00H, 00H, 00H
	ORG $+2
$SG90195 DB	'W', 00H, ':', 00H, '\', 00H, 'c', 00H, 'p', 00H, 'p', 00H
	DB	'\', 00H, 'v', 00H, 'o', 00H, 'i', 00H, 'd', 00H, '\', 00H, 'v'
	DB	00H, 'e', 00H, 'n', 00H, 'd', 00H, 'o', 00H, 'r', 00H, '\', 00H
	DB	's', 00H, 't', 00H, 'b', 00H, '\', 00H, 's', 00H, 't', 00H, 'b'
	DB	00H, '.', 00H, 'h', 00H, 00H, 00H
	ORG $+2
$SG90300 DB	'0', 00H, 00H, 00H
$SG98554 DB	'bad SOS component count', 00H
$SG90196 DB	'!', 00H, '(', 00H, '(', 00H, 'm', 00H, 'a', 00H, 't', 00H
	DB	'c', 00H, 'h', 00H, 'e', 00H, 'r', 00H, '-', 00H, '>', 00H, 'n'
	DB	00H, 'o', 00H, 'd', 00H, 'e', 00H, 's', 00H, '[', 00H, 'f', 00H
	DB	'r', 00H, 'o', 00H, 'm', 00H, ']', 00H, '.', 00H, 'e', 00H, 'p'
	DB	00H, 's', 00H, ')', 00H, ')', 00H, ' ', 00H, '|', 00H, '|', 00H
	DB	' ', 00H, 's', 00H, 't', 00H, 'b', 00H, '_', 00H, 'a', 00H, 'r'
	DB	00H, 'r', 00H, 'h', 00H, 'e', 00H, 'a', 00H, 'd', 00H, '(', 00H
	DB	'(', 00H, '(', 00H, 'm', 00H, 'a', 00H, 't', 00H, 'c', 00H, 'h'
	DB	00H, 'e', 00H, 'r', 00H, '-', 00H, '>', 00H, 'n', 00H, 'o', 00H
	DB	'd', 00H, 'e', 00H, 's', 00H, '[', 00H, 'f', 00H, 'r', 00H, 'o'
	DB	00H, 'm', 00H, ']', 00H, '.', 00H, 'e', 00H, 'p', 00H, 's', 00H
	DB	')', 00H, ')', 00H, ')', 00H, '-', 00H, '>', 00H, 's', 00H, 'i'
	DB	00H, 'g', 00H, 'n', 00H, 'a', 00H, 't', 00H, 'u', 00H, 'r', 00H
	DB	'e', 00H, ' ', 00H, '=', 00H, '=', 00H, ' ', 00H, 's', 00H, 't'
	DB	00H, 'b', 00H, '_', 00H, 'a', 00H, 'r', 00H, 'r', 00H, '_', 00H
	DB	's', 00H, 'i', 00H, 'g', 00H, 'n', 00H, 'a', 00H, 't', 00H, 'u'
	DB	00H, 'r', 00H, 'e', 00H, 00H, 00H
	ORG $+2
$SG90216 DB	'W', 00H, ':', 00H, '\', 00H, 'c', 00H, 'p', 00H, 'p', 00H
	DB	'\', 00H, 'v', 00H, 'o', 00H, 'i', 00H, 'd', 00H, '\', 00H, 'v'
	DB	00H, 'e', 00H, 'n', 00H, 'd', 00H, 'o', 00H, 'r', 00H, '\', 00H
	DB	's', 00H, 't', 00H, 'b', 00H, '\', 00H, 's', 00H, 't', 00H, 'b'
	DB	00H, '.', 00H, 'h', 00H, 00H, 00H
	ORG $+6
$SG98502 DB	'expected marker', 00H
$SG98567 DB	'bad SOS', 00H
$SG90217 DB	'!', 00H, '(', 00H, '(', 00H, 'm', 00H, 'a', 00H, 't', 00H
	DB	'c', 00H, 'h', 00H, 'e', 00H, 'r', 00H, '-', 00H, '>', 00H, 'n'
	DB	00H, 'o', 00H, 'd', 00H, 'e', 00H, 's', 00H, '[', 00H, 'f', 00H
	DB	'r', 00H, 'o', 00H, 'm', 00H, ']', 00H, '.', 00H, 'o', 00H, 'u'
	DB	00H, 't', 00H, ')', 00H, ')', 00H, ' ', 00H, '|', 00H, '|', 00H
	DB	' ', 00H, 's', 00H, 't', 00H, 'b', 00H, '_', 00H, 'a', 00H, 'r'
	DB	00H, 'r', 00H, 'h', 00H, 'e', 00H, 'a', 00H, 'd', 00H, '(', 00H
	DB	'(', 00H, '(', 00H, 'm', 00H, 'a', 00H, 't', 00H, 'c', 00H, 'h'
	DB	00H, 'e', 00H, 'r', 00H, '-', 00H, '>', 00H, 'n', 00H, 'o', 00H
	DB	'd', 00H, 'e', 00H, 's', 00H, '[', 00H, 'f', 00H, 'r', 00H, 'o'
	DB	00H, 'm', 00H, ']', 00H, '.', 00H, 'o', 00H, 'u', 00H, 't', 00H
	DB	')', 00H, ')', 00H, ')', 00H, '-', 00H, '>', 00H, 's', 00H, 'i'
	DB	00H, 'g', 00H, 'n', 00H, 'a', 00H, 't', 00H, 'u', 00H, 'r', 00H
	DB	'e', 00H, ' ', 00H, '=', 00H, '=', 00H, ' ', 00H, 's', 00H, 't'
	DB	00H, 'b', 00H, '_', 00H, 'a', 00H, 'r', 00H, 'r', 00H, '_', 00H
	DB	's', 00H, 'i', 00H, 'g', 00H, 'n', 00H, 'a', 00H, 't', 00H, 'u'
	DB	00H, 'r', 00H, 'e', 00H, 00H, 00H
	ORG $+2
$SG90299 DB	'W', 00H, ':', 00H, '\', 00H, 'c', 00H, 'p', 00H, 'p', 00H
	DB	'\', 00H, 'v', 00H, 'o', 00H, 'i', 00H, 'd', 00H, '\', 00H, 'v'
	DB	00H, 'e', 00H, 'n', 00H, 'd', 00H, 'o', 00H, 'r', 00H, '\', 00H
	DB	's', 00H, 't', 00H, 'b', 00H, '\', 00H, 's', 00H, 't', 00H, 'b'
	DB	00H, '.', 00H, 'h', 00H, 00H, 00H
	ORG $+2
$SG98643 DB	'bad TQ', 00H
	ORG $+1
$SG90875 DB	'0', 00H, 00H, 00H
$SG98505 DB	'bad DRI len', 00H
$SG90890 DB	'rb', 00H
	ORG $+1
$SG98508 DB	'bad DQT type', 00H
	ORG $+3
$SG98510 DB	'bad DQT table', 00H
	ORG $+2
$SG90319 DB	'W', 00H, ':', 00H, '\', 00H, 'c', 00H, 'p', 00H, 'p', 00H
	DB	'\', 00H, 'v', 00H, 'o', 00H, 'i', 00H, 'd', 00H, '\', 00H, 'v'
	DB	00H, 'e', 00H, 'n', 00H, 'd', 00H, 'o', 00H, 'r', 00H, '\', 00H
	DB	's', 00H, 't', 00H, 'b', 00H, '\', 00H, 's', 00H, 't', 00H, 'b'
	DB	00H, '.', 00H, 'h', 00H, 00H, 00H
	ORG $+2
$SG98668 DB	'no SOI', 00H
	ORG $+1
$SG91137 DB	'wb', 00H
	ORG $+1
$SG90320 DB	'*', 00H, 'r', 00H, 'e', 00H, 'g', 00H, 'e', 00H, 'x', 00H
	DB	' ', 00H, '=', 00H, '=', 00H, ' ', 00H, '''', 00H, '|', 00H, ''''
	DB	00H, 00H, 00H
$SG165136 DB	'1', 00H
	ORG $+2
$SG98514 DB	'bad DHT header', 00H
	ORG $+1
$SG98526 DB	'bad COM len', 00H
$SG91414 DB	'0', 00H, 00H, 00H
$SG98527 DB	'bad APP len', 00H
$SG91423 DB	'0', 00H, 00H, 00H
$SG98535 DB	'unknown marker', 00H
	ORG $+1
$SG98556 DB	'bad SOS len', 00H
$SG91431 DB	'0', 00H, 00H, 00H
$SG98560 DB	'bad DC huff', 00H
$SG91440 DB	'0', 00H, 00H, 00H
$SG98562 DB	'bad AC huff', 00H
$SG91450 DB	'0', 00H, 00H, 00H
$SG98569 DB	'bad SOS', 00H
$SG98572 DB	'bad SOS', 00H
$SG98620 DB	'bad SOF len', 00H
$SG83271 DB	0aH, 00H
	ORG $+2
$SG98622 DB	'only 8-bit', 00H
	ORG $+1
$SG83322 DB	'a', 00H
	ORG $+2
$SG98624 DB	'no header height', 00H
	ORG $+3
$SG98638 DB	'bad H', 00H
	ORG $+2
$SG98672 DB	'no SOF', 00H
	ORG $+1
$SG83326 DB	0aH, 00H
	ORG $+2
$SG98626 DB	'0 width', 00H
$SG98628 DB	'too large', 00H
	ORG $+2
$SG165024 DB	'MainVS', 00H
	ORG $+1
$SG83338 DB	'a', 00H
	ORG $+2
$SG98630 DB	'too large', 00H
	ORG $+2
$SG165027 DB	'MainPS', 00H
	ORG $+1
$SG83340 DB	0aH, 00H
	ORG $+2
$SG98632 DB	'bad component count', 00H
$SG9737	DB	'%f', 00H
	ORG $+1
$SG98634 DB	'bad SOF len', 00H
$SG98641 DB	'bad V', 00H
	ORG $+2
$SG165030 DB	'MainCS', 00H
	ORG $+1
$SG9741	DB	'%s', 00H
	ORG $+1
$SG98646 DB	'too large', 00H
	ORG $+2
$SG98650 DB	'bad H', 00H
	ORG $+2
$SG165036 DB	'vs_4_0', 00H
	ORG $+1
$SG91979 DB	'KD(', 00H
$SG90458 DB	'W', 00H, ':', 00H, '\', 00H, 'c', 00H, 'p', 00H, 'p', 00H
	DB	'\', 00H, 'v', 00H, 'o', 00H, 'i', 00H, 'd', 00H, '\', 00H, 'v'
	DB	00H, 'e', 00H, 'n', 00H, 'd', 00H, 'o', 00H, 'r', 00H, '\', 00H
	DB	's', 00H, 't', 00H, 'b', 00H, '\', 00H, 's', 00H, 't', 00H, 'b'
	DB	00H, '.', 00H, 'h', 00H, 00H, 00H
	ORG $+6
$SG90459 DB	'!', 00H, '(', 00H, '(', 00H, 'l', 00H, 'i', 00H, 's', 00H
	DB	't', 00H, ')', 00H, ')', 00H, ' ', 00H, '|', 00H, '|', 00H, ' '
	DB	00H, 's', 00H, 't', 00H, 'b', 00H, '_', 00H, 'a', 00H, 'r', 00H
	DB	'r', 00H, 'h', 00H, 'e', 00H, 'a', 00H, 'd', 00H, '(', 00H, '('
	DB	00H, '(', 00H, 'l', 00H, 'i', 00H, 's', 00H, 't', 00H, ')', 00H
	DB	')', 00H, ')', 00H, '-', 00H, '>', 00H, 's', 00H, 'i', 00H, 'g'
	DB	00H, 'n', 00H, 'a', 00H, 't', 00H, 'u', 00H, 'r', 00H, 'e', 00H
	DB	' ', 00H, '=', 00H, '=', 00H, ' ', 00H, 's', 00H, 't', 00H, 'b'
	DB	00H, '_', 00H, 'a', 00H, 'r', 00H, 'r', 00H, '_', 00H, 's', 00H
	DB	'i', 00H, 'g', 00H, 'n', 00H, 'a', 00H, 't', 00H, 'u', 00H, 'r'
	DB	00H, 'e', 00H, 00H, 00H
	ORG $+2
$SG98652 DB	'bad V', 00H
	ORG $+2
$SG98654 DB	'outofmem', 00H
	ORG $+3
$SG164658 DB	'COLOR', 00H
	ORG $+2
$SG165039 DB	'ps_4_0', 00H
	ORG $+1
$SG91982 DB	'KF(', 00H
$SG98657 DB	'outofmem', 00H
	ORG $+3
$SG164662 DB	'COLOR', 00H
	ORG $+2
$SG165041 DB	'cs_4_0', 00H
	ORG $+1
$SG91992 DB	'KI(', 00H
$SG98698 DB	'bad DNL len', 00H
$SG91995 DB	'KU(', 00H
$SG98700 DB	'bad DNL height', 00H
	ORG $+1
$SG90537 DB	'W', 00H, ':', 00H, '\', 00H, 'c', 00H, 'p', 00H, 'p', 00H
	DB	'\', 00H, 'v', 00H, 'o', 00H, 'i', 00H, 'd', 00H, '\', 00H, 'v'
	DB	00H, 'e', 00H, 'n', 00H, 'd', 00H, 'o', 00H, 'r', 00H, '\', 00H
	DB	's', 00H, 't', 00H, 'b', 00H, '\', 00H, 's', 00H, 't', 00H, 'b'
	DB	00H, '.', 00H, 'h', 00H, 00H, 00H
	ORG $+6
$SG90538 DB	'!', 00H, 'p', 00H, 'r', 00H, 'e', 00H, 'v', 00H, 'i', 00H
	DB	'o', 00H, 'u', 00H, 's', 00H, ' ', 00H, '|', 00H, '|', 00H, ' '
	DB	00H, 's', 00H, 't', 00H, 'b', 00H, '_', 00H, 'a', 00H, 'r', 00H
	DB	'r', 00H, 'h', 00H, 'e', 00H, 'a', 00H, 'd', 00H, '(', 00H, 'p'
	DB	00H, 'r', 00H, 'e', 00H, 'v', 00H, 'i', 00H, 'o', 00H, 'u', 00H
	DB	's', 00H, ')', 00H, '-', 00H, '>', 00H, 's', 00H, 'i', 00H, 'g'
	DB	00H, 'n', 00H, 'a', 00H, 't', 00H, 'u', 00H, 'r', 00H, 'e', 00H
	DB	' ', 00H, '=', 00H, '=', 00H, ' ', 00H, 's', 00H, 't', 00H, 'b'
	DB	00H, '_', 00H, 'a', 00H, 'r', 00H, 'r', 00H, '_', 00H, 's', 00H
	DB	'i', 00H, 'g', 00H, 'n', 00H, 'a', 00H, 't', 00H, 'u', 00H, 'r'
	DB	00H, 'e', 00H, 00H, 00H
	ORG $+2
$SG90539 DB	'W', 00H, ':', 00H, '\', 00H, 'c', 00H, 'p', 00H, 'p', 00H
	DB	'\', 00H, 'v', 00H, 'o', 00H, 'i', 00H, 'd', 00H, '\', 00H, 'v'
	DB	00H, 'e', 00H, 'n', 00H, 'd', 00H, 'o', 00H, 'r', 00H, '\', 00H
	DB	's', 00H, 't', 00H, 'b', 00H, '\', 00H, 's', 00H, 't', 00H, 'b'
	DB	00H, '.', 00H, 'h', 00H, 00H, 00H
	ORG $+6
$SG90610 DB	's', 00H, 't', 00H, 'b', 00H, '_', 00H, 'a', 00H, 'r', 00H
	DB	'r', 00H, '_', 00H, 'l', 00H, 'e', 00H, 'n', 00H, '(', 00H, 'm'
	DB	00H, '-', 00H, '>', 00H, 'd', 00H, 'f', 00H, 'a', 00H, ')', 00H
	DB	' ', 00H, '=', 00H, '=', 00H, ' ', 00H, 'i', 00H, 00H, 00H
	ORG $+6
$SG90540 DB	'!', 00H, 'c', 00H, 'u', 00H, 'r', 00H, 'r', 00H, 'e', 00H
	DB	'n', 00H, 't', 00H, ' ', 00H, '|', 00H, '|', 00H, ' ', 00H, 's'
	DB	00H, 't', 00H, 'b', 00H, '_', 00H, 'a', 00H, 'r', 00H, 'r', 00H
	DB	'h', 00H, 'e', 00H, 'a', 00H, 'd', 00H, '(', 00H, 'c', 00H, 'u'
	DB	00H, 'r', 00H, 'r', 00H, 'e', 00H, 'n', 00H, 't', 00H, ')', 00H
	DB	'-', 00H, '>', 00H, 's', 00H, 'i', 00H, 'g', 00H, 'n', 00H, 'a'
	DB	00H, 't', 00H, 'u', 00H, 'r', 00H, 'e', 00H, ' ', 00H, '=', 00H
	DB	'=', 00H, ' ', 00H, 's', 00H, 't', 00H, 'b', 00H, '_', 00H, 'a'
	DB	00H, 'r', 00H, 'r', 00H, '_', 00H, 's', 00H, 'i', 00H, 'g', 00H
	DB	'n', 00H, 'a', 00H, 't', 00H, 'u', 00H, 'r', 00H, 'e', 00H, 00H
	DB	00H
	ORG $+2
$SG165047 DB	'vs_5_0', 00H
	ORG $+1
$SG84024 DB	's', 00H
	ORG $+2
$SG90609 DB	'W', 00H, ':', 00H, '\', 00H, 'c', 00H, 'p', 00H, 'p', 00H
	DB	'\', 00H, 'v', 00H, 'o', 00H, 'i', 00H, 'd', 00H, '\', 00H, 'v'
	DB	00H, 'e', 00H, 'n', 00H, 'd', 00H, 'o', 00H, 'r', 00H, '\', 00H
	DB	's', 00H, 't', 00H, 'b', 00H, '\', 00H, 's', 00H, 't', 00H, 'b'
	DB	00H, '.', 00H, 'h', 00H, 00H, 00H
	ORG $+2
$SG165050 DB	'ps_5_0', 00H
	ORG $+1
$SG84465 DB	'./', 00H
	ORG $+1
$SG90611 DB	'W', 00H, ':', 00H, '\', 00H, 'c', 00H, 'p', 00H, 'p', 00H
	DB	'\', 00H, 'v', 00H, 'o', 00H, 'i', 00H, 'd', 00H, '\', 00H, 'v'
	DB	00H, 'e', 00H, 'n', 00H, 'd', 00H, 'o', 00H, 'r', 00H, '\', 00H
	DB	's', 00H, 't', 00H, 'b', 00H, '\', 00H, 's', 00H, 't', 00H, 'b'
	DB	00H, '.', 00H, 'h', 00H, 00H, 00H
	ORG $+6
$SG90708 DB	'n', 00H, 'o', 00H, 'd', 00H, 'e', 00H, ' ', 00H, '>', 00H
	DB	'=', 00H, ' ', 00H, 'S', 00H, 'T', 00H, 'B', 00H, '_', 00H, '_'
	DB	00H, 'D', 00H, 'F', 00H, 'A', 00H, '_', 00H, 'V', 00H, 'A', 00H
	DB	'L', 00H, 'I', 00H, 'D', 00H, 00H, 00H
	ORG $+2
$SG90712 DB	'n', 00H, 'o', 00H, 'd', 00H, 'e', 00H, ' ', 00H, '<', 00H
	DB	' ', 00H, 's', 00H, 't', 00H, 'b', 00H, '_', 00H, 'a', 00H, 'r'
	DB	00H, 'r', 00H, '_', 00H, 'l', 00H, 'e', 00H, 'n', 00H, '(', 00H
	DB	'm', 00H, '-', 00H, '>', 00H, 'd', 00H, 'f', 00H, 'a', 00H, ')'
	DB	00H, 00H, 00H
	ORG $+2
$SG90612 DB	'!', 00H, '(', 00H, 'm', 00H, '-', 00H, '>', 00H, 'd', 00H
	DB	'f', 00H, 'a', 00H, '_', 00H, 'm', 00H, 'a', 00H, 'p', 00H, 'p'
	DB	00H, 'i', 00H, 'n', 00H, 'g', 00H, ')', 00H, ' ', 00H, '|', 00H
	DB	'|', 00H, ' ', 00H, 's', 00H, 't', 00H, 'b', 00H, '_', 00H, 'a'
	DB	00H, 'r', 00H, 'r', 00H, 'h', 00H, 'e', 00H, 'a', 00H, 'd', 00H
	DB	'(', 00H, '(', 00H, 'm', 00H, '-', 00H, '>', 00H, 'd', 00H, 'f'
	DB	00H, 'a', 00H, '_', 00H, 'm', 00H, 'a', 00H, 'p', 00H, 'p', 00H
	DB	'i', 00H, 'n', 00H, 'g', 00H, ')', 00H, ')', 00H, '-', 00H, '>'
	DB	00H, 's', 00H, 'i', 00H, 'g', 00H, 'n', 00H, 'a', 00H, 't', 00H
	DB	'u', 00H, 'r', 00H, 'e', 00H, ' ', 00H, '=', 00H, '=', 00H, ' '
	DB	00H, 's', 00H, 't', 00H, 'b', 00H, '_', 00H, 'a', 00H, 'r', 00H
	DB	'r', 00H, '_', 00H, 's', 00H, 'i', 00H, 'g', 00H, 'n', 00H, 'a'
	DB	00H, 't', 00H, 'u', 00H, 'r', 00H, 'e', 00H, 00H, 00H
	ORG $+2
$SG90613 DB	'W', 00H, ':', 00H, '\', 00H, 'c', 00H, 'p', 00H, 'p', 00H
	DB	'\', 00H, 'v', 00H, 'o', 00H, 'i', 00H, 'd', 00H, '\', 00H, 'v'
	DB	00H, 'e', 00H, 'n', 00H, 'd', 00H, 'o', 00H, 'r', 00H, '\', 00H
	DB	's', 00H, 't', 00H, 'b', 00H, '\', 00H, 's', 00H, 't', 00H, 'b'
	DB	00H, '.', 00H, 'h', 00H, 00H, 00H
	ORG $+6
$SG90716 DB	'p', 00H, 'r', 00H, 'e', 00H, 'v', 00H, 'n', 00H, 'o', 00H
	DB	'd', 00H, 'e', 00H, ' ', 00H, '!', 00H, '=', 00H, ' ', 00H, 'S'
	DB	00H, 'T', 00H, 'B', 00H, '_', 00H, '_', 00H, 'D', 00H, 'F', 00H
	DB	'A', 00H, '_', 00H, 'U', 00H, 'N', 00H, 'D', 00H, 'E', 00H, 'F'
	DB	00H, 00H, 00H
	ORG $+2
$SG90614 DB	'!', 00H, '(', 00H, '(', 00H, 'm', 00H, '-', 00H, '>', 00H
	DB	'd', 00H, 'f', 00H, 'a', 00H, ')', 00H, ')', 00H, ' ', 00H, '|'
	DB	00H, '|', 00H, ' ', 00H, 's', 00H, 't', 00H, 'b', 00H, '_', 00H
	DB	'a', 00H, 'r', 00H, 'r', 00H, 'h', 00H, 'e', 00H, 'a', 00H, 'd'
	DB	00H, '(', 00H, '(', 00H, '(', 00H, 'm', 00H, '-', 00H, '>', 00H
	DB	'd', 00H, 'f', 00H, 'a', 00H, ')', 00H, ')', 00H, ')', 00H, '-'
	DB	00H, '>', 00H, 's', 00H, 'i', 00H, 'g', 00H, 'n', 00H, 'a', 00H
	DB	't', 00H, 'u', 00H, 'r', 00H, 'e', 00H, ' ', 00H, '=', 00H, '='
	DB	00H, ' ', 00H, 's', 00H, 't', 00H, 'b', 00H, '_', 00H, 'a', 00H
	DB	'r', 00H, 'r', 00H, '_', 00H, 's', 00H, 'i', 00H, 'g', 00H, 'n'
	DB	00H, 'a', 00H, 't', 00H, 'u', 00H, 'r', 00H, 'e', 00H, 00H, 00H
	ORG $+2
$SG90617 DB	'W', 00H, ':', 00H, '\', 00H, 'c', 00H, 'p', 00H, 'p', 00H
	DB	'\', 00H, 'v', 00H, 'o', 00H, 'i', 00H, 'd', 00H, '\', 00H, 'v'
	DB	00H, 'e', 00H, 'n', 00H, 'd', 00H, 'o', 00H, 'r', 00H, '\', 00H
	DB	's', 00H, 't', 00H, 'b', 00H, '\', 00H, 's', 00H, 't', 00H, 'b'
	DB	00H, '.', 00H, 'h', 00H, 00H, 00H
	ORG $+6
$SG90618 DB	'!', 00H, '(', 00H, '(', 00H, 'm', 00H, '-', 00H, '>', 00H
	DB	'd', 00H, 'f', 00H, 'a', 00H, '_', 00H, 'r', 00H, 'e', 00H, 's'
	DB	00H, 'u', 00H, 'l', 00H, 't', 00H, ')', 00H, ')', 00H, ' ', 00H
	DB	'|', 00H, '|', 00H, ' ', 00H, 's', 00H, 't', 00H, 'b', 00H, '_'
	DB	00H, 'a', 00H, 'r', 00H, 'r', 00H, 'h', 00H, 'e', 00H, 'a', 00H
	DB	'd', 00H, '(', 00H, '(', 00H, '(', 00H, 'm', 00H, '-', 00H, '>'
	DB	00H, 'd', 00H, 'f', 00H, 'a', 00H, '_', 00H, 'r', 00H, 'e', 00H
	DB	's', 00H, 'u', 00H, 'l', 00H, 't', 00H, ')', 00H, ')', 00H, ')'
	DB	00H, '-', 00H, '>', 00H, 's', 00H, 'i', 00H, 'g', 00H, 'n', 00H
	DB	'a', 00H, 't', 00H, 'u', 00H, 'r', 00H, 'e', 00H, ' ', 00H, '='
	DB	00H, '=', 00H, ' ', 00H, 's', 00H, 't', 00H, 'b', 00H, '_', 00H
	DB	'a', 00H, 'r', 00H, 'r', 00H, '_', 00H, 's', 00H, 'i', 00H, 'g'
	DB	00H, 'n', 00H, 'a', 00H, 't', 00H, 'u', 00H, 'r', 00H, 'e', 00H
	DB	00H, 00H
	ORG $+2
$SG165052 DB	'cs_5_0', 00H
	ORG $+1
$SG92803 DB	'0', 00H, 00H, 00H
$SG90707 DB	'W', 00H, ':', 00H, '\', 00H, 'c', 00H, 'p', 00H, 'p', 00H
	DB	'\', 00H, 'v', 00H, 'o', 00H, 'i', 00H, 'd', 00H, '\', 00H, 'v'
	DB	00H, 'e', 00H, 'n', 00H, 'd', 00H, 'o', 00H, 'r', 00H, '\', 00H
	DB	's', 00H, 't', 00H, 'b', 00H, '\', 00H, 's', 00H, 't', 00H, 'b'
	DB	00H, '.', 00H, 'h', 00H, 00H, 00H
	ORG $+2
$SG91973 DB	'STB_D(', 00H
	ORG $+1
$SG84638 DB	'0', 00H, 00H, 00H
$SG90709 DB	'W', 00H, ':', 00H, '\', 00H, 'c', 00H, 'p', 00H, 'p', 00H
	DB	'\', 00H, 'v', 00H, 'o', 00H, 'i', 00H, 'd', 00H, '\', 00H, 'v'
	DB	00H, 'e', 00H, 'n', 00H, 'd', 00H, 'o', 00H, 'r', 00H, '\', 00H
	DB	's', 00H, 't', 00H, 'b', 00H, '\', 00H, 's', 00H, 't', 00H, 'b'
	DB	00H, '.', 00H, 'h', 00H, 00H, 00H
	ORG $+6
$SG90710 DB	'n', 00H, 'o', 00H, 'd', 00H, 'e', 00H, ' ', 00H, '>', 00H
	DB	'=', 00H, ' ', 00H, 'S', 00H, 'T', 00H, 'B', 00H, '_', 00H, '_'
	DB	00H, 'D', 00H, 'F', 00H, 'A', 00H, '_', 00H, 'M', 00H, 'G', 00H
	DB	'O', 00H, 'A', 00H, 'L', 00H, ' ', 00H, '-', 00H, ' ', 00H, 's'
	DB	00H, 't', 00H, 'b', 00H, '_', 00H, 'a', 00H, 'r', 00H, 'r', 00H
	DB	'_', 00H, 'l', 00H, 'e', 00H, 'n', 00H, '(', 00H, 'm', 00H, '-'
	DB	00H, '>', 00H, 'd', 00H, 'f', 00H, 'a', 00H, ')', 00H, 00H, 00H
	ORG $+2
$SG91976 DB	'STB_F(', 00H
	ORG $+1
$SG84682 DB	'0', 00H, 00H, 00H
$SG90711 DB	'W', 00H, ':', 00H, '\', 00H, 'c', 00H, 'p', 00H, 'p', 00H
	DB	'\', 00H, 'v', 00H, 'o', 00H, 'i', 00H, 'd', 00H, '\', 00H, 'v'
	DB	00H, 'e', 00H, 'n', 00H, 'd', 00H, 'o', 00H, 'r', 00H, '\', 00H
	DB	's', 00H, 't', 00H, 'b', 00H, '\', 00H, 's', 00H, 't', 00H, 'b'
	DB	00H, '.', 00H, 'h', 00H, 00H, 00H
	ORG $+2
$SG91986 DB	'STB_I(', 00H
	ORG $+1
$SG84828 DB	'0', 00H, 00H, 00H
$SG90715 DB	'W', 00H, ':', 00H, '\', 00H, 'c', 00H, 'p', 00H, 'p', 00H
	DB	'\', 00H, 'v', 00H, 'o', 00H, 'i', 00H, 'd', 00H, '\', 00H, 'v'
	DB	00H, 'e', 00H, 'n', 00H, 'd', 00H, 'o', 00H, 'r', 00H, '\', 00H
	DB	's', 00H, 't', 00H, 'b', 00H, '\', 00H, 's', 00H, 't', 00H, 'b'
	DB	00H, '.', 00H, 'h', 00H, 00H, 00H
	ORG $+2
$SG93080 DB	'0', 00H, 00H, 00H
$SG90717 DB	'W', 00H, ':', 00H, '\', 00H, 'c', 00H, 'p', 00H, 'p', 00H
	DB	'\', 00H, 'v', 00H, 'o', 00H, 'i', 00H, 'd', 00H, '\', 00H, 'v'
	DB	00H, 'e', 00H, 'n', 00H, 'd', 00H, 'o', 00H, 'r', 00H, '\', 00H
	DB	's', 00H, 't', 00H, 'b', 00H, '\', 00H, 's', 00H, 't', 00H, 'b'
	DB	00H, '.', 00H, 'h', 00H, 00H, 00H
	ORG $+6
$SG90718 DB	'!', 00H, 's', 00H, 't', 00H, 'a', 00H, 't', 00H, 'e', 00H
	DB	's', 00H, ' ', 00H, '|', 00H, '|', 00H, ' ', 00H, 's', 00H, 't'
	DB	00H, 'b', 00H, '_', 00H, 'a', 00H, 'r', 00H, 'r', 00H, 'h', 00H
	DB	'e', 00H, 'a', 00H, 'd', 00H, '(', 00H, 's', 00H, 't', 00H, 'a'
	DB	00H, 't', 00H, 'e', 00H, 's', 00H, ')', 00H, '-', 00H, '>', 00H
	DB	's', 00H, 'i', 00H, 'g', 00H, 'n', 00H, 'a', 00H, 't', 00H, 'u'
	DB	00H, 'r', 00H, 'e', 00H, ' ', 00H, '=', 00H, '=', 00H, ' ', 00H
	DB	's', 00H, 't', 00H, 'b', 00H, '_', 00H, 'a', 00H, 'r', 00H, 'r'
	DB	00H, '_', 00H, 's', 00H, 'i', 00H, 'g', 00H, 'n', 00H, 'a', 00H
	DB	't', 00H, 'u', 00H, 'r', 00H, 'e', 00H, 00H, 00H
	ORG $+2
$SG90719 DB	'W', 00H, ':', 00H, '\', 00H, 'c', 00H, 'p', 00H, 'p', 00H
	DB	'\', 00H, 'v', 00H, 'o', 00H, 'i', 00H, 'd', 00H, '\', 00H, 'v'
	DB	00H, 'e', 00H, 'n', 00H, 'd', 00H, 'o', 00H, 'r', 00H, '\', 00H
	DB	's', 00H, 't', 00H, 'b', 00H, '\', 00H, 's', 00H, 't', 00H, 'b'
	DB	00H, '.', 00H, 'h', 00H, 00H, 00H
	ORG $+6
$SG90720 DB	'!', 00H, 'n', 00H, 'e', 00H, 'w', 00H, 's', 00H, 't', 00H
	DB	'a', 00H, 't', 00H, 'e', 00H, 's', 00H, ' ', 00H, '|', 00H, '|'
	DB	00H, ' ', 00H, 's', 00H, 't', 00H, 'b', 00H, '_', 00H, 'a', 00H
	DB	'r', 00H, 'r', 00H, 'h', 00H, 'e', 00H, 'a', 00H, 'd', 00H, '('
	DB	00H, 'n', 00H, 'e', 00H, 'w', 00H, 's', 00H, 't', 00H, 'a', 00H
	DB	't', 00H, 'e', 00H, 's', 00H, ')', 00H, '-', 00H, '>', 00H, 's'
	DB	00H, 'i', 00H, 'g', 00H, 'n', 00H, 'a', 00H, 't', 00H, 'u', 00H
	DB	'r', 00H, 'e', 00H, ' ', 00H, '=', 00H, '=', 00H, ' ', 00H, 's'
	DB	00H, 't', 00H, 'b', 00H, '_', 00H, 'a', 00H, 'r', 00H, 'r', 00H
	DB	'_', 00H, 's', 00H, 'i', 00H, 'g', 00H, 'n', 00H, 'a', 00H, 't'
	DB	00H, 'u', 00H, 'r', 00H, 'e', 00H, 00H, 00H
	ORG $+2
$SG93098 DB	'0', 00H, 00H, 00H
$SG90722 DB	'W', 00H, ':', 00H, '\', 00H, 'c', 00H, 'p', 00H, 'p', 00H
	DB	'\', 00H, 'v', 00H, 'o', 00H, 'i', 00H, 'd', 00H, '\', 00H, 'v'
	DB	00H, 'e', 00H, 'n', 00H, 'd', 00H, 'o', 00H, 'r', 00H, '\', 00H
	DB	's', 00H, 't', 00H, 'b', 00H, '\', 00H, 's', 00H, 't', 00H, 'b'
	DB	00H, '.', 00H, 'h', 00H, 00H, 00H
	ORG $+6
$SG90723 DB	'!', 00H, '(', 00H, '(', 00H, 's', 00H, 't', 00H, 'a', 00H
	DB	't', 00H, 'e', 00H, 's', 00H, ')', 00H, ')', 00H, ' ', 00H, '|'
	DB	00H, '|', 00H, ' ', 00H, 's', 00H, 't', 00H, 'b', 00H, '_', 00H
	DB	'a', 00H, 'r', 00H, 'r', 00H, 'h', 00H, 'e', 00H, 'a', 00H, 'd'
	DB	00H, '(', 00H, '(', 00H, '(', 00H, 's', 00H, 't', 00H, 'a', 00H
	DB	't', 00H, 'e', 00H, 's', 00H, ')', 00H, ')', 00H, ')', 00H, '-'
	DB	00H, '>', 00H, 's', 00H, 'i', 00H, 'g', 00H, 'n', 00H, 'a', 00H
	DB	't', 00H, 'u', 00H, 'r', 00H, 'e', 00H, ' ', 00H, '=', 00H, '='
	DB	00H, ' ', 00H, 's', 00H, 't', 00H, 'b', 00H, '_', 00H, 'a', 00H
	DB	'r', 00H, 'r', 00H, '_', 00H, 's', 00H, 'i', 00H, 'g', 00H, 'n'
	DB	00H, 'a', 00H, 't', 00H, 'u', 00H, 'r', 00H, 'e', 00H, 00H, 00H
	ORG $+2
$SG90748 DB	'W', 00H, ':', 00H, '\', 00H, 'c', 00H, 'p', 00H, 'p', 00H
	DB	'\', 00H, 'v', 00H, 'o', 00H, 'i', 00H, 'd', 00H, '\', 00H, 'v'
	DB	00H, 'e', 00H, 'n', 00H, 'd', 00H, 'o', 00H, 'r', 00H, '\', 00H
	DB	's', 00H, 't', 00H, 'b', 00H, '\', 00H, 's', 00H, 't', 00H, 'b'
	DB	00H, '.', 00H, 'h', 00H, 00H, 00H
	ORG $+2
$SG93313 DB	'0', 00H, 00H, 00H
$SG90749 DB	'n', 00H, 'o', 00H, 'd', 00H, 'e', 00H, ' ', 00H, '!', 00H
	DB	'=', 00H, ' ', 00H, 'S', 00H, 'T', 00H, 'B', 00H, '_', 00H, '_'
	DB	00H, 'D', 00H, 'F', 00H, 'A', 00H, '_', 00H, 'U', 00H, 'N', 00H
	DB	'D', 00H, 'E', 00H, 'F', 00H, 00H, 00H
	ORG $+2
$SG90756 DB	'W', 00H, ':', 00H, '\', 00H, 'c', 00H, 'p', 00H, 'p', 00H
	DB	'\', 00H, 'v', 00H, 'o', 00H, 'i', 00H, 'd', 00H, '\', 00H, 'v'
	DB	00H, 'e', 00H, 'n', 00H, 'd', 00H, 'o', 00H, 'r', 00H, '\', 00H
	DB	's', 00H, 't', 00H, 'b', 00H, '\', 00H, 's', 00H, 't', 00H, 'b'
	DB	00H, '.', 00H, 'h', 00H, 00H, 00H
	ORG $+2
$SG101816 DB	'#?RGBE', 00H
	ORG $+1
$SG101824 DB	'-Y ', 00H
$SG90757 DB	'm', 00H, '-', 00H, '>', 00H, 'd', 00H, 'o', 00H, 'e', 00H
	DB	's', 00H, '_', 00H, 'l', 00H, 'e', 00H, 'x', 00H, ' ', 00H, '='
	DB	00H, '=', 00H, ' ', 00H, '0', 00H, 00H, 00H
	ORG $+2
$SG101827 DB	'+X ', 00H
$SG90765 DB	'W', 00H, ':', 00H, '\', 00H, 'c', 00H, 'p', 00H, 'p', 00H
	DB	'\', 00H, 'v', 00H, 'o', 00H, 'i', 00H, 'd', 00H, '\', 00H, 'v'
	DB	00H, 'e', 00H, 'n', 00H, 'd', 00H, 'o', 00H, 'r', 00H, '\', 00H
	DB	's', 00H, 't', 00H, 'b', 00H, '\', 00H, 's', 00H, 't', 00H, 'b'
	DB	00H, '.', 00H, 'h', 00H, 00H, 00H
	ORG $+2
$SG167372 DB	'assets', 00H
	ORG $+1
$SG167377 DB	'..', 00H
	ORG $+1
$SG90766 DB	'm', 00H, '-', 00H, '>', 00H, 'd', 00H, 'o', 00H, 'e', 00H
	DB	's', 00H, '_', 00H, 'l', 00H, 'e', 00H, 'x', 00H, 00H, 00H
$SG90815 DB	'W', 00H, ':', 00H, '\', 00H, 'c', 00H, 'p', 00H, 'p', 00H
	DB	'\', 00H, 'v', 00H, 'o', 00H, 'i', 00H, 'd', 00H, '\', 00H, 'v'
	DB	00H, 'e', 00H, 'n', 00H, 'd', 00H, 'o', 00H, 'r', 00H, '\', 00H
	DB	's', 00H, 't', 00H, 'b', 00H, '\', 00H, 's', 00H, 't', 00H, 'b'
	DB	00H, '.', 00H, 'h', 00H, 00H, 00H
	ORG $+6
$SG90816 DB	's', 00H, 't', 00H, 'b', 00H, '_', 00H, '_', 00H, 'd', 00H
	DB	'o', 00H, 'u', 00H, 't', 00H, ' ', 00H, '+', 00H, ' ', 00H, 'l'
	DB	00H, 'e', 00H, 'n', 00H, 'g', 00H, 't', 00H, 'h', 00H, ' ', 00H
	DB	'<', 00H, '=', 00H, ' ', 00H, 's', 00H, 't', 00H, 'b', 00H, '_'
	DB	00H, '_', 00H, 'b', 00H, 'a', 00H, 'r', 00H, 'r', 00H, 'i', 00H
	DB	'e', 00H, 'r', 00H, 00H, 00H
	ORG $+2
$SG90825 DB	'W', 00H, ':', 00H, '\', 00H, 'c', 00H, 'p', 00H, 'p', 00H
	DB	'\', 00H, 'v', 00H, 'o', 00H, 'i', 00H, 'd', 00H, '\', 00H, 'v'
	DB	00H, 'e', 00H, 'n', 00H, 'd', 00H, 'o', 00H, 'r', 00H, '\', 00H
	DB	's', 00H, 't', 00H, 'b', 00H, '\', 00H, 's', 00H, 't', 00H, 'b'
	DB	00H, '.', 00H, 'h', 00H, 00H, 00H
	ORG $+6
$SG90871 DB	's', 00H, 't', 00H, 'b', 00H, '_', 00H, '_', 00H, 'd', 00H
	DB	'o', 00H, 'u', 00H, 't', 00H, ' ', 00H, '=', 00H, '=', 00H, ' '
	DB	00H, 'o', 00H, 'u', 00H, 't', 00H, 'p', 00H, 'u', 00H, 't', 00H
	DB	' ', 00H, '+', 00H, ' ', 00H, 'o', 00H, 'l', 00H, 'e', 00H, 'n'
	DB	00H, 00H, 00H
	ORG $+2
$SG90826 DB	's', 00H, 't', 00H, 'b', 00H, '_', 00H, '_', 00H, 'd', 00H
	DB	'o', 00H, 'u', 00H, 't', 00H, ' ', 00H, '+', 00H, ' ', 00H, 'l'
	DB	00H, 'e', 00H, 'n', 00H, 'g', 00H, 't', 00H, 'h', 00H, ' ', 00H
	DB	'<', 00H, '=', 00H, ' ', 00H, 's', 00H, 't', 00H, 'b', 00H, '_'
	DB	00H, '_', 00H, 'b', 00H, 'a', 00H, 'r', 00H, 'r', 00H, 'i', 00H
	DB	'e', 00H, 'r', 00H, 00H, 00H
	ORG $+2
$SG90870 DB	'W', 00H, ':', 00H, '\', 00H, 'c', 00H, 'p', 00H, 'p', 00H
	DB	'\', 00H, 'v', 00H, 'o', 00H, 'i', 00H, 'd', 00H, '\', 00H, 'v'
	DB	00H, 'e', 00H, 'n', 00H, 'd', 00H, 'o', 00H, 'r', 00H, '\', 00H
	DB	's', 00H, 't', 00H, 'b', 00H, '\', 00H, 's', 00H, 't', 00H, 'b'
	DB	00H, '.', 00H, 'h', 00H, 00H, 00H
	ORG $+2
$SG101882 DB	'-Y ', 00H
$SG90874 DB	'W', 00H, ':', 00H, '\', 00H, 'c', 00H, 'p', 00H, 'p', 00H
	DB	'\', 00H, 'v', 00H, 'o', 00H, 'i', 00H, 'd', 00H, '\', 00H, 'v'
	DB	00H, 'e', 00H, 'n', 00H, 'd', 00H, 'o', 00H, 'r', 00H, '\', 00H
	DB	's', 00H, 't', 00H, 'b', 00H, '\', 00H, 's', 00H, 't', 00H, 'b'
	DB	00H, '.', 00H, 'h', 00H, 00H, 00H
	ORG $+2
$SG101884 DB	'+X ', 00H
$SG90876 DB	'W', 00H, ':', 00H, '\', 00H, 'c', 00H, 'p', 00H, 'p', 00H
	DB	'\', 00H, 'v', 00H, 'o', 00H, 'i', 00H, 'd', 00H, '\', 00H, 'v'
	DB	00H, 'e', 00H, 'n', 00H, 'd', 00H, 'o', 00H, 'r', 00H, '\', 00H
	DB	's', 00H, 't', 00H, 'b', 00H, '\', 00H, 's', 00H, 't', 00H, 'b'
	DB	00H, '.', 00H, 'h', 00H, 00H, 00H
	ORG $+2
$SG102084 DB	'rb', 00H
	ORG $+1
$SG90877 DB	's', 00H, 't', 00H, 'b', 00H, '_', 00H, '_', 00H, 'd', 00H
	DB	'o', 00H, 'u', 00H, 't', 00H, ' ', 00H, '<', 00H, '=', 00H, ' '
	DB	00H, 'o', 00H, 'u', 00H, 't', 00H, 'p', 00H, 'u', 00H, 't', 00H
	DB	' ', 00H, '+', 00H, ' ', 00H, 'o', 00H, 'l', 00H, 'e', 00H, 'n'
	DB	00H, 00H, 00H
	ORG $+2
$SG164644 DB	'modules\renderer\model.hlsl', 00H
$SG102101 DB	'rb', 00H
	ORG $+1
$SG164645 DB	'plain3D', 00H
$SG164646 DB	'POSITION', 00H
	ORG $+3
$SG164666 DB	'COLOR', 00H
	ORG $+2
$SG102264 DB	'wb', 00H
	ORG $+1
$SG164647 DB	'plain3D', 00H
$SG164648 DB	'modules\renderer\textured.hlsl', 00H
	ORG $+1
$SG164649 DB	'textured3D', 00H
	ORG $+1
$SG167859 DB	'zen', 00H
$SG164650 DB	'TEXCOORD', 00H
	ORG $+3
$SG165143 DB	'%', 00H, 's', 00H, 00H, 00H
	ORG $+2
$SG167863 DB	'ttf', 00H
$SG164651 DB	'POSITION', 00H
	ORG $+3
$SG91880 DB	'%s/%s', 00H
	ORG $+2
$SG167864 DB	'otf', 00H
$SG164652 DB	'textured3D', 00H
	ORG $+1
$SG102330 DB	'0', 00H, 00H, 00H
$SG164653 DB	'modules\renderer\text.hlsl', 00H
	ORG $+1
$SG167867 DB	'ttf', 00H
$SG164654 DB	'POSITION', 00H
	ORG $+3
$SG91883 DB	'../%s', 00H
	ORG $+2
$SG167868 DB	'otf', 00H
$SG164655 DB	'GLYPHIDX', 00H
	ORG $+3
$SG164656 DB	'text', 00H
	ORG $+3
$SG84483 DB	'%s/%s', 00H
	ORG $+2
$SG168000 DB	'zen', 00H
$SG164657 DB	'TEXCOORD', 00H
	ORG $+3
$SG84492 DB	'%s.%s', 00H
	ORG $+2
$SG102706 DB	'p', 00H, 00H, 00H
$SG164659 DB	'POSITION', 00H
	ORG $+3
$SG167895 DB	'ASCII', 00H
	ORG $+2
$SG168395 DB	'.', 00H, 00H, 00H
$SG164660 DB	'ImGui::ShaderBundle(A)', 00H
	ORG $+1
$SG164661 DB	'TEXCOORD', 00H
	ORG $+3
$SG168408 DB	'.', 00H, 00H, 00H
$SG164663 DB	'POSITION', 00H
	ORG $+3
$SG168438 DB	'.', 00H
	ORG $+2
$SG164664 DB	'ImGui::ShaderBundle(B)', 00H
	ORG $+1
$SG164665 DB	'TEXCOORD', 00H
	ORG $+3
$SG168439 DB	'assets', 00H
	ORG $+1
$SG168614 DB	'Zen', 00H
$SG164667 DB	'POSITION', 00H
	ORG $+3
$SG103160 DB	'wb', 00H
	ORG $+1
$SG164668 DB	'ImGui::ShaderBundle(C)', 00H
	ORG $+1
$SG164697 DB	'f', 00H, 'a', 00H, 'i', 00H, 'l', 00H, 'e', 00H, 'd', 00H
	DB	' ', 00H, 't', 00H, 'o', 00H, ' ', 00H, 'i', 00H, 'n', 00H, 'i'
	DB	00H, 't', 00H, 'i', 00H, 'a', 00H, 'l', 00H, 'i', 00H, 'z', 00H
	DB	'e', 00H, ' ', 00H, 'd', 00H, 'r', 00H, 'i', 00H, 'v', 00H, 'e'
	DB	00H, 'r', 00H, 00H, 00H
$SG164698 DB	'D3D11Driver_InitializeCompatible', 00H
	ORG $+3
$SG86791 DB	'rb', 00H
	ORG $+1
$SG164699 DB	'W:\cpp\void\detroit\detroit-d3d11.c', 00H
$SG9739	DB	'%lli', 00H
	ORG $+7
$SG164706 DB	'cbuffer ConstBuffer : register(b0)', 0dH, 0aH, '{ float4'
	DB	'x4 ProjectionMatrix;', 0dH, 0aH, '};', 0dH, 0aH, 'struct VS_I'
	DB	'NPUT', 0dH, 0aH, '{ float2 pos : POSITION;', 0dH, 0aH, '  flo'
	DB	'at4 col : COLOR0;', 0dH, 0aH, '};', 0dH, 0aH, 'struct PS_INPU'
	DB	'T', 0dH, 0aH, '{ float4 pos : SV_POSITION;', 0dH, 0aH, '  flo'
	DB	'at4 col : COLOR0;', 0dH, 0aH, '  float4 tex : TEXCOORD0;', 0dH
	DB	0aH, '};', 0dH, 0aH, 'PS_INPUT MainVS(VS_INPUT input)', 0dH, 0aH
	DB	'{ PS_INPUT output;', 0dH, 0aH, '  output.pos = mul( Projectio'
	DB	'nMatrix, float4(input.pos.xy, 0.f, 1.f));', 0dH, 0aH, '  outp'
	DB	'ut.col = input.col;', 0dH, 0aH, '  output.tex = float4(0,0,0,'
	DB	'0);', 0dH, 0aH, '  return output;', 0dH, 0aH, '}', 0dH, 0aH, 'f'
	DB	'loat4 MainPS(PS_INPUT input) : SV_Target', 0dH, 0aH, '{ retur'
	DB	'n input.col;', 0dH, 0aH, '}', 0dH, 0aH, 00H
$SG92883 DB	'typ1', 00H
	ORG $+7
$SG164713 DB	'cbuffer ConstBuffer : register(b0)', 0dH, 0aH, '{ float4'
	DB	'x4 ProjectionMatrix;', 0dH, 0aH, '};', 0dH, 0aH, 'struct VS_I'
	DB	'NPUT', 0dH, 0aH, '{ float2 pos : POSITION;', 0dH, 0aH, '  flo'
	DB	'at4 col : COLOR0;', 0dH, 0aH, '  float2 uv  : TEXCOORD0;', 0dH
	DB	0aH, '};', 0dH, 0aH, 'struct PS_INPUT', 0dH, 0aH, '{ float4 po'
	DB	's : SV_POSITION;', 0dH, 0aH, '  float4 col : COLOR0;', 0dH, 0aH
	DB	'  float2 uv  : TEXCOORD0;', 0dH, 0aH, '};', 0dH, 0aH, 'PS_INP'
	DB	'UT MainVS(VS_INPUT input)', 0dH, 0aH, '{ PS_INPUT output;', 0dH
	DB	0aH, '  output.pos = mul( ProjectionMatrix, float4(input.pos.x'
	DB	'y, 0.f, 1.f));', 0dH, 0aH, '  output.col = input.col;', 0dH, 0aH
	DB	'  output.uv  = input.uv;', 0dH, 0aH, '  return output;', 0dH, 0aH
	DB	'}', 0dH, 0aH, 'SamplerState     sampler0;', 0dH, 0aH, 'Textur'
	DB	'e2D<float> texture0;', 0dH, 0aH, 'float4 MainPS(PS_INPUT inpu'
	DB	't) : SV_Target', 0dH, 0aH, '{ float alpha = texture0.Sample(s'
	DB	'ampler0, input.uv);', 0dH, 0aH, '  float4 out_col = input.col'
	DB	' * alpha;', 0dH, 0aH, '  return out_col;', 0dH, 0aH, '}', 0dH
	DB	0aH, 00H
	ORG $+5
$SG164720 DB	'cbuffer ConstBuffer : register(b0)', 0dH, 0aH, '{ float4'
	DB	'x4 ProjectionMatrix;', 0dH, 0aH, '  float    FieldMin;', 0dH, 0aH
	DB	'  float    FieldOff;', 0dH, 0aH, '  float    FieldMax;', 0dH, 0aH
	DB	'};', 0dH, 0aH, 'struct VS_INPUT', 0dH, 0aH, '{ float2 pos : P'
	DB	'OSITION;', 0dH, 0aH, '  float4 col : COLOR0;', 0dH, 0aH, '  f'
	DB	'loat2 uv  : TEXCOORD0;', 0dH, 0aH, '};', 0dH, 0aH, 'struct PS'
	DB	'_INPUT', 0dH, 0aH, '{ float4 pos : SV_POSITION;', 0dH, 0aH, ' '
	DB	' float4 col : COLOR0;', 0dH, 0aH, '  float2 uv  : TEXCOORD0;', 0dH
	DB	0aH, '};', 0dH, 0aH, 'PS_INPUT MainVS(VS_INPUT input)', 0dH, 0aH
	DB	'{ PS_INPUT output;', 0dH, 0aH, '  output.pos = mul( Projectio'
	DB	'nMatrix, float4(input.pos.xy, 0.f, 1.f));', 0dH, 0aH, '  outp'
	DB	'ut.col = input.col;', 0dH, 0aH, '  output.uv  = input.uv;', 0dH
	DB	0aH, '  return output;', 0dH, 0aH, '}', 0dH, 0aH, 'SamplerStat'
	DB	'e     sampler0;', 0dH, 0aH, 'Texture2D<float> texture0;', 0dH
	DB	0aH, 'float4 MainPS(PS_INPUT input) : SV_Target', 0dH, 0aH, '{'
	DB	0dH, 0aH, '  float4 Color = float4(0,0,0,0); ', 0dH, 0aH, '  f'
	DB	'loat Distance = texture0.Sample(sampler0, input.uv);', 0dH, 0aH
	DB	'  if(Distance >= FieldOff) ', 0dH, 0aH, '  { float Alpha = sm'
	DB	'oothstep(FieldOff, FieldMax, Distance);', 0dH, 0aH, '    Colo'
	DB	'r = float4(input.col.rgb * Alpha, Alpha);', 0dH, 0aH, '  } el'
	DB	'se ', 0dH, 0aH, '  { ', 0dH, 0aH, '  } ', 0dH, 0aH, '  return'
	DB	' Color;', 0dH, 0aH, '}', 0dH, 0aH, 00H
	ORG $+2
$SG86809 DB	'wb', 00H
	ORG $+1
$SG164740 DB	'u', 00H, 'n', 00H, 's', 00H, 'u', 00H, 'p', 00H, 'p', 00H
	DB	'o', 00H, 'r', 00H, 't', 00H, 'e', 00H, 'd', 00H, ' ', 00H, 'f'
	DB	00H, 'l', 00H, 'a', 00H, 'g', 00H, 's', 00H, 00H, 00H
$SG86828 DB	'rb', 00H
	ORG $+1
$SG164741 DB	'ZenExternalizeResourceAccessFlags', 00H
	ORG $+2
$SG86853 DB	'rb', 00H
	ORG $+1
$SG99205 DB	'bad req_comp', 00H
	ORG $+3
$SG164742 DB	'W:\cpp\void\detroit\detroit-d3d11.c', 00H
$SG86945 DB	'rb', 00H
	ORG $+1
$SG99211 DB	'outofmem', 00H
	ORG $+3
$SG78616 DB	'%', 00H, 's', 00H, 00H, 00H
	ORG $+2
$SG86946 DB	'rb', 00H
	ORG $+1
$SG99221 DB	'outofmem', 00H
	ORG $+3
$SG86961 DB	'rb', 00H
	ORG $+1
$SG164764 DB	'f', 00H, 'a', 00H, 'i', 00H, 'l', 00H, 'e', 00H, 'd', 00H
	DB	' ', 00H, 't', 00H, 'o', 00H, ' ', 00H, 'g', 00H, 'e', 00H, 't'
	DB	00H, ' ', 00H, 'I', 00H, 'D', 00H, 'X', 00H, 'G', 00H, 'I', 00H
	DB	'_', 00H, 'F', 00H, 'A', 00H, 'C', 00H, 'T', 00H, 'O', 00H, 'R'
	DB	00H, 'Y', 00H, 00H, 00H
$SG164765 DB	'ID3D11Driver_GetFactory', 00H
$SG164766 DB	'W:\cpp\void\detroit\detroit-d3d11.c', 00H
$SG86962 DB	'rb', 00H
	ORG $+1
$SG99263 DB	'outofmem', 00H
	ORG $+3
$SG87019 DB	'0', 00H, 00H, 00H
$SG99272 DB	'outofmem', 00H
	ORG $+3
$SG87051 DB	'wb', 00H
	ORG $+1
$SG91083 DB	'W', 00H, ':', 00H, '\', 00H, 'c', 00H, 'p', 00H, 'p', 00H
	DB	'\', 00H, 'v', 00H, 'o', 00H, 'i', 00H, 'd', 00H, '\', 00H, 'v'
	DB	00H, 'e', 00H, 'n', 00H, 'd', 00H, 'o', 00H, 'r', 00H, '\', 00H
	DB	's', 00H, 't', 00H, 'b', 00H, '\', 00H, 's', 00H, 't', 00H, 'b'
	DB	00H, '.', 00H, 'h', 00H, 00H, 00H
	ORG $+2
$SG87076 DB	'rb', 00H
	ORG $+1
$SG91084 DB	'd', 00H, 'i', 00H, 's', 00H, 't', 00H, ' ', 00H, '>', 00H
	DB	' ', 00H, '0', 00H, 00H, 00H
	ORG $+2
$SG87078 DB	'wb', 00H
	ORG $+1
$SG99294 DB	'outofmem', 00H
	ORG $+3
$SG103623 DB	'error', 00H
	ORG $+2
$SG79227 DB	'C:', 00H
	ORG $+1
$SG164845 DB	'f', 00H, 'a', 00H, 'i', 00H, 'l', 00H, 'e', 00H, 'd', 00H
	DB	00H, 00H
	ORG $+2
$SG164846 DB	'ID3D11Driver_CreateBuffer', 00H
	ORG $+2
$SG87441 DB	'*.*', 00H
$SG164847 DB	'W:\cpp\void\detroit\detroit-d3d11.c', 00H
$SG79253 DB	'*', 00H
	ORG $+2
$SG91123 DB	'W', 00H, ':', 00H, '\', 00H, 'c', 00H, 'p', 00H, 'p', 00H
	DB	'\', 00H, 'v', 00H, 'o', 00H, 'i', 00H, 'd', 00H, '\', 00H, 'v'
	DB	00H, 'e', 00H, 'n', 00H, 'd', 00H, 'o', 00H, 'r', 00H, '\', 00H
	DB	's', 00H, 't', 00H, 'b', 00H, '\', 00H, 's', 00H, 't', 00H, 'b'
	DB	00H, '.', 00H, 'h', 00H, 00H, 00H
	ORG $+2
$SG87446 DB	'Unable', 00H
	ORG $+1
$SG87649 DB	't', 00H, 00H, 00H
$SG91124 DB	'l', 00H, 'e', 00H, 'n', 00H, ' ', 00H, '=', 00H, '=', 00H
	DB	' ', 00H, 'l', 00H, 'e', 00H, 'n', 00H, 'g', 00H, 't', 00H, 'h'
	DB	00H, 00H, 00H
	ORG $+4
$SG99322 DB	'W', 00H, ':', 00H, '\', 00H, 'c', 00H, 'p', 00H, 'p', 00H
	DB	'\', 00H, 'v', 00H, 'o', 00H, 'i', 00H, 'd', 00H, '\', 00H, 'v'
	DB	00H, 'e', 00H, 'n', 00H, 'd', 00H, 'o', 00H, 'r', 00H, '\', 00H
	DB	's', 00H, 't', 00H, 'b', 00H, '\', 00H, 's', 00H, 't', 00H, 'b'
	DB	00H, '_', 00H, 'i', 00H, 'm', 00H, 'a', 00H, 'g', 00H, 'e', 00H
	DB	'.', 00H, 'h', 00H, 00H, 00H
	ORG $+2
$SG99323 DB	'b', 00H, 'i', 00H, 't', 00H, 's', 00H, ' ', 00H, '<', 00H
	DB	'=', 00H, ' ', 00H, '1', 00H, '6', 00H, 00H, 00H
	ORG $+2
$SG164886 DB	'f', 00H, 'a', 00H, 'i', 00H, 'l', 00H, 'e', 00H, 'd', 00H
	DB	00H, 00H
	ORG $+2
$SG164887 DB	'ID3D11Driver_CreateBufferShaderAccess', 00H
	ORG $+2
$SG164888 DB	'W:\cpp\void\detroit\detroit-d3d11.c', 00H
$SG79537 DB	'%s,', 00H
$SG99358 DB	'bad sizes', 00H
	ORG $+2
$SG79502 DB	'DEVICE', 00H
	ORG $+1
$SG87830 DB	'rb', 00H
	ORG $+1
$SG99361 DB	'bad codelengths', 00H
$SG164899 DB	'f', 00H, 'a', 00H, 'i', 00H, 'l', 00H, 'e', 00H, 'd', 00H
	DB	00H, 00H
	ORG $+2
$SG164900 DB	'ID3D11Driver_CreateSimpleSampler', 00H
	ORG $+3
$SG79505 DB	'HIDDEN', 00H
	ORG $+1
$SG87899 DB	'cu', 00H
	ORG $+1
$SG164901 DB	'W:\cpp\void\detroit\detroit-d3d11.c', 00H
	ORG $+4
$SG164924 DB	'I', 00H, 'D', 00H, '3', 00H, 'D', 00H, '1', 00H, '1', 00H
	DB	'D', 00H, 'e', 00H, 'v', 00H, 'i', 00H, 'c', 00H, 'e', 00H, '_'
	DB	00H, 'C', 00H, 'r', 00H, 'e', 00H, 'a', 00H, 't', 00H, 'e', 00H
	DB	'S', 00H, 'h', 00H, 'a', 00H, 'd', 00H, 'e', 00H, 'r', 00H, 'R'
	DB	00H, 'e', 00H, 's', 00H, 'o', 00H, 'u', 00H, 'r', 00H, 'c', 00H
	DB	'e', 00H, 'V', 00H, 'i', 00H, 'e', 00H, 'w', 00H, '(', 00H, ')'
	DB	00H, ' ', 00H, '[', 00H, 'F', 00H, 'A', 00H, 'I', 00H, 'L', 00H
	DB	'E', 00H, 'D', 00H, ']', 00H, 00H, 00H
	ORG $+2
$SG79507 DB	'NORMAL', 00H
	ORG $+1
$SG87904 DB	'lm', 00H
	ORG $+1
$SG164925 DB	'ID3D11Driver_CreateTexture2DShaderAccess', 00H
	ORG $+3
$SG79516 DB	'SYSTEM', 00H
	ORG $+1
$SG88063 DB	'wb', 00H
	ORG $+1
$SG164926 DB	'W:\cpp\void\detroit\detroit-d3d11.c', 00H
$SG96433 DB	'rb', 00H
	ORG $+1
$SG164927 DB	'i', 00H, 'n', 00H, 'v', 00H, 'a', 00H, 'l', 00H, 'i', 00H
	DB	'd', 00H, ' ', 00H, 'b', 00H, 'i', 00H, 'n', 00H, 'd', 00H, ' '
	DB	00H, 't', 00H, 'a', 00H, 'r', 00H, 'g', 00H, 'e', 00H, 't', 00H
	DB	00H, 00H
$SG164928 DB	'ID3D11Driver_CreateTexture2DShaderAccess', 00H
	ORG $+3
$SG79519 DB	'PINNED', 00H
	ORG $+1
$SG96470 DB	'rb', 00H
	ORG $+1
$SG164929 DB	'W:\cpp\void\detroit\detroit-d3d11.c', 00H
$SG92884 DB	'typ1', 00H
	ORG $+7
$SG164943 DB	'I', 00H, 'D', 00H, '3', 00H, 'D', 00H, '1', 00H, '1', 00H
	DB	'D', 00H, 'e', 00H, 'v', 00H, 'i', 00H, 'c', 00H, 'e', 00H, '_'
	DB	00H, 'C', 00H, 'r', 00H, 'e', 00H, 'a', 00H, 't', 00H, 'e', 00H
	DB	'R', 00H, 'e', 00H, 'n', 00H, 'd', 00H, 'e', 00H, 'r', 00H, 'T'
	DB	00H, 'a', 00H, 'r', 00H, 'g', 00H, 'e', 00H, 't', 00H, 'V', 00H
	DB	'i', 00H, 'e', 00H, 'w', 00H, '(', 00H, ')', 00H, ' ', 00H, '['
	DB	00H, 'F', 00H, 'A', 00H, 'I', 00H, 'L', 00H, 'E', 00H, 'D', 00H
	DB	']', 00H, 00H, 00H
	ORG $+2
$SG164944 DB	'ID3D11Driver_CreateTexture2DRenderTargetView', 00H
	ORG $+3
$SG164945 DB	'W:\cpp\void\detroit\detroit-d3d11.c', 00H
$SG88288 DB	'wb', 00H
	ORG $+1
$SG164946 DB	'i', 00H, 'n', 00H, 'v', 00H, 'a', 00H, 'l', 00H, 'i', 00H
	DB	'd', 00H, ' ', 00H, 'b', 00H, 'i', 00H, 'n', 00H, 'd', 00H, ' '
	DB	00H, 't', 00H, 'a', 00H, 'r', 00H, 'g', 00H, 'e', 00H, 't', 00H
	DB	00H, 00H
$SG164947 DB	'ID3D11Driver_CreateTexture2DRenderTargetView', 00H
	ORG $+3
$SG164948 DB	'W:\cpp\void\detroit\detroit-d3d11.c', 00H
$SG88319 DB	'rb', 00H
	ORG $+1
$SG164965 DB	'(', 00H, '.', 00H, 'D', 00H, 'i', 00H, 'm', 00H, 'e', 00H
	DB	'n', 00H, 'X', 00H, ' ', 00H, '=', 00H, ' ', 00H, '%', 00H, 'i'
	DB	00H, ',', 00H, ' ', 00H, '.', 00H, 'D', 00H, 'i', 00H, 'm', 00H
	DB	'e', 00H, 'n', 00H, 'Y', 00H, ' ', 00H, '=', 00H, ' ', 00H, '%'
	DB	00H, 'i', 00H, ')', 00H, 00H, 00H
	ORG $+2
$SG88049 DB	'c:/stb', 00H
	ORG $+1
$SG88371 DB	'<', 00H
	ORG $+2
$SG164966 DB	'ID3D11Driver_CreateTexture2D', 00H
	ORG $+3
$SG91238 DB	'W', 00H, ':', 00H, '\', 00H, 'c', 00H, 'p', 00H, 'p', 00H
	DB	'\', 00H, 'v', 00H, 'o', 00H, 'i', 00H, 'd', 00H, '\', 00H, 'v'
	DB	00H, 'e', 00H, 'n', 00H, 'd', 00H, 'o', 00H, 'r', 00H, '\', 00H
	DB	's', 00H, 't', 00H, 'b', 00H, '\', 00H, 's', 00H, 't', 00H, 'b'
	DB	00H, '.', 00H, 'h', 00H, 00H, 00H
	ORG $+2
$SG96571 DB	'rb', 00H
	ORG $+1
$SG164967 DB	'W:\cpp\void\detroit\detroit-d3d11.c', 00H
$SG88380 DB	'D', 00H
	ORG $+2
$SG91239 DB	'a', 00H, 'm', 00H, 'o', 00H, 'u', 00H, 'n', 00H, 't', 00H
	DB	' ', 00H, '>', 00H, ' ', 00H, '0', 00H, 00H, 00H
	ORG $+2
$SG91240 DB	'W', 00H, ':', 00H, '\', 00H, 'c', 00H, 'p', 00H, 'p', 00H
	DB	'\', 00H, 'v', 00H, 'o', 00H, 'i', 00H, 'd', 00H, '\', 00H, 'v'
	DB	00H, 'e', 00H, 'n', 00H, 'd', 00H, 'o', 00H, 'r', 00H, '\', 00H
	DB	's', 00H, 't', 00H, 'b', 00H, '\', 00H, 's', 00H, 't', 00H, 'b'
	DB	00H, '.', 00H, 'h', 00H, 00H, 00H
	ORG $+6
$SG91241 DB	'x', 00H, 't', 00H, 'b', 00H, '.', 00H, 's', 00H, 't', 00H
	DB	'a', 00H, 'r', 00H, 't', 00H, ' ', 00H, '+', 00H, ' ', 00H, 'x'
	DB	00H, 't', 00H, 'b', 00H, '.', 00H, 'f', 00H, 's', 00H, 'i', 00H
	DB	'z', 00H, 'e', 00H, ' ', 00H, '>', 00H, '=', 00H, ' ', 00H, 'x'
	DB	00H, 't', 00H, 'b', 00H, '.', 00H, 'v', 00H, 'a', 00H, 'l', 00H
	DB	'i', 00H, 'd', 00H, 00H, 00H
	ORG $+2
$SG91242 DB	'W', 00H, ':', 00H, '\', 00H, 'c', 00H, 'p', 00H, 'p', 00H
	DB	'\', 00H, 'v', 00H, 'o', 00H, 'i', 00H, 'd', 00H, '\', 00H, 'v'
	DB	00H, 'e', 00H, 'n', 00H, 'd', 00H, 'o', 00H, 'r', 00H, '\', 00H
	DB	's', 00H, 't', 00H, 'b', 00H, '\', 00H, 's', 00H, 't', 00H, 'b'
	DB	00H, '.', 00H, 'h', 00H, 00H, 00H
	ORG $+2
$SG88382 DB	'E', 00H
	ORG $+2
$SG164971 DB	'f', 00H, 'a', 00H, 'i', 00H, 'l', 00H, 'e', 00H, 'd', 00H
	DB	00H, 00H
	ORG $+2
$SG91243 DB	'x', 00H, 't', 00H, 'b', 00H, '.', 00H, 's', 00H, 't', 00H
	DB	'a', 00H, 'r', 00H, 't', 00H, ' ', 00H, '>', 00H, '=', 00H, ' '
	DB	00H, 'f', 00H, 'l', 00H, 'u', 00H, 's', 00H, 'h', 00H, 00H, 00H
	ORG $+2
$SG164972 DB	'ID3D11Driver_CreateTexture2D', 00H
	ORG $+3
$SG91244 DB	'W', 00H, ':', 00H, '\', 00H, 'c', 00H, 'p', 00H, 'p', 00H
	DB	'\', 00H, 'v', 00H, 'o', 00H, 'i', 00H, 'd', 00H, '\', 00H, 'v'
	DB	00H, 'e', 00H, 'n', 00H, 'd', 00H, 'o', 00H, 'r', 00H, '\', 00H
	DB	's', 00H, 't', 00H, 'b', 00H, '\', 00H, 's', 00H, 't', 00H, 'b'
	DB	00H, '.', 00H, 'h', 00H, 00H, 00H
	ORG $+2
$SG88384 DB	'[', 00H
	ORG $+2
$SG164973 DB	'W:\cpp\void\detroit\detroit-d3d11.c', 00H
$SG88387 DB	')', 00H
	ORG $+2
$SG91245 DB	'x', 00H, 't', 00H, 'b', 00H, '.', 00H, 'v', 00H, 'a', 00H
	DB	'l', 00H, 'i', 00H, 'd', 00H, ' ', 00H, '>', 00H, '=', 00H, ' '
	DB	00H, 'f', 00H, 'l', 00H, 'u', 00H, 's', 00H, 'h', 00H, 00H, 00H
	ORG $+2
$SG99446 DB	'output buffer limit', 00H
$SG88398 DB	'...', 00H
$SG99448 DB	'outofmem', 00H
	ORG $+3
$SG79538 DB	'%s %s', 00H
	ORG $+2
$SG88399 DB	'%s', 0dH, 00H
$SG99450 DB	'outofmem', 00H
	ORG $+3
$SG88051 DB	'rHKLM', 00H
	ORG $+2
$SG96592 DB	'rb', 00H
	ORG $+1
$SG99452 DB	'outofmem', 00H
	ORG $+7
$SG99480 DB	'bad huffman code', 00H
	ORG $+7
?stbi__zlength_base@@3QBHB DD 03H			; stbi__zlength_base
	DD	04H
	DD	05H
	DD	06H
	DD	07H
	DD	08H
	DD	09H
	DD	0aH
	DD	0bH
	DD	0dH
	DD	0fH
	DD	011H
	DD	013H
	DD	017H
	DD	01bH
	DD	01fH
	DD	023H
	DD	02bH
	DD	033H
	DD	03bH
	DD	043H
	DD	053H
	DD	063H
	DD	073H
	DD	083H
	DD	0a3H
	DD	0c3H
	DD	0e3H
	DD	0102H
	DD	00H
	DD	00H
	ORG $+4
?stbi__zlength_extra@@3QBHB DD 00H			; stbi__zlength_extra
	DD	00H
	DD	00H
	DD	00H
	DD	00H
	DD	00H
	DD	00H
	DD	00H
	DD	01H
	DD	01H
	DD	01H
	DD	01H
	DD	02H
	DD	02H
	DD	02H
	DD	02H
	DD	03H
	DD	03H
	DD	03H
	DD	03H
	DD	04H
	DD	04H
	DD	04H
	DD	04H
	DD	05H
	DD	05H
	DD	05H
	DD	05H
	DD	00H
	DD	00H
	DD	00H
	ORG $+4
?stbi__zdist_base@@3QBHB DD 01H				; stbi__zdist_base
	DD	02H
	DD	03H
	DD	04H
	DD	05H
	DD	07H
	DD	09H
	DD	0dH
	DD	011H
	DD	019H
	DD	021H
	DD	031H
	DD	041H
	DD	061H
	DD	081H
	DD	0c1H
	DD	0101H
	DD	0181H
	DD	0201H
	DD	0301H
	DD	0401H
	DD	0601H
	DD	0801H
	DD	0c01H
	DD	01001H
	DD	01801H
	DD	02001H
	DD	03001H
	DD	04001H
	DD	06001H
	DD	00H
	DD	00H
?stbi__zdist_extra@@3QBHB DD 00H			; stbi__zdist_extra
	DD	00H
	DD	00H
	DD	00H
	DD	01H
	DD	01H
	DD	02H
	DD	02H
	DD	03H
	DD	03H
	DD	04H
	DD	04H
	DD	05H
	DD	05H
	DD	06H
	DD	06H
	DD	07H
	DD	07H
	DD	08H
	DD	08H
	DD	09H
	DD	09H
	DD	0aH
	DD	0aH
	DD	0bH
	DD	0bH
	DD	0cH
	DD	0cH
	DD	0dH
	DD	0dH
	ORG $+8
$SG165020 DB	'invalid', 00H
$SG165021 DB	'invalid', 00H
$SG99486 DB	'bad huffman code', 00H
	ORG $+3
$SG88377 DB	'C[%d]', 00H
	ORG $+2
$SG88401 DB	'(', 00H
	ORG $+2
$SG99489 DB	'bad dist', 00H
	ORG $+3
$SG80190 DB	'%', 00H, 's', 00H, 00H, 00H
	ORG $+2
$SG88403 DB	']', 00H
	ORG $+2
$SG99523 DB	'bad codelengths', 00H
$SG99529 DB	'bad codelengths', 00H
$SG99534 DB	'bad codelengths', 00H
$SG99536 DB	'bad codelengths', 00H
$SG99538 DB	'bad codelengths', 00H
$SG165081 DB	'u', 00H, 'n', 00H, 'e', 00H, 'x', 00H, 'p', 00H, 'e', 00H
	DB	'c', 00H, 't', 00H, 'e', 00H, 'd', 00H, 00H, 00H
	ORG $+2
$SG165082 DB	'ID3D11Driver_CreateShaderInternal', 00H
	ORG $+2
$SG88405 DB	'>', 0aH, 00H
	ORG $+1
$SG165083 DB	'W:\cpp\void\detroit\detroit-d3d11.c', 00H
$SG88449 DB	'.', 00H
	ORG $+2
$SG99555 DB	'zlib corrupt', 00H
	ORG $+3
$SG99557 DB	'zlib corrupt', 00H
	ORG $+3
$SG99559 DB	'read past buffer', 00H
	ORG $+3
$SG88394 DB	'%s/%s', 00H
	ORG $+2
$SG96774 DB	'0', 00H, 00H, 00H
$SG99569 DB	'bad zlib header', 00H
$SG99571 DB	'bad zlib header', 00H
$SG99573 DB	'no preset dict', 00H
	ORG $+1
$SG99575 DB	'bad compression', 00H
?stbi__zdefault_length@@3QBEB DB 08H			; stbi__zdefault_length
	DB	08H
	DB	08H
	DB	08H
	DB	08H
	DB	08H
	DB	08H
	DB	08H
	DB	08H
	DB	08H
	DB	08H
	DB	08H
	DB	08H
	DB	08H
	DB	08H
	DB	08H
	DB	08H
	DB	08H
	DB	08H
	DB	08H
	DB	08H
	DB	08H
	DB	08H
	DB	08H
	DB	08H
	DB	08H
	DB	08H
	DB	08H
	DB	08H
	DB	08H
	DB	08H
	DB	08H
	DB	08H
	DB	08H
	DB	08H
	DB	08H
	DB	08H
	DB	08H
	DB	08H
	DB	08H
	DB	08H
	DB	08H
	DB	08H
	DB	08H
	DB	08H
	DB	08H
	DB	08H
	DB	08H
	DB	08H
	DB	08H
	DB	08H
	DB	08H
	DB	08H
	DB	08H
	DB	08H
	DB	08H
	DB	08H
	DB	08H
	DB	08H
	DB	08H
	DB	08H
	DB	08H
	DB	08H
	DB	08H
	DB	08H
	DB	08H
	DB	08H
	DB	08H
	DB	08H
	DB	08H
	DB	08H
	DB	08H
	DB	08H
	DB	08H
	DB	08H
	DB	08H
	DB	08H
	DB	08H
	DB	08H
	DB	08H
	DB	08H
	DB	08H
	DB	08H
	DB	08H
	DB	08H
	DB	08H
	DB	08H
	DB	08H
	DB	08H
	DB	08H
	DB	08H
	DB	08H
	DB	08H
	DB	08H
	DB	08H
	DB	08H
	DB	08H
	DB	08H
	DB	08H
	DB	08H
	DB	08H
	DB	08H
	DB	08H
	DB	08H
	DB	08H
	DB	08H
	DB	08H
	DB	08H
	DB	08H
	DB	08H
	DB	08H
	DB	08H
	DB	08H
	DB	08H
	DB	08H
	DB	08H
	DB	08H
	DB	08H
	DB	08H
	DB	08H
	DB	08H
	DB	08H
	DB	08H
	DB	08H
	DB	08H
	DB	08H
	DB	08H
	DB	08H
	DB	08H
	DB	08H
	DB	08H
	DB	08H
	DB	08H
	DB	08H
	DB	08H
	DB	08H
	DB	08H
	DB	08H
	DB	08H
	DB	08H
	DB	08H
	DB	08H
	DB	08H
	DB	08H
	DB	09H
	DB	09H
	DB	09H
	DB	09H
	DB	09H
	DB	09H
	DB	09H
	DB	09H
	DB	09H
	DB	09H
	DB	09H
	DB	09H
	DB	09H
	DB	09H
	DB	09H
	DB	09H
	DB	09H
	DB	09H
	DB	09H
	DB	09H
	DB	09H
	DB	09H
	DB	09H
	DB	09H
	DB	09H
	DB	09H
	DB	09H
	DB	09H
	DB	09H
	DB	09H
	DB	09H
	DB	09H
	DB	09H
	DB	09H
	DB	09H
	DB	09H
	DB	09H
	DB	09H
	DB	09H
	DB	09H
	DB	09H
	DB	09H
	DB	09H
	DB	09H
	DB	09H
	DB	09H
	DB	09H
	DB	09H
	DB	09H
	DB	09H
	DB	09H
	DB	09H
	DB	09H
	DB	09H
	DB	09H
	DB	09H
	DB	09H
	DB	09H
	DB	09H
	DB	09H
	DB	09H
	DB	09H
	DB	09H
	DB	09H
	DB	09H
	DB	09H
	DB	09H
	DB	09H
	DB	09H
	DB	09H
	DB	09H
	DB	09H
	DB	09H
	DB	09H
	DB	09H
	DB	09H
	DB	09H
	DB	09H
	DB	09H
	DB	09H
	DB	09H
	DB	09H
	DB	09H
	DB	09H
	DB	09H
	DB	09H
	DB	09H
	DB	09H
	DB	09H
	DB	09H
	DB	09H
	DB	09H
	DB	09H
	DB	09H
	DB	09H
	DB	09H
	DB	09H
	DB	09H
	DB	09H
	DB	09H
	DB	09H
	DB	09H
	DB	09H
	DB	09H
	DB	09H
	DB	09H
	DB	09H
	DB	09H
	DB	09H
	DB	09H
	DB	09H
	DB	09H
	DB	07H
	DB	07H
	DB	07H
	DB	07H
	DB	07H
	DB	07H
	DB	07H
	DB	07H
	DB	07H
	DB	07H
	DB	07H
	DB	07H
	DB	07H
	DB	07H
	DB	07H
	DB	07H
	DB	07H
	DB	07H
	DB	07H
	DB	07H
	DB	07H
	DB	07H
	DB	07H
	DB	07H
	DB	08H
	DB	08H
	DB	08H
	DB	08H
	DB	08H
	DB	08H
	DB	08H
	DB	08H
?stbi__zdefault_distance@@3QBEB DB 05H			; stbi__zdefault_distance
	DB	05H
	DB	05H
	DB	05H
	DB	05H
	DB	05H
	DB	05H
	DB	05H
	DB	05H
	DB	05H
	DB	05H
	DB	05H
	DB	05H
	DB	05H
	DB	05H
	DB	05H
	DB	05H
	DB	05H
	DB	05H
	DB	05H
	DB	05H
	DB	05H
	DB	05H
	DB	05H
	DB	05H
	DB	05H
	DB	05H
	DB	05H
	DB	05H
	DB	05H
	DB	05H
	DB	05H
$SG165135 DB	'COMPILE_SHADER', 00H
	ORG $+1
$SG165140 DB	'*', 00H, '*', 00H, '*', 00H, ' ', 00H, 's', 00H, 'h', 00H
	DB	'a', 00H, 'd', 00H, 'e', 00H, 'r', 00H, ' ', 00H, 'c', 00H, 'o'
	DB	00H, 'm', 00H, 'p', 00H, 'i', 00H, 'l', 00H, 'a', 00H, 't', 00H
	DB	'i', 00H, 'o', 00H, 'n', 00H, ' ', 00H, 'e', 00H, 'n', 00H, 'd'
	DB	00H, 'e', 00H, 'd', 00H, ' ', 00H, 'w', 00H, 'i', 00H, 't', 00H
	DB	'h', 00H, ' ', 00H, 'm', 00H, 'e', 00H, 's', 00H, 's', 00H, 'a'
	DB	00H, 'g', 00H, 'e', 00H, ' ', 00H, '*', 00H, '*', 00H, '*', 00H
	DB	00H, 00H
$SG96866 DB	'0', 00H, 00H, 00H
$SG165141 DB	'ID3D11Driver_CreateShaderFromData', 00H
	ORG $+2
$SG88678 DB	'0', 00H, 00H, 00H
$SG91413 DB	'W', 00H, ':', 00H, '\', 00H, 'c', 00H, 'p', 00H, 'p', 00H
	DB	'\', 00H, 'v', 00H, 'o', 00H, 'i', 00H, 'd', 00H, '\', 00H, 'v'
	DB	00H, 'e', 00H, 'n', 00H, 'd', 00H, 'o', 00H, 'r', 00H, '\', 00H
	DB	's', 00H, 't', 00H, 'b', 00H, '\', 00H, 's', 00H, 't', 00H, 'b'
	DB	00H, '.', 00H, 'h', 00H, 00H, 00H
	ORG $+2
$SG88717 DB	'0', 00H, 00H, 00H
$SG165142 DB	'W:\cpp\void\detroit\detroit-d3d11.c', 00H
$SG88749 DB	'w', 00H
	ORG $+2
$SG165144 DB	'ID3D11Driver_CreateShaderFromData', 00H
	ORG $+2
$SG88939 DB	'0', 00H, 00H, 00H
$SG165145 DB	'W:\cpp\void\detroit\detroit-d3d11.c', 00H
	ORG $+4
$SG165146 DB	'*', 00H, '*', 00H, '*', 00H, '*', 00H, '*', 00H, '*', 00H
	DB	'*', 00H, '*', 00H, '*', 00H, '*', 00H, '*', 00H, '*', 00H, '*'
	DB	00H, '*', 00H, '*', 00H, '*', 00H, '*', 00H, '*', 00H, '*', 00H
	DB	'*', 00H, '*', 00H, '*', 00H, '*', 00H, '*', 00H, '*', 00H, '*'
	DB	00H, '*', 00H, '*', 00H, '*', 00H, '*', 00H, '*', 00H, '*', 00H
	DB	'*', 00H, '*', 00H, '*', 00H, '*', 00H, '*', 00H, '*', 00H, '*'
	DB	00H, '*', 00H, '*', 00H, '*', 00H, '*', 00H, '*', 00H, '*', 00H
	DB	00H, 00H
$SG105874 DB	'%f', 00H
	ORG $+1
$SG165147 DB	'ID3D11Driver_CreateShaderFromData', 00H
	ORG $+6
$SG165148 DB	'W:\cpp\void\detroit\detroit-d3d11.c', 00H
	ORG $+4
$SG91422 DB	'W', 00H, ':', 00H, '\', 00H, 'c', 00H, 'p', 00H, 'p', 00H
	DB	'\', 00H, 'v', 00H, 'o', 00H, 'i', 00H, 'd', 00H, '\', 00H, 'v'
	DB	00H, 'e', 00H, 'n', 00H, 'd', 00H, 'o', 00H, 'r', 00H, '\', 00H
	DB	's', 00H, 't', 00H, 'b', 00H, '\', 00H, 's', 00H, 't', 00H, 'b'
	DB	00H, '.', 00H, 'h', 00H, 00H, 00H
	ORG $+6
$SG91430 DB	'W', 00H, ':', 00H, '\', 00H, 'c', 00H, 'p', 00H, 'p', 00H
	DB	'\', 00H, 'v', 00H, 'o', 00H, 'i', 00H, 'd', 00H, '\', 00H, 'v'
	DB	00H, 'e', 00H, 'n', 00H, 'd', 00H, 'o', 00H, 'r', 00H, '\', 00H
	DB	's', 00H, 't', 00H, 'b', 00H, '\', 00H, 's', 00H, 't', 00H, 'b'
	DB	00H, '.', 00H, 'h', 00H, 00H, 00H
	ORG $+6
$SG91439 DB	'W', 00H, ':', 00H, '\', 00H, 'c', 00H, 'p', 00H, 'p', 00H
	DB	'\', 00H, 'v', 00H, 'o', 00H, 'i', 00H, 'd', 00H, '\', 00H, 'v'
	DB	00H, 'e', 00H, 'n', 00H, 'd', 00H, 'o', 00H, 'r', 00H, '\', 00H
	DB	's', 00H, 't', 00H, 'b', 00H, '\', 00H, 's', 00H, 't', 00H, 'b'
	DB	00H, '.', 00H, 'h', 00H, 00H, 00H
	ORG $+6
$SG91449 DB	'W', 00H, ':', 00H, '\', 00H, 'c', 00H, 'p', 00H, 'p', 00H
	DB	'\', 00H, 'v', 00H, 'o', 00H, 'i', 00H, 'd', 00H, '\', 00H, 'v'
	DB	00H, 'e', 00H, 'n', 00H, 'd', 00H, 'o', 00H, 'r', 00H, '\', 00H
	DB	's', 00H, 't', 00H, 'b', 00H, '\', 00H, 's', 00H, 't', 00H, 'b'
	DB	00H, '.', 00H, 'h', 00H, 00H, 00H
	ORG $+6
$SG83269 DB	'[%s:%d] ', 00H
	ORG $+7
$SG83270 DB	'Fatal error: ', 00H
	ORG $+2
$SG9545	DB	'N', 00H, 'O', 00H, '_', 00H, 'M', 00H, 'E', 00H, 'S', 00H
	DB	'S', 00H, 'A', 00H, 'G', 00H, 'E', 00H, 00H, 00H
	ORG $+2
$SG9546	DB	'V <= ((unsigned __int64)(0x000000000000000F))', 00H
	ORG $+2
$SG165195 DB	'N', 00H, 'O', 00H, '_', 00H, 'M', 00H, 'E', 00H, 'S', 00H
	DB	'S', 00H, 'A', 00H, 'G', 00H, 'E', 00H, 00H, 00H
	ORG $+2
$SG9547	DB	'safe_cast_u4', 00H
	ORG $+3
$SG165196 DB	'(void *)Record == (void *)External', 00H
	ORG $+5
$SG9548	DB	'W:\cpp\void\dr/pack.h', 00H
	ORG $+2
$SG165197 DB	'ID3D11Driver_BorrowTextureChronicle', 00H
	ORG $+4
$SG165198 DB	'W:\cpp\void\detroit\detroit-d3d11.c', 00H
	ORG $+4
$SG165199 DB	'N', 00H, 'U', 00H, 'L', 00H, 'L', 00H, ' ', 00H, 'T', 00H
	DB	'E', 00H, 'X', 00H, 'T', 00H, 'U', 00H, 'R', 00H, 'E', 00H, ','
	DB	00H, ' ', 00H, 'C', 00H, 'A', 00H, 'N', 00H, 'N', 00H, 'O', 00H
	DB	'T', 00H, ' ', 00H, 'M', 00H, 'A', 00H, 'P', 00H, 00H, 00H
	ORG $+6
$SG165200 DB	'Record->Resource != NULL', 00H
	ORG $+7
$SG165201 DB	'ID3D11Driver_BorrowTextureChronicle', 00H
	ORG $+4
$SG83281 DB	'stb.log', 00H
$SG165202 DB	'W:\cpp\void\detroit\detroit-d3d11.c', 00H
	ORG $+4
$SG9554	DB	'N', 00H, 'O', 00H, '_', 00H, 'M', 00H, 'E', 00H, 'S', 00H
	DB	'S', 00H, 'A', 00H, 'G', 00H, 'E', 00H, 00H, 00H
	ORG $+2
$SG165203 DB	'M', 00H, 'A', 00H, 'P', 00H, ' ', 00H, 'A', 00H, 'L', 00H
	DB	'R', 00H, 'E', 00H, 'A', 00H, 'D', 00H, 'Y', 00H, ' ', 00H, 'A'
	DB	00H, 'C', 00H, 'T', 00H, 'I', 00H, 'V', 00H, 'E', 00H, ',', 00H
	DB	' ', 00H, '%', 00H, 'i', 00H, 00H, 00H
	ORG $+2
$SG9555	DB	'V <= 0xffui8', 00H
	ORG $+3
$SG165204 DB	'Record->BorrowedCounter == 0', 00H
	ORG $+3
$SG9556	DB	'safe_cast_u8', 00H
	ORG $+3
$SG165205 DB	'ID3D11Driver_BorrowTextureChronicle', 00H
	ORG $+4
$SG9557	DB	'W:\cpp\void\dr/pack.h', 00H
	ORG $+2
$SG165206 DB	'W:\cpp\void\detroit\detroit-d3d11.c', 00H
	ORG $+4
$SG9563	DB	'N', 00H, 'O', 00H, '_', 00H, 'M', 00H, 'E', 00H, 'S', 00H
	DB	'S', 00H, 'A', 00H, 'G', 00H, 'E', 00H, 00H, 00H
	ORG $+2
$SG9564	DB	'V <= 0xffffui16', 00H
$SG9565	DB	'safe_cast_u16', 00H
	ORG $+2
$SG165214 DB	'N', 00H, 'O', 00H, '_', 00H, 'M', 00H, 'E', 00H, 'S', 00H
	DB	'S', 00H, 'A', 00H, 'G', 00H, 'E', 00H, 00H, 00H
	ORG $+2
$SG9566	DB	'W:\cpp\void\dr/pack.h', 00H
	ORG $+2
$SG165215 DB	'TODO(RJ):', 00H
	ORG $+6
$SG165216 DB	'!"TODO(RJ):"', 00H
	ORG $+3
$SG165217 DB	'ID3D11Driver_BorrowTextureChronicle', 00H
	ORG $+4
$SG165218 DB	'W:\cpp\void\detroit\detroit-d3d11.c', 00H
	ORG $+4
$SG165219 DB	'f', 00H, 'a', 00H, 'i', 00H, 'l', 00H, 'e', 00H, 'd', 00H
	DB	00H, 00H
	ORG $+2
$SG165220 DB	'ID3D11Driver_BorrowTextureChronicle', 00H
	ORG $+4
$SG9572	DB	'N', 00H, 'O', 00H, '_', 00H, 'M', 00H, 'E', 00H, 'S', 00H
	DB	'S', 00H, 'A', 00H, 'G', 00H, 'E', 00H, 00H, 00H
	ORG $+2
$SG165221 DB	'W:\cpp\void\detroit\detroit-d3d11.c', 00H
	ORG $+4
$SG9573	DB	'V <= 0xffffffffui32', 00H
	ORG $+4
$SG9574	DB	'safe_cast_u32', 00H
	ORG $+2
$SG9575	DB	'W:\cpp\void\dr/pack.h', 00H
	ORG $+2
$SG9581	DB	'N', 00H, 'O', 00H, '_', 00H, 'M', 00H, 'E', 00H, 'S', 00H
	DB	'S', 00H, 'A', 00H, 'G', 00H, 'E', 00H, 00H, 00H
	ORG $+2
$SG9582	DB	'V <= 0xffffffffffffffffui64', 00H
	ORG $+4
$SG9583	DB	'safe_cast_u64', 00H
	ORG $+2
$SG165232 DB	'f', 00H, 'a', 00H, 'i', 00H, 'l', 00H, 'e', 00H, 'd', 00H
	DB	00H, 00H
	ORG $+2
$SG9584	DB	'W:\cpp\void\dr/pack.h', 00H
	ORG $+2
$SG165233 DB	'ID3D11Driver_ReturnTextureChronicle', 00H
	ORG $+4
$SG165234 DB	'W:\cpp\void\detroit\detroit-d3d11.c', 00H
	ORG $+4
$SG91513 DB	'W', 00H, ':', 00H, '\', 00H, 'c', 00H, 'p', 00H, 'p', 00H
	DB	'\', 00H, 'v', 00H, 'o', 00H, 'i', 00H, 'd', 00H, '\', 00H, 'v'
	DB	00H, 'e', 00H, 'n', 00H, 'd', 00H, 'o', 00H, 'r', 00H, '\', 00H
	DB	's', 00H, 't', 00H, 'b', 00H, '\', 00H, 's', 00H, 't', 00H, 'b'
	DB	00H, '.', 00H, 'h', 00H, 00H, 00H
	ORG $+6
$SG91514 DB	'!', 00H, '(', 00H, '(', 00H, 'f', 00H, '-', 00H, '>', 00H
	DB	'b', 00H, 'u', 00H, 'f', 00H, 'f', 00H, 'e', 00H, 'r', 00H, ')'
	DB	00H, ')', 00H, ' ', 00H, '|', 00H, '|', 00H, ' ', 00H, 's', 00H
	DB	't', 00H, 'b', 00H, '_', 00H, 'a', 00H, 'r', 00H, 'r', 00H, 'h'
	DB	00H, 'e', 00H, 'a', 00H, 'd', 00H, '(', 00H, '(', 00H, '(', 00H
	DB	'f', 00H, '-', 00H, '>', 00H, 'b', 00H, 'u', 00H, 'f', 00H, 'f'
	DB	00H, 'e', 00H, 'r', 00H, ')', 00H, ')', 00H, ')', 00H, '-', 00H
	DB	'>', 00H, 's', 00H, 'i', 00H, 'g', 00H, 'n', 00H, 'a', 00H, 't'
	DB	00H, 'u', 00H, 'r', 00H, 'e', 00H, ' ', 00H, '=', 00H, '=', 00H
	DB	' ', 00H, 's', 00H, 't', 00H, 'b', 00H, '_', 00H, 'a', 00H, 'r'
	DB	00H, 'r', 00H, '_', 00H, 's', 00H, 'i', 00H, 'g', 00H, 'n', 00H
	DB	'a', 00H, 't', 00H, 'u', 00H, 'r', 00H, 'e', 00H, 00H, 00H
	ORG $+6
$SG83325 DB	'[%s:%4d] ', 00H
	ORG $+6
$SG99712 DB	'bad png sig', 00H
	ORG $+4
$SG91532 DB	'W', 00H, ':', 00H, '\', 00H, 'c', 00H, 'p', 00H, 'p', 00H
	DB	'\', 00H, 'v', 00H, 'o', 00H, 'i', 00H, 'd', 00H, '\', 00H, 'v'
	DB	00H, 'e', 00H, 'n', 00H, 'd', 00H, 'o', 00H, 'r', 00H, '\', 00H
	DB	's', 00H, 't', 00H, 'b', 00H, '\', 00H, 's', 00H, 't', 00H, 'b'
	DB	00H, '.', 00H, 'h', 00H, 00H, 00H
	ORG $+6
$SG91533 DB	'!', 00H, '(', 00H, 'f', 00H, '-', 00H, '>', 00H, 'b', 00H
	DB	'u', 00H, 'f', 00H, 'f', 00H, 'e', 00H, 'r', 00H, ')', 00H, ' '
	DB	00H, '|', 00H, '|', 00H, ' ', 00H, 's', 00H, 't', 00H, 'b', 00H
	DB	'_', 00H, 'a', 00H, 'r', 00H, 'r', 00H, 'h', 00H, 'e', 00H, 'a'
	DB	00H, 'd', 00H, '(', 00H, '(', 00H, 'f', 00H, '-', 00H, '>', 00H
	DB	'b', 00H, 'u', 00H, 'f', 00H, 'f', 00H, 'e', 00H, 'r', 00H, ')'
	DB	00H, ')', 00H, '-', 00H, '>', 00H, 's', 00H, 'i', 00H, 'g', 00H
	DB	'n', 00H, 'a', 00H, 't', 00H, 'u', 00H, 'r', 00H, 'e', 00H, ' '
	DB	00H, '=', 00H, '=', 00H, ' ', 00H, 's', 00H, 't', 00H, 'b', 00H
	DB	'_', 00H, 'a', 00H, 'r', 00H, 'r', 00H, '_', 00H, 's', 00H, 'i'
	DB	00H, 'g', 00H, 'n', 00H, 'a', 00H, 't', 00H, 'u', 00H, 'r', 00H
	DB	'e', 00H, 00H, 00H
	ORG $+6
?stbi__depth_scale_table@@3QBEB DB 00H			; stbi__depth_scale_table
	DB	0ffH
	DB	055H
	DB	00H
	DB	011H
	DB	00H
	DB	00H
	DB	00H
	DB	01H
	ORG $+7
$SG91658 DB	'W', 00H, ':', 00H, '\', 00H, 'c', 00H, 'p', 00H, 'p', 00H
	DB	'\', 00H, 'v', 00H, 'o', 00H, 'i', 00H, 'd', 00H, '\', 00H, 'v'
	DB	00H, 'e', 00H, 'n', 00H, 'd', 00H, 'o', 00H, 'r', 00H, '\', 00H
	DB	's', 00H, 't', 00H, 'b', 00H, '\', 00H, 's', 00H, 't', 00H, 'b'
	DB	00H, '.', 00H, 'h', 00H, 00H, 00H
	ORG $+6
$SG91659 DB	'a', 00H, '-', 00H, '>', 00H, 'p', 00H, 'e', 00H, 'n', 00H
	DB	'd', 00H, 'i', 00H, 'n', 00H, 'g', 00H, '_', 00H, 'f', 00H, 'f'
	DB	00H, 's', 00H, ' ', 00H, '!', 00H, '=', 00H, ' ', 00H, '-', 00H
	DB	'1', 00H, 00H, 00H
	ORG $+6
$SG9743	DB	'N', 00H, 'O', 00H, '_', 00H, 'M', 00H, 'E', 00H, 'S', 00H
	DB	'S', 00H, 'A', 00H, 'G', 00H, 'E', 00H, 00H, 00H
	ORG $+2
$SG9744	DB	'Unsupported Format Specifier!', 00H
	ORG $+2
$SG9745	DB	'! "Unsupported Format Specifier!"', 00H
	ORG $+6
$SG9746	DB	'rx__printf', 00H
	ORG $+5
$SG9747	DB	'W:\cpp\void\dr/text.c', 00H
	ORG $+2
$SG99902 DB	'W', 00H, ':', 00H, '\', 00H, 'c', 00H, 'p', 00H, 'p', 00H
	DB	'\', 00H, 'v', 00H, 'o', 00H, 'i', 00H, 'd', 00H, '\', 00H, 'v'
	DB	00H, 'e', 00H, 'n', 00H, 'd', 00H, 'o', 00H, 'r', 00H, '\', 00H
	DB	's', 00H, 't', 00H, 'b', 00H, '\', 00H, 's', 00H, 't', 00H, 'b'
	DB	00H, '_', 00H, 'i', 00H, 'm', 00H, 'a', 00H, 'g', 00H, 'e', 00H
	DB	'.', 00H, 'h', 00H, 00H, 00H
	ORG $+2
$SG83518 DB	'W', 00H, ':', 00H, '\', 00H, 'c', 00H, 'p', 00H, 'p', 00H
	DB	'\', 00H, 'v', 00H, 'o', 00H, 'i', 00H, 'd', 00H, '\', 00H, 'v'
	DB	00H, 'e', 00H, 'n', 00H, 'd', 00H, 'o', 00H, 'r', 00H, '\', 00H
	DB	's', 00H, 't', 00H, 'b', 00H, '\', 00H, 's', 00H, 't', 00H, 'b'
	DB	00H, '.', 00H, 'h', 00H, 00H, 00H
	ORG $+6
$SG83523 DB	'a', 00H, 'x', 00H, 'i', 00H, 's', 00H, ' ', 00H, '>', 00H
	DB	'=', 00H, ' ', 00H, '0', 00H, ' ', 00H, '&', 00H, '&', 00H, ' '
	DB	00H, 'a', 00H, 'x', 00H, 'i', 00H, 's', 00H, ' ', 00H, '<', 00H
	DB	' ', 00H, '3', 00H, 00H, 00H
$SG92885 DB	'typ1', 00H
	ORG $+7
$SG99903 DB	'o', 00H, 'u', 00H, 't', 00H, '_', 00H, 'n', 00H, ' ', 00H
	DB	'=', 00H, '=', 00H, ' ', 00H, 's', 00H, '-', 00H, '>', 00H, 'i'
	DB	00H, 'm', 00H, 'g', 00H, '_', 00H, 'n', 00H, ' ', 00H, '|', 00H
	DB	'|', 00H, ' ', 00H, 'o', 00H, 'u', 00H, 't', 00H, '_', 00H, 'n'
	DB	00H, ' ', 00H, '=', 00H, '=', 00H, ' ', 00H, 's', 00H, '-', 00H
	DB	'>', 00H, 'i', 00H, 'm', 00H, 'g', 00H, '_', 00H, 'n', 00H, '+'
	DB	00H, '1', 00H, 00H, 00H
	ORG $+6
$SG99909 DB	'not enough pixels', 00H
	ORG $+6
$SG83519 DB	'f', 00H, 'a', 00H, 'c', 00H, 'e', 00H, '_', 00H, 'n', 00H
	DB	'u', 00H, 'm', 00H, 'b', 00H, 'e', 00H, 'r', 00H, ' ', 00H, '>'
	DB	00H, '=', 00H, ' ', 00H, '0', 00H, ' ', 00H, '&', 00H, '&', 00H
	DB	' ', 00H, 'f', 00H, 'a', 00H, 'c', 00H, 'e', 00H, '_', 00H, 'n'
	DB	00H, 'u', 00H, 'm', 00H, 'b', 00H, 'e', 00H, 'r', 00H, ' ', 00H
	DB	'<', 00H, ' ', 00H, '6', 00H, 00H, 00H
$SG83520 DB	'W', 00H, ':', 00H, '\', 00H, 'c', 00H, 'p', 00H, 'p', 00H
	DB	'\', 00H, 'v', 00H, 'o', 00H, 'i', 00H, 'd', 00H, '\', 00H, 'v'
	DB	00H, 'e', 00H, 'n', 00H, 'd', 00H, 'o', 00H, 'r', 00H, '\', 00H
	DB	's', 00H, 't', 00H, 'b', 00H, '\', 00H, 's', 00H, 't', 00H, 'b'
	DB	00H, '.', 00H, 'h', 00H, 00H, 00H
	ORG $+6
$SG99905 DB	'outofmem', 00H
	ORG $+7
$SG83522 DB	'W', 00H, ':', 00H, '\', 00H, 'c', 00H, 'p', 00H, 'p', 00H
	DB	'\', 00H, 'v', 00H, 'o', 00H, 'i', 00H, 'd', 00H, '\', 00H, 'v'
	DB	00H, 'e', 00H, 'n', 00H, 'd', 00H, 'o', 00H, 'r', 00H, '\', 00H
	DB	's', 00H, 't', 00H, 'b', 00H, '\', 00H, 's', 00H, 't', 00H, 'b'
	DB	00H, '.', 00H, 'h', 00H, 00H, 00H
	ORG $+6
$SG99911 DB	'invalid filter', 00H
	ORG $+1
$SG99940 DB	'i', 00H, 'm', 00H, 'g', 00H, '_', 00H, 'n', 00H, '+', 00H
	DB	'1', 00H, ' ', 00H, '=', 00H, '=', 00H, ' ', 00H, 'o', 00H, 'u'
	DB	00H, 't', 00H, '_', 00H, 'n', 00H, 00H, 00H
	ORG $+6
$SG83521 DB	'v', 00H, 'e', 00H, 'r', 00H, 't', 00H, 'e', 00H, 'x', 00H
	DB	'_', 00H, 'n', 00H, 'u', 00H, 'm', 00H, 'b', 00H, 'e', 00H, 'r'
	DB	00H, ' ', 00H, '>', 00H, '=', 00H, ' ', 00H, '0', 00H, ' ', 00H
	DB	'&', 00H, '&', 00H, ' ', 00H, 'v', 00H, 'e', 00H, 'r', 00H, 't'
	DB	00H, 'e', 00H, 'x', 00H, '_', 00H, 'n', 00H, 'u', 00H, 'm', 00H
	DB	'b', 00H, 'e', 00H, 'r', 00H, ' ', 00H, '<', 00H, ' ', 00H, '4'
	DB	00H, 00H, 00H
$SG99907 DB	'too large', 00H
	ORG $+6
$SG99914 DB	'invalid width', 00H
	ORG $+2
$SG99939 DB	'W', 00H, ':', 00H, '\', 00H, 'c', 00H, 'p', 00H, 'p', 00H
	DB	'\', 00H, 'v', 00H, 'o', 00H, 'i', 00H, 'd', 00H, '\', 00H, 'v'
	DB	00H, 'e', 00H, 'n', 00H, 'd', 00H, 'o', 00H, 'r', 00H, '\', 00H
	DB	's', 00H, 't', 00H, 'b', 00H, '\', 00H, 's', 00H, 't', 00H, 'b'
	DB	00H, '_', 00H, 'i', 00H, 'm', 00H, 'a', 00H, 'g', 00H, 'e', 00H
	DB	'.', 00H, 'h', 00H, 00H, 00H
	ORG $+2
$SG99971 DB	'i', 00H, 'm', 00H, 'g', 00H, '_', 00H, 'n', 00H, ' ', 00H
	DB	'=', 00H, '=', 00H, ' ', 00H, '3', 00H, 00H, 00H
	ORG $+2
$SG99970 DB	'W', 00H, ':', 00H, '\', 00H, 'c', 00H, 'p', 00H, 'p', 00H
	DB	'\', 00H, 'v', 00H, 'o', 00H, 'i', 00H, 'd', 00H, '\', 00H, 'v'
	DB	00H, 'e', 00H, 'n', 00H, 'd', 00H, 'o', 00H, 'r', 00H, '\', 00H
	DB	's', 00H, 't', 00H, 'b', 00H, '\', 00H, 's', 00H, 't', 00H, 'b'
	DB	00H, '_', 00H, 'i', 00H, 'm', 00H, 'a', 00H, 'g', 00H, 'e', 00H
	DB	'.', 00H, 'h', 00H, 00H, 00H
	ORG $+2
$SG100009 DB	'outofmem', 00H
	ORG $+7
$SG100030 DB	'o', 00H, 'u', 00H, 't', 00H, '_', 00H, 'n', 00H, ' ', 00H
	DB	'=', 00H, '=', 00H, ' ', 00H, '2', 00H, ' ', 00H, '|', 00H, '|'
	DB	00H, ' ', 00H, 'o', 00H, 'u', 00H, 't', 00H, '_', 00H, 'n', 00H
	DB	' ', 00H, '=', 00H, '=', 00H, ' ', 00H, '4', 00H, 00H, 00H
	ORG $+6
$SG100029 DB	'W', 00H, ':', 00H, '\', 00H, 'c', 00H, 'p', 00H, 'p', 00H
	DB	'\', 00H, 'v', 00H, 'o', 00H, 'i', 00H, 'd', 00H, '\', 00H, 'v'
	DB	00H, 'e', 00H, 'n', 00H, 'd', 00H, 'o', 00H, 'r', 00H, '\', 00H
	DB	's', 00H, 't', 00H, 'b', 00H, '\', 00H, 's', 00H, 't', 00H, 'b'
	DB	00H, '_', 00H, 'i', 00H, 'm', 00H, 'a', 00H, 'g', 00H, 'e', 00H
	DB	'.', 00H, 'h', 00H, 00H, 00H
	ORG $+2
$SG165567 DB	'i', 00H, 'n', 00H, 't', 00H, 'e', 00H, 'r', 00H, 'n', 00H
	DB	'a', 00H, 'l', 00H, ' ', 00H, 'e', 00H, 'r', 00H, 'r', 00H, 'o'
	DB	00H, 'r', 00H, 00H, 00H
	ORG $+2
$SG165568 DB	'ID3D11Window_Present', 00H
	ORG $+3
$SG165569 DB	'W:\cpp\void\detroit\detroit-d3d11.c', 00H
	ORG $+4
$SG165570 DB	'i', 00H, 'n', 00H, 't', 00H, 'e', 00H, 'r', 00H, 'n', 00H
	DB	'a', 00H, 'l', 00H, ' ', 00H, 'e', 00H, 'r', 00H, 'r', 00H, 'o'
	DB	00H, 'r', 00H, 00H, 00H
	ORG $+2
$SG165571 DB	'ID3D11Window_Present', 00H
	ORG $+3
$SG165572 DB	'W:\cpp\void\detroit\detroit-d3d11.c', 00H
	ORG $+4
$SG165573 DB	'i', 00H, 'n', 00H, 'v', 00H, 'a', 00H, 'l', 00H, 'i', 00H
	DB	'd', 00H, ' ', 00H, 'w', 00H, 'i', 00H, 'n', 00H, 'd', 00H, 'o'
	DB	00H, 'w', 00H, 00H, 00H
	ORG $+2
$SG165574 DB	'ID3D11Window_Present', 00H
	ORG $+3
$SG165575 DB	'W:\cpp\void\detroit\detroit-d3d11.c', 00H
$SG92886 DB	'typ1', 00H
	ORG $+7
$SG100052 DB	'W', 00H, ':', 00H, '\', 00H, 'c', 00H, 'p', 00H, 'p', 00H
	DB	'\', 00H, 'v', 00H, 'o', 00H, 'i', 00H, 'd', 00H, '\', 00H, 'v'
	DB	00H, 'e', 00H, 'n', 00H, 'd', 00H, 'o', 00H, 'r', 00H, '\', 00H
	DB	's', 00H, 't', 00H, 'b', 00H, '\', 00H, 's', 00H, 't', 00H, 'b'
	DB	00H, '_', 00H, 'i', 00H, 'm', 00H, 'a', 00H, 'g', 00H, 'e', 00H
	DB	'.', 00H, 'h', 00H, 00H, 00H
	ORG $+2
$SG100053 DB	'o', 00H, 'u', 00H, 't', 00H, '_', 00H, 'n', 00H, ' ', 00H
	DB	'=', 00H, '=', 00H, ' ', 00H, '2', 00H, ' ', 00H, '|', 00H, '|'
	DB	00H, ' ', 00H, 'o', 00H, 'u', 00H, 't', 00H, '_', 00H, 'n', 00H
	DB	' ', 00H, '=', 00H, '=', 00H, ' ', 00H, '4', 00H, 00H, 00H
	ORG $+6
$SG100079 DB	'outofmem', 00H
	ORG $+7
$SG100125 DB	'W', 00H, ':', 00H, '\', 00H, 'c', 00H, 'p', 00H, 'p', 00H
	DB	'\', 00H, 'v', 00H, 'o', 00H, 'i', 00H, 'd', 00H, '\', 00H, 'v'
	DB	00H, 'e', 00H, 'n', 00H, 'd', 00H, 'o', 00H, 'r', 00H, '\', 00H
	DB	's', 00H, 't', 00H, 'b', 00H, '\', 00H, 's', 00H, 't', 00H, 'b'
	DB	00H, '_', 00H, 'i', 00H, 'm', 00H, 'a', 00H, 'g', 00H, 'e', 00H
	DB	'.', 00H, 'h', 00H, 00H, 00H
	ORG $+2
$SG165662 DB	's', 00H, 't', 00H, 'a', 00H, 'c', 00H, 'k', 00H, ' ', 00H
	DB	'u', 00H, 'n', 00H, 'd', 00H, 'e', 00H, 'r', 00H, 'f', 00H, 'l'
	DB	00H, 'o', 00H, 'w', 00H, 00H, 00H
$SG100126 DB	's', 00H, '-', 00H, '>', 00H, 'i', 00H, 'm', 00H, 'g', 00H
	DB	'_', 00H, 'o', 00H, 'u', 00H, 't', 00H, '_', 00H, 'n', 00H, ' '
	DB	00H, '=', 00H, '=', 00H, ' ', 00H, '4', 00H, 00H, 00H
	ORG $+4
$SG165663 DB	'ID3D11Graphics_MatrixStackCheck', 00H
$SG165664 DB	'W:\cpp\void\detroit\detroit-d3d11.c', 00H
	ORG $+4
$SG165666 DB	's', 00H, 't', 00H, 'a', 00H, 'c', 00H, 'k', 00H, ' ', 00H
	DB	'o', 00H, 'v', 00H, 'e', 00H, 'r', 00H, 'f', 00H, 'l', 00H, 'o'
	DB	00H, 'w', 00H, 00H, 00H
	ORG $+2
$SG165667 DB	'ID3D11Graphics_MatrixStackCheck', 00H
$SG165668 DB	'W:\cpp\void\detroit\detroit-d3d11.c', 00H
	ORG $+4
$SG165669 DB	'l', 00H, 'o', 00H, 'o', 00H, 's', 00H, 'e', 00H, ' ', 00H
	DB	's', 00H, 't', 00H, 'a', 00H, 'c', 00H, 'k', 00H, ' ', 00H, 'p'
	DB	00H, 'o', 00H, 'i', 00H, 'n', 00H, 't', 00H, 'e', 00H, 'r', 00H
	DB	00H, 00H
$SG165670 DB	'ID3D11Graphics_MatrixStackCheck', 00H
$SG165671 DB	'W:\cpp\void\detroit\detroit-d3d11.c', 00H
	ORG $+4
$SG91989 DB	'STB_UI(', 00H
$SG100223 DB	'multiple IHDR', 00H
	ORG $+2
$SG100225 DB	'bad IHDR len', 00H
	ORG $+3
$SG100227 DB	'too large', 00H
	ORG $+6
$SG83843 DB	'W', 00H, ':', 00H, '\', 00H, 'c', 00H, 'p', 00H, 'p', 00H
	DB	'\', 00H, 'v', 00H, 'o', 00H, 'i', 00H, 'd', 00H, '\', 00H, 'v'
	DB	00H, 'e', 00H, 'n', 00H, 'd', 00H, 'o', 00H, 'r', 00H, '\', 00H
	DB	's', 00H, 't', 00H, 'b', 00H, '\', 00H, 's', 00H, 't', 00H, 'b'
	DB	00H, '.', 00H, 'h', 00H, 00H, 00H
	ORG $+6
$SG83844 DB	's', 00H, '-', 00H, '>', 00H, 'm', 00H, 'i', 00H, 'n', 00H
	DB	'v', 00H, 'a', 00H, 'l', 00H, ' ', 00H, '<', 00H, ' ', 00H, 's'
	DB	00H, '-', 00H, '>', 00H, 'm', 00H, 'a', 00H, 'x', 00H, 'v', 00H
	DB	'a', 00H, 'l', 00H, 00H, 00H
	ORG $+4
$SG100229 DB	'too large', 00H
	ORG $+6
$SG100231 DB	'1/2/4/8/16-bit only', 00H
	ORG $+4
$SG83847 DB	'W', 00H, ':', 00H, '\', 00H, 'c', 00H, 'p', 00H, 'p', 00H
	DB	'\', 00H, 'v', 00H, 'o', 00H, 'i', 00H, 'd', 00H, '\', 00H, 'v'
	DB	00H, 'e', 00H, 'n', 00H, 'd', 00H, 'o', 00H, 'r', 00H, '\', 00H
	DB	's', 00H, 't', 00H, 'b', 00H, '\', 00H, 's', 00H, 't', 00H, 'b'
	DB	00H, '.', 00H, 'h', 00H, 00H, 00H
	ORG $+6
$SG83848 DB	's', 00H, '-', 00H, '>', 00H, 'm', 00H, 'i', 00H, 'n', 00H
	DB	'v', 00H, 'a', 00H, 'l', 00H, ' ', 00H, '<', 00H, ' ', 00H, 's'
	DB	00H, '-', 00H, '>', 00H, 'm', 00H, 'a', 00H, 'x', 00H, 'v', 00H
	DB	'a', 00H, 'l', 00H, 00H, 00H
	ORG $+4
$SG100233 DB	'bad ctype', 00H
	ORG $+6
$SG100235 DB	'bad ctype', 00H
	ORG $+6
$SG92043 DB	'W', 00H, ':', 00H, '\', 00H, 'c', 00H, 'p', 00H, 'p', 00H
	DB	'\', 00H, 'v', 00H, 'o', 00H, 'i', 00H, 'd', 00H, '\', 00H, 'v'
	DB	00H, 'e', 00H, 'n', 00H, 'd', 00H, 'o', 00H, 'r', 00H, '\', 00H
	DB	's', 00H, 't', 00H, 'b', 00H, '\', 00H, 's', 00H, 't', 00H, 'b'
	DB	00H, '.', 00H, 'h', 00H, 00H, 00H
	ORG $+6
$SG92044 DB	'!', 00H, '(', 00H, '(', 00H, 'f', 00H, '-', 00H, '>', 00H
	DB	'e', 00H, 'n', 00H, 't', 00H, 'r', 00H, 'i', 00H, 'e', 00H, 's'
	DB	00H, ')', 00H, ')', 00H, ' ', 00H, '|', 00H, '|', 00H, ' ', 00H
	DB	's', 00H, 't', 00H, 'b', 00H, '_', 00H, 'a', 00H, 'r', 00H, 'r'
	DB	00H, 'h', 00H, 'e', 00H, 'a', 00H, 'd', 00H, '(', 00H, '(', 00H
	DB	'(', 00H, 'f', 00H, '-', 00H, '>', 00H, 'e', 00H, 'n', 00H, 't'
	DB	00H, 'r', 00H, 'i', 00H, 'e', 00H, 's', 00H, ')', 00H, ')', 00H
	DB	')', 00H, '-', 00H, '>', 00H, 's', 00H, 'i', 00H, 'g', 00H, 'n'
	DB	00H, 'a', 00H, 't', 00H, 'u', 00H, 'r', 00H, 'e', 00H, ' ', 00H
	DB	'=', 00H, '=', 00H, ' ', 00H, 's', 00H, 't', 00H, 'b', 00H, '_'
	DB	00H, 'a', 00H, 'r', 00H, 'r', 00H, '_', 00H, 's', 00H, 'i', 00H
	DB	'g', 00H, 'n', 00H, 'a', 00H, 't', 00H, 'u', 00H, 'r', 00H, 'e'
	DB	00H, 00H, 00H
	ORG $+2
$SG100239 DB	'bad ctype', 00H
	ORG $+6
$SG100241 DB	'bad comp method', 00H
$SG100243 DB	'bad filter method', 00H
	ORG $+6
$SG100245 DB	'bad interlace method', 00H
	ORG $+3
$SG100248 DB	'0-pixel image', 00H
	ORG $+2
$SG100252 DB	'too large', 00H
	ORG $+6
$SG100255 DB	'too large', 00H
	ORG $+6
$SG100258 DB	'first not IHDR', 00H
	ORG $+1
$SG100260 DB	'invalid PLTE', 00H
	ORG $+3
$SG100262 DB	'invalid PLTE', 00H
	ORG $+3
$SG100265 DB	'first not IHDR', 00H
	ORG $+1
$SG100267 DB	'tRNS after IDAT', 00H
$SG100272 DB	'tRNS before PLTE', 00H
	ORG $+7
$SG100274 DB	'bad tRNS len', 00H
	ORG $+3
$SG100276 DB	'tRNS with alpha', 00H
$SG100278 DB	'bad tRNS len', 00H
	ORG $+3
$SG100283 DB	'first not IHDR', 00H
	ORG $+1
$SG100285 DB	'no PLTE', 00H
$SG100291 DB	'outofmem', 00H
	ORG $+7
$SG100293 DB	'outofdata', 00H
	ORG $+6
$SG100296 DB	'first not IHDR', 00H
	ORG $+1
$SG100299 DB	'no IDAT', 00H
$SG100319 DB	'first not IHDR', 00H
	ORG $+1
$SG100338 DB	'bad req_comp', 00H
	ORG $+3
$SG100344 DB	'bad bits_per_channel', 00H
	ORG $+3
$SG100427 DB	'W', 00H, ':', 00H, '\', 00H, 'c', 00H, 'p', 00H, 'p', 00H
	DB	'\', 00H, 'v', 00H, 'o', 00H, 'i', 00H, 'd', 00H, '\', 00H, 'v'
	DB	00H, 'e', 00H, 'n', 00H, 'd', 00H, 'o', 00H, 'r', 00H, '\', 00H
	DB	's', 00H, 't', 00H, 'b', 00H, '\', 00H, 's', 00H, 't', 00H, 'b'
	DB	00H, '_', 00H, 'i', 00H, 'm', 00H, 'a', 00H, 'g', 00H, 'e', 00H
	DB	'.', 00H, 'h', 00H, 00H, 00H
	ORG $+2
$SG100428 DB	'v', 00H, ' ', 00H, '<', 00H, ' ', 00H, '2', 00H, '5', 00H
	DB	'6', 00H, 00H, 00H
$SG100495 DB	'not BMP', 00H
$SG100429 DB	'W', 00H, ':', 00H, '\', 00H, 'c', 00H, 'p', 00H, 'p', 00H
	DB	'\', 00H, 'v', 00H, 'o', 00H, 'i', 00H, 'd', 00H, '\', 00H, 'v'
	DB	00H, 'e', 00H, 'n', 00H, 'd', 00H, 'o', 00H, 'r', 00H, '\', 00H
	DB	's', 00H, 't', 00H, 'b', 00H, '\', 00H, 's', 00H, 't', 00H, 'b'
	DB	00H, '_', 00H, 'i', 00H, 'm', 00H, 'a', 00H, 'g', 00H, 'e', 00H
	DB	'.', 00H, 'h', 00H, 00H, 00H
	ORG $+2
$SG100430 DB	'b', 00H, 'i', 00H, 't', 00H, 's', 00H, ' ', 00H, '>', 00H
	DB	'=', 00H, ' ', 00H, '0', 00H, ' ', 00H, '&', 00H, '&', 00H, ' '
	DB	00H, 'b', 00H, 'i', 00H, 't', 00H, 's', 00H, ' ', 00H, '<', 00H
	DB	'=', 00H, ' ', 00H, '8', 00H, 00H, 00H
	ORG $+2
$SG166032 DB	'N', 00H, 'O', 00H, '_', 00H, 'M', 00H, 'E', 00H, 'S', 00H
	DB	'S', 00H, 'A', 00H, 'G', 00H, 'E', 00H, 00H, 00H
	ORG $+2
$SG166033 DB	'TemporaryPushCounterUntilAStackIsAdded ++ < 1', 00H
	ORG $+2
$SG100497 DB	'bad BMP', 00H
$SG166034 DB	'ZenCorePushCurrentDir', 00H
	ORG $+2
$SG166035 DB	'W:\cpp\void\detroit\brazen-core.h', 00H
	ORG $+6
$SG100499 DB	'unknown BMP', 00H
	ORG $+4
$SG166036 DB	'S', 00H, 'e', 00H, 't', 00H, 'C', 00H, 'u', 00H, 'r', 00H
	DB	'r', 00H, 'e', 00H, 'n', 00H, 't', 00H, 'D', 00H, 'i', 00H, 'r'
	DB	00H, 'e', 00H, 'c', 00H, 't', 00H, 'o', 00H, 'r', 00H, 'y', 00H
	DB	'A', 00H, '(', 00H, '%', 00H, 's', 00H, ')', 00H, 00H, 00H
	ORG $+6
$SG166037 DB	'ZenCorePushCurrentDir', 00H
	ORG $+2
$SG166038 DB	'W:\cpp\void\detroit\brazen-core.h', 00H
	ORG $+6
$SG100503 DB	'bad BMP', 00H
$SG100507 DB	'BMP RLE', 00H
$SG166044 DB	'N', 00H, 'O', 00H, '_', 00H, 'M', 00H, 'E', 00H, 'S', 00H
	DB	'S', 00H, 'A', 00H, 'G', 00H, 'E', 00H, 00H, 00H
	ORG $+2
$SG166045 DB	'TemporaryPushCounterUntilAStackIsAdded -- > 0', 00H
	ORG $+2
$SG100509 DB	'BMP JPEG/PNG', 00H
	ORG $+3
$SG166046 DB	'ZenCorePullCurrentDir', 00H
	ORG $+2
$SG166047 DB	'W:\cpp\void\detroit\brazen-core.h', 00H
	ORG $+6
$SG100511 DB	'bad BMP', 00H
$SG166048 DB	'S', 00H, 'e', 00H, 't', 00H, 'C', 00H, 'u', 00H, 'r', 00H
	DB	'r', 00H, 'e', 00H, 'n', 00H, 't', 00H, 'D', 00H, 'i', 00H, 'r'
	DB	00H, 'e', 00H, 'c', 00H, 't', 00H, 'o', 00H, 'r', 00H, 'y', 00H
	DB	'A', 00H, '(', 00H, '%', 00H, 's', 00H, ')', 00H, 00H, 00H
	ORG $+6
$SG166049 DB	'ZenCorePullCurrentDir', 00H
	ORG $+2
$SG166050 DB	'W:\cpp\void\detroit\brazen-core.h', 00H
	ORG $+6
$SG100523 DB	'bad BMP', 00H
$SG100524 DB	'bad BMP', 00H
$SG100526 DB	'bad BMP', 00H
$SG100648 DB	'too large', 00H
	ORG $+6
$SG100650 DB	'too large', 00H
	ORG $+6
$SG100657 DB	'bad offset', 00H
	ORG $+5
$SG100663 DB	'too large', 00H
	ORG $+6
$SG100665 DB	'outofmem', 00H
	ORG $+7
$SG100670 DB	'invalid', 00H
$SG100678 DB	'bad bpp', 00H
$SG100699 DB	'bad masks', 00H
	ORG $+6
$SG100702 DB	'bad masks', 00H
	ORG $+6
$SG84362 DB	'W', 00H, ':', 00H, '\', 00H, 'c', 00H, 'p', 00H, 'p', 00H
	DB	'\', 00H, 'v', 00H, 'o', 00H, 'i', 00H, 'd', 00H, '\', 00H, 'v'
	DB	00H, 'e', 00H, 'n', 00H, 'd', 00H, 'o', 00H, 'r', 00H, '\', 00H
	DB	's', 00H, 't', 00H, 'b', 00H, '\', 00H, 's', 00H, 't', 00H, 'b'
	DB	00H, '.', 00H, 'h', 00H, 00H, 00H
	ORG $+6
$SG84363 DB	's', 00H, 't', 00H, 'r', 00H, 'l', 00H, 'e', 00H, 'n', 00H
	DB	'(', 00H, 'p', 00H, ')', 00H, ' ', 00H, '=', 00H, '=', 00H, ' '
	DB	00H, 's', 00H, 't', 00H, 'r', 00H, 'l', 00H, 'e', 00H, 'n', 00H
	DB	'(', 00H, 's', 00H, 'r', 00H, 'c', 00H, ')', 00H, ' ', 00H, '+'
	DB	00H, ' ', 00H, 'c', 00H, 'o', 00H, 'u', 00H, 'n', 00H, 't', 00H
	DB	'*', 00H, '(', 00H, 'l', 00H, 'e', 00H, 'n', 00H, '_', 00H, 'r'
	DB	00H, 'e', 00H, 'p', 00H, 'l', 00H, 'a', 00H, 'c', 00H, 'e', 00H
	DB	'-', 00H, 'l', 00H, 'e', 00H, 'n', 00H, '_', 00H, 'f', 00H, 'i'
	DB	00H, 'n', 00H, 'd', 00H, ')', 00H, 00H, 00H
$SG84380 DB	'W', 00H, ':', 00H, '\', 00H, 'c', 00H, 'p', 00H, 'p', 00H
	DB	'\', 00H, 'v', 00H, 'o', 00H, 'i', 00H, 'd', 00H, '\', 00H, 'v'
	DB	00H, 'e', 00H, 'n', 00H, 'd', 00H, 'o', 00H, 'r', 00H, '\', 00H
	DB	's', 00H, 't', 00H, 'b', 00H, '\', 00H, 's', 00H, 't', 00H, 'b'
	DB	00H, '.', 00H, 'h', 00H, 00H, 00H
	ORG $+6
$SG84381 DB	'd', 00H, 'e', 00H, 'l', 00H, 't', 00H, 'a', 00H, ' ', 00H
	DB	'<', 00H, '=', 00H, ' ', 00H, '0', 00H, 00H, 00H
	ORG $+2
$SG84427 DB	'W', 00H, ':', 00H, '\', 00H, 'c', 00H, 'p', 00H, 'p', 00H
	DB	'\', 00H, 'v', 00H, 'o', 00H, 'i', 00H, 'd', 00H, '\', 00H, 'v'
	DB	00H, 'e', 00H, 'n', 00H, 'd', 00H, 'o', 00H, 'r', 00H, '\', 00H
	DB	's', 00H, 't', 00H, 'b', 00H, '\', 00H, 's', 00H, 't', 00H, 'b'
	DB	00H, '.', 00H, 'h', 00H, 00H, 00H
	ORG $+6
$SG84428 DB	'r', 00H, '1', 00H, ' ', 00H, '<', 00H, '=', 00H, ' ', 00H
	DB	'n', 00H, '1', 00H, ' ', 00H, '&', 00H, '&', 00H, ' ', 00H, 'r'
	DB	00H, '2', 00H, ' ', 00H, '<', 00H, '=', 00H, ' ', 00H, 'n', 00H
	DB	'2', 00H, 00H, 00H
	ORG $+6
$SG100890 DB	'too large', 00H
	ORG $+6
$SG100892 DB	'too large', 00H
	ORG $+6
$SG100897 DB	'bad format', 00H
	ORG $+5
$SG100900 DB	'too large', 00H
	ORG $+6
$SG100902 DB	'outofmem', 00H
	ORG $+7
$SG100907 DB	'bad palette', 00H
	ORG $+4
$SG100909 DB	'outofmem', 00H
	ORG $+7
$SG100913 DB	't', 00H, 'g', 00H, 'a', 00H, '_', 00H, 'c', 00H, 'o', 00H
	DB	'm', 00H, 'p', 00H, ' ', 00H, '=', 00H, '=', 00H, ' ', 00H, 'S'
	DB	00H, 'T', 00H, 'B', 00H, 'I', 00H, '_', 00H, 'r', 00H, 'g', 00H
	DB	'b', 00H, 00H, 00H
	ORG $+6
$SG100915 DB	'bad palette', 00H
$SG92888 DB	'OTTO', 00H
	ORG $+7
$SG100912 DB	'W', 00H, ':', 00H, '\', 00H, 'c', 00H, 'p', 00H, 'p', 00H
	DB	'\', 00H, 'v', 00H, 'o', 00H, 'i', 00H, 'd', 00H, '\', 00H, 'v'
	DB	00H, 'e', 00H, 'n', 00H, 'd', 00H, 'o', 00H, 'r', 00H, '\', 00H
	DB	's', 00H, 't', 00H, 'b', 00H, '\', 00H, 's', 00H, 't', 00H, 'b'
	DB	00H, '_', 00H, 'i', 00H, 'm', 00H, 'a', 00H, 'g', 00H, 'e', 00H
	DB	'.', 00H, 'h', 00H, 00H, 00H
	ORG $+2
$SG92737 DB	'!', 00H, '(', 00H, 'o', 00H, ' ', 00H, '>', 00H, ' ', 00H
	DB	'b', 00H, '-', 00H, '>', 00H, 's', 00H, 'i', 00H, 'z', 00H, 'e'
	DB	00H, ' ', 00H, '|', 00H, '|', 00H, ' ', 00H, 'o', 00H, ' ', 00H
	DB	'<', 00H, ' ', 00H, '0', 00H, ')', 00H, 00H, 00H
$SG92754 DB	'n', 00H, ' ', 00H, '>', 00H, '=', 00H, ' ', 00H, '1', 00H
	DB	' ', 00H, '&', 00H, '&', 00H, ' ', 00H, 'n', 00H, ' ', 00H, '<'
	DB	00H, '=', 00H, ' ', 00H, '4', 00H, 00H, 00H
	ORG $+6
$SG100927 DB	'W', 00H, ':', 00H, '\', 00H, 'c', 00H, 'p', 00H, 'p', 00H
	DB	'\', 00H, 'v', 00H, 'o', 00H, 'i', 00H, 'd', 00H, '\', 00H, 'v'
	DB	00H, 'e', 00H, 'n', 00H, 'd', 00H, 'o', 00H, 'r', 00H, '\', 00H
	DB	's', 00H, 't', 00H, 'b', 00H, '\', 00H, 's', 00H, 't', 00H, 'b'
	DB	00H, '_', 00H, 'i', 00H, 'm', 00H, 'a', 00H, 'g', 00H, 'e', 00H
	DB	'.', 00H, 'h', 00H, 00H, 00H
	ORG $+2
$SG100928 DB	't', 00H, 'g', 00H, 'a', 00H, '_', 00H, 'c', 00H, 'o', 00H
	DB	'm', 00H, 'p', 00H, ' ', 00H, '=', 00H, '=', 00H, ' ', 00H, 'S'
	DB	00H, 'T', 00H, 'B', 00H, 'I', 00H, '_', 00H, 'r', 00H, 'g', 00H
	DB	'b', 00H, 00H, 00H
	ORG $+6
$SG92765 DB	's', 00H, 'i', 00H, 'z', 00H, 'e', 00H, ' ', 00H, '<', 00H
	DB	' ', 00H, '0', 00H, 'x', 00H, '4', 00H, '0', 00H, '0', 00H, '0'
	DB	00H, '0', 00H, '0', 00H, '0', 00H, '0', 00H, 00H, 00H
	ORG $+4
$SG92736 DB	'W', 00H, ':', 00H, '\', 00H, 'c', 00H, 'p', 00H, 'p', 00H
	DB	'\', 00H, 'v', 00H, 'o', 00H, 'i', 00H, 'd', 00H, '\', 00H, 'v'
	DB	00H, 'e', 00H, 'n', 00H, 'd', 00H, 'o', 00H, 'r', 00H, '\', 00H
	DB	's', 00H, 't', 00H, 'b', 00H, '\', 00H, 's', 00H, 't', 00H, 'b'
	DB	00H, '_', 00H, 't', 00H, 'r', 00H, 'u', 00H, 'e', 00H, 't', 00H
	DB	'y', 00H, 'p', 00H, 'e', 00H, '.', 00H, 'h', 00H, 00H, 00H
	ORG $+4
$SG92753 DB	'W', 00H, ':', 00H, '\', 00H, 'c', 00H, 'p', 00H, 'p', 00H
	DB	'\', 00H, 'v', 00H, 'o', 00H, 'i', 00H, 'd', 00H, '\', 00H, 'v'
	DB	00H, 'e', 00H, 'n', 00H, 'd', 00H, 'o', 00H, 'r', 00H, '\', 00H
	DB	's', 00H, 't', 00H, 'b', 00H, '\', 00H, 's', 00H, 't', 00H, 'b'
	DB	00H, '_', 00H, 't', 00H, 'r', 00H, 'u', 00H, 'e', 00H, 't', 00H
	DB	'y', 00H, 'p', 00H, 'e', 00H, '.', 00H, 'h', 00H, 00H, 00H
	ORG $+4
$SG92764 DB	'W', 00H, ':', 00H, '\', 00H, 'c', 00H, 'p', 00H, 'p', 00H
	DB	'\', 00H, 'v', 00H, 'o', 00H, 'i', 00H, 'd', 00H, '\', 00H, 'v'
	DB	00H, 'e', 00H, 'n', 00H, 'd', 00H, 'o', 00H, 'r', 00H, '\', 00H
	DB	's', 00H, 't', 00H, 'b', 00H, '\', 00H, 's', 00H, 't', 00H, 'b'
	DB	00H, '_', 00H, 't', 00H, 'r', 00H, 'u', 00H, 'e', 00H, 't', 00H
	DB	'y', 00H, 'p', 00H, 'e', 00H, '.', 00H, 'h', 00H, 00H, 00H
	ORG $+4
$SG92785 DB	'W', 00H, ':', 00H, '\', 00H, 'c', 00H, 'p', 00H, 'p', 00H
	DB	'\', 00H, 'v', 00H, 'o', 00H, 'i', 00H, 'd', 00H, '\', 00H, 'v'
	DB	00H, 'e', 00H, 'n', 00H, 'd', 00H, 'o', 00H, 'r', 00H, '\', 00H
	DB	's', 00H, 't', 00H, 'b', 00H, '\', 00H, 's', 00H, 't', 00H, 'b'
	DB	00H, '_', 00H, 't', 00H, 'r', 00H, 'u', 00H, 'e', 00H, 't', 00H
	DB	'y', 00H, 'p', 00H, 'e', 00H, '.', 00H, 'h', 00H, 00H, 00H
	ORG $+4
$SG92786 DB	'o', 00H, 'f', 00H, 'f', 00H, 's', 00H, 'i', 00H, 'z', 00H
	DB	'e', 00H, ' ', 00H, '>', 00H, '=', 00H, ' ', 00H, '1', 00H, ' '
	DB	00H, '&', 00H, '&', 00H, ' ', 00H, 'o', 00H, 'f', 00H, 'f', 00H
	DB	's', 00H, 'i', 00H, 'z', 00H, 'e', 00H, ' ', 00H, '<', 00H, '='
	DB	00H, ' ', 00H, '4', 00H, 00H, 00H
	ORG $+6
$SG92802 DB	'W', 00H, ':', 00H, '\', 00H, 'c', 00H, 'p', 00H, 'p', 00H
	DB	'\', 00H, 'v', 00H, 'o', 00H, 'i', 00H, 'd', 00H, '\', 00H, 'v'
	DB	00H, 'e', 00H, 'n', 00H, 'd', 00H, 'o', 00H, 'r', 00H, '\', 00H
	DB	's', 00H, 't', 00H, 'b', 00H, '\', 00H, 's', 00H, 't', 00H, 'b'
	DB	00H, '_', 00H, 't', 00H, 'r', 00H, 'u', 00H, 'e', 00H, 't', 00H
	DB	'y', 00H, 'p', 00H, 'e', 00H, '.', 00H, 'h', 00H, 00H, 00H
	ORG $+4
$SG92813 DB	'W', 00H, ':', 00H, '\', 00H, 'c', 00H, 'p', 00H, 'p', 00H
	DB	'\', 00H, 'v', 00H, 'o', 00H, 'i', 00H, 'd', 00H, '\', 00H, 'v'
	DB	00H, 'e', 00H, 'n', 00H, 'd', 00H, 'o', 00H, 'r', 00H, '\', 00H
	DB	's', 00H, 't', 00H, 'b', 00H, '\', 00H, 's', 00H, 't', 00H, 'b'
	DB	00H, '_', 00H, 't', 00H, 'r', 00H, 'u', 00H, 'e', 00H, 't', 00H
	DB	'y', 00H, 'p', 00H, 'e', 00H, '.', 00H, 'h', 00H, 00H, 00H
	ORG $+4
$SG92814 DB	'b', 00H, '0', 00H, ' ', 00H, '>', 00H, '=', 00H, ' ', 00H
	DB	'2', 00H, '8', 00H, 00H, 00H
	ORG $+6
$SG84637 DB	'W', 00H, ':', 00H, '\', 00H, 'c', 00H, 'p', 00H, 'p', 00H
	DB	'\', 00H, 'v', 00H, 'o', 00H, 'i', 00H, 'd', 00H, '\', 00H, 'v'
	DB	00H, 'e', 00H, 'n', 00H, 'd', 00H, 'o', 00H, 'r', 00H, '\', 00H
	DB	's', 00H, 't', 00H, 'b', 00H, '\', 00H, 's', 00H, 't', 00H, 'b'
	DB	00H, '.', 00H, 'h', 00H, 00H, 00H
	ORG $+6
$SG84665 DB	'W', 00H, ':', 00H, '\', 00H, 'c', 00H, 'p', 00H, 'p', 00H
	DB	'\', 00H, 'v', 00H, 'o', 00H, 'i', 00H, 'd', 00H, '\', 00H, 'v'
	DB	00H, 'e', 00H, 'n', 00H, 'd', 00H, 'o', 00H, 'r', 00H, '\', 00H
	DB	's', 00H, 't', 00H, 'b', 00H, '\', 00H, 's', 00H, 't', 00H, 'b'
	DB	00H, '.', 00H, 'h', 00H, 00H, 00H
	ORG $+6
$SG84666 DB	'*', 00H, 'n', 00H, '-', 00H, '>', 00H, 'p', 00H, 'r', 00H
	DB	'e', 00H, 'v', 00H, 'n', 00H, ' ', 00H, '=', 00H, '=', 00H, ' '
	DB	00H, 'p', 00H, 00H, 00H
	ORG $+2
$SG84668 DB	'W', 00H, ':', 00H, '\', 00H, 'c', 00H, 'p', 00H, 'p', 00H
	DB	'\', 00H, 'v', 00H, 'o', 00H, 'i', 00H, 'd', 00H, '\', 00H, 'v'
	DB	00H, 'e', 00H, 'n', 00H, 'd', 00H, 'o', 00H, 'r', 00H, '\', 00H
	DB	's', 00H, 't', 00H, 'b', 00H, '\', 00H, 's', 00H, 't', 00H, 'b'
	DB	00H, '.', 00H, 'h', 00H, 00H, 00H
	ORG $+6
$SG92863 DB	'i', 00H, ' ', 00H, '>', 00H, '=', 00H, ' ', 00H, '0', 00H
	DB	' ', 00H, '&', 00H, '&', 00H, ' ', 00H, 'i', 00H, ' ', 00H, '<'
	DB	00H, ' ', 00H, 'c', 00H, 'o', 00H, 'u', 00H, 'n', 00H, 't', 00H
	DB	00H, 00H
$SG84669 DB	'*', 00H, 's', 00H, 't', 00H, 'b', 00H, '_', 00H, '_', 00H
	DB	'p', 00H, 'r', 00H, 'e', 00H, 'v', 00H, 'n', 00H, '(', 00H, 'n'
	DB	00H, '-', 00H, '>', 00H, 'n', 00H, 'e', 00H, 'x', 00H, 't', 00H
	DB	')', 00H, ' ', 00H, '=', 00H, '=', 00H, ' ', 00H, '&', 00H, 'n'
	DB	00H, '-', 00H, '>', 00H, 'n', 00H, 'e', 00H, 'x', 00H, 't', 00H
	DB	00H, 00H
	ORG $+6
$SG84673 DB	'*', 00H, 's', 00H, '-', 00H, '>', 00H, 'p', 00H, 'r', 00H
	DB	'e', 00H, 'v', 00H, 'n', 00H, ' ', 00H, '=', 00H, '=', 00H, ' '
	DB	00H, 'p', 00H, 00H, 00H
	ORG $+2
$SG101061 DB	'not PSD', 00H
$SG92862 DB	'W', 00H, ':', 00H, '\', 00H, 'c', 00H, 'p', 00H, 'p', 00H
	DB	'\', 00H, 'v', 00H, 'o', 00H, 'i', 00H, 'd', 00H, '\', 00H, 'v'
	DB	00H, 'e', 00H, 'n', 00H, 'd', 00H, 'o', 00H, 'r', 00H, '\', 00H
	DB	's', 00H, 't', 00H, 'b', 00H, '\', 00H, 's', 00H, 't', 00H, 'b'
	DB	00H, '_', 00H, 't', 00H, 'r', 00H, 'u', 00H, 'e', 00H, 't', 00H
	DB	'y', 00H, 'p', 00H, 'e', 00H, '.', 00H, 'h', 00H, 00H, 00H
	ORG $+4
$SG92864 DB	'W', 00H, ':', 00H, '\', 00H, 'c', 00H, 'p', 00H, 'p', 00H
	DB	'\', 00H, 'v', 00H, 'o', 00H, 'i', 00H, 'd', 00H, '\', 00H, 'v'
	DB	00H, 'e', 00H, 'n', 00H, 'd', 00H, 'o', 00H, 'r', 00H, '\', 00H
	DB	's', 00H, 't', 00H, 'b', 00H, '\', 00H, 's', 00H, 't', 00H, 'b'
	DB	00H, '_', 00H, 't', 00H, 'r', 00H, 'u', 00H, 'e', 00H, 't', 00H
	DB	'y', 00H, 'p', 00H, 'e', 00H, '.', 00H, 'h', 00H, 00H, 00H
	ORG $+4
$SG84672 DB	'W', 00H, ':', 00H, '\', 00H, 'c', 00H, 'p', 00H, 'p', 00H
	DB	'\', 00H, 'v', 00H, 'o', 00H, 'i', 00H, 'd', 00H, '\', 00H, 'v'
	DB	00H, 'e', 00H, 'n', 00H, 'd', 00H, 'o', 00H, 'r', 00H, '\', 00H
	DB	's', 00H, 't', 00H, 'b', 00H, '\', 00H, 's', 00H, 't', 00H, 'b'
	DB	00H, '.', 00H, 'h', 00H, 00H, 00H
	ORG $+6
$SG92865 DB	'o', 00H, 'f', 00H, 'f', 00H, 's', 00H, 'i', 00H, 'z', 00H
	DB	'e', 00H, ' ', 00H, '>', 00H, '=', 00H, ' ', 00H, '1', 00H, ' '
	DB	00H, '&', 00H, '&', 00H, ' ', 00H, 'o', 00H, 'f', 00H, 'f', 00H
	DB	's', 00H, 'i', 00H, 'z', 00H, 'e', 00H, ' ', 00H, '<', 00H, '='
	DB	00H, ' ', 00H, '4', 00H, 00H, 00H
	ORG $+6
$SG84675 DB	'W', 00H, ':', 00H, '\', 00H, 'c', 00H, 'p', 00H, 'p', 00H
	DB	'\', 00H, 'v', 00H, 'o', 00H, 'i', 00H, 'd', 00H, '\', 00H, 'v'
	DB	00H, 'e', 00H, 'n', 00H, 'd', 00H, 'o', 00H, 'r', 00H, '\', 00H
	DB	's', 00H, 't', 00H, 'b', 00H, '\', 00H, 's', 00H, 't', 00H, 'b'
	DB	00H, '.', 00H, 'h', 00H, 00H, 00H
	ORG $+6
$SG84676 DB	'*', 00H, 's', 00H, 't', 00H, 'b', 00H, '_', 00H, '_', 00H
	DB	'p', 00H, 'r', 00H, 'e', 00H, 'v', 00H, 'n', 00H, '(', 00H, 's'
	DB	00H, '-', 00H, '>', 00H, 'c', 00H, 'h', 00H, 'i', 00H, 'l', 00H
	DB	'd', 00H, ')', 00H, ' ', 00H, '=', 00H, '=', 00H, ' ', 00H, '&'
	DB	00H, 's', 00H, '-', 00H, '>', 00H, 'c', 00H, 'h', 00H, 'i', 00H
	DB	'l', 00H, 'd', 00H, 00H, 00H
	ORG $+2
$SG84678 DB	'W', 00H, ':', 00H, '\', 00H, 'c', 00H, 'p', 00H, 'p', 00H
	DB	'\', 00H, 'v', 00H, 'o', 00H, 'i', 00H, 'd', 00H, '\', 00H, 'v'
	DB	00H, 'e', 00H, 'n', 00H, 'd', 00H, 'o', 00H, 'r', 00H, '\', 00H
	DB	's', 00H, 't', 00H, 'b', 00H, '\', 00H, 's', 00H, 't', 00H, 'b'
	DB	00H, '.', 00H, 'h', 00H, 00H, 00H
	ORG $+6
$SG101063 DB	'wrong version', 00H
	ORG $+2
$SG101066 DB	'wrong channel count', 00H
	ORG $+4
$SG84679 DB	'*', 00H, 's', 00H, 't', 00H, 'b', 00H, '_', 00H, '_', 00H
	DB	'p', 00H, 'r', 00H, 'e', 00H, 'v', 00H, 'n', 00H, '(', 00H, 's'
	DB	00H, '-', 00H, '>', 00H, 'n', 00H, 'e', 00H, 'x', 00H, 't', 00H
	DB	')', 00H, ' ', 00H, '=', 00H, '=', 00H, ' ', 00H, '&', 00H, 's'
	DB	00H, '-', 00H, '>', 00H, 'n', 00H, 'e', 00H, 'x', 00H, 't', 00H
	DB	00H, 00H
	ORG $+6
$SG84681 DB	'W', 00H, ':', 00H, '\', 00H, 'c', 00H, 'p', 00H, 'p', 00H
	DB	'\', 00H, 'v', 00H, 'o', 00H, 'i', 00H, 'd', 00H, '\', 00H, 'v'
	DB	00H, 'e', 00H, 'n', 00H, 'd', 00H, 'o', 00H, 'r', 00H, '\', 00H
	DB	's', 00H, 't', 00H, 'b', 00H, '\', 00H, 's', 00H, 't', 00H, 'b'
	DB	00H, '.', 00H, 'h', 00H, 00H, 00H
	ORG $+6
$SG101068 DB	'too large', 00H
	ORG $+6
$SG101070 DB	'too large', 00H
	ORG $+6
$SG101072 DB	'unsupported bit depth', 00H
	ORG $+2
$SG101074 DB	'wrong color format', 00H
	ORG $+5
$SG101076 DB	'bad compression', 00H
$SG101078 DB	'too large', 00H
	ORG $+2
$SG92889 DB	'OTTO', 00H
	ORG $+7
$SG101082 DB	'outofmem', 00H
	ORG $+3
$SG92890 DB	'OTTO', 00H
	ORG $+3
$SG92891 DB	'OTTO', 00H
	ORG $+7
$SG84700 DB	'W', 00H, ':', 00H, '\', 00H, 'c', 00H, 'p', 00H, 'p', 00H
	DB	'\', 00H, 'v', 00H, 'o', 00H, 'i', 00H, 'd', 00H, '\', 00H, 'v'
	DB	00H, 'e', 00H, 'n', 00H, 'd', 00H, 'o', 00H, 'r', 00H, '\', 00H
	DB	's', 00H, 't', 00H, 'b', 00H, '\', 00H, 's', 00H, 't', 00H, 'b'
	DB	00H, '.', 00H, 'h', 00H, 00H, 00H
	ORG $+6
$SG84701 DB	'(', 00H, '(', 00H, 's', 00H, 't', 00H, 'b', 00H, '_', 00H
	DB	'u', 00H, 'i', 00H, 'n', 00H, 't', 00H, 'a', 00H, ')', 00H, ' '
	DB	00H, '(', 00H, 'm', 00H, 'e', 00H, 'm', 00H, 'b', 00H, 'l', 00H
	DB	'o', 00H, 'c', 00H, 'k', 00H, '+', 00H, 's', 00H, 't', 00H, 'a'
	DB	00H, 'r', 00H, 't', 00H, '_', 00H, 'o', 00H, 'f', 00H, 'f', 00H
	DB	's', 00H, 'e', 00H, 't', 00H, ')', 00H, ' ', 00H, '&', 00H, ' '
	DB	00H, '(', 00H, 'a', 00H, 'l', 00H, 'i', 00H, 'g', 00H, 'n', 00H
	DB	'-', 00H, '1', 00H, ')', 00H, ')', 00H, ' ', 00H, '=', 00H, '='
	DB	00H, ' ', 00H, '0', 00H, 00H, 00H
	ORG $+2
$SG92894 DB	'true', 00H
	ORG $+3
$SG92895 DB	'true', 00H
	ORG $+3
$SG101088 DB	'corrupt', 00H
$SG92896 DB	'true', 00H
	ORG $+3
$SG92897 DB	'true', 00H
	ORG $+3
$SG92918 DB	'ttcf', 00H
	ORG $+3
$SG92919 DB	'ttcf', 00H
	ORG $+3
$SG92920 DB	'ttcf', 00H
	ORG $+3
$SG92921 DB	'ttcf', 00H
	ORG $+3
$SG92930 DB	'ttcf', 00H
	ORG $+3
$SG92931 DB	'ttcf', 00H
	ORG $+3
$SG92932 DB	'ttcf', 00H
	ORG $+3
$SG101125 DB	'S', 080H, 0f6H, '4', 00H
	ORG $+3
$SG92933 DB	'ttcf', 00H
	ORG $+3
$SG101127 DB	'PICT', 00H
	ORG $+3
$SG84746 DB	'W', 00H, ':', 00H, '\', 00H, 'c', 00H, 'p', 00H, 'p', 00H
	DB	'\', 00H, 'v', 00H, 'o', 00H, 'i', 00H, 'd', 00H, '\', 00H, 'v'
	DB	00H, 'e', 00H, 'n', 00H, 'd', 00H, 'o', 00H, 'r', 00H, '\', 00H
	DB	's', 00H, 't', 00H, 'b', 00H, '\', 00H, 's', 00H, 't', 00H, 'b'
	DB	00H, '.', 00H, 'h', 00H, 00H, 00H
	ORG $+6
$SG84747 DB	's', 00H, 'i', 00H, 'z', 00H, 'e', 00H, 'o', 00H, 'f', 00H
	DB	'(', 00H, '*', 00H, 'n', 00H, ')', 00H, ' ', 00H, '+', 00H, ' '
	DB	00H, 'p', 00H, 'r', 00H, 'e', 00H, '_', 00H, 'a', 00H, 'l', 00H
	DB	'i', 00H, 'g', 00H, 'n', 00H, ' ', 00H, '<', 00H, '=', 00H, ' '
	DB	00H, '1', 00H, '6', 00H, 00H, 00H
	ORG $+2
$SG92956 DB	'SVG ', 00H
	ORG $+7
$SG101157 DB	'bad file', 00H
	ORG $+3
$SG93000 DB	'cmap', 00H
	ORG $+3
$SG93001 DB	'loca', 00H
	ORG $+3
$SG93002 DB	'head', 00H
	ORG $+3
$SG93003 DB	'glyf', 00H
	ORG $+3
$SG93004 DB	'hhea', 00H
	ORG $+3
$SG93005 DB	'hmtx', 00H
	ORG $+3
$SG93006 DB	'kern', 00H
	ORG $+7
$SG84814 DB	'W', 00H, ':', 00H, '\', 00H, 'c', 00H, 'p', 00H, 'p', 00H
	DB	'\', 00H, 'v', 00H, 'o', 00H, 'i', 00H, 'd', 00H, '\', 00H, 'v'
	DB	00H, 'e', 00H, 'n', 00H, 'd', 00H, 'o', 00H, 'r', 00H, '\', 00H
	DB	's', 00H, 't', 00H, 'b', 00H, '\', 00H, 's', 00H, 't', 00H, 'b'
	DB	00H, '.', 00H, 'h', 00H, 00H, 00H
	ORG $+2
$SG93007 DB	'GPOS', 00H
	ORG $+7
$SG84815 DB	's', 00H, 't', 00H, 'b', 00H, '_', 00H, 'i', 00H, 's', 00H
	DB	'_', 00H, 'p', 00H, 'o', 00H, 'w', 00H, '2', 00H, '(', 00H, 'a'
	DB	00H, 'l', 00H, 'i', 00H, 'g', 00H, 'n', 00H, ')', 00H, 00H, 00H
	ORG $+2
$SG93013 DB	'CFF ', 00H
	ORG $+3
$SG93019 DB	'maxp', 00H
	ORG $+3
$SG84827 DB	'W', 00H, ':', 00H, '\', 00H, 'c', 00H, 'p', 00H, 'p', 00H
	DB	'\', 00H, 'v', 00H, 'o', 00H, 'i', 00H, 'd', 00H, '\', 00H, 'v'
	DB	00H, 'e', 00H, 'n', 00H, 'd', 00H, 'o', 00H, 'r', 00H, '\', 00H
	DB	's', 00H, 't', 00H, 'b', 00H, '\', 00H, 's', 00H, 't', 00H, 'b'
	DB	00H, '.', 00H, 'h', 00H, 00H, 00H
	ORG $+6
$SG101239 DB	'bad format', 00H
	ORG $+5
$SG101241 DB	'bad file', 00H
	ORG $+7
$SG101243 DB	'bad format', 00H
	ORG $+5
$SG101245 DB	'bad format', 00H
	ORG $+5
$SG101250 DB	'bad file', 00H
	ORG $+7
$SG84868 DB	'W', 00H, ':', 00H, '\', 00H, 'c', 00H, 'p', 00H, 'p', 00H
	DB	'\', 00H, 'v', 00H, 'o', 00H, 'i', 00H, 'd', 00H, '\', 00H, 'v'
	DB	00H, 'e', 00H, 'n', 00H, 'd', 00H, 'o', 00H, 'r', 00H, '\', 00H
	DB	's', 00H, 't', 00H, 'b', 00H, '\', 00H, 's', 00H, 't', 00H, 'b'
	DB	00H, '.', 00H, 'h', 00H, 00H, 00H
	ORG $+6
$SG93125 DB	'!', 00H, 'i', 00H, 'n', 00H, 'f', 00H, 'o', 00H, '-', 00H
	DB	'>', 00H, 'c', 00H, 'f', 00H, 'f', 00H, '.', 00H, 's', 00H, 'i'
	DB	00H, 'z', 00H, 'e', 00H, 00H, 00H
$SG101394 DB	'not GIF', 00H
$SG84869 DB	't', 00H, ' ', 00H, '=', 00H, '=', 00H, ' ', 00H, 'S', 00H
	DB	'T', 00H, 'B', 00H, '_', 00H, '_', 00H, 'a', 00H, 'l', 00H, 'l'
	DB	00H, 'o', 00H, 'c', 00H, ' ', 00H, '|', 00H, '|', 00H, ' ', 00H
	DB	't', 00H, ' ', 00H, '=', 00H, '=', 00H, ' ', 00H, 'S', 00H, 'T'
	DB	00H, 'B', 00H, '_', 00H, '_', 00H, 'n', 00H, 'o', 00H, 'c', 00H
	DB	'h', 00H, 'i', 00H, 'l', 00H, 'd', 00H, 'r', 00H, 'e', 00H, 'n'
	DB	00H, 00H, 00H
$SG101255 DB	'bad file', 00H
	ORG $+7
$SG101261 DB	'bad file', 00H
	ORG $+7
$SG101264 DB	'bad file', 00H
	ORG $+7
$SG93079 DB	'W', 00H, ':', 00H, '\', 00H, 'c', 00H, 'p', 00H, 'p', 00H
	DB	'\', 00H, 'v', 00H, 'o', 00H, 'i', 00H, 'd', 00H, '\', 00H, 'v'
	DB	00H, 'e', 00H, 'n', 00H, 'd', 00H, 'o', 00H, 'r', 00H, '\', 00H
	DB	's', 00H, 't', 00H, 'b', 00H, '\', 00H, 's', 00H, 't', 00H, 'b'
	DB	00H, '_', 00H, 't', 00H, 'r', 00H, 'u', 00H, 'e', 00H, 't', 00H
	DB	'y', 00H, 'p', 00H, 'e', 00H, '.', 00H, 'h', 00H, 00H, 00H
	ORG $+4
$SG84896 DB	'W', 00H, ':', 00H, '\', 00H, 'c', 00H, 'p', 00H, 'p', 00H
	DB	'\', 00H, 'v', 00H, 'o', 00H, 'i', 00H, 'd', 00H, '\', 00H, 'v'
	DB	00H, 'e', 00H, 'n', 00H, 'd', 00H, 'o', 00H, 'r', 00H, '\', 00H
	DB	's', 00H, 't', 00H, 'b', 00H, '\', 00H, 's', 00H, 't', 00H, 'b'
	DB	00H, '.', 00H, 'h', 00H, 00H, 00H
	ORG $+6
$SG84897 DB	't', 00H, ' ', 00H, '=', 00H, '=', 00H, ' ', 00H, 'S', 00H
	DB	'T', 00H, 'B', 00H, '_', 00H, '_', 00H, 'a', 00H, 'l', 00H, 'l'
	DB	00H, 'o', 00H, 'c', 00H, ' ', 00H, '|', 00H, '|', 00H, ' ', 00H
	DB	't', 00H, ' ', 00H, '=', 00H, '=', 00H, ' ', 00H, 'S', 00H, 'T'
	DB	00H, 'B', 00H, '_', 00H, '_', 00H, 'n', 00H, 'o', 00H, 'c', 00H
	DB	'h', 00H, 'i', 00H, 'l', 00H, 'd', 00H, 'r', 00H, 'e', 00H, 'n'
	DB	00H, 00H, 00H
$SG93097 DB	'W', 00H, ':', 00H, '\', 00H, 'c', 00H, 'p', 00H, 'p', 00H
	DB	'\', 00H, 'v', 00H, 'o', 00H, 'i', 00H, 'd', 00H, '\', 00H, 'v'
	DB	00H, 'e', 00H, 'n', 00H, 'd', 00H, 'o', 00H, 'r', 00H, '\', 00H
	DB	's', 00H, 't', 00H, 'b', 00H, '\', 00H, 's', 00H, 't', 00H, 'b'
	DB	00H, '_', 00H, 't', 00H, 'r', 00H, 'u', 00H, 'e', 00H, 't', 00H
	DB	'y', 00H, 'p', 00H, 'e', 00H, '.', 00H, 'h', 00H, 00H, 00H
	ORG $+4
$SG101296 DB	'too large', 00H
	ORG $+6
$SG101298 DB	'too large', 00H
	ORG $+6
$SG101300 DB	'bad file', 00H
	ORG $+7
$SG101302 DB	'too large', 00H
	ORG $+6
$SG101304 DB	'outofmem', 00H
	ORG $+7
$SG93124 DB	'W', 00H, ':', 00H, '\', 00H, 'c', 00H, 'p', 00H, 'p', 00H
	DB	'\', 00H, 'v', 00H, 'o', 00H, 'i', 00H, 'd', 00H, '\', 00H, 'v'
	DB	00H, 'e', 00H, 'n', 00H, 'd', 00H, 'o', 00H, 'r', 00H, '\', 00H
	DB	's', 00H, 't', 00H, 'b', 00H, '\', 00H, 's', 00H, 't', 00H, 'b'
	DB	00H, '_', 00H, 't', 00H, 'r', 00H, 'u', 00H, 'e', 00H, 't', 00H
	DB	'y', 00H, 'p', 00H, 'e', 00H, '.', 00H, 'h', 00H, 00H, 00H
	ORG $+4
$SG84979 DB	'W', 00H, ':', 00H, '\', 00H, 'c', 00H, 'p', 00H, 'p', 00H
	DB	'\', 00H, 'v', 00H, 'o', 00H, 'i', 00H, 'd', 00H, '\', 00H, 'v'
	DB	00H, 'e', 00H, 'n', 00H, 'd', 00H, 'o', 00H, 'r', 00H, '\', 00H
	DB	's', 00H, 't', 00H, 'b', 00H, '\', 00H, 's', 00H, 't', 00H, 'b'
	DB	00H, '.', 00H, 'h', 00H, 00H, 00H
	ORG $+6
$SG84980 DB	'!', 00H, 'p', 00H, ' ', 00H, '|', 00H, '|', 00H, ' ', 00H
	DB	's', 00H, 't', 00H, 'b', 00H, '_', 00H, 'a', 00H, 'r', 00H, 'r'
	DB	00H, 'h', 00H, 'e', 00H, 'a', 00H, 'd', 00H, '2', 00H, '(', 00H
	DB	'p', 00H, ')', 00H, '-', 00H, '>', 00H, 's', 00H, 'i', 00H, 'g'
	DB	00H, 'n', 00H, 'a', 00H, 't', 00H, 'u', 00H, 'r', 00H, 'e', 00H
	DB	' ', 00H, '=', 00H, '=', 00H, ' ', 00H, 's', 00H, 't', 00H, 'b'
	DB	00H, '_', 00H, 'a', 00H, 'r', 00H, 'r', 00H, '_', 00H, 's', 00H
	DB	'i', 00H, 'g', 00H, 'n', 00H, 'a', 00H, 't', 00H, 'u', 00H, 'r'
	DB	00H, 'e', 00H, 00H, 00H
	ORG $+4
$SG84990 DB	'W', 00H, ':', 00H, '\', 00H, 'c', 00H, 'p', 00H, 'p', 00H
	DB	'\', 00H, 'v', 00H, 'o', 00H, 'i', 00H, 'd', 00H, '\', 00H, 'v'
	DB	00H, 'e', 00H, 'n', 00H, 'd', 00H, 'o', 00H, 'r', 00H, '\', 00H
	DB	's', 00H, 't', 00H, 'b', 00H, '\', 00H, 's', 00H, 't', 00H, 'b'
	DB	00H, '.', 00H, 'h', 00H, 00H, 00H
	ORG $+6
$SG84991 DB	'!', 00H, 'p', 00H, ' ', 00H, '|', 00H, '|', 00H, ' ', 00H
	DB	's', 00H, 't', 00H, 'b', 00H, '_', 00H, 'a', 00H, 'r', 00H, 'r'
	DB	00H, 'h', 00H, 'e', 00H, 'a', 00H, 'd', 00H, '2', 00H, '(', 00H
	DB	'p', 00H, ')', 00H, '-', 00H, '>', 00H, 's', 00H, 'i', 00H, 'g'
	DB	00H, 'n', 00H, 'a', 00H, 't', 00H, 'u', 00H, 'r', 00H, 'e', 00H
	DB	' ', 00H, '=', 00H, '=', 00H, ' ', 00H, 's', 00H, 't', 00H, 'b'
	DB	00H, '_', 00H, 'a', 00H, 'r', 00H, 'r', 00H, '_', 00H, 's', 00H
	DB	'i', 00H, 'g', 00H, 'n', 00H, 'a', 00H, 't', 00H, 'u', 00H, 'r'
	DB	00H, 'e', 00H, 00H, 00H
	ORG $+4
$SG85010 DB	'W', 00H, ':', 00H, '\', 00H, 'c', 00H, 'p', 00H, 'p', 00H
	DB	'\', 00H, 'v', 00H, 'o', 00H, 'i', 00H, 'd', 00H, '\', 00H, 'v'
	DB	00H, 'e', 00H, 'n', 00H, 'd', 00H, 'o', 00H, 'r', 00H, '\', 00H
	DB	's', 00H, 't', 00H, 'b', 00H, '\', 00H, 's', 00H, 't', 00H, 'b'
	DB	00H, '.', 00H, 'h', 00H, 00H, 00H
	ORG $+6
$SG85011 DB	'!', 00H, 'p', 00H, ' ', 00H, '|', 00H, '|', 00H, ' ', 00H
	DB	's', 00H, 't', 00H, 'b', 00H, '_', 00H, 'a', 00H, 'r', 00H, 'r'
	DB	00H, 'h', 00H, 'e', 00H, 'a', 00H, 'd', 00H, '2', 00H, '(', 00H
	DB	'p', 00H, ')', 00H, '-', 00H, '>', 00H, 's', 00H, 'i', 00H, 'g'
	DB	00H, 'n', 00H, 'a', 00H, 't', 00H, 'u', 00H, 'r', 00H, 'e', 00H
	DB	' ', 00H, '=', 00H, '=', 00H, ' ', 00H, 's', 00H, 't', 00H, 'b'
	DB	00H, '_', 00H, 'a', 00H, 'r', 00H, 'r', 00H, '_', 00H, 's', 00H
	DB	'i', 00H, 'g', 00H, 'n', 00H, 'a', 00H, 't', 00H, 'u', 00H, 'r'
	DB	00H, 'e', 00H, 00H, 00H
	ORG $+4
$SG101396 DB	'not GIF', 00H
$SG101398 DB	'not GIF', 00H
$SG101401 DB	'too large', 00H
	ORG $+6
$SG101403 DB	'too large', 00H
	ORG $+6
$SG85032 DB	'W', 00H, ':', 00H, '\', 00H, 'c', 00H, 'p', 00H, 'p', 00H
	DB	'\', 00H, 'v', 00H, 'o', 00H, 'i', 00H, 'd', 00H, '\', 00H, 'v'
	DB	00H, 'e', 00H, 'n', 00H, 'd', 00H, 'o', 00H, 'r', 00H, '\', 00H
	DB	's', 00H, 't', 00H, 'b', 00H, '\', 00H, 's', 00H, 't', 00H, 'b'
	DB	00H, '.', 00H, 'h', 00H, 00H, 00H
	ORG $+6
$SG101417 DB	'outofmem', 00H
	ORG $+7
$SG85033 DB	'!', 00H, 'p', 00H, ' ', 00H, '|', 00H, '|', 00H, ' ', 00H
	DB	's', 00H, 't', 00H, 'b', 00H, '_', 00H, 'a', 00H, 'r', 00H, 'r'
	DB	00H, 'h', 00H, 'e', 00H, 'a', 00H, 'd', 00H, '2', 00H, '(', 00H
	DB	'p', 00H, ')', 00H, '-', 00H, '>', 00H, 's', 00H, 'i', 00H, 'g'
	DB	00H, 'n', 00H, 'a', 00H, 't', 00H, 'u', 00H, 'r', 00H, 'e', 00H
	DB	' ', 00H, '=', 00H, '=', 00H, ' ', 00H, 's', 00H, 't', 00H, 'b'
	DB	00H, '_', 00H, 'a', 00H, 'r', 00H, 'r', 00H, '_', 00H, 's', 00H
	DB	'i', 00H, 'g', 00H, 'n', 00H, 'a', 00H, 't', 00H, 'u', 00H, 'r'
	DB	00H, 'e', 00H, 00H, 00H
	ORG $+4
$SG85045 DB	'W', 00H, ':', 00H, '\', 00H, 'c', 00H, 'p', 00H, 'p', 00H
	DB	'\', 00H, 'v', 00H, 'o', 00H, 'i', 00H, 'd', 00H, '\', 00H, 'v'
	DB	00H, 'e', 00H, 'n', 00H, 'd', 00H, 'o', 00H, 'r', 00H, '\', 00H
	DB	's', 00H, 't', 00H, 'b', 00H, '\', 00H, 's', 00H, 't', 00H, 'b'
	DB	00H, '.', 00H, 'h', 00H, 00H, 00H
	ORG $+6
$SG85046 DB	'!', 00H, 'p', 00H, ' ', 00H, '|', 00H, '|', 00H, ' ', 00H
	DB	's', 00H, 't', 00H, 'b', 00H, '_', 00H, 'a', 00H, 'r', 00H, 'r'
	DB	00H, 'h', 00H, 'e', 00H, 'a', 00H, 'd', 00H, '2', 00H, '(', 00H
	DB	'p', 00H, ')', 00H, '-', 00H, '>', 00H, 's', 00H, 'i', 00H, 'g'
	DB	00H, 'n', 00H, 'a', 00H, 't', 00H, 'u', 00H, 'r', 00H, 'e', 00H
	DB	' ', 00H, '=', 00H, '=', 00H, ' ', 00H, 's', 00H, 't', 00H, 'b'
	DB	00H, '_', 00H, 'a', 00H, 'r', 00H, 'r', 00H, '_', 00H, 's', 00H
	DB	'i', 00H, 'g', 00H, 'n', 00H, 'a', 00H, 't', 00H, 'u', 00H, 'r'
	DB	00H, 'e', 00H, 00H, 00H
	ORG $+4
$SG101484 DB	'no clear code', 00H
	ORG $+2
$SG101488 DB	'too many codes', 00H
	ORG $+1
$SG101490 DB	'illegal code in raster', 00H
	ORG $+1
$SG101492 DB	'illegal code in raster', 00H
	ORG $+1
$SG93312 DB	'W', 00H, ':', 00H, '\', 00H, 'c', 00H, 'p', 00H, 'p', 00H
	DB	'\', 00H, 'v', 00H, 'o', 00H, 'i', 00H, 'd', 00H, '\', 00H, 'v'
	DB	00H, 'e', 00H, 'n', 00H, 'd', 00H, 'o', 00H, 'r', 00H, '\', 00H
	DB	's', 00H, 't', 00H, 'b', 00H, '\', 00H, 's', 00H, 't', 00H, 'b'
	DB	00H, '_', 00H, 't', 00H, 'r', 00H, 'u', 00H, 'e', 00H, 't', 00H
	DB	'y', 00H, 'p', 00H, 'e', 00H, '.', 00H, 'h', 00H, 00H, 00H
	ORG $+4
$SG101549 DB	'too large', 00H
	ORG $+6
$SG101552 DB	'outofmem', 00H
	ORG $+7
$SG101563 DB	'bad Image Descriptor', 00H
	ORG $+3
$SG101571 DB	'missing color table', 00H
	ORG $+4
$SG101585 DB	'unknown code', 00H
	ORG $+3
$SG101595 DB	'outofmem', 00H
	ORG $+7
$SG101649 DB	'not GIF', 00H
$SG101686 DB	'#?RADIANCE', 0aH, 00H
	ORG $+4
$SG101688 DB	'#?RGBE', 0aH, 00H
$SG93615 DB	'W', 00H, ':', 00H, '\', 00H, 'c', 00H, 'p', 00H, 'p', 00H
	DB	'\', 00H, 'v', 00H, 'o', 00H, 'i', 00H, 'd', 00H, '\', 00H, 'v'
	DB	00H, 'e', 00H, 'n', 00H, 'd', 00H, 'o', 00H, 'r', 00H, '\', 00H
	DB	's', 00H, 't', 00H, 'b', 00H, '\', 00H, 's', 00H, 't', 00H, 'b'
	DB	00H, '_', 00H, 't', 00H, 'r', 00H, 'u', 00H, 'e', 00H, 't', 00H
	DB	'y', 00H, 'p', 00H, 'e', 00H, '.', 00H, 'h', 00H, 00H, 00H
	ORG $+4
$SG93616 DB	'o', 00H, 'u', 00H, 't', 00H, 'p', 00H, 'u', 00H, 't', 00H
	DB	'_', 00H, 'c', 00H, 't', 00H, 'x', 00H, '.', 00H, 'n', 00H, 'u'
	DB	00H, 'm', 00H, '_', 00H, 'v', 00H, 'e', 00H, 'r', 00H, 't', 00H
	DB	'i', 00H, 'c', 00H, 'e', 00H, 's', 00H, ' ', 00H, '=', 00H, '='
	DB	00H, ' ', 00H, 'c', 00H, 'o', 00H, 'u', 00H, 'n', 00H, 't', 00H
	DB	'_', 00H, 'c', 00H, 't', 00H, 'x', 00H, '.', 00H, 'n', 00H, 'u'
	DB	00H, 'm', 00H, '_', 00H, 'v', 00H, 'e', 00H, 'r', 00H, 't', 00H
	DB	'i', 00H, 'c', 00H, 'e', 00H, 's', 00H, 00H, 00H
	ORG $+4
$SG167351 DB	'm', 00H, 'o', 00H, 'd', 00H, 'e', 00H, 'l', 00H, ' ', 00H
	DB	'f', 00H, 'i', 00H, 'l', 00H, 'e', 00H, ' ', 00H, 'n', 00H, 'o'
	DB	00H, 't', 00H, ' ', 00H, 'f', 00H, 'o', 00H, 'u', 00H, 'n', 00H
	DB	'd', 00H, 00H, 00H
	ORG $+6
$SG101815 DB	'#?RADIANCE', 00H
	ORG $+5
$SG167352 DB	'LoadModel', 00H
	ORG $+6
$SG167353 DB	'W:\cpp\void\detroit\detroit-asset.c', 00H
	ORG $+4
$SG101817 DB	'not HDR', 00H
$SG101820 DB	'FORMAT=32-bit_rle_rgbe', 00H
	ORG $+1
$SG101822 DB	'unsupported format', 00H
	ORG $+5
$SG101825 DB	'unsupported data layout', 00H
$SG167361 DB	'%', 00H, 's', 00H, '(', 00H, '%', 00H, 'i', 00H, ')', 00H
	DB	':', 00H, ' ', 00H, 'E', 00H, 'x', 00H, 'p', 00H, 'e', 00H, 'c'
	DB	00H, 't', 00H, 'e', 00H, 'd', 00H, ' ', 00H, 'L', 00H, 'i', 00H
	DB	'n', 00H, 'e', 00H, ' ', 00H, 'E', 00H, 'n', 00H, 'd', 00H, 'i'
	DB	00H, 'n', 00H, 'g', 00H, ',', 00H, ' ', 00H, 'G', 00H, 'o', 00H
	DB	't', 00H, ' ', 00H, '%', 00H, 'c', 00H, ' ', 00H, 'I', 00H, 'n'
	DB	00H, 's', 00H, 't', 00H, 'e', 00H, 'a', 00H, 'd', 00H, ',', 00H
	DB	' ', 00H, 'I', 00H, 's', 00H, ' ', 00H, 'T', 00H, 'h', 00H, 'i'
	DB	00H, 's', 00H, ' ', 00H, 'A', 00H, ' ', 00H, 'V', 00H, 'a', 00H
	DB	'l', 00H, 'i', 00H, 'd', 00H, ' ', 00H, 'S', 00H, 't', 00H, 'a'
	DB	00H, 't', 00H, 'e', 00H, 'm', 00H, 'e', 00H, 'n', 00H, 't', 00H
	DB	'?', 00H, 00H, 00H
	ORG $+6
$SG167362 DB	'LoadModel', 00H
	ORG $+6
$SG167363 DB	'W:\cpp\void\detroit\detroit-asset.c', 00H
	ORG $+4
$SG101828 DB	'unsupported data layout', 00H
$SG101830 DB	'too large', 00H
	ORG $+6
$SG101832 DB	'too large', 00H
	ORG $+6
$SG167371 DB	'W:\cpp\void\detroit\detroit-asset.c', 00H
	ORG $+4
$SG167369 DB	'%', 00H, 's', 00H, '(', 00H, '%', 00H, 'i', 00H, ')', 00H
	DB	':', 00H, ' ', 00H, 'E', 00H, 'x', 00H, 'p', 00H, 'e', 00H, 'c'
	DB	00H, 't', 00H, 'e', 00H, 'd', 00H, ' ', 00H, 'L', 00H, 'i', 00H
	DB	'n', 00H, 'e', 00H, ' ', 00H, 'E', 00H, 'n', 00H, 'd', 00H, 'i'
	DB	00H, 'n', 00H, 'g', 00H, ',', 00H, ' ', 00H, 'G', 00H, 'o', 00H
	DB	't', 00H, ' ', 00H, '%', 00H, 'c', 00H, ' ', 00H, 'I', 00H, 'n'
	DB	00H, 's', 00H, 't', 00H, 'e', 00H, 'a', 00H, 'd', 00H, ',', 00H
	DB	' ', 00H, 'I', 00H, 's', 00H, ' ', 00H, 'T', 00H, 'h', 00H, 'i'
	DB	00H, 's', 00H, ' ', 00H, 'A', 00H, ' ', 00H, 'V', 00H, 'a', 00H
	DB	'l', 00H, 'i', 00H, 'd', 00H, ' ', 00H, 'S', 00H, 't', 00H, 'a'
	DB	00H, 't', 00H, 'e', 00H, 'm', 00H, 'e', 00H, 'n', 00H, 't', 00H
	DB	'?', 00H, 00H, 00H
	ORG $+6
$SG167370 DB	'LoadModel', 00H
	ORG $+6
$SG101836 DB	'too large', 00H
	ORG $+6
$SG167374 DB	'l', 00H, 'i', 00H, 'b', 00H, 'r', 00H, 'a', 00H, 'r', 00H
	DB	'y', 00H, ' ', 00H, '[', 00H, '%', 00H, 's', 00H, ']', 00H, ' '
	DB	00H, 'n', 00H, 'o', 00H, 't', 00H, ' ', 00H, 'f', 00H, 'o', 00H
	DB	'u', 00H, 'n', 00H, 'd', 00H, 00H, 00H
	ORG $+2
$SG101838 DB	'outofmem', 00H
	ORG $+7
$SG167375 DB	'LoadModel', 00H
	ORG $+6
$SG167376 DB	'W:\cpp\void\detroit\detroit-asset.c', 00H
	ORG $+4
$SG101845 DB	'invalid decoded scanline length', 00H
$SG101848 DB	'outofmem', 00H
	ORG $+7
$SG167385 DB	'%', 00H, 's', 00H, '(', 00H, '%', 00H, 'i', 00H, ')', 00H
	DB	':', 00H, ' ', 00H, 'E', 00H, 'x', 00H, 'p', 00H, 'e', 00H, 'c'
	DB	00H, 't', 00H, 'e', 00H, 'd', 00H, ' ', 00H, 'L', 00H, 'i', 00H
	DB	'n', 00H, 'e', 00H, ' ', 00H, 'E', 00H, 'n', 00H, 'd', 00H, 'i'
	DB	00H, 'n', 00H, 'g', 00H, ',', 00H, ' ', 00H, 'G', 00H, 'o', 00H
	DB	't', 00H, ' ', 00H, '%', 00H, 'c', 00H, ' ', 00H, 'I', 00H, 'n'
	DB	00H, 's', 00H, 't', 00H, 'e', 00H, 'a', 00H, 'd', 00H, ',', 00H
	DB	' ', 00H, 'I', 00H, 's', 00H, ' ', 00H, 'T', 00H, 'h', 00H, 'i'
	DB	00H, 's', 00H, ' ', 00H, 'A', 00H, ' ', 00H, 'V', 00H, 'a', 00H
	DB	'l', 00H, 'i', 00H, 'd', 00H, ' ', 00H, 'S', 00H, 't', 00H, 'a'
	DB	00H, 't', 00H, 'e', 00H, 'm', 00H, 'e', 00H, 'n', 00H, 't', 00H
	DB	'?', 00H, 00H, 00H
	ORG $+6
$SG167386 DB	'LoadModel', 00H
	ORG $+6
$SG167387 DB	'W:\cpp\void\detroit\detroit-asset.c', 00H
	ORG $+4
$SG101852 DB	'corrupt', 00H
$SG101854 DB	'corrupt', 00H
$SG167395 DB	'%', 00H, 's', 00H, '(', 00H, '%', 00H, 'i', 00H, ')', 00H
	DB	':', 00H, ' ', 00H, 'E', 00H, 'x', 00H, 'p', 00H, 'e', 00H, 'c'
	DB	00H, 't', 00H, 'e', 00H, 'd', 00H, ' ', 00H, 'L', 00H, 'i', 00H
	DB	'n', 00H, 'e', 00H, ' ', 00H, 'E', 00H, 'n', 00H, 'd', 00H, 'i'
	DB	00H, 'n', 00H, 'g', 00H, ',', 00H, ' ', 00H, 'G', 00H, 'o', 00H
	DB	't', 00H, ' ', 00H, '%', 00H, 'c', 00H, ' ', 00H, 'I', 00H, 'n'
	DB	00H, 's', 00H, 't', 00H, 'e', 00H, 'a', 00H, 'd', 00H, ',', 00H
	DB	' ', 00H, 'I', 00H, 's', 00H, ' ', 00H, 'T', 00H, 'h', 00H, 'i'
	DB	00H, 's', 00H, ' ', 00H, 'A', 00H, ' ', 00H, 'V', 00H, 'a', 00H
	DB	'l', 00H, 'i', 00H, 'd', 00H, ' ', 00H, 'S', 00H, 't', 00H, 'a'
	DB	00H, 't', 00H, 'e', 00H, 'm', 00H, 'e', 00H, 'n', 00H, 't', 00H
	DB	'?', 00H, 00H, 00H
	ORG $+6
$SG167396 DB	'LoadModel', 00H
	ORG $+6
$SG167397 DB	'W:\cpp\void\detroit\detroit-asset.c', 00H
	ORG $+4
$SG167415 DB	'%', 00H, 's', 00H, '(', 00H, '%', 00H, 'i', 00H, ')', 00H
	DB	':', 00H, ' ', 00H, 'I', 00H, 'n', 00H, 'v', 00H, 'a', 00H, 'l'
	DB	00H, 'i', 00H, 'd', 00H, ' ', 00H, 'S', 00H, 't', 00H, 'a', 00H
	DB	't', 00H, 'e', 00H, 'm', 00H, 'e', 00H, 'n', 00H, 't', 00H, ','
	DB	00H, ' ', 00H, '(', 00H, 'D', 00H, 'i', 00H, 'd', 00H, ' ', 00H
	DB	'Y', 00H, 'o', 00H, 'u', 00H, ' ', 00H, 'M', 00H, 'e', 00H, 'a'
	DB	00H, 'n', 00H, ' ', 00H, '<', 00H, 'd', 00H, '>', 00H, '?', 00H
	DB	')', 00H, 00H, 00H
	ORG $+2
$SG101879 DB	'FORMAT=32-bit_rle_rgbe', 00H
	ORG $+1
$SG167416 DB	'LoadModel', 00H
	ORG $+6
$SG167417 DB	'W:\cpp\void\detroit\detroit-asset.c', 00H
	ORG $+4
$SG167426 DB	'%', 00H, 's', 00H, '(', 00H, '%', 00H, 'i', 00H, ')', 00H
	DB	':', 00H, ' ', 00H, 'I', 00H, 'n', 00H, 'v', 00H, 'a', 00H, 'l'
	DB	00H, 'i', 00H, 'd', 00H, ' ', 00H, 'S', 00H, 't', 00H, 'a', 00H
	DB	't', 00H, 'e', 00H, 'm', 00H, 'e', 00H, 'n', 00H, 't', 00H, ','
	DB	00H, ' ', 00H, '(', 00H, 'D', 00H, 'i', 00H, 'd', 00H, ' ', 00H
	DB	'Y', 00H, 'o', 00H, 'u', 00H, ' ', 00H, 'M', 00H, 'e', 00H, 'a'
	DB	00H, 'n', 00H, ' ', 00H, '<', 00H, 'N', 00H, 's', 00H, '>', 00H
	DB	' ', 00H, 'o', 00H, 'r', 00H, ' ', 00H, '<', 00H, 'N', 00H, 'i'
	DB	00H, '>', 00H, '?', 00H, ')', 00H, 00H, 00H
$SG167427 DB	'LoadModel', 00H
	ORG $+6
$SG167428 DB	'W:\cpp\void\detroit\detroit-asset.c', 00H
	ORG $+4
$SG167436 DB	'N', 00H, 'O', 00H, '_', 00H, 'M', 00H, 'E', 00H, 'S', 00H
	DB	'S', 00H, 'A', 00H, 'G', 00H, 'E', 00H, 00H, 00H
	ORG $+2
$SG167437 DB	'Invalid Statement, (Did You Mean <Ka> or <Kd> or <Ks> or'
	DB	' <Ke>?)', 00H
$SG167438 DB	'! "Invalid Statement, (Did You Mean <Ka> or <Kd> or <Ks>'
	DB	' or <Ke>?)"', 00H
	ORG $+4
$SG167439 DB	'LoadModel', 00H
	ORG $+6
$SG167440 DB	'W:\cpp\void\detroit\detroit-asset.c', 00H
	ORG $+4
$SG167441 DB	'N', 00H, 'O', 00H, '_', 00H, 'M', 00H, 'E', 00H, 'S', 00H
	DB	'S', 00H, 'A', 00H, 'G', 00H, 'E', 00H, 00H, 00H
	ORG $+2
$SG167445 DB	'W:\cpp\void\detroit\detroit-asset.c', 00H
	ORG $+4
$SG167442 DB	'Invalid Statement, Did You Mean (<Ns> or <Ni> or <Ka> or'
	DB	' <Kd> or <Ks> or <Ke>?)', 00H
$SG167443 DB	'! "Invalid Statement, Did You Mean (<Ns> or <Ni> or <Ka>'
	DB	' or <Kd> or <Ks> or <Ke>?)"', 00H
	ORG $+4
$SG167444 DB	'LoadModel', 00H
	ORG $+6
$SG167458 DB	'N', 00H, 'O', 00H, '_', 00H, 'M', 00H, 'E', 00H, 'S', 00H
	DB	'S', 00H, 'A', 00H, 'G', 00H, 'E', 00H, 00H, 00H
	ORG $+2
$SG167459 DB	'Invalid Statement, Did You Mean <map_d> or <map_Kd> or <'
	DB	'map_Ke> or <map_Bump>?', 00H
	ORG $+1
$SG167460 DB	'! "Invalid Statement, Did You Mean <map_d> or <map_Kd> o'
	DB	'r <map_Ke> or <map_Bump>?"', 00H
	ORG $+5
$SG167461 DB	'LoadModel', 00H
	ORG $+6
$SG167462 DB	'W:\cpp\void\detroit\detroit-asset.c', 00H
	ORG $+4
$SG167465 DB	'N', 00H, 'O', 00H, '_', 00H, 'M', 00H, 'E', 00H, 'S', 00H
	DB	'S', 00H, 'A', 00H, 'G', 00H, 'E', 00H, 00H, 00H
	ORG $+2
$SG167469 DB	'W:\cpp\void\detroit\detroit-asset.c', 00H
	ORG $+4
$SG167466 DB	'Invalid Statement, Did You Mean <newmtl> or <illum> or <'
	DB	'map_d> or <map_Kd> or <map_Ke> or <map_Bump>?', 00H
	ORG $+2
$SG167477 DB	'W:\cpp\void\detroit\detroit-asset.c', 00H
	ORG $+4
$SG167467 DB	'! "Invalid Statement, Did You Mean <newmtl> or <illum> o'
	DB	'r <map_d> or <map_Kd> or <map_Ke> or <map_Bump>?"', 00H
	ORG $+6
$SG167468 DB	'LoadModel', 00H
	ORG $+6
$SG167475 DB	'%', 00H, 's', 00H, '(', 00H, '%', 00H, 'i', 00H, ')', 00H
	DB	':', 00H, ' ', 00H, 'E', 00H, 'x', 00H, 'p', 00H, 'e', 00H, 'c'
	DB	00H, 't', 00H, 'e', 00H, 'd', 00H, ' ', 00H, 'L', 00H, 'i', 00H
	DB	'n', 00H, 'e', 00H, ' ', 00H, 'E', 00H, 'n', 00H, 'd', 00H, 'i'
	DB	00H, 'n', 00H, 'g', 00H, ',', 00H, ' ', 00H, 'G', 00H, 'o', 00H
	DB	't', 00H, ' ', 00H, '%', 00H, 'c', 00H, ' ', 00H, 'I', 00H, 'n'
	DB	00H, 's', 00H, 't', 00H, 'e', 00H, 'a', 00H, 'd', 00H, ',', 00H
	DB	' ', 00H, 'I', 00H, 's', 00H, ' ', 00H, 'T', 00H, 'h', 00H, 'i'
	DB	00H, 's', 00H, ' ', 00H, 'A', 00H, ' ', 00H, 'V', 00H, 'a', 00H
	DB	'l', 00H, 'i', 00H, 'd', 00H, ' ', 00H, 'S', 00H, 't', 00H, 'a'
	DB	00H, 't', 00H, 'e', 00H, 'm', 00H, 'e', 00H, 'n', 00H, 't', 00H
	DB	'?', 00H, 00H, 00H
	ORG $+6
$SG167476 DB	'LoadModel', 00H
	ORG $+2
$SG101948 DB	'S', 080H, 0f6H, '4', 00H
	ORG $+7
$SG167483 DB	'%', 00H, 's', 00H, '(', 00H, '%', 00H, 'i', 00H, ')', 00H
	DB	':', 00H, ' ', 00H, 'E', 00H, 'x', 00H, 'p', 00H, 'e', 00H, 'c'
	DB	00H, 't', 00H, 'e', 00H, 'd', 00H, ' ', 00H, 'L', 00H, 'i', 00H
	DB	'n', 00H, 'e', 00H, ' ', 00H, 'E', 00H, 'n', 00H, 'd', 00H, 'i'
	DB	00H, 'n', 00H, 'g', 00H, ',', 00H, ' ', 00H, 'G', 00H, 'o', 00H
	DB	't', 00H, ' ', 00H, '%', 00H, 'c', 00H, ' ', 00H, 'I', 00H, 'n'
	DB	00H, 's', 00H, 't', 00H, 'e', 00H, 'a', 00H, 'd', 00H, ',', 00H
	DB	' ', 00H, 'I', 00H, 's', 00H, ' ', 00H, 'T', 00H, 'h', 00H, 'i'
	DB	00H, 's', 00H, ' ', 00H, 'A', 00H, ' ', 00H, 'V', 00H, 'a', 00H
	DB	'l', 00H, 'i', 00H, 'd', 00H, ' ', 00H, 'S', 00H, 't', 00H, 'a'
	DB	00H, 't', 00H, 'e', 00H, 'm', 00H, 'e', 00H, 'n', 00H, 't', 00H
	DB	'?', 00H, 00H, 00H
	ORG $+6
$SG167484 DB	'LoadModel', 00H
	ORG $+6
$SG167485 DB	'W:\cpp\void\detroit\detroit-asset.c', 00H
	ORG $+4
$SG167493 DB	'%', 00H, 's', 00H, '(', 00H, '%', 00H, 'i', 00H, ')', 00H
	DB	':', 00H, ' ', 00H, 'E', 00H, 'x', 00H, 'p', 00H, 'e', 00H, 'c'
	DB	00H, 't', 00H, 'e', 00H, 'd', 00H, ' ', 00H, 'L', 00H, 'i', 00H
	DB	'n', 00H, 'e', 00H, ' ', 00H, 'E', 00H, 'n', 00H, 'd', 00H, 'i'
	DB	00H, 'n', 00H, 'g', 00H, ',', 00H, ' ', 00H, 'G', 00H, 'o', 00H
	DB	't', 00H, ' ', 00H, '%', 00H, 'c', 00H, ' ', 00H, 'I', 00H, 'n'
	DB	00H, 's', 00H, 't', 00H, 'e', 00H, 'a', 00H, 'd', 00H, ',', 00H
	DB	' ', 00H, 'I', 00H, 's', 00H, ' ', 00H, 'T', 00H, 'h', 00H, 'i'
	DB	00H, 's', 00H, ' ', 00H, 'A', 00H, ' ', 00H, 'V', 00H, 'a', 00H
	DB	'l', 00H, 'i', 00H, 'd', 00H, ' ', 00H, 'S', 00H, 't', 00H, 'a'
	DB	00H, 't', 00H, 'e', 00H, 'm', 00H, 'e', 00H, 'n', 00H, 't', 00H
	DB	'?', 00H, 00H, 00H
	ORG $+6
$SG167494 DB	'LoadModel', 00H
	ORG $+6
$SG167495 DB	'W:\cpp\void\detroit\detroit-asset.c', 00H
	ORG $+4
$SG167501 DB	'%', 00H, 's', 00H, '(', 00H, '%', 00H, 'i', 00H, ')', 00H
	DB	':', 00H, ' ', 00H, 'E', 00H, 'x', 00H, 'p', 00H, 'e', 00H, 'c'
	DB	00H, 't', 00H, 'e', 00H, 'd', 00H, ' ', 00H, 'L', 00H, 'i', 00H
	DB	'n', 00H, 'e', 00H, ' ', 00H, 'E', 00H, 'n', 00H, 'd', 00H, 'i'
	DB	00H, 'n', 00H, 'g', 00H, ',', 00H, ' ', 00H, 'G', 00H, 'o', 00H
	DB	't', 00H, ' ', 00H, '%', 00H, 'c', 00H, ' ', 00H, 'I', 00H, 'n'
	DB	00H, 's', 00H, 't', 00H, 'e', 00H, 'a', 00H, 'd', 00H, ',', 00H
	DB	' ', 00H, 'I', 00H, 's', 00H, ' ', 00H, 'T', 00H, 'h', 00H, 'i'
	DB	00H, 's', 00H, ' ', 00H, 'A', 00H, ' ', 00H, 'V', 00H, 'a', 00H
	DB	'l', 00H, 'i', 00H, 'd', 00H, ' ', 00H, 'S', 00H, 't', 00H, 'a'
	DB	00H, 't', 00H, 'e', 00H, 'm', 00H, 'e', 00H, 'n', 00H, 't', 00H
	DB	'?', 00H, 00H, 00H
	ORG $+6
$SG167502 DB	'LoadModel', 00H
	ORG $+6
$SG167503 DB	'W:\cpp\void\detroit\detroit-asset.c', 00H
	ORG $+4
$SG167509 DB	'%', 00H, 's', 00H, '(', 00H, '%', 00H, 'i', 00H, ')', 00H
	DB	':', 00H, ' ', 00H, 'E', 00H, 'x', 00H, 'p', 00H, 'e', 00H, 'c'
	DB	00H, 't', 00H, 'e', 00H, 'd', 00H, ' ', 00H, 'L', 00H, 'i', 00H
	DB	'n', 00H, 'e', 00H, ' ', 00H, 'E', 00H, 'n', 00H, 'd', 00H, 'i'
	DB	00H, 'n', 00H, 'g', 00H, ',', 00H, ' ', 00H, 'G', 00H, 'o', 00H
	DB	't', 00H, ' ', 00H, '%', 00H, 'c', 00H, ' ', 00H, 'I', 00H, 'n'
	DB	00H, 's', 00H, 't', 00H, 'e', 00H, 'a', 00H, 'd', 00H, ',', 00H
	DB	' ', 00H, 'I', 00H, 's', 00H, ' ', 00H, 'T', 00H, 'h', 00H, 'i'
	DB	00H, 's', 00H, ' ', 00H, 'A', 00H, ' ', 00H, 'V', 00H, 'a', 00H
	DB	'l', 00H, 'i', 00H, 'd', 00H, ' ', 00H, 'S', 00H, 't', 00H, 'a'
	DB	00H, 't', 00H, 'e', 00H, 'm', 00H, 'e', 00H, 'n', 00H, 't', 00H
	DB	'?', 00H, 00H, 00H
	ORG $+6
$SG167510 DB	'LoadModel', 00H
	ORG $+6
$SG167511 DB	'W:\cpp\void\detroit\detroit-asset.c', 00H
	ORG $+4
$SG167517 DB	'%', 00H, 's', 00H, '(', 00H, '%', 00H, 'i', 00H, ')', 00H
	DB	':', 00H, ' ', 00H, 'E', 00H, 'x', 00H, 'p', 00H, 'e', 00H, 'c'
	DB	00H, 't', 00H, 'e', 00H, 'd', 00H, ' ', 00H, 'L', 00H, 'i', 00H
	DB	'n', 00H, 'e', 00H, ' ', 00H, 'E', 00H, 'n', 00H, 'd', 00H, 'i'
	DB	00H, 'n', 00H, 'g', 00H, ',', 00H, ' ', 00H, 'G', 00H, 'o', 00H
	DB	't', 00H, ' ', 00H, '%', 00H, 'c', 00H, ' ', 00H, 'I', 00H, 'n'
	DB	00H, 's', 00H, 't', 00H, 'e', 00H, 'a', 00H, 'd', 00H, ',', 00H
	DB	' ', 00H, 'I', 00H, 's', 00H, ' ', 00H, 'T', 00H, 'h', 00H, 'i'
	DB	00H, 's', 00H, ' ', 00H, 'A', 00H, ' ', 00H, 'V', 00H, 'a', 00H
	DB	'l', 00H, 'i', 00H, 'd', 00H, ' ', 00H, 'S', 00H, 't', 00H, 'a'
	DB	00H, 't', 00H, 'e', 00H, 'm', 00H, 'e', 00H, 'n', 00H, 't', 00H
	DB	'?', 00H, 00H, 00H
	ORG $+6
$SG167518 DB	'LoadModel', 00H
	ORG $+6
$SG167519 DB	'W:\cpp\void\detroit\detroit-asset.c', 00H
	ORG $+4
$SG101987 DB	'too large', 00H
	ORG $+6
$SG101989 DB	'too large', 00H
	ORG $+6
$SG167526 DB	'%', 00H, 's', 00H, '(', 00H, '%', 00H, 'i', 00H, ')', 00H
	DB	':', 00H, ' ', 00H, 'E', 00H, 'x', 00H, 'p', 00H, 'e', 00H, 'c'
	DB	00H, 't', 00H, 'e', 00H, 'd', 00H, ' ', 00H, 'L', 00H, 'i', 00H
	DB	'n', 00H, 'e', 00H, ' ', 00H, 'E', 00H, 'n', 00H, 'd', 00H, 'i'
	DB	00H, 'n', 00H, 'g', 00H, ',', 00H, ' ', 00H, 'G', 00H, 'o', 00H
	DB	't', 00H, ' ', 00H, '%', 00H, 'c', 00H, ' ', 00H, 'I', 00H, 'n'
	DB	00H, 's', 00H, 't', 00H, 'e', 00H, 'a', 00H, 'd', 00H, ',', 00H
	DB	' ', 00H, 'I', 00H, 's', 00H, ' ', 00H, 'T', 00H, 'h', 00H, 'i'
	DB	00H, 's', 00H, ' ', 00H, 'A', 00H, ' ', 00H, 'V', 00H, 'a', 00H
	DB	'l', 00H, 'i', 00H, 'd', 00H, ' ', 00H, 'S', 00H, 't', 00H, 'a'
	DB	00H, 't', 00H, 'e', 00H, 'm', 00H, 'e', 00H, 'n', 00H, 't', 00H
	DB	'?', 00H, 00H, 00H
	ORG $+6
$SG167527 DB	'LoadModel', 00H
	ORG $+6
$SG167528 DB	'W:\cpp\void\detroit\detroit-asset.c', 00H
	ORG $+4
$SG101992 DB	'too large', 00H
	ORG $+6
$SG167530 DB	'%', 00H, 's', 00H, '(', 00H, '%', 00H, 'i', 00H, ')', 00H
	DB	':', 00H, ' ', 00H, 'E', 00H, 'x', 00H, 'p', 00H, 'e', 00H, 'c'
	DB	00H, 't', 00H, 'e', 00H, 'd', 00H, ' ', 00H, '''', 00H, 's', 00H
	DB	'''', 00H, ' ', 00H, 'S', 00H, 't', 00H, 'a', 00H, 't', 00H, 'e'
	DB	00H, 'm', 00H, 'e', 00H, 'n', 00H, 't', 00H, 00H, 00H
	ORG $+2
$SG101994 DB	'outofmem', 00H
	ORG $+7
$SG167531 DB	'LoadModel', 00H
	ORG $+6
$SG167532 DB	'W:\cpp\void\detroit\detroit-asset.c', 00H
	ORG $+4
$SG167536 DB	'%', 00H, 's', 00H, '(', 00H, '%', 00H, 'i', 00H, ')', 00H
	DB	':', 00H, ' ', 00H, 'E', 00H, 'x', 00H, 'p', 00H, 'e', 00H, 'c'
	DB	00H, 't', 00H, 'e', 00H, 'd', 00H, ' ', 00H, '''', 00H, 'f', 00H
	DB	'''', 00H, ' ', 00H, 'S', 00H, 't', 00H, 'a', 00H, 't', 00H, 'e'
	DB	00H, 'm', 00H, 'e', 00H, 'n', 00H, 't', 00H, 00H, 00H
	ORG $+2
$SG167537 DB	'LoadModel', 00H
	ORG $+6
$SG167538 DB	'W:\cpp\void\detroit\detroit-asset.c', 00H
	ORG $+4
$SG167550 DB	'%', 00H, 's', 00H, '(', 00H, '%', 00H, 'i', 00H, ')', 00H
	DB	':', 00H, ' ', 00H, 'E', 00H, 'x', 00H, 'p', 00H, 'e', 00H, 'c'
	DB	00H, 't', 00H, 'e', 00H, 'd', 00H, ' ', 00H, 'L', 00H, 'i', 00H
	DB	'n', 00H, 'e', 00H, ' ', 00H, 'E', 00H, 'n', 00H, 'd', 00H, 'i'
	DB	00H, 'n', 00H, 'g', 00H, ',', 00H, ' ', 00H, 'G', 00H, 'o', 00H
	DB	't', 00H, ' ', 00H, '%', 00H, 'c', 00H, ' ', 00H, 'I', 00H, 'n'
	DB	00H, 's', 00H, 't', 00H, 'e', 00H, 'a', 00H, 'd', 00H, ',', 00H
	DB	' ', 00H, 'I', 00H, 's', 00H, ' ', 00H, 'T', 00H, 'h', 00H, 'i'
	DB	00H, 's', 00H, ' ', 00H, 'A', 00H, ' ', 00H, 'V', 00H, 'a', 00H
	DB	'l', 00H, 'i', 00H, 'd', 00H, ' ', 00H, 'S', 00H, 't', 00H, 'a'
	DB	00H, 't', 00H, 'e', 00H, 'm', 00H, 'e', 00H, 'n', 00H, 't', 00H
	DB	'?', 00H, 00H, 00H
	ORG $+6
$SG167551 DB	'LoadModel', 00H
	ORG $+6
$SG167552 DB	'W:\cpp\void\detroit\detroit-asset.c', 00H
	ORG $+4
$SG167569 DB	'N', 00H, 'O', 00H, '_', 00H, 'M', 00H, 'E', 00H, 'S', 00H
	DB	'S', 00H, 'A', 00H, 'G', 00H, 'E', 00H, 00H, 00H
	ORG $+2
$SG167570 DB	'Area.Min.X <= Texture->DimenX', 00H
	ORG $+2
$SG167571 DB	'ZenRectifyTextureArea', 00H
	ORG $+2
$SG167572 DB	'W:\cpp\void\detroit\brazen-glyphics.c', 00H
	ORG $+2
$SG167573 DB	'N', 00H, 'O', 00H, '_', 00H, 'M', 00H, 'E', 00H, 'S', 00H
	DB	'S', 00H, 'A', 00H, 'G', 00H, 'E', 00H, 00H, 00H
	ORG $+2
$SG167574 DB	'Area.Min.Y <= Texture->DimenY', 00H
	ORG $+2
$SG167575 DB	'ZenRectifyTextureArea', 00H
	ORG $+2
$SG167576 DB	'W:\cpp\void\detroit\brazen-glyphics.c', 00H
	ORG $+2
$SG167577 DB	'N', 00H, 'O', 00H, '_', 00H, 'M', 00H, 'E', 00H, 'S', 00H
	DB	'S', 00H, 'A', 00H, 'G', 00H, 'E', 00H, 00H, 00H
	ORG $+2
$SG167578 DB	'Area.Max.X >= 0', 00H
$SG167579 DB	'ZenRectifyTextureArea', 00H
	ORG $+2
$SG167580 DB	'W:\cpp\void\detroit\brazen-glyphics.c', 00H
	ORG $+2
$SG167581 DB	'N', 00H, 'O', 00H, '_', 00H, 'M', 00H, 'E', 00H, 'S', 00H
	DB	'S', 00H, 'A', 00H, 'G', 00H, 'E', 00H, 00H, 00H
	ORG $+2
$SG167582 DB	'Area.Max.Y >= 0', 00H
$SG167583 DB	'ZenRectifyTextureArea', 00H
	ORG $+2
$SG102047 DB	'max value > 65535', 00H
	ORG $+6
$SG167584 DB	'W:\cpp\void\detroit\brazen-glyphics.c', 00H
	ORG $+2
$SG102069 DB	'unknown image type', 00H
	ORG $+5
$SG167606 DB	'ZenCoreCreateSoftTexture', 00H
	ORG $+7
$SG167607 DB	'W:\cpp\void\detroit\brazen-glyphics.c', 00H
	ORG $+2
$SG93880 DB	'OS/2', 00H
	ORG $+3
$SG102086 DB	'can''t fopen', 00H
	ORG $+4
$SG167633 DB	'N', 00H, 'O', 00H, '_', 00H, 'M', 00H, 'E', 00H, 'S', 00H
	DB	'S', 00H, 'A', 00H, 'G', 00H, 'E', 00H, 00H, 00H
	ORG $+2
$SG167634 DB	'internal error', 00H
	ORG $+1
$SG167635 DB	'!"internal error"', 00H
	ORG $+6
$SG167636 DB	'ZenCoreSoftLoadTextureFromFile', 00H
	ORG $+1
$SG167637 DB	'W:\cpp\void\detroit\brazen-glyphics.c', 00H
	ORG $+2
$SG102103 DB	'can''t fopen', 00H
$SG168617 DB	'Font', 00H
	ORG $+7
$SG94105 DB	'W', 00H, ':', 00H, '\', 00H, 'c', 00H, 'p', 00H, 'p', 00H
	DB	'\', 00H, 'v', 00H, 'o', 00H, 'i', 00H, 'd', 00H, '\', 00H, 'v'
	DB	00H, 'e', 00H, 'n', 00H, 'd', 00H, 'o', 00H, 'r', 00H, '\', 00H
	DB	's', 00H, 't', 00H, 'b', 00H, '\', 00H, 's', 00H, 't', 00H, 'b'
	DB	00H, '_', 00H, 't', 00H, 'r', 00H, 'u', 00H, 'e', 00H, 't', 00H
	DB	'y', 00H, 'p', 00H, 'e', 00H, '.', 00H, 'h', 00H, 00H, 00H
	ORG $+4
$SG94106 DB	'z', 00H, ' ', 00H, '!', 00H, '=', 00H, ' ', 00H, '0', 00H
	DB	00H, 00H
	ORG $+2
$SG167841 DB	'assets\fonts\%s.%s', 00H
	ORG $+5
$SG167842 DB	'C:\Windows\Fonts\%s.%s', 00H
	ORG $+1
$SG94134 DB	'W', 00H, ':', 00H, '\', 00H, 'c', 00H, 'p', 00H, 'p', 00H
	DB	'\', 00H, 'v', 00H, 'o', 00H, 'i', 00H, 'd', 00H, '\', 00H, 'v'
	DB	00H, 'e', 00H, 'n', 00H, 'd', 00H, 'o', 00H, 'r', 00H, '\', 00H
	DB	's', 00H, 't', 00H, 'b', 00H, '\', 00H, 's', 00H, 't', 00H, 'b'
	DB	00H, '_', 00H, 't', 00H, 'r', 00H, 'u', 00H, 'e', 00H, 't', 00H
	DB	'y', 00H, 'p', 00H, 'e', 00H, '.', 00H, 'h', 00H, 00H, 00H
	ORG $+4
$SG94135 DB	'y', 00H, '0', 00H, ' ', 00H, '<', 00H, ' ', 00H, 'y', 00H
	DB	'1', 00H, 00H, 00H
$SG94136 DB	'W', 00H, ':', 00H, '\', 00H, 'c', 00H, 'p', 00H, 'p', 00H
	DB	'\', 00H, 'v', 00H, 'o', 00H, 'i', 00H, 'd', 00H, '\', 00H, 'v'
	DB	00H, 'e', 00H, 'n', 00H, 'd', 00H, 'o', 00H, 'r', 00H, '\', 00H
	DB	's', 00H, 't', 00H, 'b', 00H, '\', 00H, 's', 00H, 't', 00H, 'b'
	DB	00H, '_', 00H, 't', 00H, 'r', 00H, 'u', 00H, 'e', 00H, 't', 00H
	DB	'y', 00H, 'p', 00H, 'e', 00H, '.', 00H, 'h', 00H, 00H, 00H
	ORG $+4
$SG102329 DB	'W', 00H, ':', 00H, '\', 00H, 'c', 00H, 'p', 00H, 'p', 00H
	DB	'\', 00H, 'v', 00H, 'o', 00H, 'i', 00H, 'd', 00H, '\', 00H, 'v'
	DB	00H, 'e', 00H, 'n', 00H, 'd', 00H, 'o', 00H, 'r', 00H, '\', 00H
	DB	's', 00H, 't', 00H, 'b', 00H, '\', 00H, 's', 00H, 't', 00H, 'b'
	DB	00H, '_', 00H, 'i', 00H, 'm', 00H, 'a', 00H, 'g', 00H, 'e', 00H
	DB	'_', 00H, 'w', 00H, 'r', 00H, 'i', 00H, 't', 00H, 'e', 00H, '.'
	DB	00H, 'h', 00H, 00H, 00H
	ORG $+6
$SG94137 DB	'e', 00H, '-', 00H, '>', 00H, 's', 00H, 'y', 00H, ' ', 00H
	DB	'<', 00H, '=', 00H, ' ', 00H, 'e', 00H, '-', 00H, '>', 00H, 'e'
	DB	00H, 'y', 00H, 00H, 00H
	ORG $+2
$SG94145 DB	'x', 00H, '1', 00H, ' ', 00H, '<', 00H, '=', 00H, ' ', 00H
	DB	'x', 00H, '+', 00H, '1', 00H, 00H, 00H
	ORG $+4
$SG94144 DB	'W', 00H, ':', 00H, '\', 00H, 'c', 00H, 'p', 00H, 'p', 00H
	DB	'\', 00H, 'v', 00H, 'o', 00H, 'i', 00H, 'd', 00H, '\', 00H, 'v'
	DB	00H, 'e', 00H, 'n', 00H, 'd', 00H, 'o', 00H, 'r', 00H, '\', 00H
	DB	's', 00H, 't', 00H, 'b', 00H, '\', 00H, 's', 00H, 't', 00H, 'b'
	DB	00H, '_', 00H, 't', 00H, 'r', 00H, 'u', 00H, 'e', 00H, 't', 00H
	DB	'y', 00H, 'p', 00H, 'e', 00H, '.', 00H, 'h', 00H, 00H, 00H
	ORG $+4
$SG94148 DB	'W', 00H, ':', 00H, '\', 00H, 'c', 00H, 'p', 00H, 'p', 00H
	DB	'\', 00H, 'v', 00H, 'o', 00H, 'i', 00H, 'd', 00H, '\', 00H, 'v'
	DB	00H, 'e', 00H, 'n', 00H, 'd', 00H, 'o', 00H, 'r', 00H, '\', 00H
	DB	's', 00H, 't', 00H, 'b', 00H, '\', 00H, 's', 00H, 't', 00H, 'b'
	DB	00H, '_', 00H, 't', 00H, 'r', 00H, 'u', 00H, 'e', 00H, 't', 00H
	DB	'y', 00H, 'p', 00H, 'e', 00H, '.', 00H, 'h', 00H, 00H, 00H
	ORG $+4
$SG94149 DB	'x', 00H, '1', 00H, ' ', 00H, '>', 00H, '=', 00H, ' ', 00H
	DB	'x', 00H, 00H, 00H
$SG94152 DB	'W', 00H, ':', 00H, '\', 00H, 'c', 00H, 'p', 00H, 'p', 00H
	DB	'\', 00H, 'v', 00H, 'o', 00H, 'i', 00H, 'd', 00H, '\', 00H, 'v'
	DB	00H, 'e', 00H, 'n', 00H, 'd', 00H, 'o', 00H, 'r', 00H, '\', 00H
	DB	's', 00H, 't', 00H, 'b', 00H, '\', 00H, 's', 00H, 't', 00H, 'b'
	DB	00H, '_', 00H, 't', 00H, 'r', 00H, 'u', 00H, 'e', 00H, 't', 00H
	DB	'y', 00H, 'p', 00H, 'e', 00H, '.', 00H, 'h', 00H, 00H, 00H
	ORG $+4
$SG94153 DB	'x', 00H, '1', 00H, ' ', 00H, '<', 00H, '=', 00H, ' ', 00H
	DB	'x', 00H, 00H, 00H
$SG94156 DB	'W', 00H, ':', 00H, '\', 00H, 'c', 00H, 'p', 00H, 'p', 00H
	DB	'\', 00H, 'v', 00H, 'o', 00H, 'i', 00H, 'd', 00H, '\', 00H, 'v'
	DB	00H, 'e', 00H, 'n', 00H, 'd', 00H, 'o', 00H, 'r', 00H, '\', 00H
	DB	's', 00H, 't', 00H, 'b', 00H, '\', 00H, 's', 00H, 't', 00H, 'b'
	DB	00H, '_', 00H, 't', 00H, 'r', 00H, 'u', 00H, 'e', 00H, 't', 00H
	DB	'y', 00H, 'p', 00H, 'e', 00H, '.', 00H, 'h', 00H, 00H, 00H
	ORG $+4
$SG94157 DB	'x', 00H, '1', 00H, ' ', 00H, '>', 00H, '=', 00H, ' ', 00H
	DB	'x', 00H, '+', 00H, '1', 00H, 00H, 00H
$SG103133 DB	'IHDR', 00H
	ORG $+7
$SG94158 DB	'W', 00H, ':', 00H, '\', 00H, 'c', 00H, 'p', 00H, 'p', 00H
	DB	'\', 00H, 'v', 00H, 'o', 00H, 'i', 00H, 'd', 00H, '\', 00H, 'v'
	DB	00H, 'e', 00H, 'n', 00H, 'd', 00H, 'o', 00H, 'r', 00H, '\', 00H
	DB	's', 00H, 't', 00H, 'b', 00H, '\', 00H, 's', 00H, 't', 00H, 'b'
	DB	00H, '_', 00H, 't', 00H, 'r', 00H, 'u', 00H, 'e', 00H, 't', 00H
	DB	'y', 00H, 'p', 00H, 'e', 00H, '.', 00H, 'h', 00H, 00H, 00H
	ORG $+4
$SG94159 DB	'x', 00H, '1', 00H, ' ', 00H, '>', 00H, '=', 00H, ' ', 00H
	DB	'x', 00H, ' ', 00H, '&', 00H, '&', 00H, ' ', 00H, 'x', 00H, '1'
	DB	00H, ' ', 00H, '<', 00H, '=', 00H, ' ', 00H, 'x', 00H, '+', 00H
	DB	'1', 00H, 00H, 00H
	ORG $+6
$SG94164 DB	'W', 00H, ':', 00H, '\', 00H, 'c', 00H, 'p', 00H, 'p', 00H
	DB	'\', 00H, 'v', 00H, 'o', 00H, 'i', 00H, 'd', 00H, '\', 00H, 'v'
	DB	00H, 'e', 00H, 'n', 00H, 'd', 00H, 'o', 00H, 'r', 00H, '\', 00H
	DB	's', 00H, 't', 00H, 'b', 00H, '\', 00H, 's', 00H, 't', 00H, 'b'
	DB	00H, '_', 00H, 't', 00H, 'r', 00H, 'u', 00H, 'e', 00H, 't', 00H
	DB	'y', 00H, 'p', 00H, 'e', 00H, '.', 00H, 'h', 00H, 00H, 00H
	ORG $+4
$SG94165 DB	'x', 00H, '0', 00H, ' ', 00H, '>', 00H, '=', 00H, ' ', 00H
	DB	'x', 00H, ' ', 00H, '&', 00H, '&', 00H, ' ', 00H, 'x', 00H, '0'
	DB	00H, ' ', 00H, '<', 00H, '=', 00H, ' ', 00H, 'x', 00H, '+', 00H
	DB	'1', 00H, ' ', 00H, '&', 00H, '&', 00H, ' ', 00H, 'x', 00H, '1'
	DB	00H, ' ', 00H, '>', 00H, '=', 00H, ' ', 00H, 'x', 00H, ' ', 00H
	DB	'&', 00H, '&', 00H, ' ', 00H, 'x', 00H, '1', 00H, ' ', 00H, '<'
	DB	00H, '=', 00H, ' ', 00H, 'x', 00H, '+', 00H, '1', 00H, 00H, 00H
	ORG $+6
$SG167898 DB	'ASCII-EX', 00H
	ORG $+7
$SG94175 DB	'W', 00H, ':', 00H, '\', 00H, 'c', 00H, 'p', 00H, 'p', 00H
	DB	'\', 00H, 'v', 00H, 'o', 00H, 'i', 00H, 'd', 00H, '\', 00H, 'v'
	DB	00H, 'e', 00H, 'n', 00H, 'd', 00H, 'o', 00H, 'r', 00H, '\', 00H
	DB	's', 00H, 't', 00H, 'b', 00H, '\', 00H, 's', 00H, 't', 00H, 'b'
	DB	00H, '_', 00H, 't', 00H, 'r', 00H, 'u', 00H, 'e', 00H, 't', 00H
	DB	'y', 00H, 'p', 00H, 'e', 00H, '.', 00H, 'h', 00H, 00H, 00H
	ORG $+4
$SG94176 DB	't', 00H, 'o', 00H, 'p', 00H, '_', 00H, 'w', 00H, 'i', 00H
	DB	'd', 00H, 't', 00H, 'h', 00H, ' ', 00H, '>', 00H, '=', 00H, ' '
	DB	00H, '0', 00H, 00H, 00H
	ORG $+2
$SG94177 DB	'W', 00H, ':', 00H, '\', 00H, 'c', 00H, 'p', 00H, 'p', 00H
	DB	'\', 00H, 'v', 00H, 'o', 00H, 'i', 00H, 'd', 00H, '\', 00H, 'v'
	DB	00H, 'e', 00H, 'n', 00H, 'd', 00H, 'o', 00H, 'r', 00H, '\', 00H
	DB	's', 00H, 't', 00H, 'b', 00H, '\', 00H, 's', 00H, 't', 00H, 'b'
	DB	00H, '_', 00H, 't', 00H, 'r', 00H, 'u', 00H, 'e', 00H, 't', 00H
	DB	'y', 00H, 'p', 00H, 'e', 00H, '.', 00H, 'h', 00H, 00H, 00H
	ORG $+4
$SG94178 DB	'b', 00H, 'o', 00H, 't', 00H, 't', 00H, 'o', 00H, 'm', 00H
	DB	'_', 00H, 'w', 00H, 'i', 00H, 'd', 00H, 't', 00H, 'h', 00H, ' '
	DB	00H, '>', 00H, '=', 00H, ' ', 00H, '0', 00H, 00H, 00H
	ORG $+4
$SG167967 DB	'ZenCoreCreateGlyphFontAtlas', 00H
	ORG $+4
$SG167968 DB	'W:\cpp\void\detroit\brazen-glyphics.c', 00H
	ORG $+2
$SG94258 DB	'W', 00H, ':', 00H, '\', 00H, 'c', 00H, 'p', 00H, 'p', 00H
	DB	'\', 00H, 'v', 00H, 'o', 00H, 'i', 00H, 'd', 00H, '\', 00H, 'v'
	DB	00H, 'e', 00H, 'n', 00H, 'd', 00H, 'o', 00H, 'r', 00H, '\', 00H
	DB	's', 00H, 't', 00H, 'b', 00H, '\', 00H, 's', 00H, 't', 00H, 'b'
	DB	00H, '_', 00H, 't', 00H, 'r', 00H, 'u', 00H, 'e', 00H, 't', 00H
	DB	'y', 00H, 'p', 00H, 'e', 00H, '.', 00H, 'h', 00H, 00H, 00H
	ORG $+4
$SG102451 DB	'11 4 22 44 44 22 444444', 00H
$SG94259 DB	'e', 00H, '-', 00H, '>', 00H, 'e', 00H, 'y', 00H, ' ', 00H
	DB	'>', 00H, '=', 00H, ' ', 00H, 'y', 00H, '_', 00H, 't', 00H, 'o'
	DB	00H, 'p', 00H, 00H, 00H
	ORG $+2
$SG102452 DB	'11 4 22 44 44 22 444444 4444 4 444 444 444 444', 00H
	ORG $+1
$SG167997 DB	'W:\cpp\void\detroit\brazen-glyphics.c', 00H
	ORG $+2
$SG94265 DB	'W', 00H, ':', 00H, '\', 00H, 'c', 00H, 'p', 00H, 'p', 00H
	DB	'\', 00H, 'v', 00H, 'o', 00H, 'i', 00H, 'd', 00H, '\', 00H, 'v'
	DB	00H, 'e', 00H, 'n', 00H, 'd', 00H, 'o', 00H, 'r', 00H, '\', 00H
	DB	's', 00H, 't', 00H, 'b', 00H, '\', 00H, 's', 00H, 't', 00H, 'b'
	DB	00H, '_', 00H, 't', 00H, 'r', 00H, 'u', 00H, 'e', 00H, 't', 00H
	DB	'y', 00H, 'p', 00H, 'e', 00H, '.', 00H, 'h', 00H, 00H, 00H
	ORG $+4
$SG94266 DB	'e', 00H, '-', 00H, '>', 00H, 's', 00H, 'y', 00H, ' ', 00H
	DB	'<', 00H, '=', 00H, ' ', 00H, 'y', 00H, '_', 00H, 'b', 00H, 'o'
	DB	00H, 't', 00H, 't', 00H, 'o', 00H, 'm', 00H, ' ', 00H, '&', 00H
	DB	'&', 00H, ' ', 00H, 'e', 00H, '-', 00H, '>', 00H, 'e', 00H, 'y'
	DB	00H, ' ', 00H, '>', 00H, '=', 00H, ' ', 00H, 'y', 00H, '_', 00H
	DB	't', 00H, 'o', 00H, 'p', 00H, 00H, 00H
$SG167995 DB	'F', 00H, 'o', 00H, 'n', 00H, 't', 00H, ' ', 00H, 'F', 00H
	DB	'i', 00H, 'l', 00H, 'e', 00H, ':', 00H, ' ', 00H, '%', 00H, 's'
	DB	00H, ',', 00H, ' ', 00H, 'N', 00H, 'o', 00H, 't', 00H, ' ', 00H
	DB	'F', 00H, 'o', 00H, 'u', 00H, 'n', 00H, 'd', 00H, ':', 00H, ' '
	DB	00H, '%', 00H, 's', 00H, 00H, 00H
	ORG $+6
$SG167996 DB	'ZenCoreLoadGlyphFontCaller', 00H
	ORG $+5
$SG168002 DB	'ZenCoreLoadGlyphFontCaller', 00H
	ORG $+5
$SG168003 DB	'W:\cpp\void\detroit\brazen-glyphics.c', 00H
	ORG $+2
$SG94275 DB	'W', 00H, ':', 00H, '\', 00H, 'c', 00H, 'p', 00H, 'p', 00H
	DB	'\', 00H, 'v', 00H, 'o', 00H, 'i', 00H, 'd', 00H, '\', 00H, 'v'
	DB	00H, 'e', 00H, 'n', 00H, 'd', 00H, 'o', 00H, 'r', 00H, '\', 00H
	DB	's', 00H, 't', 00H, 'b', 00H, '\', 00H, 's', 00H, 't', 00H, 'b'
	DB	00H, '_', 00H, 't', 00H, 'r', 00H, 'u', 00H, 'e', 00H, 't', 00H
	DB	'y', 00H, 'p', 00H, 'e', 00H, '.', 00H, 'h', 00H, 00H, 00H
	ORG $+4
$SG168004 DB	'ZenCoreLoadGlyphFontCaller', 00H
	ORG $+5
$SG94276 DB	'x', 00H, ' ', 00H, '>', 00H, '=', 00H, ' ', 00H, '0', 00H
	DB	' ', 00H, '&', 00H, '&', 00H, ' ', 00H, 'x', 00H, ' ', 00H, '<'
	DB	00H, ' ', 00H, 'l', 00H, 'e', 00H, 'n', 00H, 00H, 00H
	ORG $+4
$SG168005 DB	'W:\cpp\void\detroit\brazen-glyphics.c', 00H
	ORG $+2
$SG94278 DB	'W', 00H, ':', 00H, '\', 00H, 'c', 00H, 'p', 00H, 'p', 00H
	DB	'\', 00H, 'v', 00H, 'o', 00H, 'i', 00H, 'd', 00H, '\', 00H, 'v'
	DB	00H, 'e', 00H, 'n', 00H, 'd', 00H, 'o', 00H, 'r', 00H, '\', 00H
	DB	's', 00H, 't', 00H, 'b', 00H, '\', 00H, 's', 00H, 't', 00H, 'b'
	DB	00H, '_', 00H, 't', 00H, 'r', 00H, 'u', 00H, 'e', 00H, 't', 00H
	DB	'y', 00H, 'p', 00H, 'e', 00H, '.', 00H, 'h', 00H, 00H, 00H
	ORG $+4
$SG94279 DB	'd', 00H, 'y', 00H, ' ', 00H, '>', 00H, '=', 00H, ' ', 00H
	DB	'0', 00H, 00H, 00H
$SG94280 DB	'W', 00H, ':', 00H, '\', 00H, 'c', 00H, 'p', 00H, 'p', 00H
	DB	'\', 00H, 'v', 00H, 'o', 00H, 'i', 00H, 'd', 00H, '\', 00H, 'v'
	DB	00H, 'e', 00H, 'n', 00H, 'd', 00H, 'o', 00H, 'r', 00H, '\', 00H
	DB	's', 00H, 't', 00H, 'b', 00H, '\', 00H, 's', 00H, 't', 00H, 'b'
	DB	00H, '_', 00H, 't', 00H, 'r', 00H, 'u', 00H, 'e', 00H, 't', 00H
	DB	'y', 00H, 'p', 00H, 'e', 00H, '.', 00H, 'h', 00H, 00H, 00H
	ORG $+4
$SG94281 DB	'd', 00H, 'x', 00H, ' ', 00H, '>', 00H, '=', 00H, ' ', 00H
	DB	'0', 00H, 00H, 00H
$SG94284 DB	'W', 00H, ':', 00H, '\', 00H, 'c', 00H, 'p', 00H, 'p', 00H
	DB	'\', 00H, 'v', 00H, 'o', 00H, 'i', 00H, 'd', 00H, '\', 00H, 'v'
	DB	00H, 'e', 00H, 'n', 00H, 'd', 00H, 'o', 00H, 'r', 00H, '\', 00H
	DB	's', 00H, 't', 00H, 'b', 00H, '\', 00H, 's', 00H, 't', 00H, 'b'
	DB	00H, '_', 00H, 't', 00H, 'r', 00H, 'u', 00H, 'e', 00H, 't', 00H
	DB	'y', 00H, 'p', 00H, 'e', 00H, '.', 00H, 'h', 00H, 00H, 00H
	ORG $+4
$SG94285 DB	'f', 00H, 'a', 00H, 'b', 00H, 's', 00H, '(', 00H, 'a', 00H
	DB	'r', 00H, 'e', 00H, 'a', 00H, ')', 00H, ' ', 00H, '<', 00H, '='
	DB	00H, ' ', 00H, '1', 00H, '.', 00H, '0', 00H, '1', 00H, 'f', 00H
	DB	00H, 00H
$SG94287 DB	's', 00H, 'y', 00H, '1', 00H, ' ', 00H, '>', 00H, ' ', 00H
	DB	'y', 00H, '_', 00H, 'f', 00H, 'i', 00H, 'n', 00H, 'a', 00H, 'l'
	DB	00H, '-', 00H, '0', 00H, '.', 00H, '0', 00H, '1', 00H, 'f', 00H
	DB	00H, 00H
$SG94286 DB	'W', 00H, ':', 00H, '\', 00H, 'c', 00H, 'p', 00H, 'p', 00H
	DB	'\', 00H, 'v', 00H, 'o', 00H, 'i', 00H, 'd', 00H, '\', 00H, 'v'
	DB	00H, 'e', 00H, 'n', 00H, 'd', 00H, 'o', 00H, 'r', 00H, '\', 00H
	DB	's', 00H, 't', 00H, 'b', 00H, '\', 00H, 's', 00H, 't', 00H, 'b'
	DB	00H, '_', 00H, 't', 00H, 'r', 00H, 'u', 00H, 'e', 00H, 't', 00H
	DB	'y', 00H, 'p', 00H, 'e', 00H, '.', 00H, 'h', 00H, 00H, 00H
	ORG $+4
$SG168043 DB	'ZenCoreMaterializeGlyphFont', 00H
	ORG $+4
$SG168044 DB	'W:\cpp\void\detroit\brazen-glyphics.c', 00H
	ORG $+2
$SG168045 DB	'ZenCoreMaterializeGlyphFont', 00H
	ORG $+4
$SG168046 DB	'W:\cpp\void\detroit\brazen-glyphics.c', 00H
	ORG $+2
$SG168048 DB	'ZenCoreMaterializeGlyphFont', 00H
	ORG $+4
$SG168049 DB	'W:\cpp\void\detroit\brazen-glyphics.c', 00H
	ORG $+2
$SG168050 DB	'ZenCoreMaterializeGlyphFont', 00H
	ORG $+4
$SG168051 DB	'W:\cpp\void\detroit\brazen-glyphics.c', 00H
	ORG $+2
$SG102518 DB	'111 221 2222 11', 00H
$SG102519 DB	'111 221 2222 11', 00H
$SG168074 DB	'ZenCoreSerializeGlyphFont', 00H
	ORG $+6
$SG168075 DB	'W:\cpp\void\detroit\brazen-glyphics.c', 00H
	ORG $+2
$SG94361 DB	'z', 00H, '-', 00H, '>', 00H, 'e', 00H, 'y', 00H, ' ', 00H
	DB	'>', 00H, '=', 00H, ' ', 00H, 's', 00H, 'c', 00H, 'a', 00H, 'n'
	DB	00H, '_', 00H, 'y', 00H, '_', 00H, 't', 00H, 'o', 00H, 'p', 00H
	DB	00H, 00H
$SG94354 DB	'W', 00H, ':', 00H, '\', 00H, 'c', 00H, 'p', 00H, 'p', 00H
	DB	'\', 00H, 'v', 00H, 'o', 00H, 'i', 00H, 'd', 00H, '\', 00H, 'v'
	DB	00H, 'e', 00H, 'n', 00H, 'd', 00H, 'o', 00H, 'r', 00H, '\', 00H
	DB	's', 00H, 't', 00H, 'b', 00H, '\', 00H, 's', 00H, 't', 00H, 'b'
	DB	00H, '_', 00H, 't', 00H, 'r', 00H, 'u', 00H, 'e', 00H, 't', 00H
	DB	'y', 00H, 'p', 00H, 'e', 00H, '.', 00H, 'h', 00H, 00H, 00H
	ORG $+4
$SG94355 DB	'z', 00H, '-', 00H, '>', 00H, 'd', 00H, 'i', 00H, 'r', 00H
	DB	'e', 00H, 'c', 00H, 't', 00H, 'i', 00H, 'o', 00H, 'n', 00H, 00H
	DB	00H
	ORG $+6
$SG94360 DB	'W', 00H, ':', 00H, '\', 00H, 'c', 00H, 'p', 00H, 'p', 00H
	DB	'\', 00H, 'v', 00H, 'o', 00H, 'i', 00H, 'd', 00H, '\', 00H, 'v'
	DB	00H, 'e', 00H, 'n', 00H, 'd', 00H, 'o', 00H, 'r', 00H, '\', 00H
	DB	's', 00H, 't', 00H, 'b', 00H, '\', 00H, 's', 00H, 't', 00H, 'b'
	DB	00H, '_', 00H, 't', 00H, 'r', 00H, 'u', 00H, 'e', 00H, 't', 00H
	DB	'y', 00H, 'p', 00H, 'e', 00H, '.', 00H, 'h', 00H, 00H, 00H
	ORG $+4
$SG102577 DB	'W', 00H, ':', 00H, '\', 00H, 'c', 00H, 'p', 00H, 'p', 00H
	DB	'\', 00H, 'v', 00H, 'o', 00H, 'i', 00H, 'd', 00H, '\', 00H, 'v'
	DB	00H, 'e', 00H, 'n', 00H, 'd', 00H, 'o', 00H, 'r', 00H, '\', 00H
	DB	's', 00H, 't', 00H, 'b', 00H, '\', 00H, 's', 00H, 't', 00H, 'b'
	DB	00H, '_', 00H, 'i', 00H, 'm', 00H, 'a', 00H, 'g', 00H, 'e', 00H
	DB	'_', 00H, 'w', 00H, 'r', 00H, 'i', 00H, 't', 00H, 'e', 00H, '.'
	DB	00H, 'h', 00H, 00H, 00H
	ORG $+6
$SG102578 DB	'l', 00H, 'e', 00H, 'n', 00H, 'g', 00H, 't', 00H, 'h', 00H
	DB	'+', 00H, '1', 00H, '2', 00H, '8', 00H, ' ', 00H, '<', 00H, '='
	DB	00H, ' ', 00H, '2', 00H, '5', 00H, '5', 00H, 00H, 00H
	ORG $+4
$SG168117 DB	'ZenCoreLoadMetalFontFromFile', 00H
	ORG $+3
$SG168118 DB	'W:\cpp\void\detroit\brazen-glyphics.c', 00H
	ORG $+2
$SG168119 DB	'ZenCoreLoadMetalFontFromFile', 00H
	ORG $+3
$SG168120 DB	'W:\cpp\void\detroit\brazen-glyphics.c', 00H
	ORG $+2
$SG102588 DB	'W', 00H, ':', 00H, '\', 00H, 'c', 00H, 'p', 00H, 'p', 00H
	DB	'\', 00H, 'v', 00H, 'o', 00H, 'i', 00H, 'd', 00H, '\', 00H, 'v'
	DB	00H, 'e', 00H, 'n', 00H, 'd', 00H, 'o', 00H, 'r', 00H, '\', 00H
	DB	's', 00H, 't', 00H, 'b', 00H, '\', 00H, 's', 00H, 't', 00H, 'b'
	DB	00H, '_', 00H, 'i', 00H, 'm', 00H, 'a', 00H, 'g', 00H, 'e', 00H
	DB	'_', 00H, 'w', 00H, 'r', 00H, 'i', 00H, 't', 00H, 'e', 00H, '.'
	DB	00H, 'h', 00H, 00H, 00H
	ORG $+6
$SG102589 DB	'l', 00H, 'e', 00H, 'n', 00H, 'g', 00H, 't', 00H, 'h', 00H
	DB	' ', 00H, '<', 00H, '=', 00H, ' ', 00H, '1', 00H, '2', 00H, '8'
	DB	00H, 00H, 00H
	ORG $+4
$SG168180 DB	'ZenCoreGenerateGlyphFontExtended', 00H
	ORG $+7
$SG168181 DB	'W:\cpp\void\detroit\brazen-glyphics.c', 00H
	ORG $+2
$SG168182 DB	'ZenCoreGenerateGlyphFontExtended', 00H
	ORG $+7
$SG168183 DB	'W:\cpp\void\detroit\brazen-glyphics.c', 00H
	ORG $+2
$SG168184 DB	'ZenCoreGenerateGlyphFontExtended', 00H
	ORG $+7
$SG168185 DB	'W:\cpp\void\detroit\brazen-glyphics.c', 00H
	ORG $+2
$SG168187 DB	'N', 00H, 'O', 00H, '_', 00H, 'M', 00H, 'E', 00H, 'S', 00H
	DB	'S', 00H, 'A', 00H, 'G', 00H, 'E', 00H, 00H, 00H
	ORG $+2
$SG168188 DB	'CurX <= MaxPackX', 00H
	ORG $+7
$SG168189 DB	'ZenCoreGenerateGlyphFontExtended', 00H
	ORG $+7
$SG168190 DB	'W:\cpp\void\detroit\brazen-glyphics.c', 00H
	ORG $+2
$SG168191 DB	'N', 00H, 'O', 00H, '_', 00H, 'M', 00H, 'E', 00H, 'S', 00H
	DB	'S', 00H, 'A', 00H, 'G', 00H, 'E', 00H, 00H, 00H
	ORG $+2
$SG168192 DB	'CurY <= MaxPackY', 00H
	ORG $+7
$SG168193 DB	'ZenCoreGenerateGlyphFontExtended', 00H
	ORG $+7
$SG168194 DB	'W:\cpp\void\detroit\brazen-glyphics.c', 00H
	ORG $+2
$SG168196 DB	'%', 00H, 'i', 00H, ' ', 00H, '.', 00H, '.', 00H, '.', 00H
	DB	00H, 00H
	ORG $+2
$SG168197 DB	'ZenCoreGenerateGlyphFontExtended', 00H
	ORG $+7
$SG168198 DB	'W:\cpp\void\detroit\brazen-glyphics.c', 00H
	ORG $+2
$SG102663 DB	'EXPOSURE=          1.0000000000000', 0aH, 0aH, '-Y %d +X'
	DB	' %d', 0aH, 00H
	ORG $+7
$SG102662 DB	'#?RADIANCE', 0aH, '# Written by stb_image_write.h', 0aH, 'F'
	DB	'ORMAT=32-bit_rle_rgbe', 0aH, 00H
	ORG $+6
$SG168199 DB	'SomeFile', 00H
	ORG $+7
$SG168200 DB	'%s_debug_atlas.png', 00H
	ORG $+5
$SG102705 DB	'W', 00H, ':', 00H, '\', 00H, 'c', 00H, 'p', 00H, 'p', 00H
	DB	'\', 00H, 'v', 00H, 'o', 00H, 'i', 00H, 'd', 00H, '\', 00H, 'v'
	DB	00H, 'e', 00H, 'n', 00H, 'd', 00H, 'o', 00H, 'r', 00H, '\', 00H
	DB	's', 00H, 't', 00H, 'b', 00H, '\', 00H, 's', 00H, 't', 00H, 'b'
	DB	00H, '_', 00H, 'i', 00H, 'm', 00H, 'a', 00H, 'g', 00H, 'e', 00H
	DB	'_', 00H, 'w', 00H, 'r', 00H, 'i', 00H, 't', 00H, 'e', 00H, '.'
	DB	00H, 'h', 00H, 00H, 00H
	ORG $+6
$SG168253 DB	'W:\cpp\void\detroit', 00H
	ORG $+4
$SG168254 DB	'UnifrakturCook\UnifrakturCook-Bold', 00H
	ORG $+5
$SG168255 DB	'ZenConductSDFFontTest', 00H
	ORG $+2
$SG168256 DB	'W:\cpp\void\detroit\brazen-glyphics.c', 00H
	ORG $+2
$SG168257 DB	'W:\cpp\void\detroit\assets', 00H
	ORG $+5
$SG168258 DB	'images\the_savage.jpg', 00H
	ORG $+2
$SG168259 DB	'test\circle.png', 00H
$SG168260 DB	'test\sdf_circle.png', 00H
	ORG $+4
$SG168261 DB	'test\blurred.png', 00H
	ORG $+7
$SG168262 DB	'1234111 jjyyggiiill110099 QQ11jjiiiyy``.. [%d]', 00H
	ORG $+1
$SG168263 DB	'test\sdf_test.png', 00H
	ORG $+6
$SG168335 DB	'D3D11_FILL_MODE', 00H
$SG168336 DB	'D3D11_FILL_WIREFRAME', 00H
	ORG $+3
$SG168337 DB	'D3D11_FILL_SOLID', 00H
	ORG $+7
$SG168338 DB	'D3D11_CULL_MODE', 00H
$SG168339 DB	'D3D11_CULL_NONE', 00H
$SG168340 DB	'D3D11_CULL_FRONT', 00H
	ORG $+7
$SG168341 DB	'D3D11_CULL_BACK', 00H
$SG168342 DB	'D3D11_RASTERIZER_DESC', 00H
	ORG $+2
$SG168343 DB	'FillMode', 00H
	ORG $+7
$SG168344 DB	'CullMode', 00H
	ORG $+7
$SG168345 DB	'FrontCounterClockwise', 00H
	ORG $+2
$SG168346 DB	'DepthBias', 00H
	ORG $+6
$SG168347 DB	'DepthBiasClamp', 00H
	ORG $+1
$SG168348 DB	'SlopeScaledDepthBias', 00H
	ORG $+3
$SG168349 DB	'DepthClipEnable', 00H
$SG168350 DB	'ScissorEnable', 00H
	ORG $+2
$SG168351 DB	'MultisampleEnable', 00H
	ORG $+6
$SG168352 DB	'AntialiasedLineEnable', 00H
	ORG $+2
$SG168359 DB	'ZenAlloc', 00H
	ORG $+7
$SG168360 DB	'W:\cpp\void\detroit\brazen-global.h', 00H
	ORG $+4
$SG168365 DB	'ZenFrameAlloc', 00H
	ORG $+2
$SG168366 DB	'W:\cpp\void\detroit\brazen-global.h', 00H
	ORG $+4
$SG168396 DB	'ZenInternalDebugInternalFiberFun', 00H
	ORG $+7
$SG168397 DB	'W:\cpp\void\detroit\brazen-global.h', 00H
	ORG $+4
$SG168409 DB	'ZenInternalDebugExternalFiberFun', 00H
	ORG $+7
$SG168410 DB	'W:\cpp\void\detroit\brazen-global.h', 00H
	ORG $+4
$SG168428 DB	'user32.dll', 00H
	ORG $+5
$SG168431 DB	'SetProcessDPIAwarenessContext', 00H
	ORG $+2
$SG168433 DB	'SetProcessDPIAware', 00H
	ORG $+5
$SG168434 DB	'W:\cpp\void\detroit', 00H
	ORG $+4
$SG168440 DB	'shaders', 00H
$SG168441 DB	'UnifrakturCook\UnifrakturCook-Bold', 00H
	ORG $+5
$SG168442 DB	'ZenInitialize', 00H
	ORG $+2
$SG168443 DB	'W:\cpp\void\detroit\brazen-global.h', 00H
	ORG $+4
$SG102950 DB	'W', 00H, ':', 00H, '\', 00H, 'c', 00H, 'p', 00H, 'p', 00H
	DB	'\', 00H, 'v', 00H, 'o', 00H, 'i', 00H, 'd', 00H, '\', 00H, 'v'
	DB	00H, 'e', 00H, 'n', 00H, 'd', 00H, 'o', 00H, 'r', 00H, '\', 00H
	DB	's', 00H, 't', 00H, 'b', 00H, '\', 00H, 's', 00H, 't', 00H, 'b'
	DB	00H, '_', 00H, 'i', 00H, 'm', 00H, 'a', 00H, 'g', 00H, 'e', 00H
	DB	'_', 00H, 'w', 00H, 'r', 00H, 'i', 00H, 't', 00H, 'e', 00H, '.'
	DB	00H, 'h', 00H, 00H, 00H
	ORG $+6
$SG102951 DB	'd', 00H, ' ', 00H, '<', 00H, '=', 00H, ' ', 00H, '3', 00H
	DB	'2', 00H, '7', 00H, '6', 00H, '7', 00H, ' ', 00H, '&', 00H, '&'
	DB	00H, ' ', 00H, 'b', 00H, 'e', 00H, 's', 00H, 't', 00H, ' ', 00H
	DB	'<', 00H, '=', 00H, ' ', 00H, '2', 00H, '5', 00H, '8', 00H, 00H
	DB	00H
	ORG $+4
$SG94782 DB	'W', 00H, ':', 00H, '\', 00H, 'c', 00H, 'p', 00H, 'p', 00H
	DB	'\', 00H, 'v', 00H, 'o', 00H, 'i', 00H, 'd', 00H, '\', 00H, 'v'
	DB	00H, 'e', 00H, 'n', 00H, 'd', 00H, 'o', 00H, 'r', 00H, '\', 00H
	DB	's', 00H, 't', 00H, 'b', 00H, '\', 00H, 's', 00H, 't', 00H, 'b'
	DB	00H, '_', 00H, 't', 00H, 'r', 00H, 'u', 00H, 'e', 00H, 't', 00H
	DB	'y', 00H, 'p', 00H, 'e', 00H, '.', 00H, 'h', 00H, 00H, 00H
	ORG $+4
$SG94783 DB	'x', 00H, '+', 00H, 'g', 00H, 'w', 00H, ' ', 00H, '<', 00H
	DB	' ', 00H, 'p', 00H, 'w', 00H, 00H, 00H
$SG103134 DB	'IHDR', 00H
	ORG $+7
$SG94784 DB	'W', 00H, ':', 00H, '\', 00H, 'c', 00H, 'p', 00H, 'p', 00H
	DB	'\', 00H, 'v', 00H, 'o', 00H, 'i', 00H, 'd', 00H, '\', 00H, 'v'
	DB	00H, 'e', 00H, 'n', 00H, 'd', 00H, 'o', 00H, 'r', 00H, '\', 00H
	DB	's', 00H, 't', 00H, 'b', 00H, '\', 00H, 's', 00H, 't', 00H, 'b'
	DB	00H, '_', 00H, 't', 00H, 'r', 00H, 'u', 00H, 'e', 00H, 't', 00H
	DB	'y', 00H, 'p', 00H, 'e', 00H, '.', 00H, 'h', 00H, 00H, 00H
	ORG $+4
$SG94785 DB	'y', 00H, '+', 00H, 'g', 00H, 'h', 00H, ' ', 00H, '<', 00H
	DB	' ', 00H, 'p', 00H, 'h', 00H, 00H, 00H
	ORG $+4
$SG168594 DB	'ColorPicker', 00H
	ORG $+4
$SG168620 DB	'Font Shader', 00H
	ORG $+4
$SG168623 DB	'Font Shader', 00H
	ORG $+4
$SG168631 DB	'Text Tester', 00H
	ORG $+4
$SG168636 DB	'Min: %f', 00H
$SG168637 DB	'Off: %f', 00H
$SG168638 DB	'Max: %f', 00H
$SG168639 DB	'Font Atlas', 00H
	ORG $+5
$SG168641 DB	'ABCDEFGHIJKLMNOPQRSTUVWXYZ', 00H
	ORG $+5
$SG94913 DB	'W', 00H, ':', 00H, '\', 00H, 'c', 00H, 'p', 00H, 'p', 00H
	DB	'\', 00H, 'v', 00H, 'o', 00H, 'i', 00H, 'd', 00H, '\', 00H, 'v'
	DB	00H, 'e', 00H, 'n', 00H, 'd', 00H, 'o', 00H, 'r', 00H, '\', 00H
	DB	's', 00H, 't', 00H, 'b', 00H, '\', 00H, 's', 00H, 't', 00H, 'b'
	DB	00H, '_', 00H, 't', 00H, 'r', 00H, 'u', 00H, 'e', 00H, 't', 00H
	DB	'y', 00H, 'p', 00H, 'e', 00H, '.', 00H, 'h', 00H, 00H, 00H
	ORG $+4
$SG168642 DB	'abcdefghijklmnopqrstuvwxyz', 00H
	ORG $+5
$SG94914 DB	'h', 00H, '_', 00H, 'o', 00H, 'v', 00H, 'e', 00H, 'r', 00H
	DB	's', 00H, 'a', 00H, 'm', 00H, 'p', 00H, 'l', 00H, 'e', 00H, ' '
	DB	00H, '<', 00H, '=', 00H, ' ', 00H, '8', 00H, 00H, 00H
	ORG $+4
$SG168643 DB	'0123456789', 00H
	ORG $+5
$SG168644 DB	'`~!@#$%^&*()-_=+[]{}|\;:"<>,.?/', 00H
$SG94916 DB	'v', 00H, '_', 00H, 'o', 00H, 'v', 00H, 'e', 00H, 'r', 00H
	DB	's', 00H, 'a', 00H, 'm', 00H, 'p', 00H, 'l', 00H, 'e', 00H, ' '
	DB	00H, '<', 00H, '=', 00H, ' ', 00H, '8', 00H, 00H, 00H
	ORG $+4
$SG94915 DB	'W', 00H, ':', 00H, '\', 00H, 'c', 00H, 'p', 00H, 'p', 00H
	DB	'\', 00H, 'v', 00H, 'o', 00H, 'i', 00H, 'd', 00H, '\', 00H, 'v'
	DB	00H, 'e', 00H, 'n', 00H, 'd', 00H, 'o', 00H, 'r', 00H, '\', 00H
	DB	's', 00H, 't', 00H, 'b', 00H, '\', 00H, 's', 00H, 't', 00H, 'b'
	DB	00H, '_', 00H, 't', 00H, 'r', 00H, 'u', 00H, 'e', 00H, 't', 00H
	DB	'y', 00H, 'p', 00H, 'e', 00H, '.', 00H, 'h', 00H, 00H, 00H
	ORG $+4
$SG168654 DB	'z', 00H, 'e', 00H, 'n', 00H, 00H, 00H
$SG103135 DB	'IHDR', 00H
	ORG $+3
$SG103136 DB	'IHDR', 00H
	ORG $+3
$SG103137 DB	'IDAT', 00H
	ORG $+3
$SG103138 DB	'IDAT', 00H
	ORG $+3
$SG103139 DB	'IDAT', 00H
	ORG $+3
$SG103140 DB	'IDAT', 00H
	ORG $+3
$SG103141 DB	'IEND', 00H
	ORG $+3
$SG103142 DB	'IEND', 00H
	ORG $+3
$SG103143 DB	'IEND', 00H
	ORG $+3
$SG103144 DB	'IEND', 00H
	ORG $+3
$SG103146 DB	'o', 00H, ' ', 00H, '=', 00H, '=', 00H, ' ', 00H, 'o', 00H
	DB	'u', 00H, 't', 00H, ' ', 00H, '+', 00H, ' ', 00H, '*', 00H, 'o'
	DB	00H, 'u', 00H, 't', 00H, '_', 00H, 'l', 00H, 'e', 00H, 'n', 00H
	DB	00H, 00H
$SG103145 DB	'W', 00H, ':', 00H, '\', 00H, 'c', 00H, 'p', 00H, 'p', 00H
	DB	'\', 00H, 'v', 00H, 'o', 00H, 'i', 00H, 'd', 00H, '\', 00H, 'v'
	DB	00H, 'e', 00H, 'n', 00H, 'd', 00H, 'o', 00H, 'r', 00H, '\', 00H
	DB	's', 00H, 't', 00H, 'b', 00H, '\', 00H, 's', 00H, 't', 00H, 'b'
	DB	00H, '_', 00H, 'i', 00H, 'm', 00H, 'a', 00H, 'g', 00H, 'e', 00H
	DB	'_', 00H, 'w', 00H, 'r', 00H, 'i', 00H, 't', 00H, 'e', 00H, '.'
	DB	00H, 'h', 00H, 00H, 00H
	ORG $+6
$SG78579 DB	'[WARNING] write console failed, are you using visual stu'
	DB	'dio?', 0aH, 00H
	ORG $+2
$SG78586 DB	'[WARNING] write console failed, are you using visual stu'
	DB	'dio?', 0aH, 00H
	ORG $+2
$SG78612 DB	'%s, %i %s() [%i] %s', 00H
	ORG $+4
$SG94971 DB	'W', 00H, ':', 00H, '\', 00H, 'c', 00H, 'p', 00H, 'p', 00H
	DB	'\', 00H, 'v', 00H, 'o', 00H, 'i', 00H, 'd', 00H, '\', 00H, 'v'
	DB	00H, 'e', 00H, 'n', 00H, 'd', 00H, 'o', 00H, 'r', 00H, '\', 00H
	DB	's', 00H, 't', 00H, 'b', 00H, '\', 00H, 's', 00H, 't', 00H, 'b'
	DB	00H, '_', 00H, 't', 00H, 'r', 00H, 'u', 00H, 'e', 00H, 't', 00H
	DB	'y', 00H, 'p', 00H, 'e', 00H, '.', 00H, 'h', 00H, 00H, 00H
	ORG $+4
$SG94972 DB	'p', 00H, 'i', 00H, 'x', 00H, 'e', 00H, 'l', 00H, 's', 00H
	DB	'[', 00H, 'i', 00H, ']', 00H, ' ', 00H, '=', 00H, '=', 00H, ' '
	DB	00H, '0', 00H, 00H, 00H
	ORG $+2
?stbiw__jpg_ZigZag@@3QBEB DB 00H			; stbiw__jpg_ZigZag
	DB	01H
	DB	05H
	DB	06H
	DB	0eH
	DB	0fH
	DB	01bH
	DB	01cH
	DB	02H
	DB	04H
	DB	07H
	DB	0dH
	DB	010H
	DB	01aH
	DB	01dH
	DB	02aH
	DB	03H
	DB	08H
	DB	0cH
	DB	011H
	DB	019H
	DB	01eH
	DB	029H
	DB	02bH
	DB	09H
	DB	0bH
	DB	012H
	DB	018H
	DB	01fH
	DB	028H
	DB	02cH
	DB	035H
	DB	0aH
	DB	013H
	DB	017H
	DB	020H
	DB	027H
	DB	02dH
	DB	034H
	DB	036H
	DB	014H
	DB	016H
	DB	021H
	DB	026H
	DB	02eH
	DB	033H
	DB	037H
	DB	03cH
	DB	015H
	DB	022H
	DB	025H
	DB	02fH
	DB	032H
	DB	038H
	DB	03bH
	DB	03dH
	DB	023H
	DB	024H
	DB	030H
	DB	031H
	DB	039H
	DB	03aH
	DB	03eH
	DB	03fH
$SG78613 DB	'Break Handler Invoked', 00H
	ORG $+2
$SG78614 DB	'B', 00H, 'r', 00H, 'e', 00H, 'a', 00H, 'k', 00H, ' ', 00H
	DB	'H', 00H, 'a', 00H, 'n', 00H, 'd', 00H, 'l', 00H, 'e', 00H, 'r'
	DB	00H, ' ', 00H, 'I', 00H, 'n', 00H, 'v', 00H, 'o', 00H, 'k', 00H
	DB	'e', 00H, 'd', 00H, 00H, 00H
	ORG $+4
$SG78615 DB	'*', 00H, '*', 00H, '*', 00H, '*', 00H, '*', 00H, '*', 00H
	DB	'*', 00H, '*', 00H, '*', 00H, '*', 00H, '*', 00H, '*', 00H, '*'
	DB	00H, '*', 00H, '*', 00H, '*', 00H, '*', 00H, '*', 00H, '*', 00H
	DB	'*', 00H, '*', 00H, 00H, 00H
	ORG $+4
$SG78617 DB	'*', 00H, '*', 00H, '*', 00H, '*', 00H, '*', 00H, '*', 00H
	DB	'*', 00H, '*', 00H, '*', 00H, '*', 00H, '*', 00H, '*', 00H, '*'
	DB	00H, '*', 00H, '*', 00H, '*', 00H, '*', 00H, '*', 00H, '*', 00H
	DB	'*', 00H, '*', 00H, 00H, 00H
	ORG $+4
$SG78618 DB	'Choose Your Poison', 00H
	ORG $+5
$SG78619 DB	'Would You Like To Exit (Abort), Debug (Retry) or Continu'
	DB	'e (Ignore)?', 00H
	ORG $+4
$SG86812 DB	'Failed while writing %s', 0aH, 00H
	ORG $+7
$SG78635 DB	'GetErrorCode', 00H
	ORG $+3
$SG95022 DB	'p', 00H, 'i', 00H, 'x', 00H, 'e', 00H, 'l', 00H, 's', 00H
	DB	'[', 00H, 'i', 00H, '*', 00H, 's', 00H, 't', 00H, 'r', 00H, 'i'
	DB	00H, 'd', 00H, 'e', 00H, '_', 00H, 'i', 00H, 'n', 00H, '_', 00H
	DB	'b', 00H, 'y', 00H, 't', 00H, 'e', 00H, 's', 00H, ']', 00H, ' '
	DB	00H, '=', 00H, '=', 00H, ' ', 00H, '0', 00H, 00H, 00H
	ORG $+2
$SG78660 DB	'GetErrorStringA', 00H
$SG78669 DB	'no error message, or message too large', 00H
	ORG $+1
$SG78634 DB	'i', 00H, 'n', 00H, 'v', 00H, 'a', 00H, 'l', 00H, 'i', 00H
	DB	'd', 00H, ' ', 00H, 'e', 00H, 'r', 00H, 'r', 00H, 'o', 00H, 'r'
	DB	00H, ' ', 00H, 'c', 00H, 'l', 00H, 'a', 00H, 's', 00H, 's', 00H
	DB	',', 00H, ' ', 00H, 'e', 00H, 'x', 00H, 'p', 00H, 'e', 00H, 'c'
	DB	00H, 't', 00H, 'e', 00H, 'd', 00H, ' ', 00H, '''', 00H, 'E', 00H
	DB	'R', 00H, 'R', 00H, 'O', 00H, 'R', 00H, '_', 00H, 'C', 00H, 'L'
	DB	00H, 'A', 00H, 'S', 00H, 'S', 00H, '_', 00H, 'G', 00H, 'E', 00H
	DB	'N', 00H, 'E', 00H, 'R', 00H, 'A', 00H, 'L', 00H, '''', 00H, ' '
	DB	00H, 'o', 00H, 'r', 00H, ' ', 00H, '''', 00H, 'E', 00H, 'R', 00H
	DB	'R', 00H, 'O', 00H, 'R', 00H, '_', 00H, 'C', 00H, 'L', 00H, 'A'
	DB	00H, 'S', 00H, 'S', 00H, '_', 00H, 'N', 00H, 'E', 00H, 'T', 00H
	DB	'W', 00H, 'O', 00H, 'R', 00H, 'K', 00H, '''', 00H, 00H, 00H
	ORG $+6
$SG78636 DB	'W:\cpp\void\dr/plat-win32.c', 00H
	ORG $+4
$SG95021 DB	'W', 00H, ':', 00H, '\', 00H, 'c', 00H, 'p', 00H, 'p', 00H
	DB	'\', 00H, 'v', 00H, 'o', 00H, 'i', 00H, 'd', 00H, '\', 00H, 'v'
	DB	00H, 'e', 00H, 'n', 00H, 'd', 00H, 'o', 00H, 'r', 00H, '\', 00H
	DB	's', 00H, 't', 00H, 'b', 00H, '\', 00H, 's', 00H, 't', 00H, 'b'
	DB	00H, '_', 00H, 't', 00H, 'r', 00H, 'u', 00H, 'e', 00H, 't', 00H
	DB	'y', 00H, 'p', 00H, 'e', 00H, '.', 00H, 'h', 00H, 00H, 00H
	ORG $+4
$SG78659 DB	'e', 00H, 'r', 00H, 'r', 00H, 'o', 00H, 'r', 00H, ' ', 00H
	DB	'c', 00H, 'l', 00H, 'a', 00H, 's', 00H, 's', 00H, ' ', 00H, 'i'
	DB	00H, 'g', 00H, 'n', 00H, 'o', 00H, 'r', 00H, 'e', 00H, 'd', 00H
	DB	' ', 00H, 'w', 00H, 'h', 00H, 'e', 00H, 'n', 00H, ' ', 00H, 'e'
	DB	00H, 'r', 00H, 'r', 00H, 'o', 00H, 'r', 00H, ' ', 00H, 'c', 00H
	DB	'o', 00H, 'd', 00H, 'e', 00H, ' ', 00H, 's', 00H, 'p', 00H, 'e'
	DB	00H, 'c', 00H, 'i', 00H, 'f', 00H, 'i', 00H, 'e', 00H, 'd', 00H
	DB	00H, 00H
	ORG $+4
$SG78661 DB	'W:\cpp\void\dr/plat-win32.c', 00H
	ORG $+4
$SG78666 DB	'n', 00H, 'o', 00H, ' ', 00H, 'e', 00H, 'r', 00H, 'r', 00H
	DB	'o', 00H, 'r', 00H, ' ', 00H, 'm', 00H, 'e', 00H, 's', 00H, 's'
	DB	00H, 'a', 00H, 'g', 00H, 'e', 00H, ',', 00H, ' ', 00H, 'o', 00H
	DB	'r', 00H, ' ', 00H, 'm', 00H, 'e', 00H, 's', 00H, 's', 00H, 'a'
	DB	00H, 'g', 00H, 'e', 00H, ' ', 00H, 't', 00H, 'o', 00H, 'o', 00H
	DB	' ', 00H, 'l', 00H, 'a', 00H, 'r', 00H, 'g', 00H, 'e', 00H, 00H
	DB	00H
	ORG $+2
$SG78667 DB	'GetErrorStringA', 00H
$SG78668 DB	'W:\cpp\void\dr/plat-win32.c', 00H
	ORG $+4
$SG78683 DB	'F', 00H, 'a', 00H, 'i', 00H, 'l', 00H, 'e', 00H, 'd', 00H
	DB	' ', 00H, 'T', 00H, 'o', 00H, ' ', 00H, 'S', 00H, 'e', 00H, 't'
	DB	00H, ' ', 00H, 'H', 00H, 'a', 00H, 'n', 00H, 'd', 00H, 'l', 00H
	DB	'e', 00H, ' ', 00H, 'I', 00H, 'n', 00H, 'f', 00H, 'o', 00H, 'r'
	DB	00H, 'm', 00H, 'a', 00H, 't', 00H, 'i', 00H, 'o', 00H, 'n', 00H
	DB	' ', 00H, '[', 00H, '%', 00H, 's', 00H, ']', 00H, 00H, 00H
	ORG $+4
$SG78684 DB	'CreateInheritablePipe', 00H
	ORG $+2
$SG78685 DB	'W:\cpp\void\dr/plat-win32.c', 00H
	ORG $+4
$SG78726 DB	'f', 00H, 'a', 00H, 'i', 00H, 'l', 00H, 'e', 00H, 'd', 00H
	DB	' ', 00H, 't', 00H, 'o', 00H, ' ', 00H, 'c', 00H, 'r', 00H, 'e'
	DB	00H, 'a', 00H, 't', 00H, 'e', 00H, ' ', 00H, 'p', 00H, 'r', 00H
	DB	'o', 00H, 'c', 00H, 'e', 00H, 's', 00H, 's', 00H, ' ', 00H, 'p'
	DB	00H, 'i', 00H, 'p', 00H, 'e', 00H, 's', 00H, 00H, 00H
	ORG $+2
$SG78727 DB	'CreateProcessWithArguments', 00H
	ORG $+5
$SG78728 DB	'W:\cpp\void\dr/plat-win32.c', 00H
	ORG $+4
$SG78729 DB	'i', 00H, 'n', 00H, 'v', 00H, 'a', 00H, 'l', 00H, 'i', 00H
	DB	'd', 00H, ' ', 00H, 'p', 00H, 'r', 00H, 'o', 00H, 'c', 00H, 'e'
	DB	00H, 's', 00H, 's', 00H, ' ', 00H, 'a', 00H, 'r', 00H, 'g', 00H
	DB	'u', 00H, 'm', 00H, 'e', 00H, 'n', 00H, 't', 00H, 's', 00H, 00H
	DB	00H
	ORG $+4
$SG78730 DB	'CreateProcessWithArguments', 00H
	ORG $+5
$SG78731 DB	'W:\cpp\void\dr/plat-win32.c', 00H
	ORG $+4
$SG78765 DB	'w', 00H, 'r', 00H, 'i', 00H, 't', 00H, 'e', 00H, ' ', 00H
	DB	'c', 00H, 'o', 00H, 'n', 00H, 's', 00H, 'o', 00H, 'l', 00H, 'e'
	DB	00H, ' ', 00H, 'f', 00H, 'a', 00H, 'i', 00H, 'l', 00H, 'e', 00H
	DB	'd', 00H, ',', 00H, ' ', 00H, 'a', 00H, 'r', 00H, 'e', 00H, ' '
	DB	00H, 'y', 00H, 'o', 00H, 'u', 00H, ' ', 00H, 'u', 00H, 's', 00H
	DB	'i', 00H, 'n', 00H, 'g', 00H, ' ', 00H, 'v', 00H, 'i', 00H, 's'
	DB	00H, 'u', 00H, 'a', 00H, 'l', 00H, ' ', 00H, 's', 00H, 't', 00H
	DB	'u', 00H, 'd', 00H, 'i', 00H, 'o', 00H, '?', 00H, 00H, 00H
	ORG $+2
$SG78766 DB	'FlushProcessOutputAndErrorToStandardOut', 00H
$SG78767 DB	'W:\cpp\void\dr/plat-win32.c', 00H
	ORG $+4
$SG78769 DB	'w', 00H, 'r', 00H, 'i', 00H, 't', 00H, 'e', 00H, ' ', 00H
	DB	'c', 00H, 'o', 00H, 'n', 00H, 's', 00H, 'o', 00H, 'l', 00H, 'e'
	DB	00H, ' ', 00H, 'f', 00H, 'a', 00H, 'i', 00H, 'l', 00H, 'e', 00H
	DB	'd', 00H, ',', 00H, ' ', 00H, 'a', 00H, 'r', 00H, 'e', 00H, ' '
	DB	00H, 'y', 00H, 'o', 00H, 'u', 00H, ' ', 00H, 'u', 00H, 's', 00H
	DB	'i', 00H, 'n', 00H, 'g', 00H, ' ', 00H, 'v', 00H, 'i', 00H, 's'
	DB	00H, 'u', 00H, 'a', 00H, 'l', 00H, ' ', 00H, 's', 00H, 't', 00H
	DB	'u', 00H, 'd', 00H, 'i', 00H, 'o', 00H, '?', 00H, 00H, 00H
	ORG $+2
$SG78770 DB	'FlushProcessOutputAndErrorToStandardOut', 00H
$SG78771 DB	'W:\cpp\void\dr/plat-win32.c', 00H
	ORG $+4
$SG86997 DB	'stmpXXXXXX', 00H
	ORG $+5
$SG78812 DB	'user32.dll', 00H
	ORG $+5
$SG78813 DB	'SetProcessDPIAwarenessContext', 00H
	ORG $+2
$SG78814 DB	'SetProcessDPIAware', 00H
	ORG $+5
$SG87018 DB	'W', 00H, ':', 00H, '\', 00H, 'c', 00H, 'p', 00H, 'p', 00H
	DB	'\', 00H, 'v', 00H, 'o', 00H, 'i', 00H, 'd', 00H, '\', 00H, 'v'
	DB	00H, 'e', 00H, 'n', 00H, 'd', 00H, 'o', 00H, 'r', 00H, '\', 00H
	DB	's', 00H, 't', 00H, 'b', 00H, '\', 00H, 's', 00H, 't', 00H, 'b'
	DB	00H, '.', 00H, 'h', 00H, 00H, 00H
	ORG $+6
$SG78870 DB	'(', 00H, '.', 00H, 'F', 00H, 'i', 00H, 'l', 00H, 'e', 00H
	DB	'N', 00H, 'a', 00H, 'm', 00H, 'e', 00H, ' ', 00H, '=', 00H, ' '
	DB	00H, '%', 00H, 's', 00H, ')', 00H, 00H, 00H
	ORG $+6
$SG78871 DB	'LoadFileData', 00H
	ORG $+3
$SG78872 DB	'W:\cpp\void\dr/plat-win32.c', 00H
	ORG $+4
$SG78876 DB	'F', 00H, 'a', 00H, 'i', 00H, 'l', 00H, 'e', 00H, 'd', 00H
	DB	' ', 00H, 'T', 00H, 'o', 00H, ' ', 00H, 'R', 00H, 'e', 00H, 'a'
	DB	00H, 'd', 00H, ' ', 00H, 'F', 00H, 'i', 00H, 'l', 00H, 'e', 00H
	DB	' ', 00H, '[', 00H, '%', 00H, 's', 00H, ']', 00H, 00H, 00H
	ORG $+6
$SG78877 DB	'LoadFileData', 00H
	ORG $+3
$SG78878 DB	'W:\cpp\void\dr/plat-win32.c', 00H
	ORG $+4
$SG78880 DB	'F', 00H, 'a', 00H, 'i', 00H, 'l', 00H, 'e', 00H, 'd', 00H
	DB	' ', 00H, 'T', 00H, 'o', 00H, ' ', 00H, 'L', 00H, 'o', 00H, 'a'
	DB	00H, 'd', 00H, ' ', 00H, 'F', 00H, 'i', 00H, 'l', 00H, 'e', 00H
	DB	' ', 00H, '[', 00H, '%', 00H, 's', 00H, ']', 00H, 00H, 00H
	ORG $+6
$SG78881 DB	'LoadFileData', 00H
	ORG $+3
$SG78882 DB	'W:\cpp\void\dr/plat-win32.c', 00H
	ORG $+4
$SG78897 DB	'f', 00H, 'a', 00H, 'i', 00H, 'l', 00H, 'e', 00H, 'd', 00H
	DB	' ', 00H, 't', 00H, 'o', 00H, ' ', 00H, 'r', 00H, 'e', 00H, 'a'
	DB	00H, 'd', 00H, ' ', 00H, 'f', 00H, 'i', 00H, 'l', 00H, 'e', 00H
	DB	' ', 00H, '[', 00H, '%', 00H, 's', 00H, ']', 00H, 00H, 00H
	ORG $+6
$SG78898 DB	'WriteFileData', 00H
	ORG $+2
$SG78899 DB	'W:\cpp\void\dr/plat-win32.c', 00H
	ORG $+4
$SG78900 DB	'f', 00H, 'a', 00H, 'i', 00H, 'l', 00H, 'e', 00H, 'd', 00H
	DB	' ', 00H, 't', 00H, 'o', 00H, ' ', 00H, 'w', 00H, 'r', 00H, 'i'
	DB	00H, 't', 00H, 'e', 00H, ' ', 00H, 't', 00H, 'o', 00H, ' ', 00H
	DB	'f', 00H, 'i', 00H, 'l', 00H, 'e', 00H, ' ', 00H, '[', 00H, '%'
	DB	00H, 's', 00H, ']', 00H, 00H, 00H
	ORG $+6
$SG78901 DB	'WriteFileData', 00H
	ORG $+2
$SG78902 DB	'W:\cpp\void\dr/plat-win32.c', 00H
	ORG $+4
$SG87214 DB	'W', 00H, ':', 00H, '\', 00H, 'c', 00H, 'p', 00H, 'p', 00H
	DB	'\', 00H, 'v', 00H, 'o', 00H, 'i', 00H, 'd', 00H, '\', 00H, 'v'
	DB	00H, 'e', 00H, 'n', 00H, 'd', 00H, 'o', 00H, 'r', 00H, '\', 00H
	DB	's', 00H, 't', 00H, 'b', 00H, '\', 00H, 's', 00H, 't', 00H, 'b'
	DB	00H, '.', 00H, 'h', 00H, 00H, 00H
	ORG $+6
$SG87215 DB	'(', 00H, 's', 00H, 't', 00H, 'b', 00H, '_', 00H, 'u', 00H
	DB	'i', 00H, 'n', 00H, 't', 00H, ')', 00H, ' ', 00H, 'v', 00H, ' '
	DB	00H, '<', 00H, ' ', 00H, 'n', 00H, 00H, 00H
	ORG $+6
$SG79029 DB	'w', 00H, 'r', 00H, 'o', 00H, 'n', 00H, 'g', 00H, ' ', 00H
	DB	'o', 00H, 'r', 00H, 'd', 00H, 'e', 00H, 'r', 00H, ' ', 00H, 'o'
	DB	00H, 'f', 00H, ' ', 00H, 'i', 00H, 'n', 00H, 'p', 00H, 'u', 00H
	DB	't', 00H, 's', 00H, ',', 00H, ' ', 00H, 'a', 00H, 'b', 00H, 's'
	DB	00H, 'o', 00H, 'l', 00H, 'u', 00H, 't', 00H, 'e', 00H, ' ', 00H
	DB	'p', 00H, 'a', 00H, 't', 00H, 'h', 00H, ' ', 00H, 's', 00H, 'h'
	DB	00H, 'o', 00H, 'u', 00H, 'l', 00H, 'd', 00H, ' ', 00H, 'g', 00H
	DB	'o', 00H, ' ', 00H, 'f', 00H, 'i', 00H, 'r', 00H, 's', 00H, 't'
	DB	00H, 00H, 00H
	ORG $+6
$SG79030 DB	'FileNameMerge', 00H
	ORG $+2
$SG79031 DB	'W:\cpp\void\dr/plat-win32.c', 00H
	ORG $+4
$SG103610 DB	'f', 00H, 'a', 00H, 'i', 00H, 'l', 00H, 'e', 00H, 'd', 00H
	DB	' ', 00H, 't', 00H, 'o', 00H, ' ', 00H, 'i', 00H, 'n', 00H, 'i'
	DB	00H, 't', 00H, 'i', 00H, 'a', 00H, 'l', 00H, 'i', 00H, 'z', 00H
	DB	'e', 00H, ' ', 00H, 'a', 00H, 'r', 00H, 'e', 00H, 'n', 00H, 'a'
	DB	00H, 00H, 00H
	ORG $+2
$SG103611 DB	'ZenArenaInit', 00H
	ORG $+3
$SG103612 DB	'W:\cpp\void\detroit\brazen-memory.h', 00H
	ORG $+4
$SG103622 DB	'N', 00H, 'O', 00H, '_', 00H, 'M', 00H, 'E', 00H, 'S', 00H
	DB	'S', 00H, 'A', 00H, 'G', 00H, 'E', 00H, 00H, 00H
	ORG $+2
$SG103624 DB	'! "error"', 00H
	ORG $+6
$SG103625 DB	'ZenArenaAlloc', 00H
	ORG $+2
$SG103626 DB	'W:\cpp\void\detroit\brazen-memory.h', 00H
	ORG $+4
?COLOR_GRAY@@3Tf32x4@@B DD 03f000000r		; 0.5	; COLOR_GRAY
	DD	03f000000r			; 0.5
	DD	03f000000r			; 0.5
	DD	03f800000r			; 1
?COLOR_BLUE@@3Tf32x4@@B DD 000000000r		; 0	; COLOR_BLUE
	DD	000000000r			; 0
	DD	03f800000r			; 1
	DD	03f800000r			; 1
?COLOR_GREEN@@3Tf32x4@@B DD 000000000r		; 0	; COLOR_GREEN
	DD	03f800000r			; 1
	DD	000000000r			; 0
	DD	03f800000r			; 1
?COLOR_RED@@3Tf32x4@@B DD 03f800000r		; 1	; COLOR_RED
	DD	000000000r			; 0
	DD	000000000r			; 0
	DD	03f800000r			; 1
$SG79098 DB	'f', 00H, 'a', 00H, 'i', 00H, 'l', 00H, 'e', 00H, 'd', 00H
	DB	' ', 00H, 't', 00H, 'o', 00H, ' ', 00H, 'c', 00H, 'r', 00H, 'e'
	DB	00H, 'a', 00H, 't', 00H, 'e', 00H, ' ', 00H, 'c', 00H, 'o', 00H
	DB	'm', 00H, 'p', 00H, 'l', 00H, 'e', 00H, 't', 00H, 'e', 00H, ' '
	DB	00H, 'p', 00H, 'a', 00H, 't', 00H, 'h', 00H, ',', 00H, ' ', 00H
	DB	'%', 00H, 's', 00H, 00H, 00H
	ORG $+2
$SG79099 DB	'CreateCompleteFilePath', 00H
	ORG $+1
$SG79100 DB	'W:\cpp\void\dr/plat-win32.c', 00H
	ORG $+4
$SG95508 DB	'W', 00H, ':', 00H, '\', 00H, 'c', 00H, 'p', 00H, 'p', 00H
	DB	'\', 00H, 'v', 00H, 'o', 00H, 'i', 00H, 'd', 00H, '\', 00H, 'v'
	DB	00H, 'e', 00H, 'n', 00H, 'd', 00H, 'o', 00H, 'r', 00H, '\', 00H
	DB	's', 00H, 't', 00H, 'b', 00H, '\', 00H, 's', 00H, 't', 00H, 'b'
	DB	00H, '_', 00H, 't', 00H, 'r', 00H, 'u', 00H, 'e', 00H, 't', 00H
	DB	'y', 00H, 'p', 00H, 'e', 00H, '.', 00H, 'h', 00H, 00H, 00H
	ORG $+4
$SG95509 DB	'i', 00H, ' ', 00H, '!', 00H, '=', 00H, ' ', 00H, '0', 00H
	DB	00H, 00H
	ORG $+2
$SG87357 DB	'W', 00H, ':', 00H, '\', 00H, 'c', 00H, 'p', 00H, 'p', 00H
	DB	'\', 00H, 'v', 00H, 'o', 00H, 'i', 00H, 'd', 00H, '\', 00H, 'v'
	DB	00H, 'e', 00H, 'n', 00H, 'd', 00H, 'o', 00H, 'r', 00H, '\', 00H
	DB	's', 00H, 't', 00H, 'b', 00H, '\', 00H, 's', 00H, 't', 00H, 'b'
	DB	00H, '.', 00H, 'h', 00H, 00H, 00H
	ORG $+6
$SG79165 DB	'F', 00H, 'i', 00H, 'l', 00H, 'e', 00H, ' ', 00H, 'P', 00H
	DB	'r', 00H, 'e', 00H, 's', 00H, 'e', 00H, 'n', 00H, 't', 00H, ' '
	DB	00H, '%', 00H, 's', 00H, 00H, 00H
$SG87358 DB	'!', 00H, '(', 00H, '(', 00H, 'o', 00H, 'p', 00H, 't', 00H
	DB	's', 00H, ')', 00H, ')', 00H, ' ', 00H, '|', 00H, '|', 00H, ' '
	DB	00H, 's', 00H, 't', 00H, 'b', 00H, '_', 00H, 'a', 00H, 'r', 00H
	DB	'r', 00H, 'h', 00H, 'e', 00H, 'a', 00H, 'd', 00H, '(', 00H, '('
	DB	00H, '(', 00H, 'o', 00H, 'p', 00H, 't', 00H, 's', 00H, ')', 00H
	DB	')', 00H, ')', 00H, '-', 00H, '>', 00H, 's', 00H, 'i', 00H, 'g'
	DB	00H, 'n', 00H, 'a', 00H, 't', 00H, 'u', 00H, 'r', 00H, 'e', 00H
	DB	' ', 00H, '=', 00H, '=', 00H, ' ', 00H, 's', 00H, 't', 00H, 'b'
	DB	00H, '_', 00H, 'a', 00H, 'r', 00H, 'r', 00H, '_', 00H, 's', 00H
	DB	'i', 00H, 'g', 00H, 'n', 00H, 'a', 00H, 't', 00H, 'u', 00H, 'r'
	DB	00H, 'e', 00H, 00H, 00H
	ORG $+2
$SG79166 DB	'FileTreeReviseSingle', 00H
	ORG $+3
$SG79167 DB	'W:\cpp\void\dr/plat-win32.c', 00H
	ORG $+4
$SG79170 DB	'F', 00H, 'i', 00H, 'l', 00H, 'e', 00H, ' ', 00H, 'R', 00H
	DB	'e', 00H, 'm', 00H, 'o', 00H, 'v', 00H, 'e', 00H, 'd', 00H, ' '
	DB	00H, '%', 00H, 's', 00H, 00H, 00H
$SG79171 DB	'FileTreeReviseSingle', 00H
	ORG $+3
$SG79172 DB	'W:\cpp\void\dr/plat-win32.c', 00H
	ORG $+4
$SG87366 DB	'W', 00H, ':', 00H, '\', 00H, 'c', 00H, 'p', 00H, 'p', 00H
	DB	'\', 00H, 'v', 00H, 'o', 00H, 'i', 00H, 'd', 00H, '\', 00H, 'v'
	DB	00H, 'e', 00H, 'n', 00H, 'd', 00H, 'o', 00H, 'r', 00H, '\', 00H
	DB	's', 00H, 't', 00H, 'b', 00H, '\', 00H, 's', 00H, 't', 00H, 'b'
	DB	00H, '.', 00H, 'h', 00H, 00H, 00H
	ORG $+6
$SG79174 DB	'N', 00H, 'O', 00H, '_', 00H, 'M', 00H, 'E', 00H, 'S', 00H
	DB	'S', 00H, 'A', 00H, 'G', 00H, 'E', 00H, 00H, 00H
	ORG $+2
$SG87367 DB	'!', 00H, '(', 00H, '(', 00H, 'o', 00H, 'p', 00H, 't', 00H
	DB	's', 00H, ')', 00H, ')', 00H, ' ', 00H, '|', 00H, '|', 00H, ' '
	DB	00H, 's', 00H, 't', 00H, 'b', 00H, '_', 00H, 'a', 00H, 'r', 00H
	DB	'r', 00H, 'h', 00H, 'e', 00H, 'a', 00H, 'd', 00H, '(', 00H, '('
	DB	00H, '(', 00H, 'o', 00H, 'p', 00H, 't', 00H, 's', 00H, ')', 00H
	DB	')', 00H, ')', 00H, '-', 00H, '>', 00H, 's', 00H, 'i', 00H, 'g'
	DB	00H, 'n', 00H, 'a', 00H, 't', 00H, 'u', 00H, 'r', 00H, 'e', 00H
	DB	' ', 00H, '=', 00H, '=', 00H, ' ', 00H, 's', 00H, 't', 00H, 'b'
	DB	00H, '_', 00H, 'a', 00H, 'r', 00H, 'r', 00H, '_', 00H, 's', 00H
	DB	'i', 00H, 'g', 00H, 'n', 00H, 'a', 00H, 't', 00H, 'u', 00H, 'r'
	DB	00H, 'e', 00H, 00H, 00H
	ORG $+2
$SG79175 DB	'Old->File.IsFile == New->File.IsFile', 00H
	ORG $+3
$SG87368 DB	'W', 00H, ':', 00H, '\', 00H, 'c', 00H, 'p', 00H, 'p', 00H
	DB	'\', 00H, 'v', 00H, 'o', 00H, 'i', 00H, 'd', 00H, '\', 00H, 'v'
	DB	00H, 'e', 00H, 'n', 00H, 'd', 00H, 'o', 00H, 'r', 00H, '\', 00H
	DB	's', 00H, 't', 00H, 'b', 00H, '\', 00H, 's', 00H, 't', 00H, 'b'
	DB	00H, '.', 00H, 'h', 00H, 00H, 00H
	ORG $+6
$SG79176 DB	'FileTreeReviseSingle', 00H
	ORG $+3
$SG79179 DB	'F', 00H, 'i', 00H, 'l', 00H, 'e', 00H, ' ', 00H, 'T', 00H
	DB	'i', 00H, 'm', 00H, 'e', 00H, ' ', 00H, 'M', 00H, 'a', 00H, 'd'
	DB	00H, 'e', 00H, ' ', 00H, 'C', 00H, 'h', 00H, 'a', 00H, 'n', 00H
	DB	'g', 00H, 'e', 00H, 'd', 00H, ' ', 00H, '%', 00H, 's', 00H, 00H
	DB	00H
	ORG $+4
$SG87369 DB	'!', 00H, '(', 00H, '(', 00H, 'o', 00H, 'p', 00H, 't', 00H
	DB	's', 00H, ')', 00H, ')', 00H, ' ', 00H, '|', 00H, '|', 00H, ' '
	DB	00H, 's', 00H, 't', 00H, 'b', 00H, '_', 00H, 'a', 00H, 'r', 00H
	DB	'r', 00H, 'h', 00H, 'e', 00H, 'a', 00H, 'd', 00H, '(', 00H, '('
	DB	00H, '(', 00H, 'o', 00H, 'p', 00H, 't', 00H, 's', 00H, ')', 00H
	DB	')', 00H, ')', 00H, '-', 00H, '>', 00H, 's', 00H, 'i', 00H, 'g'
	DB	00H, 'n', 00H, 'a', 00H, 't', 00H, 'u', 00H, 'r', 00H, 'e', 00H
	DB	' ', 00H, '=', 00H, '=', 00H, ' ', 00H, 's', 00H, 't', 00H, 'b'
	DB	00H, '_', 00H, 'a', 00H, 'r', 00H, 'r', 00H, '_', 00H, 's', 00H
	DB	'i', 00H, 'g', 00H, 'n', 00H, 'a', 00H, 't', 00H, 'u', 00H, 'r'
	DB	00H, 'e', 00H, 00H, 00H
	ORG $+2
$SG79177 DB	'W:\cpp\void\dr/plat-win32.c', 00H
	ORG $+4
$SG79180 DB	'FileTreeReviseSingle', 00H
	ORG $+3
$SG79181 DB	'W:\cpp\void\dr/plat-win32.c', 00H
	ORG $+4
$SG79183 DB	'F', 00H, 'i', 00H, 'l', 00H, 'e', 00H, ' ', 00H, 'T', 00H
	DB	'i', 00H, 'm', 00H, 'e', 00H, ' ', 00H, 'E', 00H, 'd', 00H, 'i'
	DB	00H, 't', 00H, ' ', 00H, 'C', 00H, 'h', 00H, 'a', 00H, 'n', 00H
	DB	'g', 00H, 'e', 00H, 'd', 00H, ' ', 00H, '%', 00H, 's', 00H, 00H
	DB	00H
	ORG $+4
$SG79184 DB	'FileTreeReviseSingle', 00H
	ORG $+3
$SG79185 DB	'W:\cpp\void\dr/plat-win32.c', 00H
	ORG $+4
$SG79187 DB	'F', 00H, 'i', 00H, 'l', 00H, 'e', 00H, ' ', 00H, 'T', 00H
	DB	'i', 00H, 'm', 00H, 'e', 00H, ' ', 00H, 'R', 00H, 'e', 00H, 'a'
	DB	00H, 'd', 00H, ' ', 00H, 'C', 00H, 'h', 00H, 'a', 00H, 'n', 00H
	DB	'g', 00H, 'e', 00H, 'd', 00H, ' ', 00H, '%', 00H, 's', 00H, 00H
	DB	00H
	ORG $+4
$SG79188 DB	'FileTreeReviseSingle', 00H
	ORG $+3
$SG79189 DB	'W:\cpp\void\dr/plat-win32.c', 00H
	ORG $+4
$SG103800 DB	'I', 00H, 'n', 00H, 'v', 00H, 'a', 00H, 'l', 00H, 'i', 00H
	DB	'd', 00H, ' ', 00H, 'p', 00H, 'i', 00H, 'x', 00H, 'e', 00H, 'l'
	DB	00H, ' ', 00H, 'X', 00H, ' ', 00H, 'c', 00H, 'o', 00H, 'o', 00H
	DB	'r', 00H, 'd', 00H, 'i', 00H, 'n', 00H, 'a', 00H, 't', 00H, 'e'
	DB	00H, ' ', 00H, '%', 00H, 'i', 00H, ',', 00H, ' ', 00H, 'l', 00H
	DB	'i', 00H, 'm', 00H, 'i', 00H, 't', 00H, ' ', 00H, 'i', 00H, 's'
	DB	00H, ' ', 00H, '%', 00H, 'i', 00H, 00H, 00H
	ORG $+2
$SG103801 DB	'X < Texture->DimenX', 00H
	ORG $+4
$SG103802 DB	'ZenGetTextureMemoryAt', 00H
	ORG $+2
$SG95610 DB	'name', 00H
	ORG $+3
$SG103803 DB	'W:\cpp\void\detroit\brazen-texture.h', 00H
	ORG $+3
$SG103805 DB	'Y < Texture->DimenY', 00H
	ORG $+4
$SG103804 DB	'I', 00H, 'n', 00H, 'v', 00H, 'a', 00H, 'l', 00H, 'i', 00H
	DB	'd', 00H, ' ', 00H, 'p', 00H, 'i', 00H, 'x', 00H, 'e', 00H, 'l'
	DB	00H, ' ', 00H, 'Y', 00H, ' ', 00H, 'c', 00H, 'o', 00H, 'o', 00H
	DB	'r', 00H, 'd', 00H, 'i', 00H, 'n', 00H, 'a', 00H, 't', 00H, 'e'
	DB	00H, ' ', 00H, '%', 00H, 'i', 00H, ',', 00H, ' ', 00H, 'l', 00H
	DB	'i', 00H, 'm', 00H, 'i', 00H, 't', 00H, ' ', 00H, 'i', 00H, 's'
	DB	00H, ' ', 00H, '%', 00H, 'i', 00H, 00H, 00H
	ORG $+2
$SG103806 DB	'ZenGetTextureMemoryAt', 00H
	ORG $+2
$SG103807 DB	'W:\cpp\void\detroit\brazen-texture.h', 00H
	ORG $+3
$SG87445 DB	'utf8', 00H
	ORG $+3
$SG87447 DB	'%s to convert ''%S'' to %s!', 0aH, 00H
	ORG $+5
$SG103838 DB	'I', 00H, 'n', 00H, 'v', 00H, 'a', 00H, 'l', 00H, 'i', 00H
	DB	'd', 00H, ' ', 00H, 't', 00H, 'e', 00H, 'x', 00H, 't', 00H, 'u'
	DB	00H, 'r', 00H, 'e', 00H, ' ', 00H, 'd', 00H, 'i', 00H, 'm', 00H
	DB	'e', 00H, 'n', 00H, 's', 00H, 'i', 00H, 'o', 00H, 'n', 00H, 's'
	DB	00H, 00H, 00H
	ORG $+2
$SG87454 DB	'%s%s', 00H
	ORG $+3
$SG103839 DB	'Destination->DimenX >= Source->DimenX', 00H
	ORG $+2
$SG103840 DB	'ZenCopyTexture', 00H
	ORG $+1
$SG87456 DB	'W', 00H, ':', 00H, '\', 00H, 'c', 00H, 'p', 00H, 'p', 00H
	DB	'\', 00H, 'v', 00H, 'o', 00H, 'i', 00H, 'd', 00H, '\', 00H, 'v'
	DB	00H, 'e', 00H, 'n', 00H, 'd', 00H, 'o', 00H, 'r', 00H, '\', 00H
	DB	's', 00H, 't', 00H, 'b', 00H, '\', 00H, 's', 00H, 't', 00H, 'b'
	DB	00H, '.', 00H, 'h', 00H, 00H, 00H
	ORG $+6
$SG103841 DB	'W:\cpp\void\detroit\brazen-texture.h', 00H
	ORG $+3
$SG87457 DB	'!', 00H, '(', 00H, '(', 00H, 'r', 00H, 'e', 00H, 's', 00H
	DB	'u', 00H, 'l', 00H, 't', 00H, 's', 00H, ')', 00H, ')', 00H, ' '
	DB	00H, '|', 00H, '|', 00H, ' ', 00H, 's', 00H, 't', 00H, 'b', 00H
	DB	'_', 00H, 'a', 00H, 'r', 00H, 'r', 00H, 'h', 00H, 'e', 00H, 'a'
	DB	00H, 'd', 00H, '(', 00H, '(', 00H, '(', 00H, 'r', 00H, 'e', 00H
	DB	's', 00H, 'u', 00H, 'l', 00H, 't', 00H, 's', 00H, ')', 00H, ')'
	DB	00H, ')', 00H, '-', 00H, '>', 00H, 's', 00H, 'i', 00H, 'g', 00H
	DB	'n', 00H, 'a', 00H, 't', 00H, 'u', 00H, 'r', 00H, 'e', 00H, ' '
	DB	00H, '=', 00H, '=', 00H, ' ', 00H, 's', 00H, 't', 00H, 'b', 00H
	DB	'_', 00H, 'a', 00H, 'r', 00H, 'r', 00H, '_', 00H, 's', 00H, 'i'
	DB	00H, 'g', 00H, 'n', 00H, 'a', 00H, 't', 00H, 'u', 00H, 'r', 00H
	DB	'e', 00H, 00H, 00H
	ORG $+6
$SG103842 DB	'I', 00H, 'n', 00H, 'v', 00H, 'a', 00H, 'l', 00H, 'i', 00H
	DB	'd', 00H, ' ', 00H, 't', 00H, 'e', 00H, 'x', 00H, 't', 00H, 'u'
	DB	00H, 'r', 00H, 'e', 00H, ' ', 00H, 'd', 00H, 'i', 00H, 'm', 00H
	DB	'e', 00H, 'n', 00H, 's', 00H, 'i', 00H, 'o', 00H, 'n', 00H, 's'
	DB	00H, 00H, 00H
	ORG $+2
$SG103843 DB	'Destination->DimenY >= Source->DimenY', 00H
	ORG $+2
$SG103844 DB	'ZenCopyTexture', 00H
	ORG $+1
$SG103845 DB	'W:\cpp\void\detroit\brazen-texture.h', 00H
	ORG $+3
$SG103846 DB	'I', 00H, 'n', 00H, 'v', 00H, 'a', 00H, 'l', 00H, 'i', 00H
	DB	'd', 00H, ' ', 00H, 't', 00H, 'e', 00H, 'x', 00H, 't', 00H, 'u'
	DB	00H, 'r', 00H, 'e', 00H, ' ', 00H, 's', 00H, 't', 00H, 'r', 00H
	DB	'i', 00H, 'd', 00H, 'e', 00H, 00H, 00H
	ORG $+2
$SG103847 DB	'Destination->Stride >= Source->Stride', 00H
	ORG $+2
$SG103848 DB	'ZenCopyTexture', 00H
	ORG $+1
$SG103849 DB	'W:\cpp\void\detroit\brazen-texture.h', 00H
	ORG $+3
$SG103850 DB	'M', 00H, 'i', 00H, 's', 00H, 's', 00H, 'i', 00H, 'n', 00H
	DB	'g', 00H, ' ', 00H, 'd', 00H, 'e', 00H, 's', 00H, 't', 00H, 'i'
	DB	00H, 'n', 00H, 'a', 00H, 't', 00H, 'i', 00H, 'o', 00H, 'n', 00H
	DB	' ', 00H, 't', 00H, 'e', 00H, 'x', 00H, 't', 00H, 'u', 00H, 'r'
	DB	00H, 'e', 00H, ' ', 00H, 'm', 00H, 'e', 00H, 'm', 00H, 'o', 00H
	DB	'r', 00H, 'y', 00H, 00H, 00H
	ORG $+2
$SG103851 DB	'Destination->Memory != NULL', 00H
	ORG $+4
$SG103852 DB	'ZenCopyTexture', 00H
	ORG $+1
$SG103853 DB	'W:\cpp\void\detroit\brazen-texture.h', 00H
	ORG $+3
$SG103854 DB	'M', 00H, 'i', 00H, 's', 00H, 's', 00H, 'i', 00H, 'n', 00H
	DB	'g', 00H, ' ', 00H, 's', 00H, 'o', 00H, 'u', 00H, 'r', 00H, 'c'
	DB	00H, 'e', 00H, ' ', 00H, 't', 00H, 'e', 00H, 'x', 00H, 't', 00H
	DB	'u', 00H, 'r', 00H, 'e', 00H, ' ', 00H, 'm', 00H, 'e', 00H, 'm'
	DB	00H, 'o', 00H, 'r', 00H, 'y', 00H, 00H, 00H
	ORG $+4
$SG103855 DB	'Source->Memory != NULL', 00H
	ORG $+1
$SG95663 DB	'head', 00H
	ORG $+3
$SG103856 DB	'ZenCopyTexture', 00H
	ORG $+1
$SG103857 DB	'W:\cpp\void\detroit\brazen-texture.h', 00H
	ORG $+3
$SG95665 DB	'name', 00H
	ORG $+3
$SG103858 DB	'I', 00H, 'n', 00H, 'v', 00H, 'a', 00H, 'l', 00H, 'i', 00H
	DB	'd', 00H, ' ', 00H, 's', 00H, 'o', 00H, 'u', 00H, 'r', 00H, 'c'
	DB	00H, 'e', 00H, ' ', 00H, 't', 00H, 'e', 00H, 'x', 00H, 't', 00H
	DB	'u', 00H, 'r', 00H, 'e', 00H, ',', 00H, ' ', 00H, 'b', 00H, 'a'
	DB	00H, 'd', 00H, ' ', 00H, 's', 00H, 't', 00H, 'r', 00H, 'i', 00H
	DB	'd', 00H, 'e', 00H, 00H, 00H
	ORG $+2
$SG103859 DB	'RowSize <= Source->Stride', 00H
	ORG $+6
$SG103860 DB	'ZenCopyTexture', 00H
	ORG $+1
$SG103861 DB	'W:\cpp\void\detroit\brazen-texture.h', 00H
	ORG $+3
$SG103882 DB	'N', 00H, 'O', 00H, '_', 00H, 'M', 00H, 'E', 00H, 'S', 00H
	DB	'S', 00H, 'A', 00H, 'G', 00H, 'E', 00H, 00H, 00H
	ORG $+2
$SG103883 DB	'Texture->Format == PIXEL_FORMAT_RGB8', 00H
	ORG $+3
$SG103884 DB	'ZenDrawQuadOnTexture', 00H
	ORG $+3
$SG103885 DB	'W:\cpp\void\detroit\brazen-texture.h', 00H
	ORG $+3
$SG87501 DB	'W', 00H, ':', 00H, '\', 00H, 'c', 00H, 'p', 00H, 'p', 00H
	DB	'\', 00H, 'v', 00H, 'o', 00H, 'i', 00H, 'd', 00H, '\', 00H, 'v'
	DB	00H, 'e', 00H, 'n', 00H, 'd', 00H, 'o', 00H, 'r', 00H, '\', 00H
	DB	's', 00H, 't', 00H, 'b', 00H, '\', 00H, 's', 00H, 't', 00H, 'b'
	DB	00H, '.', 00H, 'h', 00H, 00H, 00H
	ORG $+6
$SG87502 DB	'!', 00H, '(', 00H, '(', 00H, 's', 00H, 'o', 00H, 'f', 00H
	DB	'a', 00H, 'r', 00H, ')', 00H, ')', 00H, ' ', 00H, '|', 00H, '|'
	DB	00H, ' ', 00H, 's', 00H, 't', 00H, 'b', 00H, '_', 00H, 'a', 00H
	DB	'r', 00H, 'r', 00H, 'h', 00H, 'e', 00H, 'a', 00H, 'd', 00H, '('
	DB	00H, '(', 00H, '(', 00H, 's', 00H, 'o', 00H, 'f', 00H, 'a', 00H
	DB	'r', 00H, ')', 00H, ')', 00H, ')', 00H, '-', 00H, '>', 00H, 's'
	DB	00H, 'i', 00H, 'g', 00H, 'n', 00H, 'a', 00H, 't', 00H, 'u', 00H
	DB	'r', 00H, 'e', 00H, ' ', 00H, '=', 00H, '=', 00H, ' ', 00H, 's'
	DB	00H, 't', 00H, 'b', 00H, '_', 00H, 'a', 00H, 'r', 00H, 'r', 00H
	DB	'_', 00H, 's', 00H, 'i', 00H, 'g', 00H, 'n', 00H, 'a', 00H, 't'
	DB	00H, 'u', 00H, 'r', 00H, 'e', 00H, 00H, 00H
	ORG $+6
$SG79340 DB	'N', 00H, 'O', 00H, '_', 00H, 'M', 00H, 'E', 00H, 'S', 00H
	DB	'S', 00H, 'A', 00H, 'G', 00H, 'E', 00H, 00H, 00H
	ORG $+2
$SG79341 DB	'Queue->ConsumerTail <= Queue->Consumer', 00H
	ORG $+1
$SG79342 DB	'FileQueueGetTask', 00H
	ORG $+7
$SG79343 DB	'W:\cpp\void\dr/plat-win32.c', 00H
	ORG $+4
$SG79344 DB	'N', 00H, 'O', 00H, '_', 00H, 'M', 00H, 'E', 00H, 'S', 00H
	DB	'S', 00H, 'A', 00H, 'G', 00H, 'E', 00H, 00H, 00H
	ORG $+2
$SG79345 DB	'Queue->ProducerTail <= Queue->Producer', 00H
	ORG $+1
$SG79346 DB	'FileQueueGetTask', 00H
	ORG $+7
$SG79347 DB	'W:\cpp\void\dr/plat-win32.c', 00H
	ORG $+4
$SG79351 DB	'N', 00H, 'o', 00H, 't', 00H, ' ', 00H, 'E', 00H, 'n', 00H
	DB	'o', 00H, 'u', 00H, 'g', 00H, 'h', 00H, ' ', 00H, 'T', 00H, 'a'
	DB	00H, 's', 00H, 'k', 00H, 's', 00H, ',', 00H, ' ', 00H, 'A', 00H
	DB	's', 00H, 'k', 00H, 'e', 00H, 'd', 00H, ' ', 00H, 'F', 00H, 'o'
	DB	00H, 'r', 00H, ' ', 00H, '[', 00H, '%', 00H, 'i', 00H, ']', 00H
	DB	' ', 00H, 'T', 00H, 'h', 00H, 'e', 00H, 'r', 00H, 'e', 00H, ' '
	DB	00H, 'A', 00H, 'r', 00H, 'e', 00H, ' ', 00H, 'O', 00H, 'n', 00H
	DB	'l', 00H, 'y', 00H, ' ', 00H, '[', 00H, '%', 00H, 'i', 00H, ']'
	DB	00H, 00H, 00H
	ORG $+6
$SG79352 DB	'FileQueueGetTask', 00H
	ORG $+7
$SG79353 DB	'W:\cpp\void\dr/plat-win32.c', 00H
	ORG $+4
$SG79372 DB	'N', 00H, 'O', 00H, '_', 00H, 'M', 00H, 'E', 00H, 'S', 00H
	DB	'S', 00H, 'A', 00H, 'G', 00H, 'E', 00H, 00H, 00H
	ORG $+2
$SG79373 DB	'Queue->ConsumerTail <= Queue->Consumer', 00H
	ORG $+1
$SG79374 DB	'FileQueueSetTask', 00H
	ORG $+7
$SG79375 DB	'W:\cpp\void\dr/plat-win32.c', 00H
	ORG $+4
$SG79376 DB	'N', 00H, 'O', 00H, '_', 00H, 'M', 00H, 'E', 00H, 'S', 00H
	DB	'S', 00H, 'A', 00H, 'G', 00H, 'E', 00H, 00H, 00H
	ORG $+2
$SG79377 DB	'Queue->ProducerTail <= Queue->Producer', 00H
	ORG $+1
$SG79378 DB	'FileQueueSetTask', 00H
	ORG $+7
$SG79379 DB	'W:\cpp\void\dr/plat-win32.c', 00H
	ORG $+4
$SG79383 DB	'T', 00H, 'o', 00H, 'o', 00H, ' ', 00H, 'M', 00H, 'a', 00H
	DB	'n', 00H, 'y', 00H, ' ', 00H, 'T', 00H, 'a', 00H, 's', 00H, 'k'
	DB	00H, 's', 00H, 00H, 00H
	ORG $+2
$SG79384 DB	'FileQueueSetTask', 00H
	ORG $+7
$SG79385 DB	'W:\cpp\void\dr/plat-win32.c', 00H
	ORG $+4
$SG79409 DB	'T', 00H, 'h', 00H, 'r', 00H, 'e', 00H, 'a', 00H, 'd', 00H
	DB	' ', 00H, 'E', 00H, 'n', 00H, 't', 00H, 'e', 00H, 'r', 00H, 's'
	DB	00H, 00H, 00H
	ORG $+4
$SG79410 DB	'FileQueueThreadRoutine', 00H
	ORG $+1
$SG79411 DB	'W:\cpp\void\dr/plat-win32.c', 00H
	ORG $+4
$SG79412 DB	'F', 00H, 'i', 00H, 'l', 00H, 'e', 00H, 'T', 00H, 'a', 00H
	DB	's', 00H, 'k', 00H, '.', 00H, 'W', 00H, 'o', 00H, 'r', 00H, 'k'
	DB	00H, ' ', 00H, 'N', 00H, 'U', 00H, 'L', 00H, 'L', 00H, 00H, 00H
	ORG $+2
$SG79413 DB	'FileTask.Work != NULL', 00H
	ORG $+2
$SG79414 DB	'FileQueueThreadRoutine', 00H
	ORG $+1
$SG79415 DB	'W:\cpp\void\dr/plat-win32.c', 00H
	ORG $+4
$SG79419 DB	'T', 00H, 'h', 00H, 'r', 00H, 'e', 00H, 'a', 00H, 'd', 00H
	DB	' ', 00H, 'L', 00H, 'e', 00H, 'a', 00H, 'v', 00H, 'e', 00H, 's'
	DB	00H, 00H, 00H
	ORG $+4
$SG79420 DB	'FileQueueThreadRoutine', 00H
	ORG $+1
$SG79421 DB	'W:\cpp\void\dr/plat-win32.c', 00H
	ORG $+4
$SG87633 DB	'W', 00H, ':', 00H, '\', 00H, 'c', 00H, 'p', 00H, 'p', 00H
	DB	'\', 00H, 'v', 00H, 'o', 00H, 'i', 00H, 'd', 00H, '\', 00H, 'v'
	DB	00H, 'e', 00H, 'n', 00H, 'd', 00H, 'o', 00H, 'r', 00H, '\', 00H
	DB	's', 00H, 't', 00H, 'b', 00H, '\', 00H, 's', 00H, 't', 00H, 'b'
	DB	00H, '.', 00H, 'h', 00H, 00H, 00H
	ORG $+6
$SG87652 DB	't', 00H, ' ', 00H, '!', 00H, '=', 00H, ' ', 00H, 'N', 00H
	DB	'U', 00H, 'L', 00H, 'L', 00H, 00H, 00H
	ORG $+4
$SG87634 DB	'!', 00H, '(', 00H, '(', 00H, 'd', 00H, 'e', 00H, 's', 00H
	DB	'c', 00H, 'e', 00H, 'n', 00H, 'd', 00H, 'e', 00H, 'n', 00H, 't'
	DB	00H, 's', 00H, ')', 00H, ')', 00H, ' ', 00H, '|', 00H, '|', 00H
	DB	' ', 00H, 's', 00H, 't', 00H, 'b', 00H, '_', 00H, 'a', 00H, 'r'
	DB	00H, 'r', 00H, 'h', 00H, 'e', 00H, 'a', 00H, 'd', 00H, '(', 00H
	DB	'(', 00H, '(', 00H, 'd', 00H, 'e', 00H, 's', 00H, 'c', 00H, 'e'
	DB	00H, 'n', 00H, 'd', 00H, 'e', 00H, 'n', 00H, 't', 00H, 's', 00H
	DB	')', 00H, ')', 00H, ')', 00H, '-', 00H, '>', 00H, 's', 00H, 'i'
	DB	00H, 'g', 00H, 'n', 00H, 'a', 00H, 't', 00H, 'u', 00H, 'r', 00H
	DB	'e', 00H, ' ', 00H, '=', 00H, '=', 00H, ' ', 00H, 's', 00H, 't'
	DB	00H, 'b', 00H, '_', 00H, 'a', 00H, 'r', 00H, 'r', 00H, '_', 00H
	DB	's', 00H, 'i', 00H, 'g', 00H, 'n', 00H, 'a', 00H, 't', 00H, 'u'
	DB	00H, 'r', 00H, 'e', 00H, 00H, 00H
	ORG $+6
$SG87642 DB	'W', 00H, ':', 00H, '\', 00H, 'c', 00H, 'p', 00H, 'p', 00H
	DB	'\', 00H, 'v', 00H, 'o', 00H, 'i', 00H, 'd', 00H, '\', 00H, 'v'
	DB	00H, 'e', 00H, 'n', 00H, 'd', 00H, 'o', 00H, 'r', 00H, '\', 00H
	DB	's', 00H, 't', 00H, 'b', 00H, '\', 00H, 's', 00H, 't', 00H, 'b'
	DB	00H, '.', 00H, 'h', 00H, 00H, 00H
	ORG $+6
$SG79472 DB	'FileQueueBegin', 00H
	ORG $+1
$SG79500 DB	'ARCHIVE', 00H
$SG87643 DB	'!', 00H, '(', 00H, '(', 00H, 'f', 00H, 'i', 00H, 'l', 00H
	DB	'e', 00H, 's', 00H, ')', 00H, ')', 00H, ' ', 00H, '|', 00H, '|'
	DB	00H, ' ', 00H, 's', 00H, 't', 00H, 'b', 00H, '_', 00H, 'a', 00H
	DB	'r', 00H, 'r', 00H, 'h', 00H, 'e', 00H, 'a', 00H, 'd', 00H, '('
	DB	00H, '(', 00H, '(', 00H, 'f', 00H, 'i', 00H, 'l', 00H, 'e', 00H
	DB	's', 00H, ')', 00H, ')', 00H, ')', 00H, '-', 00H, '>', 00H, 's'
	DB	00H, 'i', 00H, 'g', 00H, 'n', 00H, 'a', 00H, 't', 00H, 'u', 00H
	DB	'r', 00H, 'e', 00H, ' ', 00H, '=', 00H, '=', 00H, ' ', 00H, 's'
	DB	00H, 't', 00H, 'b', 00H, '_', 00H, 'a', 00H, 'r', 00H, 'r', 00H
	DB	'_', 00H, 's', 00H, 'i', 00H, 'g', 00H, 'n', 00H, 'a', 00H, 't'
	DB	00H, 'u', 00H, 'r', 00H, 'e', 00H, 00H, 00H
	ORG $+6
$SG87644 DB	'W', 00H, ':', 00H, '\', 00H, 'c', 00H, 'p', 00H, 'p', 00H
	DB	'\', 00H, 'v', 00H, 'o', 00H, 'i', 00H, 'd', 00H, '\', 00H, 'v'
	DB	00H, 'e', 00H, 'n', 00H, 'd', 00H, 'o', 00H, 'r', 00H, '\', 00H
	DB	's', 00H, 't', 00H, 'b', 00H, '\', 00H, 's', 00H, 't', 00H, 'b'
	DB	00H, '.', 00H, 'h', 00H, 00H, 00H
	ORG $+6
$SG87645 DB	'!', 00H, 'd', 00H, 'e', 00H, 's', 00H, 'c', 00H, 'e', 00H
	DB	'n', 00H, 'd', 00H, 'e', 00H, 'n', 00H, 't', 00H, 's', 00H, ' '
	DB	00H, '|', 00H, '|', 00H, ' ', 00H, 's', 00H, 't', 00H, 'b', 00H
	DB	'_', 00H, 'a', 00H, 'r', 00H, 'r', 00H, 'h', 00H, 'e', 00H, 'a'
	DB	00H, 'd', 00H, '(', 00H, 'd', 00H, 'e', 00H, 's', 00H, 'c', 00H
	DB	'e', 00H, 'n', 00H, 'd', 00H, 'e', 00H, 'n', 00H, 't', 00H, 's'
	DB	00H, ')', 00H, '-', 00H, '>', 00H, 's', 00H, 'i', 00H, 'g', 00H
	DB	'n', 00H, 'a', 00H, 't', 00H, 'u', 00H, 'r', 00H, 'e', 00H, ' '
	DB	00H, '=', 00H, '=', 00H, ' ', 00H, 's', 00H, 't', 00H, 'b', 00H
	DB	'_', 00H, 'a', 00H, 'r', 00H, 'r', 00H, '_', 00H, 's', 00H, 'i'
	DB	00H, 'g', 00H, 'n', 00H, 'a', 00H, 't', 00H, 'u', 00H, 'r', 00H
	DB	'e', 00H, 00H, 00H
	ORG $+6
$SG87648 DB	'W', 00H, ':', 00H, '\', 00H, 'c', 00H, 'p', 00H, 'p', 00H
	DB	'\', 00H, 'v', 00H, 'o', 00H, 'i', 00H, 'd', 00H, '\', 00H, 'v'
	DB	00H, 'e', 00H, 'n', 00H, 'd', 00H, 'o', 00H, 'r', 00H, '\', 00H
	DB	's', 00H, 't', 00H, 'b', 00H, '\', 00H, 's', 00H, 't', 00H, 'b'
	DB	00H, '.', 00H, 'h', 00H, 00H, 00H
	ORG $+6
$SG87651 DB	'W', 00H, ':', 00H, '\', 00H, 'c', 00H, 'p', 00H, 'p', 00H
	DB	'\', 00H, 'v', 00H, 'o', 00H, 'i', 00H, 'd', 00H, '\', 00H, 'v'
	DB	00H, 'e', 00H, 'n', 00H, 'd', 00H, 'o', 00H, 'r', 00H, '\', 00H
	DB	's', 00H, 't', 00H, 'b', 00H, '\', 00H, 's', 00H, 't', 00H, 'b'
	DB	00H, '.', 00H, 'h', 00H, 00H, 00H
	ORG $+6
$SG87653 DB	'W', 00H, ':', 00H, '\', 00H, 'c', 00H, 'p', 00H, 'p', 00H
	DB	'\', 00H, 'v', 00H, 'o', 00H, 'i', 00H, 'd', 00H, '\', 00H, 'v'
	DB	00H, 'e', 00H, 'n', 00H, 'd', 00H, 'o', 00H, 'r', 00H, '\', 00H
	DB	's', 00H, 't', 00H, 'b', 00H, '\', 00H, 's', 00H, 't', 00H, 'b'
	DB	00H, '.', 00H, 'h', 00H, 00H, 00H
	ORG $+6
$SG79473 DB	'W:\cpp\void\dr/plat-win32.c', 00H
$SG87900 DB	'hkcu', 00H
	ORG $+7
$SG87654 DB	'!', 00H, '(', 00H, '(', 00H, 'd', 00H, '-', 00H, '>', 00H
	DB	's', 00H, 'u', 00H, 'b', 00H, 'd', 00H, 'i', 00H, 'r', 00H, 's'
	DB	00H, ')', 00H, ')', 00H, ' ', 00H, '|', 00H, '|', 00H, ' ', 00H
	DB	's', 00H, 't', 00H, 'b', 00H, '_', 00H, 'a', 00H, 'r', 00H, 'r'
	DB	00H, 'h', 00H, 'e', 00H, 'a', 00H, 'd', 00H, '(', 00H, '(', 00H
	DB	'(', 00H, 'd', 00H, '-', 00H, '>', 00H, 's', 00H, 'u', 00H, 'b'
	DB	00H, 'd', 00H, 'i', 00H, 'r', 00H, 's', 00H, ')', 00H, ')', 00H
	DB	')', 00H, '-', 00H, '>', 00H, 's', 00H, 'i', 00H, 'g', 00H, 'n'
	DB	00H, 'a', 00H, 't', 00H, 'u', 00H, 'r', 00H, 'e', 00H, ' ', 00H
	DB	'=', 00H, '=', 00H, ' ', 00H, 's', 00H, 't', 00H, 'b', 00H, '_'
	DB	00H, 'a', 00H, 'r', 00H, 'r', 00H, '_', 00H, 's', 00H, 'i', 00H
	DB	'g', 00H, 'n', 00H, 'a', 00H, 't', 00H, 'u', 00H, 'r', 00H, 'e'
	DB	00H, 00H, 00H
	ORG $+2
$SG79471 DB	'F', 00H, 'i', 00H, 'l', 00H, 'e', 00H, 'Q', 00H, 'u', 00H
	DB	'e', 00H, 'u', 00H, 'e', 00H, '.', 00H, 'C', 00H, 'o', 00H, 'r'
	DB	00H, 'e', 00H, '[', 00H, '%', 00H, 'i', 00H, ']', 00H, '.', 00H
	DB	'S', 00H, 'e', 00H, 't', 00H, 's', 00H, ' ', 00H, '=', 00H, ' '
	DB	00H, '%', 00H, 'i', 00H, ',', 00H, ' ', 00H, 'G', 00H, 'e', 00H
	DB	't', 00H, 's', 00H, ' ', 00H, '=', 00H, ' ', 00H, '%', 00H, 'i'
	DB	00H, 00H, 00H
$SG79501 DB	'COMPRESSED', 00H
	ORG $+5
$SG79503 DB	'DIRECTORY', 00H
	ORG $+6
$SG79504 DB	'ENCRYPTED', 00H
	ORG $+6
$SG79506 DB	'INTEGRITY_STREAM', 00H
	ORG $+7
$SG79508 DB	'NOT_CONTENT_INDEXED', 00H
	ORG $+4
$SG79509 DB	'NO_SCRUB_DATA', 00H
	ORG $+2
$SG79510 DB	'OFFLINE', 00H
$SG79511 DB	'READONLY', 00H
	ORG $+7
$SG79512 DB	'RECALL_ON_DATA_ACCESS', 00H
	ORG $+2
$SG79513 DB	'RECALL_ON_OPEN', 00H
	ORG $+1
$SG79514 DB	'REPARSE_POINT', 00H
	ORG $+2
$SG79515 DB	'SPARSE_FILE', 00H
	ORG $+4
$SG79517 DB	'TEMPORARY', 00H
	ORG $+6
$SG79518 DB	'VIRTUAL', 00H
$SG79520 DB	'UNPINNED', 00H
	ORG $+7
$SG79534 DB	'INVALID_FILE_ATTRIBUTES', 00H
$SG79545 DB	'W', 00H, 'M', 00H, '_', 00H, 'N', 00H, 'U', 00H, 'L', 00H
	DB	'L', 00H, '(', 00H, '0', 00H, 'x', 00H, '0', 00H, '0', 00H, '0'
	DB	00H, '0', 00H, ')', 00H, 00H, 00H
$SG79547 DB	'W', 00H, 'M', 00H, '_', 00H, 'C', 00H, 'R', 00H, 'E', 00H
	DB	'A', 00H, 'T', 00H, 'E', 00H, '(', 00H, '0', 00H, 'x', 00H, '0'
	DB	00H, '0', 00H, '0', 00H, '1', 00H, ')', 00H, 00H, 00H
	ORG $+4
$SG79549 DB	'W', 00H, 'M', 00H, '_', 00H, 'D', 00H, 'E', 00H, 'S', 00H
	DB	'T', 00H, 'R', 00H, 'O', 00H, 'Y', 00H, '(', 00H, '0', 00H, 'x'
	DB	00H, '0', 00H, '0', 00H, '0', 00H, '2', 00H, ')', 00H, 00H, 00H
	ORG $+2
$SG79551 DB	'W', 00H, 'M', 00H, '_', 00H, 'M', 00H, 'O', 00H, 'V', 00H
	DB	'E', 00H, '(', 00H, '0', 00H, 'x', 00H, '0', 00H, '0', 00H, '0'
	DB	00H, '3', 00H, ')', 00H, 00H, 00H
$SG79553 DB	'W', 00H, 'M', 00H, '_', 00H, 'S', 00H, 'I', 00H, 'Z', 00H
	DB	'E', 00H, '(', 00H, '0', 00H, 'x', 00H, '0', 00H, '0', 00H, '0'
	DB	00H, '5', 00H, ')', 00H, 00H, 00H
$SG79555 DB	'W', 00H, 'M', 00H, '_', 00H, 'A', 00H, 'C', 00H, 'T', 00H
	DB	'I', 00H, 'V', 00H, 'A', 00H, 'T', 00H, 'E', 00H, '(', 00H, '0'
	DB	00H, 'x', 00H, '0', 00H, '0', 00H, '0', 00H, '6', 00H, ')', 00H
	DB	00H, 00H
$SG79557 DB	'W', 00H, 'M', 00H, '_', 00H, 'S', 00H, 'E', 00H, 'T', 00H
	DB	'F', 00H, 'O', 00H, 'C', 00H, 'U', 00H, 'S', 00H, '(', 00H, '0'
	DB	00H, 'x', 00H, '0', 00H, '0', 00H, '0', 00H, '7', 00H, ')', 00H
	DB	00H, 00H
$SG79559 DB	'W', 00H, 'M', 00H, '_', 00H, 'K', 00H, 'I', 00H, 'L', 00H
	DB	'L', 00H, 'F', 00H, 'O', 00H, 'C', 00H, 'U', 00H, 'S', 00H, '('
	DB	00H, '0', 00H, 'x', 00H, '0', 00H, '0', 00H, '0', 00H, '8', 00H
	DB	')', 00H, 00H, 00H
	ORG $+6
$SG79561 DB	'W', 00H, 'M', 00H, '_', 00H, 'E', 00H, 'N', 00H, 'A', 00H
	DB	'B', 00H, 'L', 00H, 'E', 00H, '(', 00H, '0', 00H, 'x', 00H, '0'
	DB	00H, '0', 00H, '0', 00H, 'A', 00H, ')', 00H, 00H, 00H
	ORG $+4
$SG79563 DB	'W', 00H, 'M', 00H, '_', 00H, 'S', 00H, 'E', 00H, 'T', 00H
	DB	'R', 00H, 'E', 00H, 'D', 00H, 'R', 00H, 'A', 00H, 'W', 00H, '('
	DB	00H, '0', 00H, 'x', 00H, '0', 00H, '0', 00H, '0', 00H, 'B', 00H
	DB	')', 00H, 00H, 00H
	ORG $+6
$SG79565 DB	'W', 00H, 'M', 00H, '_', 00H, 'S', 00H, 'E', 00H, 'T', 00H
	DB	'T', 00H, 'E', 00H, 'X', 00H, 'T', 00H, '(', 00H, '0', 00H, 'x'
	DB	00H, '0', 00H, '0', 00H, '0', 00H, 'C', 00H, ')', 00H, 00H, 00H
	ORG $+2
$SG79567 DB	'W', 00H, 'M', 00H, '_', 00H, 'G', 00H, 'E', 00H, 'T', 00H
	DB	'T', 00H, 'E', 00H, 'X', 00H, 'T', 00H, '(', 00H, '0', 00H, 'x'
	DB	00H, '0', 00H, '0', 00H, '0', 00H, 'D', 00H, ')', 00H, 00H, 00H
	ORG $+2
$SG79569 DB	'W', 00H, 'M', 00H, '_', 00H, 'G', 00H, 'E', 00H, 'T', 00H
	DB	'T', 00H, 'E', 00H, 'X', 00H, 'T', 00H, 'L', 00H, 'E', 00H, 'N'
	DB	00H, 'G', 00H, 'T', 00H, 'H', 00H, '(', 00H, '0', 00H, 'x', 00H
	DB	'0', 00H, '0', 00H, '0', 00H, 'E', 00H, ')', 00H, 00H, 00H
	ORG $+6
$SG79571 DB	'W', 00H, 'M', 00H, '_', 00H, 'P', 00H, 'A', 00H, 'I', 00H
	DB	'N', 00H, 'T', 00H, '(', 00H, '0', 00H, 'x', 00H, '0', 00H, '0'
	DB	00H, '0', 00H, 'F', 00H, ')', 00H, 00H, 00H
	ORG $+6
$SG79573 DB	'W', 00H, 'M', 00H, '_', 00H, 'C', 00H, 'L', 00H, 'O', 00H
	DB	'S', 00H, 'E', 00H, '(', 00H, '0', 00H, 'x', 00H, '0', 00H, '0'
	DB	00H, '1', 00H, '0', 00H, ')', 00H, 00H, 00H
	ORG $+6
$SG79575 DB	'W', 00H, 'M', 00H, '_', 00H, 'Q', 00H, 'U', 00H, 'E', 00H
	DB	'R', 00H, 'Y', 00H, 'E', 00H, 'N', 00H, 'D', 00H, 'S', 00H, 'E'
	DB	00H, 'S', 00H, 'S', 00H, 'I', 00H, 'O', 00H, 'N', 00H, '(', 00H
	DB	'0', 00H, 'x', 00H, '0', 00H, '0', 00H, '1', 00H, '1', 00H, ')'
	DB	00H, 00H, 00H
	ORG $+2
$SG79577 DB	'W', 00H, 'M', 00H, '_', 00H, 'Q', 00H, 'U', 00H, 'E', 00H
	DB	'R', 00H, 'Y', 00H, 'O', 00H, 'P', 00H, 'E', 00H, 'N', 00H, '('
	DB	00H, '0', 00H, 'x', 00H, '0', 00H, '0', 00H, '1', 00H, '3', 00H
	DB	')', 00H, 00H, 00H
	ORG $+6
$SG79579 DB	'W', 00H, 'M', 00H, '_', 00H, 'E', 00H, 'N', 00H, 'D', 00H
	DB	'S', 00H, 'E', 00H, 'S', 00H, 'S', 00H, 'I', 00H, 'O', 00H, 'N'
	DB	00H, '(', 00H, '0', 00H, 'x', 00H, '0', 00H, '0', 00H, '1', 00H
	DB	'6', 00H, ')', 00H, 00H, 00H
	ORG $+4
$SG79581 DB	'W', 00H, 'M', 00H, '_', 00H, 'Q', 00H, 'U', 00H, 'I', 00H
	DB	'T', 00H, '(', 00H, '0', 00H, 'x', 00H, '0', 00H, '0', 00H, '1'
	DB	00H, '2', 00H, ')', 00H, 00H, 00H
$SG79583 DB	'W', 00H, 'M', 00H, '_', 00H, 'E', 00H, 'R', 00H, 'A', 00H
	DB	'S', 00H, 'E', 00H, 'B', 00H, 'K', 00H, 'G', 00H, 'N', 00H, 'D'
	DB	00H, '(', 00H, '0', 00H, 'x', 00H, '0', 00H, '0', 00H, '1', 00H
	DB	'4', 00H, ')', 00H, 00H, 00H
	ORG $+4
$SG79585 DB	'W', 00H, 'M', 00H, '_', 00H, 'S', 00H, 'Y', 00H, 'S', 00H
	DB	'C', 00H, 'O', 00H, 'L', 00H, 'O', 00H, 'R', 00H, 'C', 00H, 'H'
	DB	00H, 'A', 00H, 'N', 00H, 'G', 00H, 'E', 00H, '(', 00H, '0', 00H
	DB	'x', 00H, '0', 00H, '0', 00H, '1', 00H, '5', 00H, ')', 00H, 00H
	DB	00H
	ORG $+4
$SG79587 DB	'W', 00H, 'M', 00H, '_', 00H, 'S', 00H, 'H', 00H, 'O', 00H
	DB	'W', 00H, 'W', 00H, 'I', 00H, 'N', 00H, 'D', 00H, 'O', 00H, 'W'
	DB	00H, '(', 00H, '0', 00H, 'x', 00H, '0', 00H, '0', 00H, '1', 00H
	DB	'8', 00H, ')', 00H, 00H, 00H
	ORG $+4
$SG79589 DB	'W', 00H, 'M', 00H, '_', 00H, 'W', 00H, 'I', 00H, 'N', 00H
	DB	'I', 00H, 'N', 00H, 'I', 00H, 'C', 00H, 'H', 00H, 'A', 00H, 'N'
	DB	00H, 'G', 00H, 'E', 00H, '(', 00H, '0', 00H, 'x', 00H, '0', 00H
	DB	'0', 00H, '1', 00H, 'A', 00H, ')', 00H, 00H, 00H
$SG79591 DB	'W', 00H, 'M', 00H, '_', 00H, 'D', 00H, 'E', 00H, 'V', 00H
	DB	'M', 00H, 'O', 00H, 'D', 00H, 'E', 00H, 'C', 00H, 'H', 00H, 'A'
	DB	00H, 'N', 00H, 'G', 00H, 'E', 00H, '(', 00H, '0', 00H, 'x', 00H
	DB	'0', 00H, '0', 00H, '1', 00H, 'B', 00H, ')', 00H, 00H, 00H
	ORG $+6
$SG79593 DB	'W', 00H, 'M', 00H, '_', 00H, 'A', 00H, 'C', 00H, 'T', 00H
	DB	'I', 00H, 'V', 00H, 'A', 00H, 'T', 00H, 'E', 00H, 'A', 00H, 'P'
	DB	00H, 'P', 00H, '(', 00H, '0', 00H, 'x', 00H, '0', 00H, '0', 00H
	DB	'1', 00H, 'C', 00H, ')', 00H, 00H, 00H
	ORG $+2
$SG79595 DB	'W', 00H, 'M', 00H, '_', 00H, 'F', 00H, 'O', 00H, 'N', 00H
	DB	'T', 00H, 'C', 00H, 'H', 00H, 'A', 00H, 'N', 00H, 'G', 00H, 'E'
	DB	00H, '(', 00H, '0', 00H, 'x', 00H, '0', 00H, '0', 00H, '1', 00H
	DB	'D', 00H, ')', 00H, 00H, 00H
	ORG $+4
$SG79597 DB	'W', 00H, 'M', 00H, '_', 00H, 'T', 00H, 'I', 00H, 'M', 00H
	DB	'E', 00H, 'C', 00H, 'H', 00H, 'A', 00H, 'N', 00H, 'G', 00H, 'E'
	DB	00H, '(', 00H, '0', 00H, 'x', 00H, '0', 00H, '0', 00H, '1', 00H
	DB	'E', 00H, ')', 00H, 00H, 00H
	ORG $+4
$SG87790 DB	'W', 00H, ':', 00H, '\', 00H, 'c', 00H, 'p', 00H, 'p', 00H
	DB	'\', 00H, 'v', 00H, 'o', 00H, 'i', 00H, 'd', 00H, '\', 00H, 'v'
	DB	00H, 'e', 00H, 'n', 00H, 'd', 00H, 'o', 00H, 'r', 00H, '\', 00H
	DB	's', 00H, 't', 00H, 'b', 00H, '\', 00H, 's', 00H, 't', 00H, 'b'
	DB	00H, '.', 00H, 'h', 00H, 00H, 00H
	ORG $+6
$SG87791 DB	'e', 00H, 'n', 00H, 'd', 00H, '_', 00H, 's', 00H, 't', 00H
	DB	'a', 00H, 'r', 00H, 't', 00H, ' ', 00H, '+', 00H, ' ', 00H, '1'
	DB	00H, '2', 00H, '8', 00H, ' ', 00H, '>', 00H, '=', 00H, ' ', 00H
	DB	'l', 00H, 'e', 00H, 'n', 00H, '+', 00H, '9', 00H, 00H, 00H
	ORG $+6
$SG79599 DB	'W', 00H, 'M', 00H, '_', 00H, 'C', 00H, 'A', 00H, 'N', 00H
	DB	'C', 00H, 'E', 00H, 'L', 00H, 'M', 00H, 'O', 00H, 'D', 00H, 'E'
	DB	00H, '(', 00H, '0', 00H, 'x', 00H, '0', 00H, '0', 00H, '1', 00H
	DB	'F', 00H, ')', 00H, 00H, 00H
	ORG $+4
$SG87792 DB	'W', 00H, ':', 00H, '\', 00H, 'c', 00H, 'p', 00H, 'p', 00H
	DB	'\', 00H, 'v', 00H, 'o', 00H, 'i', 00H, 'd', 00H, '\', 00H, 'v'
	DB	00H, 'e', 00H, 'n', 00H, 'd', 00H, 'o', 00H, 'r', 00H, '\', 00H
	DB	's', 00H, 't', 00H, 'b', 00H, '\', 00H, 's', 00H, 't', 00H, 'b'
	DB	00H, '.', 00H, 'h', 00H, 00H, 00H
	ORG $+6
$SG87793 DB	'e', 00H, 'n', 00H, 'd', 00H, '_', 00H, 's', 00H, 't', 00H
	DB	'a', 00H, 'r', 00H, 't', 00H, ' ', 00H, '<', 00H, ' ', 00H, 'l'
	DB	00H, 'e', 00H, 'n', 00H, ' ', 00H, '|', 00H, '|', 00H, ' ', 00H
	DB	'l', 00H, 'e', 00H, 'n', 00H, ' ', 00H, '<', 00H, ' ', 00H, '6'
	DB	00H, '4', 00H, '-', 00H, '9', 00H, 00H, 00H
	ORG $+4
$SG79601 DB	'W', 00H, 'M', 00H, '_', 00H, 'S', 00H, 'E', 00H, 'T', 00H
	DB	'C', 00H, 'U', 00H, 'R', 00H, 'S', 00H, 'O', 00H, 'R', 00H, '('
	DB	00H, '0', 00H, 'x', 00H, '0', 00H, '0', 00H, '2', 00H, '0', 00H
	DB	')', 00H, 00H, 00H
	ORG $+6
$SG87795 DB	'W', 00H, ':', 00H, '\', 00H, 'c', 00H, 'p', 00H, 'p', 00H
	DB	'\', 00H, 'v', 00H, 'o', 00H, 'i', 00H, 'd', 00H, '\', 00H, 'v'
	DB	00H, 'e', 00H, 'n', 00H, 'd', 00H, 'o', 00H, 'r', 00H, '\', 00H
	DB	's', 00H, 't', 00H, 'b', 00H, '\', 00H, 's', 00H, 't', 00H, 'b'
	DB	00H, '.', 00H, 'h', 00H, 00H, 00H
	ORG $+6
$SG79603 DB	'W', 00H, 'M', 00H, '_', 00H, 'M', 00H, 'O', 00H, 'U', 00H
	DB	'S', 00H, 'E', 00H, 'A', 00H, 'C', 00H, 'T', 00H, 'I', 00H, 'V'
	DB	00H, 'A', 00H, 'T', 00H, 'E', 00H, '(', 00H, '0', 00H, 'x', 00H
	DB	'0', 00H, '0', 00H, '2', 00H, '1', 00H, ')', 00H, 00H, 00H
	ORG $+6
$SG79605 DB	'W', 00H, 'M', 00H, '_', 00H, 'C', 00H, 'H', 00H, 'I', 00H
	DB	'L', 00H, 'D', 00H, 'A', 00H, 'C', 00H, 'T', 00H, 'I', 00H, 'V'
	DB	00H, 'A', 00H, 'T', 00H, 'E', 00H, '(', 00H, '0', 00H, 'x', 00H
	DB	'0', 00H, '0', 00H, '2', 00H, '2', 00H, ')', 00H, 00H, 00H
	ORG $+6
$SG87796 DB	'j', 00H, ' ', 00H, '=', 00H, '=', 00H, ' ', 00H, '1', 00H
	DB	'2', 00H, '8', 00H, ' ', 00H, '&', 00H, '&', 00H, ' ', 00H, 'e'
	DB	00H, 'n', 00H, 'd', 00H, '_', 00H, 's', 00H, 't', 00H, 'a', 00H
	DB	'r', 00H, 't', 00H, ' ', 00H, '+', 00H, ' ', 00H, 'j', 00H, ' '
	DB	00H, '=', 00H, '=', 00H, ' ', 00H, 'f', 00H, 'i', 00H, 'n', 00H
	DB	'a', 00H, 'l', 00H, '_', 00H, 'l', 00H, 'e', 00H, 'n', 00H, 00H
	DB	00H
	ORG $+2
$SG79607 DB	'W', 00H, 'M', 00H, '_', 00H, 'Q', 00H, 'U', 00H, 'E', 00H
	DB	'U', 00H, 'E', 00H, 'S', 00H, 'Y', 00H, 'N', 00H, 'C', 00H, '('
	DB	00H, '0', 00H, 'x', 00H, '0', 00H, '0', 00H, '2', 00H, '3', 00H
	DB	')', 00H, 00H, 00H
	ORG $+6
$SG79609 DB	'W', 00H, 'M', 00H, '_', 00H, 'G', 00H, 'E', 00H, 'T', 00H
	DB	'M', 00H, 'I', 00H, 'N', 00H, 'M', 00H, 'A', 00H, 'X', 00H, 'I'
	DB	00H, 'N', 00H, 'F', 00H, 'O', 00H, '(', 00H, '0', 00H, 'x', 00H
	DB	'0', 00H, '0', 00H, '2', 00H, '4', 00H, ')', 00H, 00H, 00H
	ORG $+6
$SG79611 DB	'W', 00H, 'M', 00H, '_', 00H, 'P', 00H, 'A', 00H, 'I', 00H
	DB	'N', 00H, 'T', 00H, 'I', 00H, 'C', 00H, 'O', 00H, 'N', 00H, '('
	DB	00H, '0', 00H, 'x', 00H, '0', 00H, '0', 00H, '2', 00H, '6', 00H
	DB	')', 00H, 00H, 00H
	ORG $+6
$SG79613 DB	'W', 00H, 'M', 00H, '_', 00H, 'I', 00H, 'C', 00H, 'O', 00H
	DB	'N', 00H, 'E', 00H, 'R', 00H, 'A', 00H, 'S', 00H, 'E', 00H, 'B'
	DB	00H, 'K', 00H, 'G', 00H, 'N', 00H, 'D', 00H, '(', 00H, '0', 00H
	DB	'x', 00H, '0', 00H, '0', 00H, '2', 00H, '7', 00H, ')', 00H, 00H
	DB	00H
	ORG $+4
$SG79615 DB	'W', 00H, 'M', 00H, '_', 00H, 'N', 00H, 'E', 00H, 'X', 00H
	DB	'T', 00H, 'D', 00H, 'L', 00H, 'G', 00H, 'C', 00H, 'T', 00H, 'L'
	DB	00H, '(', 00H, '0', 00H, 'x', 00H, '0', 00H, '0', 00H, '2', 00H
	DB	'8', 00H, ')', 00H, 00H, 00H
	ORG $+4
$SG79617 DB	'W', 00H, 'M', 00H, '_', 00H, 'S', 00H, 'P', 00H, 'O', 00H
	DB	'O', 00H, 'L', 00H, 'E', 00H, 'R', 00H, 'S', 00H, 'T', 00H, 'A'
	DB	00H, 'T', 00H, 'U', 00H, 'S', 00H, '(', 00H, '0', 00H, 'x', 00H
	DB	'0', 00H, '0', 00H, '2', 00H, 'A', 00H, ')', 00H, 00H, 00H
	ORG $+6
$SG79619 DB	'W', 00H, 'M', 00H, '_', 00H, 'D', 00H, 'R', 00H, 'A', 00H
	DB	'W', 00H, 'I', 00H, 'T', 00H, 'E', 00H, 'M', 00H, '(', 00H, '0'
	DB	00H, 'x', 00H, '0', 00H, '0', 00H, '2', 00H, 'B', 00H, ')', 00H
	DB	00H, 00H
$SG79621 DB	'W', 00H, 'M', 00H, '_', 00H, 'M', 00H, 'E', 00H, 'A', 00H
	DB	'S', 00H, 'U', 00H, 'R', 00H, 'E', 00H, 'I', 00H, 'T', 00H, 'E'
	DB	00H, 'M', 00H, '(', 00H, '0', 00H, 'x', 00H, '0', 00H, '0', 00H
	DB	'2', 00H, 'C', 00H, ')', 00H, 00H, 00H
	ORG $+2
$SG79623 DB	'W', 00H, 'M', 00H, '_', 00H, 'D', 00H, 'E', 00H, 'L', 00H
	DB	'E', 00H, 'T', 00H, 'E', 00H, 'I', 00H, 'T', 00H, 'E', 00H, 'M'
	DB	00H, '(', 00H, '0', 00H, 'x', 00H, '0', 00H, '0', 00H, '2', 00H
	DB	'D', 00H, ')', 00H, 00H, 00H
	ORG $+4
$SG79625 DB	'W', 00H, 'M', 00H, '_', 00H, 'V', 00H, 'K', 00H, 'E', 00H
	DB	'Y', 00H, 'T', 00H, 'O', 00H, 'I', 00H, 'T', 00H, 'E', 00H, 'M'
	DB	00H, '(', 00H, '0', 00H, 'x', 00H, '0', 00H, '0', 00H, '2', 00H
	DB	'E', 00H, ')', 00H, 00H, 00H
	ORG $+4
$SG79627 DB	'W', 00H, 'M', 00H, '_', 00H, 'C', 00H, 'H', 00H, 'A', 00H
	DB	'R', 00H, 'T', 00H, 'O', 00H, 'I', 00H, 'T', 00H, 'E', 00H, 'M'
	DB	00H, '(', 00H, '0', 00H, 'x', 00H, '0', 00H, '0', 00H, '2', 00H
	DB	'F', 00H, ')', 00H, 00H, 00H
	ORG $+4
$SG79629 DB	'W', 00H, 'M', 00H, '_', 00H, 'S', 00H, 'E', 00H, 'T', 00H
	DB	'F', 00H, 'O', 00H, 'N', 00H, 'T', 00H, '(', 00H, '0', 00H, 'x'
	DB	00H, '0', 00H, '0', 00H, '3', 00H, '0', 00H, ')', 00H, 00H, 00H
	ORG $+2
$SG79631 DB	'W', 00H, 'M', 00H, '_', 00H, 'G', 00H, 'E', 00H, 'T', 00H
	DB	'F', 00H, 'O', 00H, 'N', 00H, 'T', 00H, '(', 00H, '0', 00H, 'x'
	DB	00H, '0', 00H, '0', 00H, '3', 00H, '1', 00H, ')', 00H, 00H, 00H
	ORG $+2
$SG79633 DB	'W', 00H, 'M', 00H, '_', 00H, 'S', 00H, 'E', 00H, 'T', 00H
	DB	'H', 00H, 'O', 00H, 'T', 00H, 'K', 00H, 'E', 00H, 'Y', 00H, '('
	DB	00H, '0', 00H, 'x', 00H, '0', 00H, '0', 00H, '3', 00H, '2', 00H
	DB	')', 00H, 00H, 00H
	ORG $+6
$SG79635 DB	'W', 00H, 'M', 00H, '_', 00H, 'G', 00H, 'E', 00H, 'T', 00H
	DB	'H', 00H, 'O', 00H, 'T', 00H, 'K', 00H, 'E', 00H, 'Y', 00H, '('
	DB	00H, '0', 00H, 'x', 00H, '0', 00H, '0', 00H, '3', 00H, '3', 00H
	DB	')', 00H, 00H, 00H
	ORG $+6
$SG79637 DB	'W', 00H, 'M', 00H, '_', 00H, 'Q', 00H, 'U', 00H, 'E', 00H
	DB	'R', 00H, 'Y', 00H, 'D', 00H, 'R', 00H, 'A', 00H, 'G', 00H, 'I'
	DB	00H, 'C', 00H, 'O', 00H, 'N', 00H, '(', 00H, '0', 00H, 'x', 00H
	DB	'0', 00H, '0', 00H, '3', 00H, '7', 00H, ')', 00H, 00H, 00H
	ORG $+6
$SG79639 DB	'W', 00H, 'M', 00H, '_', 00H, 'C', 00H, 'O', 00H, 'M', 00H
	DB	'P', 00H, 'A', 00H, 'R', 00H, 'E', 00H, 'I', 00H, 'T', 00H, 'E'
	DB	00H, 'M', 00H, '(', 00H, '0', 00H, 'x', 00H, '0', 00H, '0', 00H
	DB	'3', 00H, '9', 00H, ')', 00H, 00H, 00H
	ORG $+2
$SG79641 DB	'W', 00H, 'M', 00H, '_', 00H, 'G', 00H, 'E', 00H, 'T', 00H
	DB	'O', 00H, 'B', 00H, 'J', 00H, 'E', 00H, 'C', 00H, 'T', 00H, '('
	DB	00H, '0', 00H, 'x', 00H, '0', 00H, '0', 00H, '3', 00H, 'D', 00H
	DB	')', 00H, 00H, 00H
	ORG $+6
$SG87835 DB	'W', 00H, ':', 00H, '\', 00H, 'c', 00H, 'p', 00H, 'p', 00H
	DB	'\', 00H, 'v', 00H, 'o', 00H, 'i', 00H, 'd', 00H, '\', 00H, 'v'
	DB	00H, 'e', 00H, 'n', 00H, 'd', 00H, 'o', 00H, 'r', 00H, '\', 00H
	DB	's', 00H, 't', 00H, 'b', 00H, '\', 00H, 's', 00H, 't', 00H, 'b'
	DB	00H, '.', 00H, 'h', 00H, 00H, 00H
	ORG $+6
$SG79643 DB	'W', 00H, 'M', 00H, '_', 00H, 'C', 00H, 'O', 00H, 'M', 00H
	DB	'P', 00H, 'A', 00H, 'C', 00H, 'T', 00H, 'I', 00H, 'N', 00H, 'G'
	DB	00H, '(', 00H, '0', 00H, 'x', 00H, '0', 00H, '0', 00H, '4', 00H
	DB	'1', 00H, ')', 00H, 00H, 00H
	ORG $+4
$SG87836 DB	'i', 00H, ' ', 00H, '=', 00H, '=', 00H, ' ', 00H, 'b', 00H
	DB	'l', 00H, 'o', 00H, 'c', 00H, 'k', 00H, 00H, 00H
	ORG $+2
$SG79645 DB	'W', 00H, 'M', 00H, '_', 00H, 'C', 00H, 'O', 00H, 'M', 00H
	DB	'M', 00H, 'N', 00H, 'O', 00H, 'T', 00H, 'I', 00H, 'F', 00H, 'Y'
	DB	00H, '(', 00H, '0', 00H, 'x', 00H, '0', 00H, '0', 00H, '4', 00H
	DB	'2', 00H, ')', 00H, 00H, 00H
	ORG $+4
$SG87839 DB	'W', 00H, ':', 00H, '\', 00H, 'c', 00H, 'p', 00H, 'p', 00H
	DB	'\', 00H, 'v', 00H, 'o', 00H, 'i', 00H, 'd', 00H, '\', 00H, 'v'
	DB	00H, 'e', 00H, 'n', 00H, 'd', 00H, 'o', 00H, 'r', 00H, '\', 00H
	DB	's', 00H, 't', 00H, 'b', 00H, '\', 00H, 's', 00H, 't', 00H, 'b'
	DB	00H, '.', 00H, 'h', 00H, 00H, 00H
	ORG $+6
$SG79647 DB	'W', 00H, 'M', 00H, '_', 00H, 'W', 00H, 'I', 00H, 'N', 00H
	DB	'D', 00H, 'O', 00H, 'W', 00H, 'P', 00H, 'O', 00H, 'S', 00H, 'C'
	DB	00H, 'H', 00H, 'A', 00H, 'N', 00H, 'G', 00H, 'I', 00H, 'N', 00H
	DB	'G', 00H, '(', 00H, '0', 00H, 'x', 00H, '0', 00H, '0', 00H, '4'
	DB	00H, '6', 00H, ')', 00H, 00H, 00H
	ORG $+6
$SG87840 DB	'b', 00H, 'l', 00H, 'o', 00H, 'c', 00H, 'k', 00H, ' ', 00H
	DB	'=', 00H, '=', 00H, ' ', 00H, '6', 00H, '4', 00H, 00H, 00H
$SG79649 DB	'W', 00H, 'M', 00H, '_', 00H, 'W', 00H, 'I', 00H, 'N', 00H
	DB	'D', 00H, 'O', 00H, 'W', 00H, 'P', 00H, 'O', 00H, 'S', 00H, 'C'
	DB	00H, 'H', 00H, 'A', 00H, 'N', 00H, 'G', 00H, 'E', 00H, 'D', 00H
	DB	'(', 00H, '0', 00H, 'x', 00H, '0', 00H, '0', 00H, '4', 00H, '7'
	DB	00H, ')', 00H, 00H, 00H
$SG79651 DB	'W', 00H, 'M', 00H, '_', 00H, 'P', 00H, 'O', 00H, 'W', 00H
	DB	'E', 00H, 'R', 00H, '(', 00H, '0', 00H, 'x', 00H, '0', 00H, '0'
	DB	00H, '4', 00H, '8', 00H, ')', 00H, 00H, 00H
	ORG $+6
$SG79653 DB	'W', 00H, 'M', 00H, '_', 00H, 'C', 00H, 'O', 00H, 'P', 00H
	DB	'Y', 00H, 'D', 00H, 'A', 00H, 'T', 00H, 'A', 00H, '(', 00H, '0'
	DB	00H, 'x', 00H, '0', 00H, '0', 00H, '4', 00H, 'A', 00H, ')', 00H
	DB	00H, 00H
$SG79655 DB	'W', 00H, 'M', 00H, '_', 00H, 'C', 00H, 'A', 00H, 'N', 00H
	DB	'C', 00H, 'E', 00H, 'L', 00H, 'J', 00H, 'O', 00H, 'U', 00H, 'R'
	DB	00H, 'N', 00H, 'A', 00H, 'L', 00H, '(', 00H, '0', 00H, 'x', 00H
	DB	'0', 00H, '0', 00H, '4', 00H, 'B', 00H, ')', 00H, 00H, 00H
	ORG $+6
$SG79657 DB	'W', 00H, 'M', 00H, '_', 00H, 'N', 00H, 'O', 00H, 'T', 00H
	DB	'I', 00H, 'F', 00H, 'Y', 00H, '(', 00H, '0', 00H, 'x', 00H, '0'
	DB	00H, '0', 00H, '4', 00H, 'E', 00H, ')', 00H, 00H, 00H
	ORG $+4
$SG79659 DB	'W', 00H, 'M', 00H, '_', 00H, 'I', 00H, 'N', 00H, 'P', 00H
	DB	'U', 00H, 'T', 00H, 'L', 00H, 'A', 00H, 'N', 00H, 'G', 00H, 'C'
	DB	00H, 'H', 00H, 'A', 00H, 'N', 00H, 'G', 00H, 'E', 00H, 'R', 00H
	DB	'E', 00H, 'Q', 00H, 'U', 00H, 'E', 00H, 'S', 00H, 'T', 00H, '('
	DB	00H, '0', 00H, 'x', 00H, '0', 00H, '0', 00H, '5', 00H, '0', 00H
	DB	')', 00H, 00H, 00H
	ORG $+4
$SG79661 DB	'W', 00H, 'M', 00H, '_', 00H, 'I', 00H, 'N', 00H, 'P', 00H
	DB	'U', 00H, 'T', 00H, 'L', 00H, 'A', 00H, 'N', 00H, 'G', 00H, 'C'
	DB	00H, 'H', 00H, 'A', 00H, 'N', 00H, 'G', 00H, 'E', 00H, '(', 00H
	DB	'0', 00H, 'x', 00H, '0', 00H, '0', 00H, '5', 00H, '1', 00H, ')'
	DB	00H, 00H, 00H
	ORG $+2
$SG79663 DB	'W', 00H, 'M', 00H, '_', 00H, 'T', 00H, 'C', 00H, 'A', 00H
	DB	'R', 00H, 'D', 00H, '(', 00H, '0', 00H, 'x', 00H, '0', 00H, '0'
	DB	00H, '5', 00H, '2', 00H, ')', 00H, 00H, 00H
	ORG $+6
$SG79665 DB	'W', 00H, 'M', 00H, '_', 00H, 'H', 00H, 'E', 00H, 'L', 00H
	DB	'P', 00H, '(', 00H, '0', 00H, 'x', 00H, '0', 00H, '0', 00H, '5'
	DB	00H, '3', 00H, ')', 00H, 00H, 00H
$SG79673 DB	'W', 00H, 'M', 00H, '_', 00H, 'S', 00H, 'T', 00H, 'Y', 00H
	DB	'L', 00H, 'E', 00H, 'C', 00H, 'H', 00H, 'A', 00H, 'N', 00H, 'G'
	DB	00H, 'I', 00H, 'N', 00H, 'G', 00H, '(', 00H, '0', 00H, 'x', 00H
	DB	'0', 00H, '0', 00H, '7', 00H, 'C', 00H, ')', 00H, 00H, 00H
	ORG $+6
$SG87857 DB	'0123456789abcdefghijklmnopqrstuvwxyzABCDEFGHIJKLMNOPQRST'
	DB	'UVWXYZ%$', 00H
	ORG $+7
$SG87859 DB	'W', 00H, ':', 00H, '\', 00H, 'c', 00H, 'p', 00H, 'p', 00H
	DB	'\', 00H, 'v', 00H, 'o', 00H, 'i', 00H, 'd', 00H, '\', 00H, 'v'
	DB	00H, 'e', 00H, 'n', 00H, 'd', 00H, 'o', 00H, 'r', 00H, '\', 00H
	DB	's', 00H, 't', 00H, 'b', 00H, '\', 00H, 's', 00H, 't', 00H, 'b'
	DB	00H, '.', 00H, 'h', 00H, 00H, 00H
	ORG $+6
$SG79667 DB	'W', 00H, 'M', 00H, '_', 00H, 'U', 00H, 'S', 00H, 'E', 00H
	DB	'R', 00H, 'C', 00H, 'H', 00H, 'A', 00H, 'N', 00H, 'G', 00H, 'E'
	DB	00H, 'D', 00H, '(', 00H, '0', 00H, 'x', 00H, '0', 00H, '0', 00H
	DB	'5', 00H, '4', 00H, ')', 00H, 00H, 00H
	ORG $+2
$SG87860 DB	'i', 00H, ' ', 00H, '!', 00H, '=', 00H, ' ', 00H, '2', 00H
	DB	'0', 00H, 00H, 00H
$SG87861 DB	'W', 00H, ':', 00H, '\', 00H, 'c', 00H, 'p', 00H, 'p', 00H
	DB	'\', 00H, 'v', 00H, 'o', 00H, 'i', 00H, 'd', 00H, '\', 00H, 'v'
	DB	00H, 'e', 00H, 'n', 00H, 'd', 00H, 'o', 00H, 'r', 00H, '\', 00H
	DB	's', 00H, 't', 00H, 'b', 00H, '\', 00H, 's', 00H, 't', 00H, 'b'
	DB	00H, '.', 00H, 'h', 00H, 00H, 00H
	ORG $+6
$SG79669 DB	'W', 00H, 'M', 00H, '_', 00H, 'N', 00H, 'O', 00H, 'T', 00H
	DB	'I', 00H, 'F', 00H, 'Y', 00H, 'F', 00H, 'O', 00H, 'R', 00H, 'M'
	DB	00H, 'A', 00H, 'T', 00H, '(', 00H, '0', 00H, 'x', 00H, '0', 00H
	DB	'0', 00H, '5', 00H, '5', 00H, ')', 00H, 00H, 00H
$SG87862 DB	'n', 00H, 'u', 00H, 'm', 00H, '_', 00H, 'b', 00H, 'i', 00H
	DB	't', 00H, 's', 00H, ' ', 00H, '=', 00H, '=', 00H, ' ', 00H, '2'
	DB	00H, '0', 00H, '*', 00H, '8', 00H, ' ', 00H, '-', 00H, ' ', 00H
	DB	'2', 00H, '6', 00H, '*', 00H, '6', 00H, 00H, 00H
$SG79671 DB	'W', 00H, 'M', 00H, '_', 00H, 'C', 00H, 'O', 00H, 'N', 00H
	DB	'T', 00H, 'E', 00H, 'X', 00H, 'T', 00H, 'M', 00H, 'E', 00H, 'N'
	DB	00H, 'U', 00H, '(', 00H, '0', 00H, 'x', 00H, '0', 00H, '0', 00H
	DB	'7', 00H, 'B', 00H, ')', 00H, 00H, 00H
	ORG $+2
$SG79675 DB	'W', 00H, 'M', 00H, '_', 00H, 'S', 00H, 'T', 00H, 'Y', 00H
	DB	'L', 00H, 'E', 00H, 'C', 00H, 'H', 00H, 'A', 00H, 'N', 00H, 'G'
	DB	00H, 'E', 00H, 'D', 00H, '(', 00H, '0', 00H, 'x', 00H, '0', 00H
	DB	'0', 00H, '7', 00H, 'D', 00H, ')', 00H, 00H, 00H
$SG79677 DB	'W', 00H, 'M', 00H, '_', 00H, 'D', 00H, 'I', 00H, 'S', 00H
	DB	'P', 00H, 'L', 00H, 'A', 00H, 'Y', 00H, 'C', 00H, 'H', 00H, 'A'
	DB	00H, 'N', 00H, 'G', 00H, 'E', 00H, '(', 00H, '0', 00H, 'x', 00H
	DB	'0', 00H, '0', 00H, '7', 00H, 'E', 00H, ')', 00H, 00H, 00H
	ORG $+6
$SG79679 DB	'W', 00H, 'M', 00H, '_', 00H, 'G', 00H, 'E', 00H, 'T', 00H
	DB	'I', 00H, 'C', 00H, 'O', 00H, 'N', 00H, '(', 00H, '0', 00H, 'x'
	DB	00H, '0', 00H, '0', 00H, '7', 00H, 'F', 00H, ')', 00H, 00H, 00H
	ORG $+2
$SG79681 DB	'W', 00H, 'M', 00H, '_', 00H, 'S', 00H, 'E', 00H, 'T', 00H
	DB	'I', 00H, 'C', 00H, 'O', 00H, 'N', 00H, '(', 00H, '0', 00H, 'x'
	DB	00H, '0', 00H, '0', 00H, '8', 00H, '0', 00H, ')', 00H, 00H, 00H
	ORG $+2
$SG79683 DB	'W', 00H, 'M', 00H, '_', 00H, 'N', 00H, 'C', 00H, 'C', 00H
	DB	'R', 00H, 'E', 00H, 'A', 00H, 'T', 00H, 'E', 00H, '(', 00H, '0'
	DB	00H, 'x', 00H, '0', 00H, '0', 00H, '8', 00H, '1', 00H, ')', 00H
	DB	00H, 00H
$SG79685 DB	'W', 00H, 'M', 00H, '_', 00H, 'N', 00H, 'C', 00H, 'D', 00H
	DB	'E', 00H, 'S', 00H, 'T', 00H, 'R', 00H, 'O', 00H, 'Y', 00H, '('
	DB	00H, '0', 00H, 'x', 00H, '0', 00H, '0', 00H, '8', 00H, '2', 00H
	DB	')', 00H, 00H, 00H
	ORG $+6
$SG79687 DB	'W', 00H, 'M', 00H, '_', 00H, 'N', 00H, 'C', 00H, 'C', 00H
	DB	'A', 00H, 'L', 00H, 'C', 00H, 'S', 00H, 'I', 00H, 'Z', 00H, 'E'
	DB	00H, '(', 00H, '0', 00H, 'x', 00H, '0', 00H, '0', 00H, '8', 00H
	DB	'3', 00H, ')', 00H, 00H, 00H
	ORG $+4
$SG79689 DB	'W', 00H, 'M', 00H, '_', 00H, 'N', 00H, 'C', 00H, 'H', 00H
	DB	'I', 00H, 'T', 00H, 'T', 00H, 'E', 00H, 'S', 00H, 'T', 00H, '('
	DB	00H, '0', 00H, 'x', 00H, '0', 00H, '0', 00H, '8', 00H, '4', 00H
	DB	')', 00H, 00H, 00H
	ORG $+6
$SG79691 DB	'W', 00H, 'M', 00H, '_', 00H, 'N', 00H, 'C', 00H, 'P', 00H
	DB	'A', 00H, 'I', 00H, 'N', 00H, 'T', 00H, '(', 00H, '0', 00H, 'x'
	DB	00H, '0', 00H, '0', 00H, '8', 00H, '5', 00H, ')', 00H, 00H, 00H
	ORG $+2
$SG79693 DB	'W', 00H, 'M', 00H, '_', 00H, 'N', 00H, 'C', 00H, 'A', 00H
	DB	'C', 00H, 'T', 00H, 'I', 00H, 'V', 00H, 'A', 00H, 'T', 00H, 'E'
	DB	00H, '(', 00H, '0', 00H, 'x', 00H, '0', 00H, '0', 00H, '8', 00H
	DB	'6', 00H, ')', 00H, 00H, 00H
	ORG $+4
$SG79695 DB	'W', 00H, 'M', 00H, '_', 00H, 'G', 00H, 'E', 00H, 'T', 00H
	DB	'D', 00H, 'L', 00H, 'G', 00H, 'C', 00H, 'O', 00H, 'D', 00H, 'E'
	DB	00H, '(', 00H, '0', 00H, 'x', 00H, '0', 00H, '0', 00H, '8', 00H
	DB	'7', 00H, ')', 00H, 00H, 00H
	ORG $+4
$SG79697 DB	'W', 00H, 'M', 00H, '_', 00H, 'S', 00H, 'Y', 00H, 'N', 00H
	DB	'C', 00H, 'P', 00H, 'A', 00H, 'I', 00H, 'N', 00H, 'T', 00H, '('
	DB	00H, '0', 00H, 'x', 00H, '0', 00H, '0', 00H, '8', 00H, '8', 00H
	DB	')', 00H, 00H, 00H
	ORG $+6
$SG79699 DB	'W', 00H, 'M', 00H, '_', 00H, 'N', 00H, 'C', 00H, 'M', 00H
	DB	'O', 00H, 'U', 00H, 'S', 00H, 'E', 00H, 'M', 00H, 'O', 00H, 'V'
	DB	00H, 'E', 00H, '(', 00H, '0', 00H, 'x', 00H, '0', 00H, '0', 00H
	DB	'A', 00H, '0', 00H, ')', 00H, 00H, 00H
	ORG $+2
$SG79701 DB	'W', 00H, 'M', 00H, '_', 00H, 'N', 00H, 'C', 00H, 'L', 00H
	DB	'B', 00H, 'U', 00H, 'T', 00H, 'T', 00H, 'O', 00H, 'N', 00H, 'D'
	DB	00H, 'O', 00H, 'W', 00H, 'N', 00H, '(', 00H, '0', 00H, 'x', 00H
	DB	'0', 00H, '0', 00H, 'A', 00H, '1', 00H, ')', 00H, 00H, 00H
	ORG $+6
$SG79703 DB	'W', 00H, 'M', 00H, '_', 00H, 'N', 00H, 'C', 00H, 'L', 00H
	DB	'B', 00H, 'U', 00H, 'T', 00H, 'T', 00H, 'O', 00H, 'N', 00H, 'U'
	DB	00H, 'P', 00H, '(', 00H, '0', 00H, 'x', 00H, '0', 00H, '0', 00H
	DB	'A', 00H, '2', 00H, ')', 00H, 00H, 00H
	ORG $+2
$SG79705 DB	'W', 00H, 'M', 00H, '_', 00H, 'N', 00H, 'C', 00H, 'L', 00H
	DB	'B', 00H, 'U', 00H, 'T', 00H, 'T', 00H, 'O', 00H, 'N', 00H, 'D'
	DB	00H, 'B', 00H, 'L', 00H, 'C', 00H, 'L', 00H, 'K', 00H, '(', 00H
	DB	'0', 00H, 'x', 00H, '0', 00H, '0', 00H, 'A', 00H, '3', 00H, ')'
	DB	00H, 00H, 00H
	ORG $+2
$SG79707 DB	'W', 00H, 'M', 00H, '_', 00H, 'N', 00H, 'C', 00H, 'R', 00H
	DB	'B', 00H, 'U', 00H, 'T', 00H, 'T', 00H, 'O', 00H, 'N', 00H, 'D'
	DB	00H, 'O', 00H, 'W', 00H, 'N', 00H, '(', 00H, '0', 00H, 'x', 00H
	DB	'0', 00H, '0', 00H, 'A', 00H, '4', 00H, ')', 00H, 00H, 00H
	ORG $+6
$SG79709 DB	'W', 00H, 'M', 00H, '_', 00H, 'N', 00H, 'C', 00H, 'R', 00H
	DB	'B', 00H, 'U', 00H, 'T', 00H, 'T', 00H, 'O', 00H, 'N', 00H, 'U'
	DB	00H, 'P', 00H, '(', 00H, '0', 00H, 'x', 00H, '0', 00H, '0', 00H
	DB	'A', 00H, '5', 00H, ')', 00H, 00H, 00H
	ORG $+2
$SG79711 DB	'W', 00H, 'M', 00H, '_', 00H, 'N', 00H, 'C', 00H, 'R', 00H
	DB	'B', 00H, 'U', 00H, 'T', 00H, 'T', 00H, 'O', 00H, 'N', 00H, 'D'
	DB	00H, 'B', 00H, 'L', 00H, 'C', 00H, 'L', 00H, 'K', 00H, '(', 00H
	DB	'0', 00H, 'x', 00H, '0', 00H, '0', 00H, 'A', 00H, '6', 00H, ')'
	DB	00H, 00H, 00H
	ORG $+2
$SG87905 DB	'hklm', 00H
	ORG $+3
$SG79713 DB	'W', 00H, 'M', 00H, '_', 00H, 'N', 00H, 'C', 00H, 'M', 00H
	DB	'B', 00H, 'U', 00H, 'T', 00H, 'T', 00H, 'O', 00H, 'N', 00H, 'D'
	DB	00H, 'O', 00H, 'W', 00H, 'N', 00H, '(', 00H, '0', 00H, 'x', 00H
	DB	'0', 00H, '0', 00H, 'A', 00H, '7', 00H, ')', 00H, 00H, 00H
	ORG $+6
$SG79715 DB	'W', 00H, 'M', 00H, '_', 00H, 'N', 00H, 'C', 00H, 'M', 00H
	DB	'B', 00H, 'U', 00H, 'T', 00H, 'T', 00H, 'O', 00H, 'N', 00H, 'U'
	DB	00H, 'P', 00H, '(', 00H, '0', 00H, 'x', 00H, '0', 00H, '0', 00H
	DB	'A', 00H, '8', 00H, ')', 00H, 00H, 00H
	ORG $+2
$SG79717 DB	'W', 00H, 'M', 00H, '_', 00H, 'N', 00H, 'C', 00H, 'M', 00H
	DB	'B', 00H, 'U', 00H, 'T', 00H, 'T', 00H, 'O', 00H, 'N', 00H, 'D'
	DB	00H, 'B', 00H, 'L', 00H, 'C', 00H, 'L', 00H, 'K', 00H, '(', 00H
	DB	'0', 00H, 'x', 00H, '0', 00H, '0', 00H, 'A', 00H, '9', 00H, ')'
	DB	00H, 00H, 00H
	ORG $+2
$SG79719 DB	'W', 00H, 'M', 00H, '_', 00H, 'N', 00H, 'C', 00H, 'X', 00H
	DB	'B', 00H, 'U', 00H, 'T', 00H, 'T', 00H, 'O', 00H, 'N', 00H, 'D'
	DB	00H, 'O', 00H, 'W', 00H, 'N', 00H, '(', 00H, '0', 00H, 'x', 00H
	DB	'0', 00H, '0', 00H, 'A', 00H, 'B', 00H, ')', 00H, 00H, 00H
	ORG $+6
$SG79721 DB	'W', 00H, 'M', 00H, '_', 00H, 'N', 00H, 'C', 00H, 'X', 00H
	DB	'B', 00H, 'U', 00H, 'T', 00H, 'T', 00H, 'O', 00H, 'N', 00H, 'U'
	DB	00H, 'P', 00H, '(', 00H, '0', 00H, 'x', 00H, '0', 00H, '0', 00H
	DB	'A', 00H, 'C', 00H, ')', 00H, 00H, 00H
	ORG $+2
$SG79723 DB	'W', 00H, 'M', 00H, '_', 00H, 'N', 00H, 'C', 00H, 'X', 00H
	DB	'B', 00H, 'U', 00H, 'T', 00H, 'T', 00H, 'O', 00H, 'N', 00H, 'D'
	DB	00H, 'B', 00H, 'L', 00H, 'C', 00H, 'L', 00H, 'K', 00H, '(', 00H
	DB	'0', 00H, 'x', 00H, '0', 00H, '0', 00H, 'A', 00H, 'D', 00H, ')'
	DB	00H, 00H, 00H
	ORG $+2
$SG79725 DB	'W', 00H, 'M', 00H, '_', 00H, 'I', 00H, 'N', 00H, 'P', 00H
	DB	'U', 00H, 'T', 00H, '_', 00H, 'D', 00H, 'E', 00H, 'V', 00H, 'I'
	DB	00H, 'C', 00H, 'E', 00H, '_', 00H, 'C', 00H, 'H', 00H, 'A', 00H
	DB	'N', 00H, 'G', 00H, 'E', 00H, '(', 00H, '0', 00H, 'x', 00H, '0'
	DB	00H, '0', 00H, 'F', 00H, 'E', 00H, ')', 00H, 00H, 00H
	ORG $+2
$SG79727 DB	'W', 00H, 'M', 00H, '_', 00H, 'I', 00H, 'N', 00H, 'P', 00H
	DB	'U', 00H, 'T', 00H, '(', 00H, '0', 00H, 'x', 00H, '0', 00H, '0'
	DB	00H, 'F', 00H, 'F', 00H, ')', 00H, 00H, 00H
	ORG $+6
$SG79729 DB	'W', 00H, 'M', 00H, '_', 00H, 'K', 00H, 'E', 00H, 'Y', 00H
	DB	'D', 00H, 'O', 00H, 'W', 00H, 'N', 00H, '_', 00H, 'O', 00H, 'R'
	DB	00H, '_', 00H, 'K', 00H, 'E', 00H, 'Y', 00H, 'F', 00H, 'I', 00H
	DB	'R', 00H, 'S', 00H, 'T', 00H, '(', 00H, '0', 00H, 'x', 00H, '0'
	DB	00H, '1', 00H, '0', 00H, '0', 00H, ')', 00H, 00H, 00H
	ORG $+2
$SG79731 DB	'W', 00H, 'M', 00H, '_', 00H, 'K', 00H, 'E', 00H, 'Y', 00H
	DB	'U', 00H, 'P', 00H, '(', 00H, '0', 00H, 'x', 00H, '0', 00H, '1'
	DB	00H, '0', 00H, '1', 00H, ')', 00H, 00H, 00H
	ORG $+6
$SG79733 DB	'W', 00H, 'M', 00H, '_', 00H, 'C', 00H, 'H', 00H, 'A', 00H
	DB	'R', 00H, '(', 00H, '0', 00H, 'x', 00H, '0', 00H, '1', 00H, '0'
	DB	00H, '2', 00H, ')', 00H, 00H, 00H
$SG79735 DB	'W', 00H, 'M', 00H, '_', 00H, 'D', 00H, 'E', 00H, 'A', 00H
	DB	'D', 00H, 'C', 00H, 'H', 00H, 'A', 00H, 'R', 00H, '(', 00H, '0'
	DB	00H, 'x', 00H, '0', 00H, '1', 00H, '0', 00H, '3', 00H, ')', 00H
	DB	00H, 00H
$SG79737 DB	'W', 00H, 'M', 00H, '_', 00H, 'S', 00H, 'Y', 00H, 'S', 00H
	DB	'K', 00H, 'E', 00H, 'Y', 00H, 'D', 00H, 'O', 00H, 'W', 00H, 'N'
	DB	00H, '(', 00H, '0', 00H, 'x', 00H, '0', 00H, '1', 00H, '0', 00H
	DB	'4', 00H, ')', 00H, 00H, 00H
	ORG $+4
$SG79739 DB	'W', 00H, 'M', 00H, '_', 00H, 'S', 00H, 'Y', 00H, 'S', 00H
	DB	'K', 00H, 'E', 00H, 'Y', 00H, 'U', 00H, 'P', 00H, '(', 00H, '0'
	DB	00H, 'x', 00H, '0', 00H, '1', 00H, '0', 00H, '5', 00H, ')', 00H
	DB	00H, 00H
$SG79741 DB	'W', 00H, 'M', 00H, '_', 00H, 'S', 00H, 'Y', 00H, 'S', 00H
	DB	'C', 00H, 'H', 00H, 'A', 00H, 'R', 00H, '(', 00H, '0', 00H, 'x'
	DB	00H, '0', 00H, '1', 00H, '0', 00H, '6', 00H, ')', 00H, 00H, 00H
	ORG $+2
$SG79743 DB	'W', 00H, 'M', 00H, '_', 00H, 'S', 00H, 'Y', 00H, 'S', 00H
	DB	'D', 00H, 'E', 00H, 'A', 00H, 'D', 00H, 'C', 00H, 'H', 00H, 'A'
	DB	00H, 'R', 00H, '(', 00H, '0', 00H, 'x', 00H, '0', 00H, '1', 00H
	DB	'0', 00H, '7', 00H, ')', 00H, 00H, 00H
	ORG $+2
$SG79745 DB	'W', 00H, 'M', 00H, '_', 00H, 'K', 00H, 'E', 00H, 'Y', 00H
	DB	'L', 00H, 'A', 00H, 'S', 00H, 'T', 00H, '_', 00H, 'O', 00H, 'R'
	DB	00H, '_', 00H, 'U', 00H, 'N', 00H, 'I', 00H, 'C', 00H, 'H', 00H
	DB	'A', 00H, 'R', 00H, '(', 00H, '0', 00H, 'x', 00H, '0', 00H, '1'
	DB	00H, '0', 00H, '9', 00H, ')', 00H, 00H, 00H
	ORG $+4
$SG79747 DB	'U', 00H, 'N', 00H, 'I', 00H, 'C', 00H, 'O', 00H, 'D', 00H
	DB	'E', 00H, '_', 00H, 'N', 00H, 'O', 00H, 'C', 00H, 'H', 00H, 'A'
	DB	00H, 'R', 00H, '(', 00H, '0', 00H, 'x', 00H, 'F', 00H, 'F', 00H
	DB	'F', 00H, 'F', 00H, ')', 00H, 00H, 00H
	ORG $+2
$SG79749 DB	'W', 00H, 'M', 00H, '_', 00H, 'K', 00H, 'E', 00H, 'Y', 00H
	DB	'L', 00H, 'A', 00H, 'S', 00H, 'T', 00H, '(', 00H, '0', 00H, 'x'
	DB	00H, '0', 00H, '1', 00H, '0', 00H, '8', 00H, ')', 00H, 00H, 00H
	ORG $+2
$SG79759 DB	'W', 00H, 'M', 00H, '_', 00H, 'C', 00H, 'O', 00H, 'M', 00H
	DB	'M', 00H, 'A', 00H, 'N', 00H, 'D', 00H, '(', 00H, '0', 00H, 'x'
	DB	00H, '0', 00H, '1', 00H, '1', 00H, '1', 00H, ')', 00H, 00H, 00H
	ORG $+2
$SG79751 DB	'W', 00H, 'M', 00H, '_', 00H, 'I', 00H, 'M', 00H, 'E', 00H
	DB	'_', 00H, 'S', 00H, 'T', 00H, 'A', 00H, 'R', 00H, 'T', 00H, 'C'
	DB	00H, 'O', 00H, 'M', 00H, 'P', 00H, 'O', 00H, 'S', 00H, 'I', 00H
	DB	'T', 00H, 'I', 00H, 'O', 00H, 'N', 00H, '(', 00H, '0', 00H, 'x'
	DB	00H, '0', 00H, '1', 00H, '0', 00H, 'D', 00H, ')', 00H, 00H, 00H
$SG79753 DB	'W', 00H, 'M', 00H, '_', 00H, 'I', 00H, 'M', 00H, 'E', 00H
	DB	'_', 00H, 'E', 00H, 'N', 00H, 'D', 00H, 'C', 00H, 'O', 00H, 'M'
	DB	00H, 'P', 00H, 'O', 00H, 'S', 00H, 'I', 00H, 'T', 00H, 'I', 00H
	DB	'O', 00H, 'N', 00H, '(', 00H, '0', 00H, 'x', 00H, '0', 00H, '1'
	DB	00H, '0', 00H, 'E', 00H, ')', 00H, 00H, 00H
	ORG $+4
$SG79755 DB	'W', 00H, 'M', 00H, '_', 00H, 'I', 00H, 'M', 00H, 'E', 00H
	DB	'_', 00H, 'K', 00H, 'E', 00H, 'Y', 00H, 'L', 00H, 'A', 00H, 'S'
	DB	00H, 'T', 00H, '_', 00H, 'O', 00H, 'R', 00H, '_', 00H, 'C', 00H
	DB	'O', 00H, 'M', 00H, 'P', 00H, 'O', 00H, 'S', 00H, 'I', 00H, 'T'
	DB	00H, 'I', 00H, 'O', 00H, 'N', 00H, '(', 00H, '0', 00H, 'x', 00H
	DB	'0', 00H, '1', 00H, '0', 00H, 'F', 00H, ')', 00H, 00H, 00H
	ORG $+4
$SG79757 DB	'W', 00H, 'M', 00H, '_', 00H, 'I', 00H, 'N', 00H, 'I', 00H
	DB	'T', 00H, 'D', 00H, 'I', 00H, 'A', 00H, 'L', 00H, 'O', 00H, 'G'
	DB	00H, '(', 00H, '0', 00H, 'x', 00H, '0', 00H, '1', 00H, '1', 00H
	DB	'0', 00H, ')', 00H, 00H, 00H
	ORG $+4
$SG79761 DB	'W', 00H, 'M', 00H, '_', 00H, 'S', 00H, 'Y', 00H, 'S', 00H
	DB	'C', 00H, 'O', 00H, 'M', 00H, 'M', 00H, 'A', 00H, 'N', 00H, 'D'
	DB	00H, '(', 00H, '0', 00H, 'x', 00H, '0', 00H, '1', 00H, '1', 00H
	DB	'2', 00H, ')', 00H, 00H, 00H
	ORG $+4
$SG79763 DB	'W', 00H, 'M', 00H, '_', 00H, 'T', 00H, 'I', 00H, 'M', 00H
	DB	'E', 00H, 'R', 00H, '(', 00H, '0', 00H, 'x', 00H, '0', 00H, '1'
	DB	00H, '1', 00H, '3', 00H, ')', 00H, 00H, 00H
	ORG $+6
$SG79765 DB	'W', 00H, 'M', 00H, '_', 00H, 'H', 00H, 'S', 00H, 'C', 00H
	DB	'R', 00H, 'O', 00H, 'L', 00H, 'L', 00H, '(', 00H, '0', 00H, 'x'
	DB	00H, '0', 00H, '1', 00H, '1', 00H, '4', 00H, ')', 00H, 00H, 00H
	ORG $+2
$SG79767 DB	'W', 00H, 'M', 00H, '_', 00H, 'V', 00H, 'S', 00H, 'C', 00H
	DB	'R', 00H, 'O', 00H, 'L', 00H, 'L', 00H, '(', 00H, '0', 00H, 'x'
	DB	00H, '0', 00H, '1', 00H, '1', 00H, '5', 00H, ')', 00H, 00H, 00H
	ORG $+2
$SG79769 DB	'W', 00H, 'M', 00H, '_', 00H, 'I', 00H, 'N', 00H, 'I', 00H
	DB	'T', 00H, 'M', 00H, 'E', 00H, 'N', 00H, 'U', 00H, '(', 00H, '0'
	DB	00H, 'x', 00H, '0', 00H, '1', 00H, '1', 00H, '6', 00H, ')', 00H
	DB	00H, 00H
$SG79771 DB	'W', 00H, 'M', 00H, '_', 00H, 'I', 00H, 'N', 00H, 'I', 00H
	DB	'T', 00H, 'M', 00H, 'E', 00H, 'N', 00H, 'U', 00H, 'P', 00H, 'O'
	DB	00H, 'P', 00H, 'U', 00H, 'P', 00H, '(', 00H, '0', 00H, 'x', 00H
	DB	'0', 00H, '1', 00H, '1', 00H, '7', 00H, ')', 00H, 00H, 00H
	ORG $+6
$SG79773 DB	'W', 00H, 'M', 00H, '_', 00H, 'G', 00H, 'E', 00H, 'S', 00H
	DB	'T', 00H, 'U', 00H, 'R', 00H, 'E', 00H, '(', 00H, '0', 00H, 'x'
	DB	00H, '0', 00H, '1', 00H, '1', 00H, '9', 00H, ')', 00H, 00H, 00H
	ORG $+2
$SG79775 DB	'W', 00H, 'M', 00H, '_', 00H, 'G', 00H, 'E', 00H, 'S', 00H
	DB	'T', 00H, 'U', 00H, 'R', 00H, 'E', 00H, 'N', 00H, 'O', 00H, 'T'
	DB	00H, 'I', 00H, 'F', 00H, 'Y', 00H, '(', 00H, '0', 00H, 'x', 00H
	DB	'0', 00H, '1', 00H, '1', 00H, 'A', 00H, ')', 00H, 00H, 00H
	ORG $+6
$SG79777 DB	'W', 00H, 'M', 00H, '_', 00H, 'M', 00H, 'E', 00H, 'N', 00H
	DB	'U', 00H, 'S', 00H, 'E', 00H, 'L', 00H, 'E', 00H, 'C', 00H, 'T'
	DB	00H, '(', 00H, '0', 00H, 'x', 00H, '0', 00H, '1', 00H, '1', 00H
	DB	'F', 00H, ')', 00H, 00H, 00H
	ORG $+4
$SG79779 DB	'W', 00H, 'M', 00H, '_', 00H, 'M', 00H, 'E', 00H, 'N', 00H
	DB	'U', 00H, 'C', 00H, 'H', 00H, 'A', 00H, 'R', 00H, '(', 00H, '0'
	DB	00H, 'x', 00H, '0', 00H, '1', 00H, '2', 00H, '0', 00H, ')', 00H
	DB	00H, 00H
$SG79781 DB	'W', 00H, 'M', 00H, '_', 00H, 'E', 00H, 'N', 00H, 'T', 00H
	DB	'E', 00H, 'R', 00H, 'I', 00H, 'D', 00H, 'L', 00H, 'E', 00H, '('
	DB	00H, '0', 00H, 'x', 00H, '0', 00H, '1', 00H, '2', 00H, '1', 00H
	DB	')', 00H, 00H, 00H
	ORG $+6
$SG79783 DB	'W', 00H, 'M', 00H, '_', 00H, 'M', 00H, 'E', 00H, 'N', 00H
	DB	'U', 00H, 'R', 00H, 'B', 00H, 'U', 00H, 'T', 00H, 'T', 00H, 'O'
	DB	00H, 'N', 00H, 'U', 00H, 'P', 00H, '(', 00H, '0', 00H, 'x', 00H
	DB	'0', 00H, '1', 00H, '2', 00H, '2', 00H, ')', 00H, 00H, 00H
	ORG $+6
$SG79785 DB	'W', 00H, 'M', 00H, '_', 00H, 'M', 00H, 'E', 00H, 'N', 00H
	DB	'U', 00H, 'D', 00H, 'R', 00H, 'A', 00H, 'G', 00H, '(', 00H, '0'
	DB	00H, 'x', 00H, '0', 00H, '1', 00H, '2', 00H, '3', 00H, ')', 00H
	DB	00H, 00H
$SG79787 DB	'W', 00H, 'M', 00H, '_', 00H, 'M', 00H, 'E', 00H, 'N', 00H
	DB	'U', 00H, 'G', 00H, 'E', 00H, 'T', 00H, 'O', 00H, 'B', 00H, 'J'
	DB	00H, 'E', 00H, 'C', 00H, 'T', 00H, '(', 00H, '0', 00H, 'x', 00H
	DB	'0', 00H, '1', 00H, '2', 00H, '4', 00H, ')', 00H, 00H, 00H
	ORG $+6
$SG79789 DB	'W', 00H, 'M', 00H, '_', 00H, 'U', 00H, 'N', 00H, 'I', 00H
	DB	'N', 00H, 'I', 00H, 'T', 00H, 'M', 00H, 'E', 00H, 'N', 00H, 'U'
	DB	00H, 'P', 00H, 'O', 00H, 'P', 00H, 'U', 00H, 'P', 00H, '(', 00H
	DB	'0', 00H, 'x', 00H, '0', 00H, '1', 00H, '2', 00H, '5', 00H, ')'
	DB	00H, 00H, 00H
	ORG $+2
$SG79791 DB	'W', 00H, 'M', 00H, '_', 00H, 'M', 00H, 'E', 00H, 'N', 00H
	DB	'U', 00H, 'C', 00H, 'O', 00H, 'M', 00H, 'M', 00H, 'A', 00H, 'N'
	DB	00H, 'D', 00H, '(', 00H, '0', 00H, 'x', 00H, '0', 00H, '1', 00H
	DB	'2', 00H, '6', 00H, ')', 00H, 00H, 00H
	ORG $+2
$SG79793 DB	'W', 00H, 'M', 00H, '_', 00H, 'C', 00H, 'H', 00H, 'A', 00H
	DB	'N', 00H, 'G', 00H, 'E', 00H, 'U', 00H, 'I', 00H, 'S', 00H, 'T'
	DB	00H, 'A', 00H, 'T', 00H, 'E', 00H, '(', 00H, '0', 00H, 'x', 00H
	DB	'0', 00H, '1', 00H, '2', 00H, '7', 00H, ')', 00H, 00H, 00H
	ORG $+6
$SG79795 DB	'W', 00H, 'M', 00H, '_', 00H, 'U', 00H, 'P', 00H, 'D', 00H
	DB	'A', 00H, 'T', 00H, 'E', 00H, 'U', 00H, 'I', 00H, 'S', 00H, 'T'
	DB	00H, 'A', 00H, 'T', 00H, 'E', 00H, '(', 00H, '0', 00H, 'x', 00H
	DB	'0', 00H, '1', 00H, '2', 00H, '8', 00H, ')', 00H, 00H, 00H
	ORG $+6
$SG79797 DB	'W', 00H, 'M', 00H, '_', 00H, 'Q', 00H, 'U', 00H, 'E', 00H
	DB	'R', 00H, 'Y', 00H, 'U', 00H, 'I', 00H, 'S', 00H, 'T', 00H, 'A'
	DB	00H, 'T', 00H, 'E', 00H, '(', 00H, '0', 00H, 'x', 00H, '0', 00H
	DB	'1', 00H, '2', 00H, '9', 00H, ')', 00H, 00H, 00H
$SG79799 DB	'W', 00H, 'M', 00H, '_', 00H, 'C', 00H, 'T', 00H, 'L', 00H
	DB	'C', 00H, 'O', 00H, 'L', 00H, 'O', 00H, 'R', 00H, 'M', 00H, 'S'
	DB	00H, 'G', 00H, 'B', 00H, 'O', 00H, 'X', 00H, '(', 00H, '0', 00H
	DB	'x', 00H, '0', 00H, '1', 00H, '3', 00H, '2', 00H, ')', 00H, 00H
	DB	00H
	ORG $+4
$SG79801 DB	'W', 00H, 'M', 00H, '_', 00H, 'C', 00H, 'T', 00H, 'L', 00H
	DB	'C', 00H, 'O', 00H, 'L', 00H, 'O', 00H, 'R', 00H, 'E', 00H, 'D'
	DB	00H, 'I', 00H, 'T', 00H, '(', 00H, '0', 00H, 'x', 00H, '0', 00H
	DB	'1', 00H, '3', 00H, '3', 00H, ')', 00H, 00H, 00H
$SG79803 DB	'W', 00H, 'M', 00H, '_', 00H, 'C', 00H, 'T', 00H, 'L', 00H
	DB	'C', 00H, 'O', 00H, 'L', 00H, 'O', 00H, 'R', 00H, 'L', 00H, 'I'
	DB	00H, 'S', 00H, 'T', 00H, 'B', 00H, 'O', 00H, 'X', 00H, '(', 00H
	DB	'0', 00H, 'x', 00H, '0', 00H, '1', 00H, '3', 00H, '4', 00H, ')'
	DB	00H, 00H, 00H
	ORG $+2
$SG79805 DB	'W', 00H, 'M', 00H, '_', 00H, 'C', 00H, 'T', 00H, 'L', 00H
	DB	'C', 00H, 'O', 00H, 'L', 00H, 'O', 00H, 'R', 00H, 'B', 00H, 'T'
	DB	00H, 'N', 00H, '(', 00H, '0', 00H, 'x', 00H, '0', 00H, '1', 00H
	DB	'3', 00H, '5', 00H, ')', 00H, 00H, 00H
	ORG $+2
$SG79807 DB	'W', 00H, 'M', 00H, '_', 00H, 'C', 00H, 'T', 00H, 'L', 00H
	DB	'C', 00H, 'O', 00H, 'L', 00H, 'O', 00H, 'R', 00H, 'D', 00H, 'L'
	DB	00H, 'G', 00H, '(', 00H, '0', 00H, 'x', 00H, '0', 00H, '1', 00H
	DB	'3', 00H, '6', 00H, ')', 00H, 00H, 00H
	ORG $+2
$SG79809 DB	'W', 00H, 'M', 00H, '_', 00H, 'C', 00H, 'T', 00H, 'L', 00H
	DB	'C', 00H, 'O', 00H, 'L', 00H, 'O', 00H, 'R', 00H, 'S', 00H, 'C'
	DB	00H, 'R', 00H, 'O', 00H, 'L', 00H, 'L', 00H, 'B', 00H, 'A', 00H
	DB	'R', 00H, '(', 00H, '0', 00H, 'x', 00H, '0', 00H, '1', 00H, '3'
	DB	00H, '7', 00H, ')', 00H, 00H, 00H
	ORG $+6
$SG79811 DB	'W', 00H, 'M', 00H, '_', 00H, 'C', 00H, 'T', 00H, 'L', 00H
	DB	'C', 00H, 'O', 00H, 'L', 00H, 'O', 00H, 'R', 00H, 'S', 00H, 'T'
	DB	00H, 'A', 00H, 'T', 00H, 'I', 00H, 'C', 00H, '(', 00H, '0', 00H
	DB	'x', 00H, '0', 00H, '1', 00H, '3', 00H, '8', 00H, ')', 00H, 00H
	DB	00H
	ORG $+4
$SG79813 DB	'M', 00H, 'N', 00H, '_', 00H, 'G', 00H, 'E', 00H, 'T', 00H
	DB	'H', 00H, 'M', 00H, 'E', 00H, 'N', 00H, 'U', 00H, '(', 00H, '0'
	DB	00H, 'x', 00H, '0', 00H, '1', 00H, 'E', 00H, '1', 00H, ')', 00H
	DB	00H, 00H
$SG79815 DB	'W', 00H, 'M', 00H, '_', 00H, 'M', 00H, 'O', 00H, 'U', 00H
	DB	'S', 00H, 'E', 00H, 'M', 00H, 'O', 00H, 'V', 00H, 'E', 00H, '_'
	DB	00H, 'O', 00H, 'R', 00H, '_', 00H, 'M', 00H, 'O', 00H, 'U', 00H
	DB	'S', 00H, 'E', 00H, 'F', 00H, 'I', 00H, 'R', 00H, 'S', 00H, 'T'
	DB	00H, '(', 00H, '0', 00H, 'x', 00H, '0', 00H, '2', 00H, '0', 00H
	DB	'0', 00H, ')', 00H, 00H, 00H
	ORG $+2
$SG79817 DB	'W', 00H, 'M', 00H, '_', 00H, 'L', 00H, 'B', 00H, 'U', 00H
	DB	'T', 00H, 'T', 00H, 'O', 00H, 'N', 00H, 'D', 00H, 'O', 00H, 'W'
	DB	00H, 'N', 00H, '(', 00H, '0', 00H, 'x', 00H, '0', 00H, '2', 00H
	DB	'0', 00H, '1', 00H, ')', 00H, 00H, 00H
	ORG $+2
$SG79819 DB	'W', 00H, 'M', 00H, '_', 00H, 'L', 00H, 'B', 00H, 'U', 00H
	DB	'T', 00H, 'T', 00H, 'O', 00H, 'N', 00H, 'U', 00H, 'P', 00H, '('
	DB	00H, '0', 00H, 'x', 00H, '0', 00H, '2', 00H, '0', 00H, '2', 00H
	DB	')', 00H, 00H, 00H
	ORG $+6
$SG79821 DB	'W', 00H, 'M', 00H, '_', 00H, 'L', 00H, 'B', 00H, 'U', 00H
	DB	'T', 00H, 'T', 00H, 'O', 00H, 'N', 00H, 'D', 00H, 'B', 00H, 'L'
	DB	00H, 'C', 00H, 'L', 00H, 'K', 00H, '(', 00H, '0', 00H, 'x', 00H
	DB	'0', 00H, '2', 00H, '0', 00H, '3', 00H, ')', 00H, 00H, 00H
	ORG $+6
$SG88014 DB	'sTbCoNfIg!', 00H, 00H, 00H
	ORG $+3
$SG79823 DB	'W', 00H, 'M', 00H, '_', 00H, 'R', 00H, 'B', 00H, 'U', 00H
	DB	'T', 00H, 'T', 00H, 'O', 00H, 'N', 00H, 'D', 00H, 'O', 00H, 'W'
	DB	00H, 'N', 00H, '(', 00H, '0', 00H, 'x', 00H, '0', 00H, '2', 00H
	DB	'0', 00H, '4', 00H, ')', 00H, 00H, 00H
	ORG $+2
$SG79825 DB	'W', 00H, 'M', 00H, '_', 00H, 'R', 00H, 'B', 00H, 'U', 00H
	DB	'T', 00H, 'T', 00H, 'O', 00H, 'N', 00H, 'U', 00H, 'P', 00H, '('
	DB	00H, '0', 00H, 'x', 00H, '0', 00H, '2', 00H, '0', 00H, '5', 00H
	DB	')', 00H, 00H, 00H
	ORG $+6
$SG79827 DB	'W', 00H, 'M', 00H, '_', 00H, 'R', 00H, 'B', 00H, 'U', 00H
	DB	'T', 00H, 'T', 00H, 'O', 00H, 'N', 00H, 'D', 00H, 'B', 00H, 'L'
	DB	00H, 'C', 00H, 'L', 00H, 'K', 00H, '(', 00H, '0', 00H, 'x', 00H
	DB	'0', 00H, '2', 00H, '0', 00H, '6', 00H, ')', 00H, 00H, 00H
	ORG $+6
$SG79829 DB	'W', 00H, 'M', 00H, '_', 00H, 'M', 00H, 'B', 00H, 'U', 00H
	DB	'T', 00H, 'T', 00H, 'O', 00H, 'N', 00H, 'D', 00H, 'O', 00H, 'W'
	DB	00H, 'N', 00H, '(', 00H, '0', 00H, 'x', 00H, '0', 00H, '2', 00H
	DB	'0', 00H, '7', 00H, ')', 00H, 00H, 00H
	ORG $+2
$SG79831 DB	'W', 00H, 'M', 00H, '_', 00H, 'M', 00H, 'B', 00H, 'U', 00H
	DB	'T', 00H, 'T', 00H, 'O', 00H, 'N', 00H, 'U', 00H, 'P', 00H, '('
	DB	00H, '0', 00H, 'x', 00H, '0', 00H, '2', 00H, '0', 00H, '8', 00H
	DB	')', 00H, 00H, 00H
	ORG $+6
$SG79833 DB	'W', 00H, 'M', 00H, '_', 00H, 'M', 00H, 'B', 00H, 'U', 00H
	DB	'T', 00H, 'T', 00H, 'O', 00H, 'N', 00H, 'D', 00H, 'B', 00H, 'L'
	DB	00H, 'C', 00H, 'L', 00H, 'K', 00H, '(', 00H, '0', 00H, 'x', 00H
	DB	'0', 00H, '2', 00H, '0', 00H, '9', 00H, ')', 00H, 00H, 00H
	ORG $+6
$SG79835 DB	'W', 00H, 'M', 00H, '_', 00H, 'M', 00H, 'O', 00H, 'U', 00H
	DB	'S', 00H, 'E', 00H, 'W', 00H, 'H', 00H, 'E', 00H, 'E', 00H, 'L'
	DB	00H, '(', 00H, '0', 00H, 'x', 00H, '0', 00H, '2', 00H, '0', 00H
	DB	'A', 00H, ')', 00H, 00H, 00H
	ORG $+4
$SG79837 DB	'W', 00H, 'M', 00H, '_', 00H, 'X', 00H, 'B', 00H, 'U', 00H
	DB	'T', 00H, 'T', 00H, 'O', 00H, 'N', 00H, 'D', 00H, 'O', 00H, 'W'
	DB	00H, 'N', 00H, '(', 00H, '0', 00H, 'x', 00H, '0', 00H, '2', 00H
	DB	'0', 00H, 'B', 00H, ')', 00H, 00H, 00H
	ORG $+2
$SG79839 DB	'W', 00H, 'M', 00H, '_', 00H, 'X', 00H, 'B', 00H, 'U', 00H
	DB	'T', 00H, 'T', 00H, 'O', 00H, 'N', 00H, 'U', 00H, 'P', 00H, '('
	DB	00H, '0', 00H, 'x', 00H, '0', 00H, '2', 00H, '0', 00H, 'C', 00H
	DB	')', 00H, 00H, 00H
	ORG $+6
$SG79841 DB	'W', 00H, 'M', 00H, '_', 00H, 'X', 00H, 'B', 00H, 'U', 00H
	DB	'T', 00H, 'T', 00H, 'O', 00H, 'N', 00H, 'D', 00H, 'B', 00H, 'L'
	DB	00H, 'C', 00H, 'L', 00H, 'K', 00H, '(', 00H, '0', 00H, 'x', 00H
	DB	'0', 00H, '2', 00H, '0', 00H, 'D', 00H, ')', 00H, 00H, 00H
	ORG $+6
$SG79845 DB	'W', 00H, 'M', 00H, '_', 00H, 'P', 00H, 'A', 00H, 'R', 00H
	DB	'E', 00H, 'N', 00H, 'T', 00H, 'N', 00H, 'O', 00H, 'T', 00H, 'I'
	DB	00H, 'F', 00H, 'Y', 00H, '(', 00H, '0', 00H, 'x', 00H, '0', 00H
	DB	'2', 00H, '1', 00H, '0', 00H, ')', 00H, 00H, 00H
$SG79847 DB	'W', 00H, 'M', 00H, '_', 00H, 'E', 00H, 'N', 00H, 'T', 00H
	DB	'E', 00H, 'R', 00H, 'M', 00H, 'E', 00H, 'N', 00H, 'U', 00H, 'L'
	DB	00H, 'O', 00H, 'O', 00H, 'P', 00H, '(', 00H, '0', 00H, 'x', 00H
	DB	'0', 00H, '2', 00H, '1', 00H, '1', 00H, ')', 00H, 00H, 00H
	ORG $+6
$SG79843 DB	'W', 00H, 'M', 00H, '_', 00H, 'M', 00H, 'O', 00H, 'U', 00H
	DB	'S', 00H, 'E', 00H, 'H', 00H, 'W', 00H, 'H', 00H, 'E', 00H, 'E'
	DB	00H, 'L', 00H, '_', 00H, 'O', 00H, 'R', 00H, '_', 00H, 'M', 00H
	DB	'O', 00H, 'U', 00H, 'S', 00H, 'E', 00H, 'L', 00H, 'A', 00H, 'S'
	DB	00H, 'T', 00H, '(', 00H, '0', 00H, 'x', 00H, '0', 00H, '2', 00H
	DB	'0', 00H, 'E', 00H, ')', 00H, 00H, 00H
$SG79849 DB	'W', 00H, 'M', 00H, '_', 00H, 'E', 00H, 'X', 00H, 'I', 00H
	DB	'T', 00H, 'M', 00H, 'E', 00H, 'N', 00H, 'U', 00H, 'L', 00H, 'O'
	DB	00H, 'O', 00H, 'P', 00H, '(', 00H, '0', 00H, 'x', 00H, '0', 00H
	DB	'2', 00H, '1', 00H, '2', 00H, ')', 00H, 00H, 00H
$SG79851 DB	'W', 00H, 'M', 00H, '_', 00H, 'N', 00H, 'E', 00H, 'X', 00H
	DB	'T', 00H, 'M', 00H, 'E', 00H, 'N', 00H, 'U', 00H, '(', 00H, '0'
	DB	00H, 'x', 00H, '0', 00H, '2', 00H, '1', 00H, '3', 00H, ')', 00H
	DB	00H, 00H
$SG79853 DB	'W', 00H, 'M', 00H, '_', 00H, 'S', 00H, 'I', 00H, 'Z', 00H
	DB	'I', 00H, 'N', 00H, 'G', 00H, '(', 00H, '0', 00H, 'x', 00H, '0'
	DB	00H, '2', 00H, '1', 00H, '4', 00H, ')', 00H, 00H, 00H
	ORG $+4
$SG79855 DB	'W', 00H, 'M', 00H, '_', 00H, 'C', 00H, 'A', 00H, 'P', 00H
	DB	'T', 00H, 'U', 00H, 'R', 00H, 'E', 00H, 'C', 00H, 'H', 00H, 'A'
	DB	00H, 'N', 00H, 'G', 00H, 'E', 00H, 'D', 00H, '(', 00H, '0', 00H
	DB	'x', 00H, '0', 00H, '2', 00H, '1', 00H, '5', 00H, ')', 00H, 00H
	DB	00H
	ORG $+4
$SG79857 DB	'W', 00H, 'M', 00H, '_', 00H, 'M', 00H, 'O', 00H, 'V', 00H
	DB	'I', 00H, 'N', 00H, 'G', 00H, '(', 00H, '0', 00H, 'x', 00H, '0'
	DB	00H, '2', 00H, '1', 00H, '6', 00H, ')', 00H, 00H, 00H
	ORG $+4
$SG88050 DB	'Software\SilverSpaceship\stb', 00H
	ORG $+3
$SG79859 DB	'W', 00H, 'M', 00H, '_', 00H, 'P', 00H, 'O', 00H, 'W', 00H
	DB	'E', 00H, 'R', 00H, 'B', 00H, 'R', 00H, 'O', 00H, 'A', 00H, 'D'
	DB	00H, 'C', 00H, 'A', 00H, 'S', 00H, 'T', 00H, '(', 00H, '0', 00H
	DB	'x', 00H, '0', 00H, '2', 00H, '1', 00H, '8', 00H, ')', 00H, 00H
	DB	00H
	ORG $+4
$SG88053 DB	'config_dir', 00H
	ORG $+5
$SG79861 DB	'W', 00H, 'M', 00H, '_', 00H, 'D', 00H, 'E', 00H, 'V', 00H
	DB	'I', 00H, 'C', 00H, 'E', 00H, 'C', 00H, 'H', 00H, 'A', 00H, 'N'
	DB	00H, 'G', 00H, 'E', 00H, '(', 00H, '0', 00H, 'x', 00H, '0', 00H
	DB	'2', 00H, '1', 00H, '9', 00H, ')', 00H, 00H, 00H
$SG88054 DB	'%s/%s.cfg', 00H
	ORG $+6
$SG79863 DB	'W', 00H, 'M', 00H, '_', 00H, 'M', 00H, 'D', 00H, 'I', 00H
	DB	'C', 00H, 'R', 00H, 'E', 00H, 'A', 00H, 'T', 00H, 'E', 00H, '('
	DB	00H, '0', 00H, 'x', 00H, '0', 00H, '2', 00H, '2', 00H, '0', 00H
	DB	')', 00H, 00H, 00H
	ORG $+6
$SG88057 DB	'W', 00H, ':', 00H, '\', 00H, 'c', 00H, 'p', 00H, 'p', 00H
	DB	'\', 00H, 'v', 00H, 'o', 00H, 'i', 00H, 'd', 00H, '\', 00H, 'v'
	DB	00H, 'e', 00H, 'n', 00H, 'd', 00H, 'o', 00H, 'r', 00H, '\', 00H
	DB	's', 00H, 't', 00H, 'b', 00H, '\', 00H, 's', 00H, 't', 00H, 'b'
	DB	00H, '.', 00H, 'h', 00H, 00H, 00H
	ORG $+6
$SG79865 DB	'W', 00H, 'M', 00H, '_', 00H, 'M', 00H, 'D', 00H, 'I', 00H
	DB	'D', 00H, 'E', 00H, 'S', 00H, 'T', 00H, 'R', 00H, 'O', 00H, 'Y'
	DB	00H, '(', 00H, '0', 00H, 'x', 00H, '0', 00H, '2', 00H, '2', 00H
	DB	'1', 00H, ')', 00H, 00H, 00H
	ORG $+4
$SG88058 DB	'!', 00H, '(', 00H, '(', 00H, 'z', 00H, '-', 00H, '>', 00H
	DB	'd', 00H, 'a', 00H, 't', 00H, 'a', 00H, ')', 00H, ')', 00H, ' '
	DB	00H, '|', 00H, '|', 00H, ' ', 00H, 's', 00H, 't', 00H, 'b', 00H
	DB	'_', 00H, 'a', 00H, 'r', 00H, 'r', 00H, 'h', 00H, 'e', 00H, 'a'
	DB	00H, 'd', 00H, '(', 00H, '(', 00H, '(', 00H, 'z', 00H, '-', 00H
	DB	'>', 00H, 'd', 00H, 'a', 00H, 't', 00H, 'a', 00H, ')', 00H, ')'
	DB	00H, ')', 00H, '-', 00H, '>', 00H, 's', 00H, 'i', 00H, 'g', 00H
	DB	'n', 00H, 'a', 00H, 't', 00H, 'u', 00H, 'r', 00H, 'e', 00H, ' '
	DB	00H, '=', 00H, '=', 00H, ' ', 00H, 's', 00H, 't', 00H, 'b', 00H
	DB	'_', 00H, 'a', 00H, 'r', 00H, 'r', 00H, '_', 00H, 's', 00H, 'i'
	DB	00H, 'g', 00H, 'n', 00H, 'a', 00H, 't', 00H, 'u', 00H, 'r', 00H
	DB	'e', 00H, 00H, 00H
	ORG $+6
$SG88059 DB	'W', 00H, ':', 00H, '\', 00H, 'c', 00H, 'p', 00H, 'p', 00H
	DB	'\', 00H, 'v', 00H, 'o', 00H, 'i', 00H, 'd', 00H, '\', 00H, 'v'
	DB	00H, 'e', 00H, 'n', 00H, 'd', 00H, 'o', 00H, 'r', 00H, '\', 00H
	DB	's', 00H, 't', 00H, 'b', 00H, '\', 00H, 's', 00H, 't', 00H, 'b'
	DB	00H, '.', 00H, 'h', 00H, 00H, 00H
	ORG $+6
$SG79867 DB	'W', 00H, 'M', 00H, '_', 00H, 'M', 00H, 'D', 00H, 'I', 00H
	DB	'A', 00H, 'C', 00H, 'T', 00H, 'I', 00H, 'V', 00H, 'A', 00H, 'T'
	DB	00H, 'E', 00H, '(', 00H, '0', 00H, 'x', 00H, '0', 00H, '2', 00H
	DB	'2', 00H, '2', 00H, ')', 00H, 00H, 00H
	ORG $+2
$SG88060 DB	's', 00H, ' ', 00H, '=', 00H, '=', 00H, ' ', 00H, 'z', 00H
	DB	'-', 00H, '>', 00H, 'l', 00H, 'o', 00H, 'a', 00H, 'd', 00H, 'e'
	DB	00H, 'd', 00H, '_', 00H, 'f', 00H, 'i', 00H, 'l', 00H, 'e', 00H
	DB	' ', 00H, '+', 00H, ' ', 00H, 'l', 00H, 'e', 00H, 'n', 00H, 00H
	DB	00H
	ORG $+4
$SG79869 DB	'W', 00H, 'M', 00H, '_', 00H, 'M', 00H, 'D', 00H, 'I', 00H
	DB	'R', 00H, 'E', 00H, 'S', 00H, 'T', 00H, 'O', 00H, 'R', 00H, 'E'
	DB	00H, '(', 00H, '0', 00H, 'x', 00H, '0', 00H, '2', 00H, '2', 00H
	DB	'3', 00H, ')', 00H, 00H, 00H
	ORG $+4
$SG79871 DB	'W', 00H, 'M', 00H, '_', 00H, 'M', 00H, 'D', 00H, 'I', 00H
	DB	'N', 00H, 'E', 00H, 'X', 00H, 'T', 00H, '(', 00H, '0', 00H, 'x'
	DB	00H, '0', 00H, '2', 00H, '2', 00H, '4', 00H, ')', 00H, 00H, 00H
	ORG $+2
$SG79873 DB	'W', 00H, 'M', 00H, '_', 00H, 'M', 00H, 'D', 00H, 'I', 00H
	DB	'M', 00H, 'A', 00H, 'X', 00H, 'I', 00H, 'M', 00H, 'I', 00H, 'Z'
	DB	00H, 'E', 00H, '(', 00H, '0', 00H, 'x', 00H, '0', 00H, '2', 00H
	DB	'2', 00H, '5', 00H, ')', 00H, 00H, 00H
	ORG $+2
$SG79875 DB	'W', 00H, 'M', 00H, '_', 00H, 'M', 00H, 'D', 00H, 'I', 00H
	DB	'T', 00H, 'I', 00H, 'L', 00H, 'E', 00H, '(', 00H, '0', 00H, 'x'
	DB	00H, '0', 00H, '2', 00H, '2', 00H, '6', 00H, ')', 00H, 00H, 00H
	ORG $+2
$SG79877 DB	'W', 00H, 'M', 00H, '_', 00H, 'M', 00H, 'D', 00H, 'I', 00H
	DB	'C', 00H, 'A', 00H, 'S', 00H, 'C', 00H, 'A', 00H, 'D', 00H, 'E'
	DB	00H, '(', 00H, '0', 00H, 'x', 00H, '0', 00H, '2', 00H, '2', 00H
	DB	'7', 00H, ')', 00H, 00H, 00H
	ORG $+4
$SG79879 DB	'W', 00H, 'M', 00H, '_', 00H, 'M', 00H, 'D', 00H, 'I', 00H
	DB	'I', 00H, 'C', 00H, 'O', 00H, 'N', 00H, 'A', 00H, 'R', 00H, 'R'
	DB	00H, 'A', 00H, 'N', 00H, 'G', 00H, 'E', 00H, '(', 00H, '0', 00H
	DB	'x', 00H, '0', 00H, '2', 00H, '2', 00H, '8', 00H, ')', 00H, 00H
	DB	00H
	ORG $+4
$SG104457 DB	'i', 00H, 'n', 00H, 'v', 00H, 'a', 00H, 'l', 00H, 'i', 00H
	DB	'd', 00H, ' ', 00H, 'w', 00H, 'i', 00H, 'n', 00H, 'd', 00H, 'o'
	DB	00H, 'w', 00H, ' ', 00H, 's', 00H, 'i', 00H, 'z', 00H, 'e', 00H
	DB	00H, 00H
$SG79881 DB	'W', 00H, 'M', 00H, '_', 00H, 'M', 00H, 'D', 00H, 'I', 00H
	DB	'G', 00H, 'E', 00H, 'T', 00H, 'A', 00H, 'C', 00H, 'T', 00H, 'I'
	DB	00H, 'V', 00H, 'E', 00H, '(', 00H, '0', 00H, 'x', 00H, '0', 00H
	DB	'2', 00H, '2', 00H, '9', 00H, ')', 00H, 00H, 00H
$SG104458 DB	'ZenHandleNativeWindowMessage', 00H
	ORG $+3
$SG104459 DB	'W:\cpp\void\detroit\brazen-window.h', 00H
	ORG $+4
$SG79883 DB	'W', 00H, 'M', 00H, '_', 00H, 'M', 00H, 'D', 00H, 'I', 00H
	DB	'S', 00H, 'E', 00H, 'T', 00H, 'M', 00H, 'E', 00H, 'N', 00H, 'U'
	DB	00H, '(', 00H, '0', 00H, 'x', 00H, '0', 00H, '2', 00H, '3', 00H
	DB	'0', 00H, ')', 00H, 00H, 00H
	ORG $+4
$SG79885 DB	'W', 00H, 'M', 00H, '_', 00H, 'E', 00H, 'N', 00H, 'T', 00H
	DB	'E', 00H, 'R', 00H, 'S', 00H, 'I', 00H, 'Z', 00H, 'E', 00H, 'M'
	DB	00H, 'O', 00H, 'V', 00H, 'E', 00H, '(', 00H, '0', 00H, 'x', 00H
	DB	'0', 00H, '2', 00H, '3', 00H, '1', 00H, ')', 00H, 00H, 00H
	ORG $+6
$SG79887 DB	'W', 00H, 'M', 00H, '_', 00H, 'E', 00H, 'X', 00H, 'I', 00H
	DB	'T', 00H, 'S', 00H, 'I', 00H, 'Z', 00H, 'E', 00H, 'M', 00H, 'O'
	DB	00H, 'V', 00H, 'E', 00H, '(', 00H, '0', 00H, 'x', 00H, '0', 00H
	DB	'2', 00H, '3', 00H, '2', 00H, ')', 00H, 00H, 00H
$SG79889 DB	'W', 00H, 'M', 00H, '_', 00H, 'D', 00H, 'R', 00H, 'O', 00H
	DB	'P', 00H, 'F', 00H, 'I', 00H, 'L', 00H, 'E', 00H, 'S', 00H, '('
	DB	00H, '0', 00H, 'x', 00H, '0', 00H, '2', 00H, '3', 00H, '3', 00H
	DB	')', 00H, 00H, 00H
	ORG $+6
$SG79891 DB	'W', 00H, 'M', 00H, '_', 00H, 'M', 00H, 'D', 00H, 'I', 00H
	DB	'R', 00H, 'E', 00H, 'F', 00H, 'R', 00H, 'E', 00H, 'S', 00H, 'H'
	DB	00H, 'M', 00H, 'E', 00H, 'N', 00H, 'U', 00H, '(', 00H, '0', 00H
	DB	'x', 00H, '0', 00H, '2', 00H, '3', 00H, '4', 00H, ')', 00H, 00H
	DB	00H
	ORG $+4
$SG104468 DB	'i', 00H, 'n', 00H, 'v', 00H, 'a', 00H, 'l', 00H, 'i', 00H
	DB	'd', 00H, ' ', 00H, 's', 00H, 't', 00H, 'a', 00H, 't', 00H, 'e'
	DB	00H, ' ', 00H, '%', 00H, 'i', 00H, 00H, 00H
	ORG $+6
$SG104469 DB	'~Event->Counter & 0x01', 00H
	ORG $+1
$SG79893 DB	'W', 00H, 'M', 00H, '_', 00H, 'P', 00H, 'O', 00H, 'I', 00H
	DB	'N', 00H, 'T', 00H, 'E', 00H, 'R', 00H, 'D', 00H, 'E', 00H, 'V'
	DB	00H, 'I', 00H, 'C', 00H, 'E', 00H, 'C', 00H, 'H', 00H, 'A', 00H
	DB	'N', 00H, 'G', 00H, 'E', 00H, '(', 00H, '0', 00H, 'x', 00H, '2'
	DB	00H, '3', 00H, '8', 00H, ')', 00H, 00H, 00H
	ORG $+4
$SG104470 DB	'ZenHandleNativeWindowMessage', 00H
	ORG $+3
$SG104471 DB	'W:\cpp\void\detroit\brazen-window.h', 00H
	ORG $+4
$SG79895 DB	'W', 00H, 'M', 00H, '_', 00H, 'P', 00H, 'O', 00H, 'I', 00H
	DB	'N', 00H, 'T', 00H, 'E', 00H, 'R', 00H, 'D', 00H, 'E', 00H, 'V'
	DB	00H, 'I', 00H, 'C', 00H, 'E', 00H, 'I', 00H, 'N', 00H, 'R', 00H
	DB	'A', 00H, 'N', 00H, 'G', 00H, 'E', 00H, '(', 00H, '0', 00H, 'x'
	DB	00H, '2', 00H, '3', 00H, '9', 00H, ')', 00H, 00H, 00H
	ORG $+2
$SG79897 DB	'W', 00H, 'M', 00H, '_', 00H, 'P', 00H, 'O', 00H, 'I', 00H
	DB	'N', 00H, 'T', 00H, 'E', 00H, 'R', 00H, 'D', 00H, 'E', 00H, 'V'
	DB	00H, 'I', 00H, 'C', 00H, 'E', 00H, 'O', 00H, 'U', 00H, 'T', 00H
	DB	'O', 00H, 'F', 00H, 'R', 00H, 'A', 00H, 'N', 00H, 'G', 00H, 'E'
	DB	00H, '(', 00H, '0', 00H, 'x', 00H, '2', 00H, '3', 00H, 'A', 00H
	DB	')', 00H, 00H, 00H
	ORG $+4
$SG79899 DB	'W', 00H, 'M', 00H, '_', 00H, 'T', 00H, 'O', 00H, 'U', 00H
	DB	'C', 00H, 'H', 00H, '(', 00H, '0', 00H, 'x', 00H, '0', 00H, '2'
	DB	00H, '4', 00H, '0', 00H, ')', 00H, 00H, 00H
	ORG $+6
$SG104477 DB	'i', 00H, 'n', 00H, 'v', 00H, 'a', 00H, 'l', 00H, 'i', 00H
	DB	'd', 00H, ' ', 00H, 's', 00H, 't', 00H, 'a', 00H, 't', 00H, 'e'
	DB	00H, ' ', 00H, '%', 00H, 'i', 00H, 00H, 00H
	ORG $+6
$SG79901 DB	'W', 00H, 'M', 00H, '_', 00H, 'N', 00H, 'C', 00H, 'P', 00H
	DB	'O', 00H, 'I', 00H, 'N', 00H, 'T', 00H, 'E', 00H, 'R', 00H, 'U'
	DB	00H, 'P', 00H, 'D', 00H, 'A', 00H, 'T', 00H, 'E', 00H, '(', 00H
	DB	'0', 00H, 'x', 00H, '0', 00H, '2', 00H, '4', 00H, '1', 00H, ')'
	DB	00H, 00H, 00H
	ORG $+2
$SG104478 DB	'Event->Counter & 0x01', 00H
	ORG $+2
$SG104479 DB	'ZenHandleNativeWindowMessage', 00H
	ORG $+3
$SG79903 DB	'W', 00H, 'M', 00H, '_', 00H, 'N', 00H, 'C', 00H, 'P', 00H
	DB	'O', 00H, 'I', 00H, 'N', 00H, 'T', 00H, 'E', 00H, 'R', 00H, 'D'
	DB	00H, 'O', 00H, 'W', 00H, 'N', 00H, '(', 00H, '0', 00H, 'x', 00H
	DB	'0', 00H, '2', 00H, '4', 00H, '2', 00H, ')', 00H, 00H, 00H
	ORG $+6
$SG104480 DB	'W:\cpp\void\detroit\brazen-window.h', 00H
$SG88393 DB	'%s%s', 00H
	ORG $+7
$SG104481 DB	'i', 00H, 'n', 00H, 'v', 00H, 'a', 00H, 'l', 00H, 'i', 00H
	DB	'd', 00H, ' ', 00H, 's', 00H, 't', 00H, 'a', 00H, 't', 00H, 'e'
	DB	00H, ',', 00H, ' ', 00H, 'w', 00H, 'i', 00H, 'n', 00H, 'd', 00H
	DB	'o', 00H, 'w', 00H, ' ', 00H, 's', 00H, 'h', 00H, 'o', 00H, 'u'
	DB	00H, 'l', 00H, 'd', 00H, ' ', 00H, 'h', 00H, 'a', 00H, 'v', 00H
	DB	'e', 00H, ' ', 00H, 'b', 00H, 'e', 00H, 'e', 00H, 'n', 00H, ' '
	DB	00H, 'c', 00H, 'l', 00H, 'i', 00H, 'c', 00H, 'k', 00H, ' ', 00H
	DB	'f', 00H, 'o', 00H, 'c', 00H, 'u', 00H, 's', 00H, 'e', 00H, 'd'
	DB	00H, 00H, 00H
	ORG $+6
$SG79905 DB	'W', 00H, 'M', 00H, '_', 00H, 'N', 00H, 'C', 00H, 'P', 00H
	DB	'O', 00H, 'I', 00H, 'N', 00H, 'T', 00H, 'E', 00H, 'R', 00H, 'U'
	DB	00H, 'P', 00H, '(', 00H, '0', 00H, 'x', 00H, '0', 00H, '2', 00H
	DB	'4', 00H, '3', 00H, ')', 00H, 00H, 00H
	ORG $+2
$SG104482 DB	'Window->ClickFocused', 00H
	ORG $+3
$SG104483 DB	'ZenHandleNativeWindowMessage', 00H
	ORG $+3
$SG79907 DB	'W', 00H, 'M', 00H, '_', 00H, 'P', 00H, 'O', 00H, 'I', 00H
	DB	'N', 00H, 'T', 00H, 'E', 00H, 'R', 00H, 'U', 00H, 'P', 00H, 'D'
	DB	00H, 'A', 00H, 'T', 00H, 'E', 00H, '(', 00H, '0', 00H, 'x', 00H
	DB	'0', 00H, '2', 00H, '4', 00H, '5', 00H, ')', 00H, 00H, 00H
	ORG $+6
$SG104484 DB	'W:\cpp\void\detroit\brazen-window.h', 00H
	ORG $+4
$SG96293 DB	'unknown image type', 00H
	ORG $+5
$SG79909 DB	'W', 00H, 'M', 00H, '_', 00H, 'P', 00H, 'O', 00H, 'I', 00H
	DB	'N', 00H, 'T', 00H, 'E', 00H, 'R', 00H, 'D', 00H, 'O', 00H, 'W'
	DB	00H, 'N', 00H, '(', 00H, '0', 00H, 'x', 00H, '0', 00H, '2', 00H
	DB	'4', 00H, '6', 00H, ')', 00H, 00H, 00H
	ORG $+2
$SG79911 DB	'W', 00H, 'M', 00H, '_', 00H, 'P', 00H, 'O', 00H, 'I', 00H
	DB	'N', 00H, 'T', 00H, 'E', 00H, 'R', 00H, 'U', 00H, 'P', 00H, '('
	DB	00H, '0', 00H, 'x', 00H, '0', 00H, '2', 00H, '4', 00H, '7', 00H
	DB	')', 00H, 00H, 00H
	ORG $+6
$SG79913 DB	'W', 00H, 'M', 00H, '_', 00H, 'P', 00H, 'O', 00H, 'I', 00H
	DB	'N', 00H, 'T', 00H, 'E', 00H, 'R', 00H, 'E', 00H, 'N', 00H, 'T'
	DB	00H, 'E', 00H, 'R', 00H, '(', 00H, '0', 00H, 'x', 00H, '0', 00H
	DB	'2', 00H, '4', 00H, '9', 00H, ')', 00H, 00H, 00H
$SG79915 DB	'W', 00H, 'M', 00H, '_', 00H, 'P', 00H, 'O', 00H, 'I', 00H
	DB	'N', 00H, 'T', 00H, 'E', 00H, 'R', 00H, 'L', 00H, 'E', 00H, 'A'
	DB	00H, 'V', 00H, 'E', 00H, '(', 00H, '0', 00H, 'x', 00H, '0', 00H
	DB	'2', 00H, '4', 00H, 'A', 00H, ')', 00H, 00H, 00H
$SG79917 DB	'W', 00H, 'M', 00H, '_', 00H, 'P', 00H, 'O', 00H, 'I', 00H
	DB	'N', 00H, 'T', 00H, 'E', 00H, 'R', 00H, 'A', 00H, 'C', 00H, 'T'
	DB	00H, 'I', 00H, 'V', 00H, 'A', 00H, 'T', 00H, 'E', 00H, '(', 00H
	DB	'0', 00H, 'x', 00H, '0', 00H, '2', 00H, '4', 00H, 'B', 00H, ')'
	DB	00H, 00H, 00H
	ORG $+2
$SG79921 DB	'W', 00H, 'M', 00H, '_', 00H, 'T', 00H, 'O', 00H, 'U', 00H
	DB	'C', 00H, 'H', 00H, 'H', 00H, 'I', 00H, 'T', 00H, 'T', 00H, 'E'
	DB	00H, 'S', 00H, 'T', 00H, 'I', 00H, 'N', 00H, 'G', 00H, '(', 00H
	DB	'0', 00H, 'x', 00H, '0', 00H, '2', 00H, '4', 00H, 'D', 00H, ')'
	DB	00H, 00H, 00H
	ORG $+2
$SG79919 DB	'W', 00H, 'M', 00H, '_', 00H, 'P', 00H, 'O', 00H, 'I', 00H
	DB	'N', 00H, 'T', 00H, 'E', 00H, 'R', 00H, 'C', 00H, 'A', 00H, 'P'
	DB	00H, 'T', 00H, 'U', 00H, 'R', 00H, 'E', 00H, 'C', 00H, 'H', 00H
	DB	'A', 00H, 'N', 00H, 'G', 00H, 'E', 00H, 'D', 00H, '(', 00H, '0'
	DB	00H, 'x', 00H, '0', 00H, '2', 00H, '4', 00H, 'C', 00H, ')', 00H
	DB	00H, 00H
	ORG $+6
$SG88114 DB	'W', 00H, ':', 00H, '\', 00H, 'c', 00H, 'p', 00H, 'p', 00H
	DB	'\', 00H, 'v', 00H, 'o', 00H, 'i', 00H, 'd', 00H, '\', 00H, 'v'
	DB	00H, 'e', 00H, 'n', 00H, 'd', 00H, 'o', 00H, 'r', 00H, '\', 00H
	DB	's', 00H, 't', 00H, 'b', 00H, '\', 00H, 's', 00H, 't', 00H, 'b'
	DB	00H, '.', 00H, 'h', 00H, 00H, 00H
	ORG $+6
$SG79923 DB	'W', 00H, 'M', 00H, '_', 00H, 'P', 00H, 'O', 00H, 'I', 00H
	DB	'N', 00H, 'T', 00H, 'E', 00H, 'R', 00H, 'W', 00H, 'H', 00H, 'E'
	DB	00H, 'E', 00H, 'L', 00H, '(', 00H, '0', 00H, 'x', 00H, '0', 00H
	DB	'2', 00H, '4', 00H, 'E', 00H, ')', 00H, 00H, 00H
$SG104501 DB	'ZenNativeWindowCallback', 00H
$SG88115 DB	'!', 00H, '(', 00H, '(', 00H, 'z', 00H, '-', 00H, '>', 00H
	DB	'd', 00H, 'a', 00H, 't', 00H, 'a', 00H, ')', 00H, ')', 00H, ' '
	DB	00H, '|', 00H, '|', 00H, ' ', 00H, 's', 00H, 't', 00H, 'b', 00H
	DB	'_', 00H, 'a', 00H, 'r', 00H, 'r', 00H, 'h', 00H, 'e', 00H, 'a'
	DB	00H, 'd', 00H, '(', 00H, '(', 00H, '(', 00H, 'z', 00H, '-', 00H
	DB	'>', 00H, 'd', 00H, 'a', 00H, 't', 00H, 'a', 00H, ')', 00H, ')'
	DB	00H, ')', 00H, '-', 00H, '>', 00H, 's', 00H, 'i', 00H, 'g', 00H
	DB	'n', 00H, 'a', 00H, 't', 00H, 'u', 00H, 'r', 00H, 'e', 00H, ' '
	DB	00H, '=', 00H, '=', 00H, ' ', 00H, 's', 00H, 't', 00H, 'b', 00H
	DB	'_', 00H, 'a', 00H, 'r', 00H, 'r', 00H, '_', 00H, 's', 00H, 'i'
	DB	00H, 'g', 00H, 'n', 00H, 'a', 00H, 't', 00H, 'u', 00H, 'r', 00H
	DB	'e', 00H, 00H, 00H
	ORG $+6
$SG104500 DB	'i', 00H, 'n', 00H, 'v', 00H, 'a', 00H, 'l', 00H, 'i', 00H
	DB	'd', 00H, ' ', 00H, 'w', 00H, 'i', 00H, 'n', 00H, 'd', 00H, 'o'
	DB	00H, 'w', 00H, 00H, 00H
	ORG $+2
$SG79925 DB	'W', 00H, 'M', 00H, '_', 00H, 'P', 00H, 'O', 00H, 'I', 00H
	DB	'N', 00H, 'T', 00H, 'E', 00H, 'R', 00H, 'H', 00H, 'W', 00H, 'H'
	DB	00H, 'E', 00H, 'E', 00H, 'L', 00H, '(', 00H, '0', 00H, 'x', 00H
	DB	'0', 00H, '2', 00H, '4', 00H, 'F', 00H, ')', 00H, 00H, 00H
	ORG $+6
$SG104502 DB	'W:\cpp\void\detroit\brazen-window.h', 00H
	ORG $+4
$SG96311 DB	'outofmem', 00H
	ORG $+7
$SG79927 DB	'D', 00H, 'M', 00H, '_', 00H, 'P', 00H, 'O', 00H, 'I', 00H
	DB	'N', 00H, 'T', 00H, 'E', 00H, 'R', 00H, 'H', 00H, 'I', 00H, 'T'
	DB	00H, 'T', 00H, 'E', 00H, 'S', 00H, 'T', 00H, '(', 00H, '0', 00H
	DB	'x', 00H, '0', 00H, '2', 00H, '5', 00H, '0', 00H, ')', 00H, 00H
	DB	00H
	ORG $+4
$SG79929 DB	'W', 00H, 'M', 00H, '_', 00H, 'P', 00H, 'O', 00H, 'I', 00H
	DB	'N', 00H, 'T', 00H, 'E', 00H, 'R', 00H, 'R', 00H, 'O', 00H, 'U'
	DB	00H, 'T', 00H, 'E', 00H, 'D', 00H, 'T', 00H, 'O', 00H, '(', 00H
	DB	'0', 00H, 'x', 00H, '0', 00H, '2', 00H, '5', 00H, '1', 00H, ')'
	DB	00H, 00H, 00H
	ORG $+2
$SG79931 DB	'W', 00H, 'M', 00H, '_', 00H, 'P', 00H, 'O', 00H, 'I', 00H
	DB	'N', 00H, 'T', 00H, 'E', 00H, 'R', 00H, 'R', 00H, 'O', 00H, 'U'
	DB	00H, 'T', 00H, 'E', 00H, 'D', 00H, 'A', 00H, 'W', 00H, 'A', 00H
	DB	'Y', 00H, '(', 00H, '0', 00H, 'x', 00H, '0', 00H, '2', 00H, '5'
	DB	00H, '2', 00H, ')', 00H, 00H, 00H
	ORG $+6
$SG79935 DB	'W', 00H, 'M', 00H, '_', 00H, 'I', 00H, 'M', 00H, 'E', 00H
	DB	'_', 00H, 'S', 00H, 'E', 00H, 'T', 00H, 'C', 00H, 'O', 00H, 'N'
	DB	00H, 'T', 00H, 'E', 00H, 'X', 00H, 'T', 00H, '(', 00H, '0', 00H
	DB	'x', 00H, '0', 00H, '2', 00H, '8', 00H, '1', 00H, ')', 00H, 00H
	DB	00H
	ORG $+4
$SG79933 DB	'W', 00H, 'M', 00H, '_', 00H, 'P', 00H, 'O', 00H, 'I', 00H
	DB	'N', 00H, 'T', 00H, 'E', 00H, 'R', 00H, 'R', 00H, 'O', 00H, 'U'
	DB	00H, 'T', 00H, 'E', 00H, 'D', 00H, 'R', 00H, 'E', 00H, 'L', 00H
	DB	'E', 00H, 'A', 00H, 'S', 00H, 'E', 00H, 'D', 00H, '(', 00H, '0'
	DB	00H, 'x', 00H, '0', 00H, '2', 00H, '5', 00H, '3', 00H, ')', 00H
	DB	00H, 00H
	ORG $+6
$SG79937 DB	'W', 00H, 'M', 00H, '_', 00H, 'I', 00H, 'M', 00H, 'E', 00H
	DB	'_', 00H, 'N', 00H, 'O', 00H, 'T', 00H, 'I', 00H, 'F', 00H, 'Y'
	DB	00H, '(', 00H, '0', 00H, 'x', 00H, '0', 00H, '2', 00H, '8', 00H
	DB	'2', 00H, ')', 00H, 00H, 00H
	ORG $+4
$SG88131 DB	'W', 00H, ':', 00H, '\', 00H, 'c', 00H, 'p', 00H, 'p', 00H
	DB	'\', 00H, 'v', 00H, 'o', 00H, 'i', 00H, 'd', 00H, '\', 00H, 'v'
	DB	00H, 'e', 00H, 'n', 00H, 'd', 00H, 'o', 00H, 'r', 00H, '\', 00H
	DB	's', 00H, 't', 00H, 'b', 00H, '\', 00H, 's', 00H, 't', 00H, 'b'
	DB	00H, '.', 00H, 'h', 00H, 00H, 00H
	ORG $+6
$SG79939 DB	'W', 00H, 'M', 00H, '_', 00H, 'I', 00H, 'M', 00H, 'E', 00H
	DB	'_', 00H, 'C', 00H, 'O', 00H, 'N', 00H, 'T', 00H, 'R', 00H, 'O'
	DB	00H, 'L', 00H, '(', 00H, '0', 00H, 'x', 00H, '0', 00H, '2', 00H
	DB	'8', 00H, '3', 00H, ')', 00H, 00H, 00H
	ORG $+2
$SG79945 DB	'W', 00H, 'M', 00H, '_', 00H, 'I', 00H, 'M', 00H, 'E', 00H
	DB	'_', 00H, 'C', 00H, 'H', 00H, 'A', 00H, 'R', 00H, '(', 00H, '0'
	DB	00H, 'x', 00H, '0', 00H, '2', 00H, '8', 00H, '6', 00H, ')', 00H
	DB	00H, 00H
$SG88132 DB	'!', 00H, 'z', 00H, '-', 00H, '>', 00H, 'd', 00H, 'a', 00H
	DB	't', 00H, 'a', 00H, ' ', 00H, '|', 00H, '|', 00H, ' ', 00H, 's'
	DB	00H, 't', 00H, 'b', 00H, '_', 00H, 'a', 00H, 'r', 00H, 'r', 00H
	DB	'h', 00H, 'e', 00H, 'a', 00H, 'd', 00H, '(', 00H, 'z', 00H, '-'
	DB	00H, '>', 00H, 'd', 00H, 'a', 00H, 't', 00H, 'a', 00H, ')', 00H
	DB	'-', 00H, '>', 00H, 's', 00H, 'i', 00H, 'g', 00H, 'n', 00H, 'a'
	DB	00H, 't', 00H, 'u', 00H, 'r', 00H, 'e', 00H, ' ', 00H, '=', 00H
	DB	'=', 00H, ' ', 00H, 's', 00H, 't', 00H, 'b', 00H, '_', 00H, 'a'
	DB	00H, 'r', 00H, 'r', 00H, '_', 00H, 's', 00H, 'i', 00H, 'g', 00H
	DB	'n', 00H, 'a', 00H, 't', 00H, 'u', 00H, 'r', 00H, 'e', 00H, 00H
	DB	00H
	ORG $+6
$SG79941 DB	'W', 00H, 'M', 00H, '_', 00H, 'I', 00H, 'M', 00H, 'E', 00H
	DB	'_', 00H, 'C', 00H, 'O', 00H, 'M', 00H, 'P', 00H, 'O', 00H, 'S'
	DB	00H, 'I', 00H, 'T', 00H, 'I', 00H, 'O', 00H, 'N', 00H, 'F', 00H
	DB	'U', 00H, 'L', 00H, 'L', 00H, '(', 00H, '0', 00H, 'x', 00H, '0'
	DB	00H, '2', 00H, '8', 00H, '4', 00H, ')', 00H, 00H, 00H
	ORG $+2
$SG79943 DB	'W', 00H, 'M', 00H, '_', 00H, 'I', 00H, 'M', 00H, 'E', 00H
	DB	'_', 00H, 'S', 00H, 'E', 00H, 'L', 00H, 'E', 00H, 'C', 00H, 'T'
	DB	00H, '(', 00H, '0', 00H, 'x', 00H, '0', 00H, '2', 00H, '8', 00H
	DB	'5', 00H, ')', 00H, 00H, 00H
	ORG $+4
$SG96330 DB	'outofmem', 00H
	ORG $+7
$SG79947 DB	'W', 00H, 'M', 00H, '_', 00H, 'I', 00H, 'M', 00H, 'E', 00H
	DB	'_', 00H, 'R', 00H, 'E', 00H, 'Q', 00H, 'U', 00H, 'E', 00H, 'S'
	DB	00H, 'T', 00H, '(', 00H, '0', 00H, 'x', 00H, '0', 00H, '2', 00H
	DB	'8', 00H, '8', 00H, ')', 00H, 00H, 00H
	ORG $+2
$SG79949 DB	'W', 00H, 'M', 00H, '_', 00H, 'I', 00H, 'M', 00H, 'E', 00H
	DB	'_', 00H, 'K', 00H, 'E', 00H, 'Y', 00H, 'D', 00H, 'O', 00H, 'W'
	DB	00H, 'N', 00H, '(', 00H, '0', 00H, 'x', 00H, '0', 00H, '2', 00H
	DB	'9', 00H, '0', 00H, ')', 00H, 00H, 00H
	ORG $+2
$SG79951 DB	'W', 00H, 'M', 00H, '_', 00H, 'I', 00H, 'M', 00H, 'E', 00H
	DB	'_', 00H, 'K', 00H, 'E', 00H, 'Y', 00H, 'U', 00H, 'P', 00H, '('
	DB	00H, '0', 00H, 'x', 00H, '0', 00H, '2', 00H, '9', 00H, '1', 00H
	DB	')', 00H, 00H, 00H
	ORG $+6
$SG79953 DB	'W', 00H, 'M', 00H, '_', 00H, 'M', 00H, 'O', 00H, 'U', 00H
	DB	'S', 00H, 'E', 00H, 'H', 00H, 'O', 00H, 'V', 00H, 'E', 00H, 'R'
	DB	00H, '(', 00H, '0', 00H, 'x', 00H, '0', 00H, '2', 00H, 'A', 00H
	DB	'1', 00H, ')', 00H, 00H, 00H
	ORG $+4
$SG79955 DB	'W', 00H, 'M', 00H, '_', 00H, 'M', 00H, 'O', 00H, 'U', 00H
	DB	'S', 00H, 'E', 00H, 'L', 00H, 'E', 00H, 'A', 00H, 'V', 00H, 'E'
	DB	00H, '(', 00H, '0', 00H, 'x', 00H, '0', 00H, '2', 00H, 'A', 00H
	DB	'3', 00H, ')', 00H, 00H, 00H
	ORG $+4
$SG79957 DB	'W', 00H, 'M', 00H, '_', 00H, 'N', 00H, 'C', 00H, 'M', 00H
	DB	'O', 00H, 'U', 00H, 'S', 00H, 'E', 00H, 'H', 00H, 'O', 00H, 'V'
	DB	00H, 'E', 00H, 'R', 00H, '(', 00H, '0', 00H, 'x', 00H, '0', 00H
	DB	'2', 00H, 'A', 00H, '0', 00H, ')', 00H, 00H, 00H
$SG79959 DB	'W', 00H, 'M', 00H, '_', 00H, 'N', 00H, 'C', 00H, 'M', 00H
	DB	'O', 00H, 'U', 00H, 'S', 00H, 'E', 00H, 'L', 00H, 'E', 00H, 'A'
	DB	00H, 'V', 00H, 'E', 00H, '(', 00H, '0', 00H, 'x', 00H, '0', 00H
	DB	'2', 00H, 'A', 00H, '2', 00H, ')', 00H, 00H, 00H
$SG79961 DB	'W', 00H, 'M', 00H, '_', 00H, 'W', 00H, 'T', 00H, 'S', 00H
	DB	'S', 00H, 'E', 00H, 'S', 00H, 'S', 00H, 'I', 00H, 'O', 00H, 'N'
	DB	00H, '_', 00H, 'C', 00H, 'H', 00H, 'A', 00H, 'N', 00H, 'G', 00H
	DB	'E', 00H, '(', 00H, '0', 00H, 'x', 00H, '0', 00H, '2', 00H, 'B'
	DB	00H, '1', 00H, ')', 00H, 00H, 00H
	ORG $+6
$SG79963 DB	'W', 00H, 'M', 00H, '_', 00H, 'T', 00H, 'A', 00H, 'B', 00H
	DB	'L', 00H, 'E', 00H, 'T', 00H, '_', 00H, 'F', 00H, 'I', 00H, 'R'
	DB	00H, 'S', 00H, 'T', 00H, '(', 00H, '0', 00H, 'x', 00H, '0', 00H
	DB	'2', 00H, 'c', 00H, '0', 00H, ')', 00H, 00H, 00H
$SG79965 DB	'W', 00H, 'M', 00H, '_', 00H, 'T', 00H, 'A', 00H, 'B', 00H
	DB	'L', 00H, 'E', 00H, 'T', 00H, '_', 00H, 'L', 00H, 'A', 00H, 'S'
	DB	00H, 'T', 00H, '(', 00H, '0', 00H, 'x', 00H, '0', 00H, '2', 00H
	DB	'd', 00H, 'f', 00H, ')', 00H, 00H, 00H
	ORG $+2
$SG104542 DB	'i', 00H, 'n', 00H, 'v', 00H, 'a', 00H, 'l', 00H, 'i', 00H
	DB	'd', 00H, ' ', 00H, '[', 00H, 'x', 00H, ']', 00H, ' ', 00H, 'd'
	DB	00H, 'i', 00H, 'm', 00H, 'e', 00H, 'n', 00H, 's', 00H, 'i', 00H
	DB	'o', 00H, 'n', 00H, 00H, 00H
	ORG $+4
$SG104543 DB	'Location.Max.X != 0', 00H
	ORG $+4
$SG79967 DB	'W', 00H, 'M', 00H, '_', 00H, 'D', 00H, 'P', 00H, 'I', 00H
	DB	'C', 00H, 'H', 00H, 'A', 00H, 'N', 00H, 'G', 00H, 'E', 00H, 'D'
	DB	00H, '(', 00H, '0', 00H, 'x', 00H, '0', 00H, '2', 00H, 'E', 00H
	DB	'0', 00H, ')', 00H, 00H, 00H
	ORG $+4
$SG104544 DB	'ZenCreateNativeWindow', 00H
	ORG $+2
$SG104545 DB	'W:\cpp\void\detroit\brazen-window.h', 00H
	ORG $+4
$SG79969 DB	'W', 00H, 'M', 00H, '_', 00H, 'D', 00H, 'P', 00H, 'I', 00H
	DB	'C', 00H, 'H', 00H, 'A', 00H, 'N', 00H, 'G', 00H, 'E', 00H, 'D'
	DB	00H, '_', 00H, 'B', 00H, 'E', 00H, 'F', 00H, 'O', 00H, 'R', 00H
	DB	'E', 00H, 'P', 00H, 'A', 00H, 'R', 00H, 'E', 00H, 'N', 00H, 'T'
	DB	00H, '(', 00H, '0', 00H, 'x', 00H, '0', 00H, '2', 00H, 'E', 00H
	DB	'2', 00H, ')', 00H, 00H, 00H
	ORG $+2
$SG104546 DB	'i', 00H, 'n', 00H, 'v', 00H, 'a', 00H, 'l', 00H, 'i', 00H
	DB	'd', 00H, ' ', 00H, '[', 00H, 'y', 00H, ']', 00H, ' ', 00H, 'd'
	DB	00H, 'i', 00H, 'm', 00H, 'e', 00H, 'n', 00H, 's', 00H, 'i', 00H
	DB	'o', 00H, 'n', 00H, 00H, 00H
	ORG $+4
$SG104547 DB	'Location.Max.Y != 0', 00H
	ORG $+4
$SG79971 DB	'W', 00H, 'M', 00H, '_', 00H, 'D', 00H, 'P', 00H, 'I', 00H
	DB	'C', 00H, 'H', 00H, 'A', 00H, 'N', 00H, 'G', 00H, 'E', 00H, 'D'
	DB	00H, '_', 00H, 'A', 00H, 'F', 00H, 'T', 00H, 'E', 00H, 'R', 00H
	DB	'P', 00H, 'A', 00H, 'R', 00H, 'E', 00H, 'N', 00H, 'T', 00H, '('
	DB	00H, '0', 00H, 'x', 00H, '0', 00H, '2', 00H, 'E', 00H, '3', 00H
	DB	')', 00H, 00H, 00H
	ORG $+4
$SG104548 DB	'ZenCreateNativeWindow', 00H
	ORG $+2
$SG104549 DB	'W:\cpp\void\detroit\brazen-window.h', 00H
	ORG $+4
$SG79973 DB	'W', 00H, 'M', 00H, '_', 00H, 'G', 00H, 'E', 00H, 'T', 00H
	DB	'D', 00H, 'P', 00H, 'I', 00H, 'S', 00H, 'C', 00H, 'A', 00H, 'L'
	DB	00H, 'E', 00H, 'D', 00H, 'S', 00H, 'I', 00H, 'Z', 00H, 'E', 00H
	DB	'(', 00H, '0', 00H, 'x', 00H, '0', 00H, '2', 00H, 'E', 00H, '4'
	DB	00H, ')', 00H, 00H, 00H
$SG104550 DB	'Z', 00H, 'e', 00H, 'n', 00H, 'W', 00H, 'i', 00H, 'n', 00H
	DB	'd', 00H, 'o', 00H, 'w', 00H, ':', 00H, ':', 00H, '%', 00H, 's'
	DB	00H, 00H, 00H
	ORG $+4
$SG79975 DB	'W', 00H, 'M', 00H, '_', 00H, 'C', 00H, 'U', 00H, 'T', 00H
	DB	'(', 00H, '0', 00H, 'x', 00H, '0', 00H, '3', 00H, '0', 00H, '0'
	DB	00H, ')', 00H, 00H, 00H
	ORG $+2
$SG79977 DB	'W', 00H, 'M', 00H, '_', 00H, 'C', 00H, 'O', 00H, 'P', 00H
	DB	'Y', 00H, '(', 00H, '0', 00H, 'x', 00H, '0', 00H, '3', 00H, '0'
	DB	00H, '1', 00H, ')', 00H, 00H, 00H
$SG79979 DB	'W', 00H, 'M', 00H, '_', 00H, 'P', 00H, 'A', 00H, 'S', 00H
	DB	'T', 00H, 'E', 00H, '(', 00H, '0', 00H, 'x', 00H, '0', 00H, '3'
	DB	00H, '0', 00H, '2', 00H, ')', 00H, 00H, 00H
	ORG $+6
$SG104556 DB	'C', 00H, 'r', 00H, 'e', 00H, 'a', 00H, 't', 00H, 'e', 00H
	DB	'F', 00H, 'i', 00H, 'b', 00H, 'e', 00H, 'r', 00H, '(', 00H, ')'
	DB	00H, ' ', 00H, '[', 00H, 'F', 00H, 'A', 00H, 'I', 00H, 'L', 00H
	DB	'E', 00H, 'D', 00H, ']', 00H, 00H, 00H
	ORG $+2
$SG104557 DB	'ZenCreateNativeWindow', 00H
	ORG $+2
$SG79981 DB	'W', 00H, 'M', 00H, '_', 00H, 'C', 00H, 'L', 00H, 'E', 00H
	DB	'A', 00H, 'R', 00H, '(', 00H, '0', 00H, 'x', 00H, '0', 00H, '3'
	DB	00H, '0', 00H, '3', 00H, ')', 00H, 00H, 00H
	ORG $+6
$SG104558 DB	'W:\cpp\void\detroit\brazen-window.h', 00H
	ORG $+4
$SG79983 DB	'W', 00H, 'M', 00H, '_', 00H, 'U', 00H, 'N', 00H, 'D', 00H
	DB	'O', 00H, '(', 00H, '0', 00H, 'x', 00H, '0', 00H, '3', 00H, '0'
	DB	00H, '4', 00H, ')', 00H, 00H, 00H
$SG104560 DB	'S', 00H, 'e', 00H, 't', 00H, 'W', 00H, 'i', 00H, 'n', 00H
	DB	'd', 00H, 'o', 00H, 'w', 00H, 'L', 00H, 'o', 00H, 'n', 00H, 'g'
	DB	00H, 'P', 00H, 't', 00H, 'r', 00H, 'A', 00H, '(', 00H, ')', 00H
	DB	' ', 00H, '[', 00H, 'F', 00H, 'A', 00H, 'I', 00H, 'L', 00H, 'E'
	DB	00H, 'D', 00H, ']', 00H, ',', 00H, ' ', 00H, '%', 00H, 's', 00H
	DB	00H, 00H
	ORG $+6
$SG104561 DB	'ZenCreateNativeWindow', 00H
	ORG $+2
$SG79985 DB	'W', 00H, 'M', 00H, '_', 00H, 'R', 00H, 'E', 00H, 'N', 00H
	DB	'D', 00H, 'E', 00H, 'R', 00H, 'F', 00H, 'O', 00H, 'R', 00H, 'M'
	DB	00H, 'A', 00H, 'T', 00H, '(', 00H, '0', 00H, 'x', 00H, '0', 00H
	DB	'3', 00H, '0', 00H, '5', 00H, ')', 00H, 00H, 00H
$SG104562 DB	'W:\cpp\void\detroit\brazen-window.h', 00H
	ORG $+4
$SG79987 DB	'W', 00H, 'M', 00H, '_', 00H, 'R', 00H, 'E', 00H, 'N', 00H
	DB	'D', 00H, 'E', 00H, 'R', 00H, 'A', 00H, 'L', 00H, 'L', 00H, 'F'
	DB	00H, 'O', 00H, 'R', 00H, 'M', 00H, 'A', 00H, 'T', 00H, 'S', 00H
	DB	'(', 00H, '0', 00H, 'x', 00H, '0', 00H, '3', 00H, '0', 00H, '6'
	DB	00H, ')', 00H, 00H, 00H
$SG104564 DB	'G', 00H, 'e', 00H, 't', 00H, 'W', 00H, 'i', 00H, 'n', 00H
	DB	'd', 00H, 'o', 00H, 'w', 00H, 'L', 00H, 'o', 00H, 'n', 00H, 'g'
	DB	00H, 'P', 00H, 't', 00H, 'r', 00H, 'A', 00H, '(', 00H, ')', 00H
	DB	' ', 00H, '[', 00H, 'F', 00H, 'A', 00H, 'I', 00H, 'L', 00H, 'E'
	DB	00H, 'D', 00H, ']', 00H, 00H, 00H
	ORG $+6
$SG104565 DB	'ZenCreateNativeWindow', 00H
	ORG $+2
$SG79989 DB	'W', 00H, 'M', 00H, '_', 00H, 'D', 00H, 'E', 00H, 'S', 00H
	DB	'T', 00H, 'R', 00H, 'O', 00H, 'Y', 00H, 'C', 00H, 'L', 00H, 'I'
	DB	00H, 'P', 00H, 'B', 00H, 'O', 00H, 'A', 00H, 'R', 00H, 'D', 00H
	DB	'(', 00H, '0', 00H, 'x', 00H, '0', 00H, '3', 00H, '0', 00H, '7'
	DB	00H, ')', 00H, 00H, 00H
$SG104566 DB	'W:\cpp\void\detroit\brazen-window.h', 00H
	ORG $+4
$SG104567 DB	'f', 00H, 'a', 00H, 'i', 00H, 'l', 00H, 'e', 00H, 'd', 00H
	DB	' ', 00H, 't', 00H, 'o', 00H, ' ', 00H, 'c', 00H, 'r', 00H, 'e'
	DB	00H, 'a', 00H, 't', 00H, 'e', 00H, ' ', 00H, 'w', 00H, 'i', 00H
	DB	'n', 00H, 'd', 00H, 'o', 00H, 'w', 00H, 00H, 00H
$SG79991 DB	'W', 00H, 'M', 00H, '_', 00H, 'D', 00H, 'R', 00H, 'A', 00H
	DB	'W', 00H, 'C', 00H, 'L', 00H, 'I', 00H, 'P', 00H, 'B', 00H, 'O'
	DB	00H, 'A', 00H, 'R', 00H, 'D', 00H, '(', 00H, '0', 00H, 'x', 00H
	DB	'0', 00H, '3', 00H, '0', 00H, '8', 00H, ')', 00H, 00H, 00H
	ORG $+6
$SG104568 DB	'ZenCreateNativeWindow', 00H
	ORG $+2
$SG104569 DB	'W:\cpp\void\detroit\brazen-window.h', 00H
	ORG $+4
$SG79993 DB	'W', 00H, 'M', 00H, '_', 00H, 'P', 00H, 'A', 00H, 'I', 00H
	DB	'N', 00H, 'T', 00H, 'C', 00H, 'L', 00H, 'I', 00H, 'P', 00H, 'B'
	DB	00H, 'O', 00H, 'A', 00H, 'R', 00H, 'D', 00H, '(', 00H, '0', 00H
	DB	'x', 00H, '0', 00H, '3', 00H, '0', 00H, '9', 00H, ')', 00H, 00H
	DB	00H
$SG88509 DB	'.bin', 00H
	ORG $+7
$SG104570 DB	'f', 00H, 'a', 00H, 'i', 00H, 'l', 00H, 'e', 00H, 'd', 00H
	DB	' ', 00H, 't', 00H, 'o', 00H, ' ', 00H, 'r', 00H, 'e', 00H, 'g'
	DB	00H, 'i', 00H, 's', 00H, 't', 00H, 'e', 00H, 'r', 00H, ' ', 00H
	DB	'w', 00H, 'i', 00H, 'n', 00H, 'd', 00H, 'o', 00H, 'w', 00H, ' '
	DB	00H, 'c', 00H, 'l', 00H, 'a', 00H, 's', 00H, 's', 00H, 00H, 00H
$SG104571 DB	'ZenCreateNativeWindow', 00H
	ORG $+2
$SG79995 DB	'W', 00H, 'M', 00H, '_', 00H, 'V', 00H, 'S', 00H, 'C', 00H
	DB	'R', 00H, 'O', 00H, 'L', 00H, 'L', 00H, 'C', 00H, 'L', 00H, 'I'
	DB	00H, 'P', 00H, 'B', 00H, 'O', 00H, 'A', 00H, 'R', 00H, 'D', 00H
	DB	'(', 00H, '0', 00H, 'x', 00H, '0', 00H, '3', 00H, '0', 00H, 'A'
	DB	00H, ')', 00H, 00H, 00H
$SG104572 DB	'W:\cpp\void\detroit\brazen-window.h', 00H
	ORG $+4
$SG79997 DB	'W', 00H, 'M', 00H, '_', 00H, 'S', 00H, 'I', 00H, 'Z', 00H
